(dp1
S'output'
p2
S"<type 'exceptions.OSError'> [Errno 2] No such file or directory"
p3
sS'layer'
p4
S'/home/nazrul/web2py/applications/WSD_Tool/controllers/default.py'
p5
sS'code'
p6
S'# -*- coding: utf-8 -*-\n# this file is released under public domain and you can use without limitations\n\n#########################################################################\n## This is a samples controller\n## - index is the default action of any application\n## - user is required for authentication and authorization\n## - download is for downloading files uploaded in the db (does streaming)\n## - call exposes all registered services (none by default)\n#########################################################################\nimport os,subprocess\ndef index():\n    redirect(\'home\')\n    """\n    example action using the internationalization operator T and flash\n    rendered by views/default/index.html or views/generic.html\n    """\n    response.flash = "Welcome to web2py!"\n    return dict(message=T(\'Hello World\'))\n\ndef user():\n    """\n    exposes:\n    http://..../[app]/default/user/login\n    http://..../[app]/default/user/logout\n    http://..../[app]/default/user/register\n    http://..../[app]/default/user/profile\n    http://..../[app]/default/user/retrieve_password\n    http://..../[app]/default/user/change_password\n    use @auth.requires_login()\n        @auth.requires_membership(\'group name\')\n        @auth.requires_permission(\'read\',\'table name\',record_id)\n    to decorate functions that need access control\n    """\n    return dict(form=auth())\n\n\ndef download():\n    """\n    allows downloading of uploaded files\n    http://..../[app]/default/download/[filename]\n    """\n    return response.download(request,db)\n\n\ndef call():\n    """\n    exposes services. for example:\n    http://..../[app]/default/call/jsonrpc\n    decorate with @services.jsonrpc the functions to expose\n    supports xml, json, xmlrpc, jsonrpc, amfrpc, rss, csv\n    """\n    return service()\n\n\n@auth.requires_signature()\ndef data():\n    """\n    http://..../[app]/default/data/tables\n    http://..../[app]/default/data/create/[table]\n    http://..../[app]/default/data/read/[table]/[id]\n    http://..../[app]/default/data/update/[table]/[id]\n    http://..../[app]/default/data/delete/[table]/[id]\n    http://..../[app]/default/data/select/[table]\n    http://..../[app]/default/data/search/[table]\n    but URLs must be signed, i.e. linked with\n      A(\'table\',_href=URL(\'data/tables\',user_signature=True))\n    or with the signed load operator\n      LOAD(\'default\',\'data.load\',args=\'tables\',ajax=True,user_signature=True)\n    """\n    return dict(form=crud())\n\n\n\n\n@auth.requires_login()\ndef home():\n    t = auth.user.id\n    h = db(db.rules.userid==t).select()\n    g = []\n    for i in h:\n        g.append(db(db.words.id==i.wid).select(db.words.word))\n    h=[]\n    for i in g:\n        for j in i:\n            h.append(j.word) \n    h=list(set(h))\n    return dict(t=t,h=h)\n\n@auth.requires_login()\ndef word_select():\n    if not request.vars.check:\n        redirect(\'home\')\n    else:\n        check=0\n    if request.vars.submit:\n        w = request.vars.word\n        t = db(db.words).select()\n        for i in t:\n            if i.word==w:\n                session.word = w\n                session.ide = i.id\n                break\n        redirect(\'sentence_select\')\n    return dict()\n\n\n@auth.requires_login()\ndef word_selectc():\n    if not request.vars.check:\n        redirect(\'home\')\n    else:\n        check=0\n    if request.vars.submit:\n        w = request.vars.word\n        t = db(db.words).select()\n        for i in t:\n            if i.word==w:\n                session.word = w\n                session.ide = i.id\n                break\n        redirect(URL(\'sentence_selectc\',vars=dict(second=request.vars.second)))\n    return dict()\n    \n    \n    \n\n\n\n#@auth.requires_login()\n#def reason():\n#    t=session.senid\n#    pre=db((db.rules.wid==session.ide)&(db.rules.sid==session.sid)).select()\n#    c=0\n#    for i in pre:\n#        c+=1\n#    if request.vars.hindit:\n#        db.rules.insert(name=session.word+str(c),userid=auth.user.id,wid=session.ide,sid=session.sid,translation=hindit)\n#        redirect(URL(\'rel\'))\n#    return dict()\n    \n    \n@auth.requires_login()\ndef sentence_select():\n    f = \'\'\n    x = 0\n    if request.vars.submit and (request.vars.hindit):\n        t = request.vars.sentence\n        r = db(db.sentences.esentence==t).select(db.sentences.id)\n        for i in r:\n          session.sid=i.id\n          break\n        pre=db((db.rules.wid==session.ide)&(db.rules.userid==auth.user.id)).select()\n        c=0\n        f=0\n        for i in pre:\n            c+=1\n            if str(session.sid)==i.sid:\n                f=1\n                break\n        if f==0:\n            db.rules.insert(name=session.word+str(c),userid=auth.user.id,wid=session.ide,sid=session.sid,translation=request.vars.hindit)\n        redirect(URL(\'rel\'))\n    return dict(w=session.word,d=session.ide,f=f)\n\n\n@auth.requires_login()\ndef sentence_selectc():\n    f = \'\'\n    x = 0\n    if request.vars.submit:\n        t = request.vars.sentence\n        r = db(db.sentences.esentence==t).select(db.sentences.id)\n        for i in r:\n          hindit=i.id\n          session.sid=i.id\n          break\n        redirect(URL(\'reasonc\',vars=dict(hindit=hindit)))\n    return dict(w=session.word,d=session.ide,f=f)\n\n\n@auth.requires_login()\ndef reasonc():\n    t=session.sid\n    r = db(db.sentences.id==t).select(db.sentences.hsentence)\n    if request.vars.submit:\n        pre=db((db.rules.wid==session.ide)&(db.rules.userid==auth.user.id)).select()\n        c=0\n        f=0\n        for i in pre:\n            c+=1\n            print session.sid,i.sid\n            if i.sid==str(session.sid):\n                f=1\n                break\n        if f==0:\n            db.rules.insert(name=session.word+str(c),userid=auth.user.id,wid=session.ide,sid=session.sid)\n        redirect(URL(\'rel\'))\n    return dict(r=r)\n\n@auth.requires_login()\ndef delaccount():\n    if request.vars.submit:\n        db(db.auth_user.email==request.vars.email).delete()\n        redirect("home")\n    return dict()\n\n@auth.requires_login()\ndef addword():\n    if request.vars.submit:\n        db.words.insert(word=request.vars.word)\n        db.sentences.insert(esentence=request.vars.esentence,hsentence=request.vars.hsentence)\n        w = db(db.words.word==request.vars.word).select(db.words.id)\n        s = db(db.sentences.esentence==request.vars.esentence).select(db.sentences.id)\n        for i in w:\n            for j in s:\n                db.links.insert(wid=i.id,sid=j.id)\n                break\n            break\n        session.flash="Word Added"\n        redirect(\'home\')\n    return dict()\n@auth.requires_login()\ndef delword():\n    if request.vars.submit:\n        g = db(db.words.word==request.vars.word).select(db.words.id)\n        for i in g:\n            db(db.words.id==i.id).delete()\n            db(db.rules.wid==i.id).delete()\n            y = db(db.links.wid==i.id).select(db.links.sid)\n            db(db.links.wid==i.id).delete()\n            for j in y:\n                db(db.sentences.id==j.sid).delete()\n                break\n            break\n            session.flash="Word Deleted "\n        redirect(\'home\')\n    return dict()\ndef rel():\n       s=db(db.sentences.id==session.sid).select(db.sentences.esentence)\n       s=s[0].esentence\n       f=open(\'sample\',\'w\')\n       st="<TITLE> test. </TITLE> \\n <p> " + s + " </p>\\n"\n       f.write(st)\n       from subprocess import *\n       #shell_command = \'Anusaaraka_stanford.sh  sample 0 True\'\n       #event = Popen(shell_command, shell=True, stdin=PIPE, stdout=PIPE, stderr=STDOUT)\n       #event.communicate()\n       #os.system("Anusaaraka_stanford.sh sample 0 True")\n       subprocess.call(\'/home/nazrul/Dropbox/iiit/sem3/ssad/project/anu_testing/bin/Anusaaraka_stanford.sh sample 0 True\')\n       f.close()\n       f=open(\'$HOME_anu_tmp/tmp/sample_tmp/2.1/word.dat\',\'r\')\n       a=f.read()\n       f.close()\n       return dict(a=a) \n        \ndef testt():\n    v=db(db.auth_user).select()\n    return dict(v=v)\n\nresponse._vars=response._caller(rel)\n'
p7
sS'snapshot'
p8
(dp9
S'exception'
p10
(dp11
S'__getslice__'
p12
S"<method-wrapper '__getslice__' of exceptions.OSError object>"
p13
sS'__str__'
p14
S"<method-wrapper '__str__' of exceptions.OSError object>"
p15
sS'__reduce__'
p16
S'<built-in method __reduce__ of exceptions.OSError object>'
p17
sS'__dict__'
p18
S'{\'child_traceback\': \'Traceback (most recent call last):\\n  File "/usr/...st)\\nOSError: [Errno 2] No such file or directory\\n\'}'
p19
sS'__sizeof__'
p20
S'<built-in method __sizeof__ of exceptions.OSError object>'
p21
sS'__init__'
p22
S"<method-wrapper '__init__' of exceptions.OSError object>"
p23
sS'__setattr__'
p24
S"<method-wrapper '__setattr__' of exceptions.OSError object>"
p25
sS'__reduce_ex__'
p26
S'<built-in method __reduce_ex__ of exceptions.OSError object>'
p27
sS'__new__'
p28
S'<built-in method __new__ of type object>'
p29
sS'child_traceback'
p30
S'\'Traceback (most recent call last):\\n  File "/usr/...st)\\nOSError: [Errno 2] No such file or directory\\n\''
p31
sS'errno'
p32
S'2'
sS'__format__'
p33
S'<built-in method __format__ of exceptions.OSError object>'
p34
sS'__class__'
p35
S"<type 'exceptions.OSError'>"
p36
sS'filename'
p37
S'None'
p38
sS'__doc__'
p39
S"'OS system call failed.'"
p40
sS'__getitem__'
p41
S"<method-wrapper '__getitem__' of exceptions.OSError object>"
p42
sS'__setstate__'
p43
S'<built-in method __setstate__ of exceptions.OSError object>'
p44
sS'__getattribute__'
p45
S"<method-wrapper '__getattribute__' of exceptions.OSError object>"
p46
sS'args'
p47
S"(2, 'No such file or directory')"
p48
sS'__subclasshook__'
p49
S'<built-in method __subclasshook__ of type object>'
p50
sS'__unicode__'
p51
S'<built-in method __unicode__ of exceptions.OSError object>'
p52
sS'strerror'
p53
S"'No such file or directory'"
p54
sS'__delattr__'
p55
S"<method-wrapper '__delattr__' of exceptions.OSError object>"
p56
sS'__repr__'
p57
S"<method-wrapper '__repr__' of exceptions.OSError object>"
p58
sS'__hash__'
p59
S"<method-wrapper '__hash__' of exceptions.OSError object>"
p60
ssS'evalue'
p61
S'[Errno 2] No such file or directory'
p62
sS'request'
p63
ccopy_reg
_reconstructor
p64
(cgluon.html
BEAUTIFY
p65
c__builtin__
object
p66
NtRp67
(dp68
S'attributes'
p69
(dp70
sS'components'
p71
(lp72
g64
(cgluon.html
TABLE
p73
g66
NtRp74
(dp75
g69
(dp76
S'level'
p77
I5
ssS'parent'
p78
Nsg71
(lp79
g64
(cgluon.html
TR
p80
g66
NtRp81
(dp82
g69
(dp83
sg78
g74
sg71
(lp84
g64
(cgluon.html
TD
p85
g66
NtRp86
(dp87
g69
(dp88
S'_style'
p89
S'font-weight:bold;vertical-align:top'
p90
ssg78
g81
sg71
(lp91
S'ajax'
p92
asbag64
(g85
g66
NtRp93
(dp94
g69
(dp95
S'_valign'
p96
S'top'
p97
ssg78
g81
sg71
(lp98
S':'
asbag64
(g85
g66
NtRp99
(dp100
g69
(dp101
sg78
g81
sg71
(lp102
g64
(g65
g66
NtRp103
(dp104
g69
(dp105
g77
I5
ssg78
g99
sg71
(lp106
S'False'
p107
asbasbasbag64
(g80
g66
NtRp108
(dp109
g69
(dp110
sg78
g74
sg71
(lp111
g64
(g85
g66
NtRp112
(dp113
g69
(dp114
g89
g90
ssg78
g108
sg71
(lp115
S'application'
p116
asbag64
(g85
g66
NtRp117
(dp118
g69
(dp119
g96
g97
ssg78
g108
sg71
(lp120
S':'
asbag64
(g85
g66
NtRp121
(dp122
g69
(dp123
sg78
g108
sg71
(lp124
g64
(g65
g66
NtRp125
(dp126
g69
(dp127
g77
I5
ssg78
g121
sg71
(lp128
S'WSD_Tool'
p129
asbasbasbag64
(g80
g66
NtRp130
(dp131
g69
(dp132
sg78
g74
sg71
(lp133
g64
(g85
g66
NtRp134
(dp135
g69
(dp136
g89
g90
ssg78
g130
sg71
(lp137
g47
asbag64
(g85
g66
NtRp138
(dp139
g69
(dp140
g96
g97
ssg78
g130
sg71
(lp141
S':'
asbag64
(g85
g66
NtRp142
(dp143
g69
(dp144
sg78
g130
sg71
(lp145
g64
(g65
g66
NtRp146
(dp147
g69
(dp148
g77
I5
ssg78
g142
sg71
(lp149
g64
(g73
g66
NtRp150
(dp151
g69
(dp152
g77
I4
ssg78
Nsg71
(lp153
sbasbasbasbag64
(g80
g66
NtRp154
(dp155
g69
(dp156
sg78
g74
sg71
(lp157
g64
(g85
g66
NtRp158
(dp159
g69
(dp160
g89
g90
ssg78
g154
sg71
(lp161
S'body'
p162
asbag64
(g85
g66
NtRp163
(dp164
g69
(dp165
g96
g97
ssg78
g154
sg71
(lp166
S':'
asbag64
(g85
g66
NtRp167
(dp168
g69
(dp169
sg78
g154
sg71
(lp170
g64
(g65
g66
NtRp171
(dp172
g69
(dp173
g77
I5
ssg78
g167
sg71
(lp174
S'<cStringIO.StringO object at 0xadd69f80>'
p175
asbasbasbag64
(g80
g66
NtRp176
(dp177
g69
(dp178
sg78
g74
sg71
(lp179
g64
(g85
g66
NtRp180
(dp181
g69
(dp182
g89
g90
ssg78
g176
sg71
(lp183
S'cid'
p184
asbag64
(g85
g66
NtRp185
(dp186
g69
(dp187
g96
g97
ssg78
g176
sg71
(lp188
S':'
asbag64
(g85
g66
NtRp189
(dp190
g69
(dp191
sg78
g176
sg71
(lp192
g64
(g65
g66
NtRp193
(dp194
g69
(dp195
g77
I5
ssg78
g189
sg71
(lp196
S'None'
p197
asbasbasbag64
(g80
g66
NtRp198
(dp199
g69
(dp200
sg78
g74
sg71
(lp201
g64
(g85
g66
NtRp202
(dp203
g69
(dp204
g89
g90
ssg78
g198
sg71
(lp205
S'client'
p206
asbag64
(g85
g66
NtRp207
(dp208
g69
(dp209
g96
g97
ssg78
g198
sg71
(lp210
S':'
asbag64
(g85
g66
NtRp211
(dp212
g69
(dp213
sg78
g198
sg71
(lp214
g64
(g65
g66
NtRp215
(dp216
g69
(dp217
g77
I5
ssg78
g211
sg71
(lp218
S'127.0.0.1'
p219
asbasbasbag64
(g80
g66
NtRp220
(dp221
g69
(dp222
sg78
g74
sg71
(lp223
g64
(g85
g66
NtRp224
(dp225
g69
(dp226
g89
g90
ssg78
g220
sg71
(lp227
S'controller'
p228
asbag64
(g85
g66
NtRp229
(dp230
g69
(dp231
g96
g97
ssg78
g220
sg71
(lp232
S':'
asbag64
(g85
g66
NtRp233
(dp234
g69
(dp235
sg78
g220
sg71
(lp236
g64
(g65
g66
NtRp237
(dp238
g69
(dp239
g77
I5
ssg78
g233
sg71
(lp240
S'default'
p241
asbasbasbag64
(g80
g66
NtRp242
(dp243
g69
(dp244
sg78
g74
sg71
(lp245
g64
(g85
g66
NtRp246
(dp247
g69
(dp248
g89
g90
ssg78
g242
sg71
(lp249
S'cookies'
p250
asbag64
(g85
g66
NtRp251
(dp252
g69
(dp253
g96
g97
ssg78
g242
sg71
(lp254
S':'
asbag64
(g85
g66
NtRp255
(dp256
g69
(dp257
sg78
g242
sg71
(lp258
g64
(g65
g66
NtRp259
(dp260
g69
(dp261
g77
I5
ssg78
g255
sg71
(lp262
g64
(g73
g66
NtRp263
(dp264
g69
(dp265
g77
I4
ssg78
Nsg71
(lp266
g64
(g80
g66
NtRp267
(dp268
g69
(dp269
sg78
g263
sg71
(lp270
g64
(g85
g66
NtRp271
(dp272
g69
(dp273
g89
g90
ssg78
g267
sg71
(lp274
S'KBD'
p275
asbag64
(g85
g66
NtRp276
(dp277
g69
(dp278
g96
g97
ssg78
g267
sg71
(lp279
S':'
asbag64
(g85
g66
NtRp280
(dp281
g69
(dp282
sg78
g267
sg71
(lp283
g64
(g65
g66
NtRp284
(dp285
g69
(dp286
g77
I4
ssg78
g280
sg71
(lp287
S'0hi-0'
p288
ag64
(g73
g66
NtRp289
(dp290
g69
(dp291
g77
I3
ssg78
Nsg71
(lp292
g64
(g80
g66
NtRp293
(dp294
g69
(dp295
sg78
g289
sg71
(lp296
g64
(g85
g66
NtRp297
(dp298
g69
(dp299
g89
g90
ssg78
g293
sg71
(lp300
S'comment'
p301
asbag64
(g85
g66
NtRp302
(dp303
g69
(dp304
g96
g97
ssg78
g293
sg71
(lp305
S':'
asbag64
(g85
g66
NtRp306
(dp307
g69
(dp308
sg78
g293
sg71
(lp309
g64
(g65
g66
NtRp310
(dp311
g69
(dp312
g77
I3
ssg78
g306
sg71
(lp313
S''
asbasbasbag64
(g80
g66
NtRp314
(dp315
g69
(dp316
sg78
g289
sg71
(lp317
g64
(g85
g66
NtRp318
(dp319
g69
(dp320
g89
g90
ssg78
g314
sg71
(lp321
S'domain'
p322
asbag64
(g85
g66
NtRp323
(dp324
g69
(dp325
g96
g97
ssg78
g314
sg71
(lp326
S':'
asbag64
(g85
g66
NtRp327
(dp328
g69
(dp329
sg78
g314
sg71
(lp330
g64
(g65
g66
NtRp331
(dp332
g69
(dp333
g77
I3
ssg78
g327
sg71
(lp334
S''
asbasbasbag64
(g80
g66
NtRp335
(dp336
g69
(dp337
sg78
g289
sg71
(lp338
g64
(g85
g66
NtRp339
(dp340
g69
(dp341
g89
g90
ssg78
g335
sg71
(lp342
S'expires'
p343
asbag64
(g85
g66
NtRp344
(dp345
g69
(dp346
g96
g97
ssg78
g335
sg71
(lp347
S':'
asbag64
(g85
g66
NtRp348
(dp349
g69
(dp350
sg78
g335
sg71
(lp351
g64
(g65
g66
NtRp352
(dp353
g69
(dp354
g77
I3
ssg78
g348
sg71
(lp355
S''
asbasbasbag64
(g80
g66
NtRp356
(dp357
g69
(dp358
sg78
g289
sg71
(lp359
g64
(g85
g66
NtRp360
(dp361
g69
(dp362
g89
g90
ssg78
g356
sg71
(lp363
S'httponly'
p364
asbag64
(g85
g66
NtRp365
(dp366
g69
(dp367
g96
g97
ssg78
g356
sg71
(lp368
S':'
asbag64
(g85
g66
NtRp369
(dp370
g69
(dp371
sg78
g356
sg71
(lp372
g64
(g65
g66
NtRp373
(dp374
g69
(dp375
g77
I3
ssg78
g369
sg71
(lp376
S''
asbasbasbag64
(g80
g66
NtRp377
(dp378
g69
(dp379
sg78
g289
sg71
(lp380
g64
(g85
g66
NtRp381
(dp382
g69
(dp383
g89
g90
ssg78
g377
sg71
(lp384
S'max-age'
p385
asbag64
(g85
g66
NtRp386
(dp387
g69
(dp388
g96
g97
ssg78
g377
sg71
(lp389
S':'
asbag64
(g85
g66
NtRp390
(dp391
g69
(dp392
sg78
g377
sg71
(lp393
g64
(g65
g66
NtRp394
(dp395
g69
(dp396
g77
I3
ssg78
g390
sg71
(lp397
S''
asbasbasbag64
(g80
g66
NtRp398
(dp399
g69
(dp400
sg78
g289
sg71
(lp401
g64
(g85
g66
NtRp402
(dp403
g69
(dp404
g89
g90
ssg78
g398
sg71
(lp405
S'path'
p406
asbag64
(g85
g66
NtRp407
(dp408
g69
(dp409
g96
g97
ssg78
g398
sg71
(lp410
S':'
asbag64
(g85
g66
NtRp411
(dp412
g69
(dp413
sg78
g398
sg71
(lp414
g64
(g65
g66
NtRp415
(dp416
g69
(dp417
g77
I3
ssg78
g411
sg71
(lp418
S''
asbasbasbag64
(g80
g66
NtRp419
(dp420
g69
(dp421
sg78
g289
sg71
(lp422
g64
(g85
g66
NtRp423
(dp424
g69
(dp425
g89
g90
ssg78
g419
sg71
(lp426
S'secure'
p427
asbag64
(g85
g66
NtRp428
(dp429
g69
(dp430
g96
g97
ssg78
g419
sg71
(lp431
S':'
asbag64
(g85
g66
NtRp432
(dp433
g69
(dp434
sg78
g419
sg71
(lp435
g64
(g65
g66
NtRp436
(dp437
g69
(dp438
g77
I3
ssg78
g432
sg71
(lp439
S''
asbasbasbag64
(g80
g66
NtRp440
(dp441
g69
(dp442
sg78
g289
sg71
(lp443
g64
(g85
g66
NtRp444
(dp445
g69
(dp446
g89
g90
ssg78
g440
sg71
(lp447
S'version'
p448
asbag64
(g85
g66
NtRp449
(dp450
g69
(dp451
g96
g97
ssg78
g440
sg71
(lp452
S':'
asbag64
(g85
g66
NtRp453
(dp454
g69
(dp455
sg78
g440
sg71
(lp456
g64
(g65
g66
NtRp457
(dp458
g69
(dp459
g77
I3
ssg78
g453
sg71
(lp460
S''
asbasbasbasbasbasbasbag64
(g80
g66
NtRp461
(dp462
g69
(dp463
sg78
g263
sg71
(lp464
g64
(g85
g66
NtRp465
(dp466
g69
(dp467
g89
g90
ssg78
g461
sg71
(lp468
S'session_id_admin'
p469
asbag64
(g85
g66
NtRp470
(dp471
g69
(dp472
g96
g97
ssg78
g461
sg71
(lp473
S':'
asbag64
(g85
g66
NtRp474
(dp475
g69
(dp476
sg78
g461
sg71
(lp477
g64
(g65
g66
NtRp478
(dp479
g69
(dp480
g77
I4
ssg78
g474
sg71
(lp481
S'127.0.0.1-634e911d-1fde-455e-a6e2-97efd4213cb7'
p482
ag64
(g73
g66
NtRp483
(dp484
g69
(dp485
g77
I3
ssg78
Nsg71
(lp486
g64
(g80
g66
NtRp487
(dp488
g69
(dp489
sg78
g483
sg71
(lp490
g64
(g85
g66
NtRp491
(dp492
g69
(dp493
g89
g90
ssg78
g487
sg71
(lp494
g301
asbag64
(g85
g66
NtRp495
(dp496
g69
(dp497
g96
g97
ssg78
g487
sg71
(lp498
S':'
asbag64
(g85
g66
NtRp499
(dp500
g69
(dp501
sg78
g487
sg71
(lp502
g64
(g65
g66
NtRp503
(dp504
g69
(dp505
g77
I3
ssg78
g499
sg71
(lp506
S''
asbasbasbag64
(g80
g66
NtRp507
(dp508
g69
(dp509
sg78
g483
sg71
(lp510
g64
(g85
g66
NtRp511
(dp512
g69
(dp513
g89
g90
ssg78
g507
sg71
(lp514
g322
asbag64
(g85
g66
NtRp515
(dp516
g69
(dp517
g96
g97
ssg78
g507
sg71
(lp518
S':'
asbag64
(g85
g66
NtRp519
(dp520
g69
(dp521
sg78
g507
sg71
(lp522
g64
(g65
g66
NtRp523
(dp524
g69
(dp525
g77
I3
ssg78
g519
sg71
(lp526
S''
asbasbasbag64
(g80
g66
NtRp527
(dp528
g69
(dp529
sg78
g483
sg71
(lp530
g64
(g85
g66
NtRp531
(dp532
g69
(dp533
g89
g90
ssg78
g527
sg71
(lp534
g343
asbag64
(g85
g66
NtRp535
(dp536
g69
(dp537
g96
g97
ssg78
g527
sg71
(lp538
S':'
asbag64
(g85
g66
NtRp539
(dp540
g69
(dp541
sg78
g527
sg71
(lp542
g64
(g65
g66
NtRp543
(dp544
g69
(dp545
g77
I3
ssg78
g539
sg71
(lp546
S''
asbasbasbag64
(g80
g66
NtRp547
(dp548
g69
(dp549
sg78
g483
sg71
(lp550
g64
(g85
g66
NtRp551
(dp552
g69
(dp553
g89
g90
ssg78
g547
sg71
(lp554
g364
asbag64
(g85
g66
NtRp555
(dp556
g69
(dp557
g96
g97
ssg78
g547
sg71
(lp558
S':'
asbag64
(g85
g66
NtRp559
(dp560
g69
(dp561
sg78
g547
sg71
(lp562
g64
(g65
g66
NtRp563
(dp564
g69
(dp565
g77
I3
ssg78
g559
sg71
(lp566
S''
asbasbasbag64
(g80
g66
NtRp567
(dp568
g69
(dp569
sg78
g483
sg71
(lp570
g64
(g85
g66
NtRp571
(dp572
g69
(dp573
g89
g90
ssg78
g567
sg71
(lp574
g385
asbag64
(g85
g66
NtRp575
(dp576
g69
(dp577
g96
g97
ssg78
g567
sg71
(lp578
S':'
asbag64
(g85
g66
NtRp579
(dp580
g69
(dp581
sg78
g567
sg71
(lp582
g64
(g65
g66
NtRp583
(dp584
g69
(dp585
g77
I3
ssg78
g579
sg71
(lp586
S''
asbasbasbag64
(g80
g66
NtRp587
(dp588
g69
(dp589
sg78
g483
sg71
(lp590
g64
(g85
g66
NtRp591
(dp592
g69
(dp593
g89
g90
ssg78
g587
sg71
(lp594
g406
asbag64
(g85
g66
NtRp595
(dp596
g69
(dp597
g96
g97
ssg78
g587
sg71
(lp598
S':'
asbag64
(g85
g66
NtRp599
(dp600
g69
(dp601
sg78
g587
sg71
(lp602
g64
(g65
g66
NtRp603
(dp604
g69
(dp605
g77
I3
ssg78
g599
sg71
(lp606
S''
asbasbasbag64
(g80
g66
NtRp607
(dp608
g69
(dp609
sg78
g483
sg71
(lp610
g64
(g85
g66
NtRp611
(dp612
g69
(dp613
g89
g90
ssg78
g607
sg71
(lp614
g427
asbag64
(g85
g66
NtRp615
(dp616
g69
(dp617
g96
g97
ssg78
g607
sg71
(lp618
S':'
asbag64
(g85
g66
NtRp619
(dp620
g69
(dp621
sg78
g607
sg71
(lp622
g64
(g65
g66
NtRp623
(dp624
g69
(dp625
g77
I3
ssg78
g619
sg71
(lp626
S''
asbasbasbag64
(g80
g66
NtRp627
(dp628
g69
(dp629
sg78
g483
sg71
(lp630
g64
(g85
g66
NtRp631
(dp632
g69
(dp633
g89
g90
ssg78
g627
sg71
(lp634
g448
asbag64
(g85
g66
NtRp635
(dp636
g69
(dp637
g96
g97
ssg78
g627
sg71
(lp638
S':'
asbag64
(g85
g66
NtRp639
(dp640
g69
(dp641
sg78
g627
sg71
(lp642
g64
(g65
g66
NtRp643
(dp644
g69
(dp645
g77
I3
ssg78
g639
sg71
(lp646
S''
asbasbasbasbasbasbasbag64
(g80
g66
NtRp647
(dp648
g69
(dp649
sg78
g263
sg71
(lp650
g64
(g85
g66
NtRp651
(dp652
g69
(dp653
g89
g90
ssg78
g647
sg71
(lp654
S'session_id_welcome'
p655
asbag64
(g85
g66
NtRp656
(dp657
g69
(dp658
g96
g97
ssg78
g647
sg71
(lp659
S':'
asbag64
(g85
g66
NtRp660
(dp661
g69
(dp662
sg78
g647
sg71
(lp663
g64
(g65
g66
NtRp664
(dp665
g69
(dp666
g77
I4
ssg78
g660
sg71
(lp667
S'127.0.0.1-fcddb8ed-ee0c-4d28-bfa6-6fd1606b92e1'
p668
ag64
(g73
g66
NtRp669
(dp670
g69
(dp671
g77
I3
ssg78
Nsg71
(lp672
g64
(g80
g66
NtRp673
(dp674
g69
(dp675
sg78
g669
sg71
(lp676
g64
(g85
g66
NtRp677
(dp678
g69
(dp679
g89
g90
ssg78
g673
sg71
(lp680
g301
asbag64
(g85
g66
NtRp681
(dp682
g69
(dp683
g96
g97
ssg78
g673
sg71
(lp684
S':'
asbag64
(g85
g66
NtRp685
(dp686
g69
(dp687
sg78
g673
sg71
(lp688
g64
(g65
g66
NtRp689
(dp690
g69
(dp691
g77
I3
ssg78
g685
sg71
(lp692
S''
asbasbasbag64
(g80
g66
NtRp693
(dp694
g69
(dp695
sg78
g669
sg71
(lp696
g64
(g85
g66
NtRp697
(dp698
g69
(dp699
g89
g90
ssg78
g693
sg71
(lp700
g322
asbag64
(g85
g66
NtRp701
(dp702
g69
(dp703
g96
g97
ssg78
g693
sg71
(lp704
S':'
asbag64
(g85
g66
NtRp705
(dp706
g69
(dp707
sg78
g693
sg71
(lp708
g64
(g65
g66
NtRp709
(dp710
g69
(dp711
g77
I3
ssg78
g705
sg71
(lp712
S''
asbasbasbag64
(g80
g66
NtRp713
(dp714
g69
(dp715
sg78
g669
sg71
(lp716
g64
(g85
g66
NtRp717
(dp718
g69
(dp719
g89
g90
ssg78
g713
sg71
(lp720
g343
asbag64
(g85
g66
NtRp721
(dp722
g69
(dp723
g96
g97
ssg78
g713
sg71
(lp724
S':'
asbag64
(g85
g66
NtRp725
(dp726
g69
(dp727
sg78
g713
sg71
(lp728
g64
(g65
g66
NtRp729
(dp730
g69
(dp731
g77
I3
ssg78
g725
sg71
(lp732
S''
asbasbasbag64
(g80
g66
NtRp733
(dp734
g69
(dp735
sg78
g669
sg71
(lp736
g64
(g85
g66
NtRp737
(dp738
g69
(dp739
g89
g90
ssg78
g733
sg71
(lp740
g364
asbag64
(g85
g66
NtRp741
(dp742
g69
(dp743
g96
g97
ssg78
g733
sg71
(lp744
S':'
asbag64
(g85
g66
NtRp745
(dp746
g69
(dp747
sg78
g733
sg71
(lp748
g64
(g65
g66
NtRp749
(dp750
g69
(dp751
g77
I3
ssg78
g745
sg71
(lp752
S''
asbasbasbag64
(g80
g66
NtRp753
(dp754
g69
(dp755
sg78
g669
sg71
(lp756
g64
(g85
g66
NtRp757
(dp758
g69
(dp759
g89
g90
ssg78
g753
sg71
(lp760
g385
asbag64
(g85
g66
NtRp761
(dp762
g69
(dp763
g96
g97
ssg78
g753
sg71
(lp764
S':'
asbag64
(g85
g66
NtRp765
(dp766
g69
(dp767
sg78
g753
sg71
(lp768
g64
(g65
g66
NtRp769
(dp770
g69
(dp771
g77
I3
ssg78
g765
sg71
(lp772
S''
asbasbasbag64
(g80
g66
NtRp773
(dp774
g69
(dp775
sg78
g669
sg71
(lp776
g64
(g85
g66
NtRp777
(dp778
g69
(dp779
g89
g90
ssg78
g773
sg71
(lp780
g406
asbag64
(g85
g66
NtRp781
(dp782
g69
(dp783
g96
g97
ssg78
g773
sg71
(lp784
S':'
asbag64
(g85
g66
NtRp785
(dp786
g69
(dp787
sg78
g773
sg71
(lp788
g64
(g65
g66
NtRp789
(dp790
g69
(dp791
g77
I3
ssg78
g785
sg71
(lp792
S''
asbasbasbag64
(g80
g66
NtRp793
(dp794
g69
(dp795
sg78
g669
sg71
(lp796
g64
(g85
g66
NtRp797
(dp798
g69
(dp799
g89
g90
ssg78
g793
sg71
(lp800
g427
asbag64
(g85
g66
NtRp801
(dp802
g69
(dp803
g96
g97
ssg78
g793
sg71
(lp804
S':'
asbag64
(g85
g66
NtRp805
(dp806
g69
(dp807
sg78
g793
sg71
(lp808
g64
(g65
g66
NtRp809
(dp810
g69
(dp811
g77
I3
ssg78
g805
sg71
(lp812
S''
asbasbasbag64
(g80
g66
NtRp813
(dp814
g69
(dp815
sg78
g669
sg71
(lp816
g64
(g85
g66
NtRp817
(dp818
g69
(dp819
g89
g90
ssg78
g813
sg71
(lp820
g448
asbag64
(g85
g66
NtRp821
(dp822
g69
(dp823
g96
g97
ssg78
g813
sg71
(lp824
S':'
asbag64
(g85
g66
NtRp825
(dp826
g69
(dp827
sg78
g813
sg71
(lp828
g64
(g65
g66
NtRp829
(dp830
g69
(dp831
g77
I3
ssg78
g825
sg71
(lp832
S''
asbasbasbasbasbasbasbag64
(g80
g66
NtRp833
(dp834
g69
(dp835
sg78
g263
sg71
(lp836
g64
(g85
g66
NtRp837
(dp838
g69
(dp839
g89
g90
ssg78
g833
sg71
(lp840
S'session_id_wsd_tool'
p841
asbag64
(g85
g66
NtRp842
(dp843
g69
(dp844
g96
g97
ssg78
g833
sg71
(lp845
S':'
asbag64
(g85
g66
NtRp846
(dp847
g69
(dp848
sg78
g833
sg71
(lp849
g64
(g65
g66
NtRp850
(dp851
g69
(dp852
g77
I4
ssg78
g846
sg71
(lp853
S'127.0.0.1-1b9513ff-7a4a-46e3-9d60-f0b6086e5c03'
p854
ag64
(g73
g66
NtRp855
(dp856
g69
(dp857
g77
I3
ssg78
Nsg71
(lp858
g64
(g80
g66
NtRp859
(dp860
g69
(dp861
sg78
g855
sg71
(lp862
g64
(g85
g66
NtRp863
(dp864
g69
(dp865
g89
g90
ssg78
g859
sg71
(lp866
g301
asbag64
(g85
g66
NtRp867
(dp868
g69
(dp869
g96
g97
ssg78
g859
sg71
(lp870
S':'
asbag64
(g85
g66
NtRp871
(dp872
g69
(dp873
sg78
g859
sg71
(lp874
g64
(g65
g66
NtRp875
(dp876
g69
(dp877
g77
I3
ssg78
g871
sg71
(lp878
S''
asbasbasbag64
(g80
g66
NtRp879
(dp880
g69
(dp881
sg78
g855
sg71
(lp882
g64
(g85
g66
NtRp883
(dp884
g69
(dp885
g89
g90
ssg78
g879
sg71
(lp886
g322
asbag64
(g85
g66
NtRp887
(dp888
g69
(dp889
g96
g97
ssg78
g879
sg71
(lp890
S':'
asbag64
(g85
g66
NtRp891
(dp892
g69
(dp893
sg78
g879
sg71
(lp894
g64
(g65
g66
NtRp895
(dp896
g69
(dp897
g77
I3
ssg78
g891
sg71
(lp898
S''
asbasbasbag64
(g80
g66
NtRp899
(dp900
g69
(dp901
sg78
g855
sg71
(lp902
g64
(g85
g66
NtRp903
(dp904
g69
(dp905
g89
g90
ssg78
g899
sg71
(lp906
g343
asbag64
(g85
g66
NtRp907
(dp908
g69
(dp909
g96
g97
ssg78
g899
sg71
(lp910
S':'
asbag64
(g85
g66
NtRp911
(dp912
g69
(dp913
sg78
g899
sg71
(lp914
g64
(g65
g66
NtRp915
(dp916
g69
(dp917
g77
I3
ssg78
g911
sg71
(lp918
S''
asbasbasbag64
(g80
g66
NtRp919
(dp920
g69
(dp921
sg78
g855
sg71
(lp922
g64
(g85
g66
NtRp923
(dp924
g69
(dp925
g89
g90
ssg78
g919
sg71
(lp926
g364
asbag64
(g85
g66
NtRp927
(dp928
g69
(dp929
g96
g97
ssg78
g919
sg71
(lp930
S':'
asbag64
(g85
g66
NtRp931
(dp932
g69
(dp933
sg78
g919
sg71
(lp934
g64
(g65
g66
NtRp935
(dp936
g69
(dp937
g77
I3
ssg78
g931
sg71
(lp938
S''
asbasbasbag64
(g80
g66
NtRp939
(dp940
g69
(dp941
sg78
g855
sg71
(lp942
g64
(g85
g66
NtRp943
(dp944
g69
(dp945
g89
g90
ssg78
g939
sg71
(lp946
g385
asbag64
(g85
g66
NtRp947
(dp948
g69
(dp949
g96
g97
ssg78
g939
sg71
(lp950
S':'
asbag64
(g85
g66
NtRp951
(dp952
g69
(dp953
sg78
g939
sg71
(lp954
g64
(g65
g66
NtRp955
(dp956
g69
(dp957
g77
I3
ssg78
g951
sg71
(lp958
S''
asbasbasbag64
(g80
g66
NtRp959
(dp960
g69
(dp961
sg78
g855
sg71
(lp962
g64
(g85
g66
NtRp963
(dp964
g69
(dp965
g89
g90
ssg78
g959
sg71
(lp966
g406
asbag64
(g85
g66
NtRp967
(dp968
g69
(dp969
g96
g97
ssg78
g959
sg71
(lp970
S':'
asbag64
(g85
g66
NtRp971
(dp972
g69
(dp973
sg78
g959
sg71
(lp974
g64
(g65
g66
NtRp975
(dp976
g69
(dp977
g77
I3
ssg78
g971
sg71
(lp978
S''
asbasbasbag64
(g80
g66
NtRp979
(dp980
g69
(dp981
sg78
g855
sg71
(lp982
g64
(g85
g66
NtRp983
(dp984
g69
(dp985
g89
g90
ssg78
g979
sg71
(lp986
g427
asbag64
(g85
g66
NtRp987
(dp988
g69
(dp989
g96
g97
ssg78
g979
sg71
(lp990
S':'
asbag64
(g85
g66
NtRp991
(dp992
g69
(dp993
sg78
g979
sg71
(lp994
g64
(g65
g66
NtRp995
(dp996
g69
(dp997
g77
I3
ssg78
g991
sg71
(lp998
S''
asbasbasbag64
(g80
g66
NtRp999
(dp1000
g69
(dp1001
sg78
g855
sg71
(lp1002
g64
(g85
g66
NtRp1003
(dp1004
g69
(dp1005
g89
g90
ssg78
g999
sg71
(lp1006
g448
asbag64
(g85
g66
NtRp1007
(dp1008
g69
(dp1009
g96
g97
ssg78
g999
sg71
(lp1010
S':'
asbag64
(g85
g66
NtRp1011
(dp1012
g69
(dp1013
sg78
g999
sg71
(lp1014
g64
(g65
g66
NtRp1015
(dp1016
g69
(dp1017
g77
I3
ssg78
g1011
sg71
(lp1018
S''
asbasbasbasbasbasbasbasbasbasbasbag64
(g80
g66
NtRp1019
(dp1020
g69
(dp1021
sg78
g74
sg71
(lp1022
g64
(g85
g66
NtRp1023
(dp1024
g69
(dp1025
g89
g90
ssg78
g1019
sg71
(lp1026
S'env'
p1027
asbag64
(g85
g66
NtRp1028
(dp1029
g69
(dp1030
g96
g97
ssg78
g1019
sg71
(lp1031
S':'
asbag64
(g85
g66
NtRp1032
(dp1033
g69
(dp1034
sg78
g1019
sg71
(lp1035
g64
(g65
g66
NtRp1036
(dp1037
g69
(dp1038
g77
I5
ssg78
g1032
sg71
(lp1039
g64
(g73
g66
NtRp1040
(dp1041
g69
(dp1042
g77
I4
ssg78
Nsg71
(lp1043
g64
(g80
g66
NtRp1044
(dp1045
g69
(dp1046
sg78
g1040
sg71
(lp1047
g64
(g85
g66
NtRp1048
(dp1049
g69
(dp1050
g89
g90
ssg78
g1044
sg71
(lp1051
S'app_folders'
p1052
asbag64
(g85
g66
NtRp1053
(dp1054
g69
(dp1055
g96
g97
ssg78
g1044
sg71
(lp1056
S':'
asbag64
(g85
g66
NtRp1057
(dp1058
g69
(dp1059
sg78
g1044
sg71
(lp1060
g64
(g65
g66
NtRp1061
(dp1062
g69
(dp1063
g77
I4
ssg78
g1057
sg71
(lp1064
S"set(['/home/nazrul/web2py/applications/welcome/', '/home/nazrul/web2py/applications/WSD_Tool/', '/home/nazrul/web2py/applications/admin/'])"
p1065
asbasbasbag64
(g80
g66
NtRp1066
(dp1067
g69
(dp1068
sg78
g1040
sg71
(lp1069
g64
(g85
g66
NtRp1070
(dp1071
g69
(dp1072
g89
g90
ssg78
g1066
sg71
(lp1073
S'applications_parent'
p1074
asbag64
(g85
g66
NtRp1075
(dp1076
g69
(dp1077
g96
g97
ssg78
g1066
sg71
(lp1078
S':'
asbag64
(g85
g66
NtRp1079
(dp1080
g69
(dp1081
sg78
g1066
sg71
(lp1082
g64
(g65
g66
NtRp1083
(dp1084
g69
(dp1085
g77
I4
ssg78
g1079
sg71
(lp1086
S'/home/nazrul/web2py'
p1087
asbasbasbag64
(g80
g66
NtRp1088
(dp1089
g69
(dp1090
sg78
g1040
sg71
(lp1091
g64
(g85
g66
NtRp1092
(dp1093
g69
(dp1094
g89
g90
ssg78
g1088
sg71
(lp1095
S'cmd_args'
p1096
asbag64
(g85
g66
NtRp1097
(dp1098
g69
(dp1099
g96
g97
ssg78
g1088
sg71
(lp1100
S':'
asbag64
(g85
g66
NtRp1101
(dp1102
g69
(dp1103
sg78
g1088
sg71
(lp1104
g64
(g65
g66
NtRp1105
(dp1106
g69
(dp1107
g77
I4
ssg78
g1101
sg71
(lp1108
g64
(g73
g66
NtRp1109
(dp1110
g69
(dp1111
g77
I3
ssg78
Nsg71
(lp1112
sbasbasbasbag64
(g80
g66
NtRp1113
(dp1114
g69
(dp1115
sg78
g1040
sg71
(lp1116
g64
(g85
g66
NtRp1117
(dp1118
g69
(dp1119
g89
g90
ssg78
g1113
sg71
(lp1120
S'cmd_options'
p1121
asbag64
(g85
g66
NtRp1122
(dp1123
g69
(dp1124
g96
g97
ssg78
g1113
sg71
(lp1125
S':'
asbag64
(g85
g66
NtRp1126
(dp1127
g69
(dp1128
sg78
g1113
sg71
(lp1129
g64
(g65
g66
NtRp1130
(dp1131
g69
(dp1132
g77
I4
ssg78
g1126
sg71
(lp1133
S"<Values at 0xa44192c: {'verbose': False, 'ip': '127.0.0.1', 'with_scheduler': False, 'ips': [], 'shutdown_timeout': 5, 'taskbar': False, 'port': 8000, 'maxthreads': None, 'softcron': False, 'server_name': 'nazrul-Compaq-Presario-CQ40-Notebook-PC', 'bpython': False, 'nogui': False, 'pid_filename': 'httpserver.pid', 'extcron': False, 'runcron': False, 'run_system_tests': False, 'test': None, 'folder': '/home/nazrul/web2py', 'config': '', 'import_models': False, 'winservice': '', 'shell': None, 'run': '', 'log_filename': 'httpserver.log', 'debuglevel': 30, 'args': [''], 'socket_timeout': 5, 'ssl_ca_certificate': None, 'scheduler': None, 'profiler_filename': None, 'ssl_private_key': '', 'scheduler_groups': None, 'password': '<ask>', 'request_queue_size': 5, 'ssl_certificate': '', 'cronjob': False, 'numthreads': None, 'quiet': False, 'interfaces': None, 'minthreads': None, 'timeout': 10, 'plain': False, 'nobanner': False}>"
p1134
asbasbasbag64
(g80
g66
NtRp1135
(dp1136
g69
(dp1137
sg78
g1040
sg71
(lp1138
g64
(g85
g66
NtRp1139
(dp1140
g69
(dp1141
g89
g90
ssg78
g1135
sg71
(lp1142
S'db_sessions'
p1143
asbag64
(g85
g66
NtRp1144
(dp1145
g69
(dp1146
g96
g97
ssg78
g1135
sg71
(lp1147
S':'
asbag64
(g85
g66
NtRp1148
(dp1149
g69
(dp1150
sg78
g1135
sg71
(lp1151
g64
(g65
g66
NtRp1152
(dp1153
g69
(dp1154
g77
I4
ssg78
g1148
sg71
(lp1155
S'set([])'
p1156
asbasbasbag64
(g80
g66
NtRp1157
(dp1158
g69
(dp1159
sg78
g1040
sg71
(lp1160
g64
(g85
g66
NtRp1161
(dp1162
g69
(dp1163
g89
g90
ssg78
g1157
sg71
(lp1164
S'debugging'
p1165
asbag64
(g85
g66
NtRp1166
(dp1167
g69
(dp1168
g96
g97
ssg78
g1157
sg71
(lp1169
S':'
asbag64
(g85
g66
NtRp1170
(dp1171
g69
(dp1172
sg78
g1157
sg71
(lp1173
g64
(g65
g66
NtRp1174
(dp1175
g69
(dp1176
g77
I4
ssg78
g1170
sg71
(lp1177
g107
asbasbasbag64
(g80
g66
NtRp1178
(dp1179
g69
(dp1180
sg78
g1040
sg71
(lp1181
g64
(g85
g66
NtRp1182
(dp1183
g69
(dp1184
g89
g90
ssg78
g1178
sg71
(lp1185
S'gluon_parent'
p1186
asbag64
(g85
g66
NtRp1187
(dp1188
g69
(dp1189
g96
g97
ssg78
g1178
sg71
(lp1190
S':'
asbag64
(g85
g66
NtRp1191
(dp1192
g69
(dp1193
sg78
g1178
sg71
(lp1194
g64
(g65
g66
NtRp1195
(dp1196
g69
(dp1197
g77
I4
ssg78
g1191
sg71
(lp1198
S'/home/nazrul/web2py'
p1199
asbasbasbag64
(g80
g66
NtRp1200
(dp1201
g69
(dp1202
sg78
g1040
sg71
(lp1203
g64
(g85
g66
NtRp1204
(dp1205
g69
(dp1206
g89
g90
ssg78
g1200
sg71
(lp1207
S'http_accept'
p1208
asbag64
(g85
g66
NtRp1209
(dp1210
g69
(dp1211
g96
g97
ssg78
g1200
sg71
(lp1212
S':'
asbag64
(g85
g66
NtRp1213
(dp1214
g69
(dp1215
sg78
g1200
sg71
(lp1216
g64
(g65
g66
NtRp1217
(dp1218
g69
(dp1219
g77
I4
ssg78
g1213
sg71
(lp1220
S'text/html,application/xhtml+xml,application/xml;q=0.9,*/*;q=0.8'
p1221
asbasbasbag64
(g80
g66
NtRp1222
(dp1223
g69
(dp1224
sg78
g1040
sg71
(lp1225
g64
(g85
g66
NtRp1226
(dp1227
g69
(dp1228
g89
g90
ssg78
g1222
sg71
(lp1229
S'http_accept_encoding'
p1230
asbag64
(g85
g66
NtRp1231
(dp1232
g69
(dp1233
g96
g97
ssg78
g1222
sg71
(lp1234
S':'
asbag64
(g85
g66
NtRp1235
(dp1236
g69
(dp1237
sg78
g1222
sg71
(lp1238
g64
(g65
g66
NtRp1239
(dp1240
g69
(dp1241
g77
I4
ssg78
g1235
sg71
(lp1242
S'gzip, deflate'
p1243
asbasbasbag64
(g80
g66
NtRp1244
(dp1245
g69
(dp1246
sg78
g1040
sg71
(lp1247
g64
(g85
g66
NtRp1248
(dp1249
g69
(dp1250
g89
g90
ssg78
g1244
sg71
(lp1251
S'http_accept_language'
p1252
asbag64
(g85
g66
NtRp1253
(dp1254
g69
(dp1255
g96
g97
ssg78
g1244
sg71
(lp1256
S':'
asbag64
(g85
g66
NtRp1257
(dp1258
g69
(dp1259
sg78
g1244
sg71
(lp1260
g64
(g65
g66
NtRp1261
(dp1262
g69
(dp1263
g77
I4
ssg78
g1257
sg71
(lp1264
S'en-US,en;q=0.5'
p1265
asbasbasbag64
(g80
g66
NtRp1266
(dp1267
g69
(dp1268
sg78
g1040
sg71
(lp1269
g64
(g85
g66
NtRp1270
(dp1271
g69
(dp1272
g89
g90
ssg78
g1266
sg71
(lp1273
S'http_connection'
p1274
asbag64
(g85
g66
NtRp1275
(dp1276
g69
(dp1277
g96
g97
ssg78
g1266
sg71
(lp1278
S':'
asbag64
(g85
g66
NtRp1279
(dp1280
g69
(dp1281
sg78
g1266
sg71
(lp1282
g64
(g65
g66
NtRp1283
(dp1284
g69
(dp1285
g77
I4
ssg78
g1279
sg71
(lp1286
S'keep-alive'
p1287
asbasbasbag64
(g80
g66
NtRp1288
(dp1289
g69
(dp1290
sg78
g1040
sg71
(lp1291
g64
(g85
g66
NtRp1292
(dp1293
g69
(dp1294
g89
g90
ssg78
g1288
sg71
(lp1295
S'http_cookie'
p1296
asbag64
(g85
g66
NtRp1297
(dp1298
g69
(dp1299
g96
g97
ssg78
g1288
sg71
(lp1300
S':'
asbag64
(g85
g66
NtRp1301
(dp1302
g69
(dp1303
sg78
g1288
sg71
(lp1304
g64
(g65
g66
NtRp1305
(dp1306
g69
(dp1307
g77
I4
ssg78
g1301
sg71
(lp1308
S'KBD=0hi-0; session_id_welcome=127.0.0.1-fcddb8ed-ee0c-4d28-bfa6-6fd1606b92e1; session_id_admin=127.0.0.1-634e911d-1fde-455e-a6e2-97efd4213cb7; session_id_wsd_tool=127.0.0.1-1b9513ff-7a4a-46e3-9d60-f0b6086e5c03'
p1309
asbasbasbag64
(g80
g66
NtRp1310
(dp1311
g69
(dp1312
sg78
g1040
sg71
(lp1313
g64
(g85
g66
NtRp1314
(dp1315
g69
(dp1316
g89
g90
ssg78
g1310
sg71
(lp1317
S'http_host'
p1318
asbag64
(g85
g66
NtRp1319
(dp1320
g69
(dp1321
g96
g97
ssg78
g1310
sg71
(lp1322
S':'
asbag64
(g85
g66
NtRp1323
(dp1324
g69
(dp1325
sg78
g1310
sg71
(lp1326
g64
(g65
g66
NtRp1327
(dp1328
g69
(dp1329
g77
I4
ssg78
g1323
sg71
(lp1330
S'127.0.0.1:8000'
p1331
asbasbasbag64
(g80
g66
NtRp1332
(dp1333
g69
(dp1334
sg78
g1040
sg71
(lp1335
g64
(g85
g66
NtRp1336
(dp1337
g69
(dp1338
g89
g90
ssg78
g1332
sg71
(lp1339
S'http_user_agent'
p1340
asbag64
(g85
g66
NtRp1341
(dp1342
g69
(dp1343
g96
g97
ssg78
g1332
sg71
(lp1344
S':'
asbag64
(g85
g66
NtRp1345
(dp1346
g69
(dp1347
sg78
g1332
sg71
(lp1348
g64
(g65
g66
NtRp1349
(dp1350
g69
(dp1351
g77
I4
ssg78
g1345
sg71
(lp1352
S'Mozilla/5.0 (X11; Ubuntu; Linux i686; rv:18.0) Gecko/20100101 Firefox/18.0'
p1353
asbasbasbag64
(g80
g66
NtRp1354
(dp1355
g69
(dp1356
sg78
g1040
sg71
(lp1357
g64
(g85
g66
NtRp1358
(dp1359
g69
(dp1360
g89
g90
ssg78
g1354
sg71
(lp1361
S'is_jython'
p1362
asbag64
(g85
g66
NtRp1363
(dp1364
g69
(dp1365
g96
g97
ssg78
g1354
sg71
(lp1366
S':'
asbag64
(g85
g66
NtRp1367
(dp1368
g69
(dp1369
sg78
g1354
sg71
(lp1370
g64
(g65
g66
NtRp1371
(dp1372
g69
(dp1373
g77
I4
ssg78
g1367
sg71
(lp1374
g107
asbasbasbag64
(g80
g66
NtRp1375
(dp1376
g69
(dp1377
sg78
g1040
sg71
(lp1378
g64
(g85
g66
NtRp1379
(dp1380
g69
(dp1381
g89
g90
ssg78
g1375
sg71
(lp1382
S'is_pypy'
p1383
asbag64
(g85
g66
NtRp1384
(dp1385
g69
(dp1386
g96
g97
ssg78
g1375
sg71
(lp1387
S':'
asbag64
(g85
g66
NtRp1388
(dp1389
g69
(dp1390
sg78
g1375
sg71
(lp1391
g64
(g65
g66
NtRp1392
(dp1393
g69
(dp1394
g77
I4
ssg78
g1388
sg71
(lp1395
g107
asbasbasbag64
(g80
g66
NtRp1396
(dp1397
g69
(dp1398
sg78
g1040
sg71
(lp1399
g64
(g85
g66
NtRp1400
(dp1401
g69
(dp1402
g89
g90
ssg78
g1396
sg71
(lp1403
S'local_hosts'
p1404
asbag64
(g85
g66
NtRp1405
(dp1406
g69
(dp1407
g96
g97
ssg78
g1396
sg71
(lp1408
S':'
asbag64
(g85
g66
NtRp1409
(dp1410
g69
(dp1411
sg78
g1396
sg71
(lp1412
g64
(g65
g66
NtRp1413
(dp1414
g69
(dp1415
g77
I4
ssg78
g1409
sg71
(lp1416
g64
(g73
g66
NtRp1417
(dp1418
g69
(dp1419
g77
I3
ssg78
Nsg71
(lp1420
g64
(g80
g66
NtRp1421
(dp1422
g69
(dp1423
sg78
g1417
sg71
(lp1424
g64
(g85
g66
NtRp1425
(dp1426
g69
(dp1427
sg78
g1421
sg71
(lp1428
g64
(g65
g66
NtRp1429
(dp1430
g69
(dp1431
g77
I3
ssg78
g1425
sg71
(lp1432
S'::1'
p1433
asbasbasbag64
(g80
g66
NtRp1434
(dp1435
g69
(dp1436
sg78
g1417
sg71
(lp1437
g64
(g85
g66
NtRp1438
(dp1439
g69
(dp1440
sg78
g1434
sg71
(lp1441
g64
(g65
g66
NtRp1442
(dp1443
g69
(dp1444
g77
I3
ssg78
g1438
sg71
(lp1445
S'127.0.1.1'
p1446
asbasbasbag64
(g80
g66
NtRp1447
(dp1448
g69
(dp1449
sg78
g1417
sg71
(lp1450
g64
(g85
g66
NtRp1451
(dp1452
g69
(dp1453
sg78
g1447
sg71
(lp1454
g64
(g65
g66
NtRp1455
(dp1456
g69
(dp1457
g77
I3
ssg78
g1451
sg71
(lp1458
S'::ffff:127.0.0.1'
p1459
asbasbasbag64
(g80
g66
NtRp1460
(dp1461
g69
(dp1462
sg78
g1417
sg71
(lp1463
g64
(g85
g66
NtRp1464
(dp1465
g69
(dp1466
sg78
g1460
sg71
(lp1467
g64
(g65
g66
NtRp1468
(dp1469
g69
(dp1470
g77
I3
ssg78
g1464
sg71
(lp1471
S'127.0.0.1'
p1472
asbasbasbag64
(g80
g66
NtRp1473
(dp1474
g69
(dp1475
sg78
g1417
sg71
(lp1476
g64
(g85
g66
NtRp1477
(dp1478
g69
(dp1479
sg78
g1473
sg71
(lp1480
g64
(g65
g66
NtRp1481
(dp1482
g69
(dp1483
g77
I3
ssg78
g1477
sg71
(lp1484
S'nazrul-Compaq-Presario-CQ40-Notebook-PC'
p1485
asbasbasbasbasbasbasbag64
(g80
g66
NtRp1486
(dp1487
g69
(dp1488
sg78
g1040
sg71
(lp1489
g64
(g85
g66
NtRp1490
(dp1491
g69
(dp1492
g89
g90
ssg78
g1486
sg71
(lp1493
S'path_info'
p1494
asbag64
(g85
g66
NtRp1495
(dp1496
g69
(dp1497
g96
g97
ssg78
g1486
sg71
(lp1498
S':'
asbag64
(g85
g66
NtRp1499
(dp1500
g69
(dp1501
sg78
g1486
sg71
(lp1502
g64
(g65
g66
NtRp1503
(dp1504
g69
(dp1505
g77
I4
ssg78
g1499
sg71
(lp1506
S'/WSD_Tool/default/rel'
p1507
asbasbasbag64
(g80
g66
NtRp1508
(dp1509
g69
(dp1510
sg78
g1040
sg71
(lp1511
g64
(g85
g66
NtRp1512
(dp1513
g69
(dp1514
g89
g90
ssg78
g1508
sg71
(lp1515
S'query_string'
p1516
asbag64
(g85
g66
NtRp1517
(dp1518
g69
(dp1519
g96
g97
ssg78
g1508
sg71
(lp1520
S':'
asbag64
(g85
g66
NtRp1521
(dp1522
g69
(dp1523
sg78
g1508
sg71
(lp1524
g64
(g65
g66
NtRp1525
(dp1526
g69
(dp1527
g77
I4
ssg78
g1521
sg71
(lp1528
S''
asbasbasbag64
(g80
g66
NtRp1529
(dp1530
g69
(dp1531
sg78
g1040
sg71
(lp1532
g64
(g85
g66
NtRp1533
(dp1534
g69
(dp1535
g89
g90
ssg78
g1529
sg71
(lp1536
S'remote_addr'
p1537
asbag64
(g85
g66
NtRp1538
(dp1539
g69
(dp1540
g96
g97
ssg78
g1529
sg71
(lp1541
S':'
asbag64
(g85
g66
NtRp1542
(dp1543
g69
(dp1544
sg78
g1529
sg71
(lp1545
g64
(g65
g66
NtRp1546
(dp1547
g69
(dp1548
g77
I4
ssg78
g1542
sg71
(lp1549
g219
asbasbasbag64
(g80
g66
NtRp1550
(dp1551
g69
(dp1552
sg78
g1040
sg71
(lp1553
g64
(g85
g66
NtRp1554
(dp1555
g69
(dp1556
g89
g90
ssg78
g1550
sg71
(lp1557
S'remote_port'
p1558
asbag64
(g85
g66
NtRp1559
(dp1560
g69
(dp1561
g96
g97
ssg78
g1550
sg71
(lp1562
S':'
asbag64
(g85
g66
NtRp1563
(dp1564
g69
(dp1565
sg78
g1550
sg71
(lp1566
g64
(g65
g66
NtRp1567
(dp1568
g69
(dp1569
g77
I4
ssg78
g1563
sg71
(lp1570
S'55289'
p1571
asbasbasbag64
(g80
g66
NtRp1572
(dp1573
g69
(dp1574
sg78
g1040
sg71
(lp1575
g64
(g85
g66
NtRp1576
(dp1577
g69
(dp1578
g89
g90
ssg78
g1572
sg71
(lp1579
S'request_method'
p1580
asbag64
(g85
g66
NtRp1581
(dp1582
g69
(dp1583
g96
g97
ssg78
g1572
sg71
(lp1584
S':'
asbag64
(g85
g66
NtRp1585
(dp1586
g69
(dp1587
sg78
g1572
sg71
(lp1588
g64
(g65
g66
NtRp1589
(dp1590
g69
(dp1591
g77
I4
ssg78
g1585
sg71
(lp1592
S'GET'
p1593
asbasbasbag64
(g80
g66
NtRp1594
(dp1595
g69
(dp1596
sg78
g1040
sg71
(lp1597
g64
(g85
g66
NtRp1598
(dp1599
g69
(dp1600
g89
g90
ssg78
g1594
sg71
(lp1601
S'request_uri'
p1602
asbag64
(g85
g66
NtRp1603
(dp1604
g69
(dp1605
g96
g97
ssg78
g1594
sg71
(lp1606
S':'
asbag64
(g85
g66
NtRp1607
(dp1608
g69
(dp1609
sg78
g1594
sg71
(lp1610
g64
(g65
g66
NtRp1611
(dp1612
g69
(dp1613
g77
I4
ssg78
g1607
sg71
(lp1614
g1507
asbasbasbag64
(g80
g66
NtRp1615
(dp1616
g69
(dp1617
sg78
g1040
sg71
(lp1618
g64
(g85
g66
NtRp1619
(dp1620
g69
(dp1621
g89
g90
ssg78
g1615
sg71
(lp1622
S'script_name'
p1623
asbag64
(g85
g66
NtRp1624
(dp1625
g69
(dp1626
g96
g97
ssg78
g1615
sg71
(lp1627
S':'
asbag64
(g85
g66
NtRp1628
(dp1629
g69
(dp1630
sg78
g1615
sg71
(lp1631
g64
(g65
g66
NtRp1632
(dp1633
g69
(dp1634
g77
I4
ssg78
g1628
sg71
(lp1635
S''
asbasbasbag64
(g80
g66
NtRp1636
(dp1637
g69
(dp1638
sg78
g1040
sg71
(lp1639
g64
(g85
g66
NtRp1640
(dp1641
g69
(dp1642
g89
g90
ssg78
g1636
sg71
(lp1643
S'server_name'
p1644
asbag64
(g85
g66
NtRp1645
(dp1646
g69
(dp1647
g96
g97
ssg78
g1636
sg71
(lp1648
S':'
asbag64
(g85
g66
NtRp1649
(dp1650
g69
(dp1651
sg78
g1636
sg71
(lp1652
g64
(g65
g66
NtRp1653
(dp1654
g69
(dp1655
g77
I4
ssg78
g1649
sg71
(lp1656
S'nazrul-Compaq-Presario-CQ40-Notebook-PC'
p1657
asbasbasbag64
(g80
g66
NtRp1658
(dp1659
g69
(dp1660
sg78
g1040
sg71
(lp1661
g64
(g85
g66
NtRp1662
(dp1663
g69
(dp1664
g89
g90
ssg78
g1658
sg71
(lp1665
S'server_port'
p1666
asbag64
(g85
g66
NtRp1667
(dp1668
g69
(dp1669
g96
g97
ssg78
g1658
sg71
(lp1670
S':'
asbag64
(g85
g66
NtRp1671
(dp1672
g69
(dp1673
sg78
g1658
sg71
(lp1674
g64
(g65
g66
NtRp1675
(dp1676
g69
(dp1677
g77
I4
ssg78
g1671
sg71
(lp1678
S'8000'
p1679
asbasbasbag64
(g80
g66
NtRp1680
(dp1681
g69
(dp1682
sg78
g1040
sg71
(lp1683
g64
(g85
g66
NtRp1684
(dp1685
g69
(dp1686
g89
g90
ssg78
g1680
sg71
(lp1687
S'server_protocol'
p1688
asbag64
(g85
g66
NtRp1689
(dp1690
g69
(dp1691
g96
g97
ssg78
g1680
sg71
(lp1692
S':'
asbag64
(g85
g66
NtRp1693
(dp1694
g69
(dp1695
sg78
g1680
sg71
(lp1696
g64
(g65
g66
NtRp1697
(dp1698
g69
(dp1699
g77
I4
ssg78
g1693
sg71
(lp1700
S'HTTP/1.1'
p1701
asbasbasbag64
(g80
g66
NtRp1702
(dp1703
g69
(dp1704
sg78
g1040
sg71
(lp1705
g64
(g85
g66
NtRp1706
(dp1707
g69
(dp1708
g89
g90
ssg78
g1702
sg71
(lp1709
S'server_software'
p1710
asbag64
(g85
g66
NtRp1711
(dp1712
g69
(dp1713
g96
g97
ssg78
g1702
sg71
(lp1714
S':'
asbag64
(g85
g66
NtRp1715
(dp1716
g69
(dp1717
sg78
g1702
sg71
(lp1718
g64
(g65
g66
NtRp1719
(dp1720
g69
(dp1721
g77
I4
ssg78
g1715
sg71
(lp1722
S'Rocket 1.2.6'
p1723
asbasbasbag64
(g80
g66
NtRp1724
(dp1725
g69
(dp1726
sg78
g1040
sg71
(lp1727
g64
(g85
g66
NtRp1728
(dp1729
g69
(dp1730
g89
g90
ssg78
g1724
sg71
(lp1731
S'web2py_path'
p1732
asbag64
(g85
g66
NtRp1733
(dp1734
g69
(dp1735
g96
g97
ssg78
g1724
sg71
(lp1736
S':'
asbag64
(g85
g66
NtRp1737
(dp1738
g69
(dp1739
sg78
g1724
sg71
(lp1740
g64
(g65
g66
NtRp1741
(dp1742
g69
(dp1743
g77
I4
ssg78
g1737
sg71
(lp1744
g1087
asbasbasbag64
(g80
g66
NtRp1745
(dp1746
g69
(dp1747
sg78
g1040
sg71
(lp1748
g64
(g85
g66
NtRp1749
(dp1750
g69
(dp1751
g89
g90
ssg78
g1745
sg71
(lp1752
S'web2py_version'
p1753
asbag64
(g85
g66
NtRp1754
(dp1755
g69
(dp1756
g96
g97
ssg78
g1745
sg71
(lp1757
S':'
asbag64
(g85
g66
NtRp1758
(dp1759
g69
(dp1760
sg78
g1745
sg71
(lp1761
g64
(g65
g66
NtRp1762
(dp1763
g69
(dp1764
g77
I4
ssg78
g1758
sg71
(lp1765
g64
(g73
g66
NtRp1766
(dp1767
g69
(dp1768
g77
I3
ssg78
Nsg71
(lp1769
g64
(g80
g66
NtRp1770
(dp1771
g69
(dp1772
sg78
g1766
sg71
(lp1773
g64
(g85
g66
NtRp1774
(dp1775
g69
(dp1776
sg78
g1770
sg71
(lp1777
g64
(g65
g66
NtRp1778
(dp1779
g69
(dp1780
g77
I3
ssg78
g1774
sg71
(lp1781
S'2'
asbasbasbag64
(g80
g66
NtRp1782
(dp1783
g69
(dp1784
sg78
g1766
sg71
(lp1785
g64
(g85
g66
NtRp1786
(dp1787
g69
(dp1788
sg78
g1782
sg71
(lp1789
g64
(g65
g66
NtRp1790
(dp1791
g69
(dp1792
g77
I3
ssg78
g1786
sg71
(lp1793
S'3'
asbasbasbag64
(g80
g66
NtRp1794
(dp1795
g69
(dp1796
sg78
g1766
sg71
(lp1797
g64
(g85
g66
NtRp1798
(dp1799
g69
(dp1800
sg78
g1794
sg71
(lp1801
g64
(g65
g66
NtRp1802
(dp1803
g69
(dp1804
g77
I3
ssg78
g1798
sg71
(lp1805
S'2'
asbasbasbag64
(g80
g66
NtRp1806
(dp1807
g69
(dp1808
sg78
g1766
sg71
(lp1809
g64
(g85
g66
NtRp1810
(dp1811
g69
(dp1812
sg78
g1806
sg71
(lp1813
g64
(g65
g66
NtRp1814
(dp1815
g69
(dp1816
g77
I3
ssg78
g1810
sg71
(lp1817
S'datetime.datetime(2012, 12, 17, 15, 3, 30)'
p1818
asbasbasbag64
(g80
g66
NtRp1819
(dp1820
g69
(dp1821
sg78
g1766
sg71
(lp1822
g64
(g85
g66
NtRp1823
(dp1824
g69
(dp1825
sg78
g1819
sg71
(lp1826
g64
(g65
g66
NtRp1827
(dp1828
g69
(dp1829
g77
I3
ssg78
g1823
sg71
(lp1830
S'stable'
p1831
asbasbasbasbasbasbasbag64
(g80
g66
NtRp1832
(dp1833
g69
(dp1834
sg78
g1040
sg71
(lp1835
g64
(g85
g66
NtRp1836
(dp1837
g69
(dp1838
g89
g90
ssg78
g1832
sg71
(lp1839
S'wsgi_errors'
p1840
asbag64
(g85
g66
NtRp1841
(dp1842
g69
(dp1843
g96
g97
ssg78
g1832
sg71
(lp1844
S':'
asbag64
(g85
g66
NtRp1845
(dp1846
g69
(dp1847
sg78
g1832
sg71
(lp1848
g64
(g65
g66
NtRp1849
(dp1850
g69
(dp1851
g77
I4
ssg78
g1845
sg71
(lp1852
S"<open file '<stderr>', mode 'w' at 0xb72a80d0>"
p1853
asbasbasbag64
(g80
g66
NtRp1854
(dp1855
g69
(dp1856
sg78
g1040
sg71
(lp1857
g64
(g85
g66
NtRp1858
(dp1859
g69
(dp1860
g89
g90
ssg78
g1854
sg71
(lp1861
S'wsgi_file_wrapper'
p1862
asbag64
(g85
g66
NtRp1863
(dp1864
g69
(dp1865
g96
g97
ssg78
g1854
sg71
(lp1866
S':'
asbag64
(g85
g66
NtRp1867
(dp1868
g69
(dp1869
sg78
g1854
sg71
(lp1870
g64
(g65
g66
NtRp1871
(dp1872
g69
(dp1873
g77
I4
ssg78
g1867
sg71
(lp1874
S'<class wsgiref.util.FileWrapper at 0xa40147c>'
p1875
asbasbasbag64
(g80
g66
NtRp1876
(dp1877
g69
(dp1878
sg78
g1040
sg71
(lp1879
g64
(g85
g66
NtRp1880
(dp1881
g69
(dp1882
g89
g90
ssg78
g1876
sg71
(lp1883
S'wsgi_input'
p1884
asbag64
(g85
g66
NtRp1885
(dp1886
g69
(dp1887
g96
g97
ssg78
g1876
sg71
(lp1888
S':'
asbag64
(g85
g66
NtRp1889
(dp1890
g69
(dp1891
sg78
g1876
sg71
(lp1892
g64
(g65
g66
NtRp1893
(dp1894
g69
(dp1895
g77
I4
ssg78
g1889
sg71
(lp1896
S'<socket._fileobject object at 0xae222d6c>'
p1897
asbasbasbag64
(g80
g66
NtRp1898
(dp1899
g69
(dp1900
sg78
g1040
sg71
(lp1901
g64
(g85
g66
NtRp1902
(dp1903
g69
(dp1904
g89
g90
ssg78
g1898
sg71
(lp1905
S'wsgi_multiprocess'
p1906
asbag64
(g85
g66
NtRp1907
(dp1908
g69
(dp1909
g96
g97
ssg78
g1898
sg71
(lp1910
S':'
asbag64
(g85
g66
NtRp1911
(dp1912
g69
(dp1913
sg78
g1898
sg71
(lp1914
g64
(g65
g66
NtRp1915
(dp1916
g69
(dp1917
g77
I4
ssg78
g1911
sg71
(lp1918
g107
asbasbasbag64
(g80
g66
NtRp1919
(dp1920
g69
(dp1921
sg78
g1040
sg71
(lp1922
g64
(g85
g66
NtRp1923
(dp1924
g69
(dp1925
g89
g90
ssg78
g1919
sg71
(lp1926
S'wsgi_multithread'
p1927
asbag64
(g85
g66
NtRp1928
(dp1929
g69
(dp1930
g96
g97
ssg78
g1919
sg71
(lp1931
S':'
asbag64
(g85
g66
NtRp1932
(dp1933
g69
(dp1934
sg78
g1919
sg71
(lp1935
g64
(g65
g66
NtRp1936
(dp1937
g69
(dp1938
g77
I4
ssg78
g1932
sg71
(lp1939
S'True'
p1940
asbasbasbag64
(g80
g66
NtRp1941
(dp1942
g69
(dp1943
sg78
g1040
sg71
(lp1944
g64
(g85
g66
NtRp1945
(dp1946
g69
(dp1947
g89
g90
ssg78
g1941
sg71
(lp1948
S'wsgi_run_once'
p1949
asbag64
(g85
g66
NtRp1950
(dp1951
g69
(dp1952
g96
g97
ssg78
g1941
sg71
(lp1953
S':'
asbag64
(g85
g66
NtRp1954
(dp1955
g69
(dp1956
sg78
g1941
sg71
(lp1957
g64
(g65
g66
NtRp1958
(dp1959
g69
(dp1960
g77
I4
ssg78
g1954
sg71
(lp1961
g107
asbasbasbag64
(g80
g66
NtRp1962
(dp1963
g69
(dp1964
sg78
g1040
sg71
(lp1965
g64
(g85
g66
NtRp1966
(dp1967
g69
(dp1968
g89
g90
ssg78
g1962
sg71
(lp1969
S'wsgi_url_scheme'
p1970
asbag64
(g85
g66
NtRp1971
(dp1972
g69
(dp1973
g96
g97
ssg78
g1962
sg71
(lp1974
S':'
asbag64
(g85
g66
NtRp1975
(dp1976
g69
(dp1977
sg78
g1962
sg71
(lp1978
g64
(g65
g66
NtRp1979
(dp1980
g69
(dp1981
g77
I4
ssg78
g1975
sg71
(lp1982
S'http'
p1983
asbasbasbag64
(g80
g66
NtRp1984
(dp1985
g69
(dp1986
sg78
g1040
sg71
(lp1987
g64
(g85
g66
NtRp1988
(dp1989
g69
(dp1990
g89
g90
ssg78
g1984
sg71
(lp1991
S'wsgi_version'
p1992
asbag64
(g85
g66
NtRp1993
(dp1994
g69
(dp1995
g96
g97
ssg78
g1984
sg71
(lp1996
S':'
asbag64
(g85
g66
NtRp1997
(dp1998
g69
(dp1999
sg78
g1984
sg71
(lp2000
g64
(g65
g66
NtRp2001
(dp2002
g69
(dp2003
g77
I4
ssg78
g1997
sg71
(lp2004
g64
(g73
g66
NtRp2005
(dp2006
g69
(dp2007
g77
I3
ssg78
Nsg71
(lp2008
g64
(g80
g66
NtRp2009
(dp2010
g69
(dp2011
sg78
g2005
sg71
(lp2012
g64
(g85
g66
NtRp2013
(dp2014
g69
(dp2015
sg78
g2009
sg71
(lp2016
g64
(g65
g66
NtRp2017
(dp2018
g69
(dp2019
g77
I3
ssg78
g2013
sg71
(lp2020
S'1'
asbasbasbag64
(g80
g66
NtRp2021
(dp2022
g69
(dp2023
sg78
g2005
sg71
(lp2024
g64
(g85
g66
NtRp2025
(dp2026
g69
(dp2027
sg78
g2021
sg71
(lp2028
g64
(g65
g66
NtRp2029
(dp2030
g69
(dp2031
g77
I3
ssg78
g2025
sg71
(lp2032
S'0'
asbasbasbasbasbasbasbasbasbasbasbag64
(g80
g66
NtRp2033
(dp2034
g69
(dp2035
sg78
g74
sg71
(lp2036
g64
(g85
g66
NtRp2037
(dp2038
g69
(dp2039
g89
g90
ssg78
g2033
sg71
(lp2040
S'extension'
p2041
asbag64
(g85
g66
NtRp2042
(dp2043
g69
(dp2044
g96
g97
ssg78
g2033
sg71
(lp2045
S':'
asbag64
(g85
g66
NtRp2046
(dp2047
g69
(dp2048
sg78
g2033
sg71
(lp2049
g64
(g65
g66
NtRp2050
(dp2051
g69
(dp2052
g77
I5
ssg78
g2046
sg71
(lp2053
S'html'
p2054
asbasbasbag64
(g80
g66
NtRp2055
(dp2056
g69
(dp2057
sg78
g74
sg71
(lp2058
g64
(g85
g66
NtRp2059
(dp2060
g69
(dp2061
g89
g90
ssg78
g2055
sg71
(lp2062
S'folder'
p2063
asbag64
(g85
g66
NtRp2064
(dp2065
g69
(dp2066
g96
g97
ssg78
g2055
sg71
(lp2067
S':'
asbag64
(g85
g66
NtRp2068
(dp2069
g69
(dp2070
sg78
g2055
sg71
(lp2071
g64
(g65
g66
NtRp2072
(dp2073
g69
(dp2074
g77
I5
ssg78
g2068
sg71
(lp2075
S'/home/nazrul/web2py/applications/WSD_Tool/'
p2076
asbasbasbag64
(g80
g66
NtRp2077
(dp2078
g69
(dp2079
sg78
g74
sg71
(lp2080
g64
(g85
g66
NtRp2081
(dp2082
g69
(dp2083
g89
g90
ssg78
g2077
sg71
(lp2084
S'function'
p2085
asbag64
(g85
g66
NtRp2086
(dp2087
g69
(dp2088
g96
g97
ssg78
g2077
sg71
(lp2089
S':'
asbag64
(g85
g66
NtRp2090
(dp2091
g69
(dp2092
sg78
g2077
sg71
(lp2093
g64
(g65
g66
NtRp2094
(dp2095
g69
(dp2096
g77
I5
ssg78
g2090
sg71
(lp2097
S'rel'
p2098
asbasbasbag64
(g80
g66
NtRp2099
(dp2100
g69
(dp2101
sg78
g74
sg71
(lp2102
g64
(g85
g66
NtRp2103
(dp2104
g69
(dp2105
g89
g90
ssg78
g2099
sg71
(lp2106
S'get_vars'
p2107
asbag64
(g85
g66
NtRp2108
(dp2109
g69
(dp2110
g96
g97
ssg78
g2099
sg71
(lp2111
S':'
asbag64
(g85
g66
NtRp2112
(dp2113
g69
(dp2114
sg78
g2099
sg71
(lp2115
g64
(g65
g66
NtRp2116
(dp2117
g69
(dp2118
g77
I5
ssg78
g2112
sg71
(lp2119
g64
(g73
g66
NtRp2120
(dp2121
g69
(dp2122
g77
I4
ssg78
Nsg71
(lp2123
sbasbasbasbag64
(g80
g66
NtRp2124
(dp2125
g69
(dp2126
sg78
g74
sg71
(lp2127
g64
(g85
g66
NtRp2128
(dp2129
g69
(dp2130
g89
g90
ssg78
g2124
sg71
(lp2131
S'global_settings'
p2132
asbag64
(g85
g66
NtRp2133
(dp2134
g69
(dp2135
g96
g97
ssg78
g2124
sg71
(lp2136
S':'
asbag64
(g85
g66
NtRp2137
(dp2138
g69
(dp2139
sg78
g2124
sg71
(lp2140
g64
(g65
g66
NtRp2141
(dp2142
g69
(dp2143
g77
I5
ssg78
g2137
sg71
(lp2144
g64
(g73
g66
NtRp2145
(dp2146
g69
(dp2147
g77
I4
ssg78
Nsg71
(lp2148
g64
(g80
g66
NtRp2149
(dp2150
g69
(dp2151
sg78
g2145
sg71
(lp2152
g64
(g85
g66
NtRp2153
(dp2154
g69
(dp2155
g89
g90
ssg78
g2149
sg71
(lp2156
g1052
asbag64
(g85
g66
NtRp2157
(dp2158
g69
(dp2159
g96
g97
ssg78
g2149
sg71
(lp2160
S':'
asbag64
(g85
g66
NtRp2161
(dp2162
g69
(dp2163
sg78
g2149
sg71
(lp2164
g64
(g65
g66
NtRp2165
(dp2166
g69
(dp2167
g77
I4
ssg78
g2161
sg71
(lp2168
S"set(['/home/nazrul/web2py/applications/welcome/', '/home/nazrul/web2py/applications/WSD_Tool/', '/home/nazrul/web2py/applications/admin/'])"
p2169
asbasbasbag64
(g80
g66
NtRp2170
(dp2171
g69
(dp2172
sg78
g2145
sg71
(lp2173
g64
(g85
g66
NtRp2174
(dp2175
g69
(dp2176
g89
g90
ssg78
g2170
sg71
(lp2177
g1074
asbag64
(g85
g66
NtRp2178
(dp2179
g69
(dp2180
g96
g97
ssg78
g2170
sg71
(lp2181
S':'
asbag64
(g85
g66
NtRp2182
(dp2183
g69
(dp2184
sg78
g2170
sg71
(lp2185
g64
(g65
g66
NtRp2186
(dp2187
g69
(dp2188
g77
I4
ssg78
g2182
sg71
(lp2189
g1087
asbasbasbag64
(g80
g66
NtRp2190
(dp2191
g69
(dp2192
sg78
g2145
sg71
(lp2193
g64
(g85
g66
NtRp2194
(dp2195
g69
(dp2196
g89
g90
ssg78
g2190
sg71
(lp2197
g1096
asbag64
(g85
g66
NtRp2198
(dp2199
g69
(dp2200
g96
g97
ssg78
g2190
sg71
(lp2201
S':'
asbag64
(g85
g66
NtRp2202
(dp2203
g69
(dp2204
sg78
g2190
sg71
(lp2205
g64
(g65
g66
NtRp2206
(dp2207
g69
(dp2208
g77
I4
ssg78
g2202
sg71
(lp2209
g64
(g73
g66
NtRp2210
(dp2211
g69
(dp2212
g77
I3
ssg78
Nsg71
(lp2213
sbasbasbasbag64
(g80
g66
NtRp2214
(dp2215
g69
(dp2216
sg78
g2145
sg71
(lp2217
g64
(g85
g66
NtRp2218
(dp2219
g69
(dp2220
g89
g90
ssg78
g2214
sg71
(lp2221
g1121
asbag64
(g85
g66
NtRp2222
(dp2223
g69
(dp2224
g96
g97
ssg78
g2214
sg71
(lp2225
S':'
asbag64
(g85
g66
NtRp2226
(dp2227
g69
(dp2228
sg78
g2214
sg71
(lp2229
g64
(g65
g66
NtRp2230
(dp2231
g69
(dp2232
g77
I4
ssg78
g2226
sg71
(lp2233
S"<Values at 0xa44192c: {'verbose': False, 'ip': '127.0.0.1', 'with_scheduler': False, 'ips': [], 'shutdown_timeout': 5, 'taskbar': False, 'port': 8000, 'maxthreads': None, 'softcron': False, 'server_name': 'nazrul-Compaq-Presario-CQ40-Notebook-PC', 'bpython': False, 'nogui': False, 'pid_filename': 'httpserver.pid', 'extcron': False, 'runcron': False, 'run_system_tests': False, 'test': None, 'folder': '/home/nazrul/web2py', 'config': '', 'import_models': False, 'winservice': '', 'shell': None, 'run': '', 'log_filename': 'httpserver.log', 'debuglevel': 30, 'args': [''], 'socket_timeout': 5, 'ssl_ca_certificate': None, 'scheduler': None, 'profiler_filename': None, 'ssl_private_key': '', 'scheduler_groups': None, 'password': '<ask>', 'request_queue_size': 5, 'ssl_certificate': '', 'cronjob': False, 'numthreads': None, 'quiet': False, 'interfaces': None, 'minthreads': None, 'timeout': 10, 'plain': False, 'nobanner': False}>"
p2234
asbasbasbag64
(g80
g66
NtRp2235
(dp2236
g69
(dp2237
sg78
g2145
sg71
(lp2238
g64
(g85
g66
NtRp2239
(dp2240
g69
(dp2241
g89
g90
ssg78
g2235
sg71
(lp2242
g1143
asbag64
(g85
g66
NtRp2243
(dp2244
g69
(dp2245
g96
g97
ssg78
g2235
sg71
(lp2246
S':'
asbag64
(g85
g66
NtRp2247
(dp2248
g69
(dp2249
sg78
g2235
sg71
(lp2250
g64
(g65
g66
NtRp2251
(dp2252
g69
(dp2253
g77
I4
ssg78
g2247
sg71
(lp2254
S'set([])'
p2255
asbasbasbag64
(g80
g66
NtRp2256
(dp2257
g69
(dp2258
sg78
g2145
sg71
(lp2259
g64
(g85
g66
NtRp2260
(dp2261
g69
(dp2262
g89
g90
ssg78
g2256
sg71
(lp2263
g1165
asbag64
(g85
g66
NtRp2264
(dp2265
g69
(dp2266
g96
g97
ssg78
g2256
sg71
(lp2267
S':'
asbag64
(g85
g66
NtRp2268
(dp2269
g69
(dp2270
sg78
g2256
sg71
(lp2271
g64
(g65
g66
NtRp2272
(dp2273
g69
(dp2274
g77
I4
ssg78
g2268
sg71
(lp2275
g107
asbasbasbag64
(g80
g66
NtRp2276
(dp2277
g69
(dp2278
sg78
g2145
sg71
(lp2279
g64
(g85
g66
NtRp2280
(dp2281
g69
(dp2282
g89
g90
ssg78
g2276
sg71
(lp2283
g1186
asbag64
(g85
g66
NtRp2284
(dp2285
g69
(dp2286
g96
g97
ssg78
g2276
sg71
(lp2287
S':'
asbag64
(g85
g66
NtRp2288
(dp2289
g69
(dp2290
sg78
g2276
sg71
(lp2291
g64
(g65
g66
NtRp2292
(dp2293
g69
(dp2294
g77
I4
ssg78
g2288
sg71
(lp2295
g1199
asbasbasbag64
(g80
g66
NtRp2296
(dp2297
g69
(dp2298
sg78
g2145
sg71
(lp2299
g64
(g85
g66
NtRp2300
(dp2301
g69
(dp2302
g89
g90
ssg78
g2296
sg71
(lp2303
g1362
asbag64
(g85
g66
NtRp2304
(dp2305
g69
(dp2306
g96
g97
ssg78
g2296
sg71
(lp2307
S':'
asbag64
(g85
g66
NtRp2308
(dp2309
g69
(dp2310
sg78
g2296
sg71
(lp2311
g64
(g65
g66
NtRp2312
(dp2313
g69
(dp2314
g77
I4
ssg78
g2308
sg71
(lp2315
g107
asbasbasbag64
(g80
g66
NtRp2316
(dp2317
g69
(dp2318
sg78
g2145
sg71
(lp2319
g64
(g85
g66
NtRp2320
(dp2321
g69
(dp2322
g89
g90
ssg78
g2316
sg71
(lp2323
g1383
asbag64
(g85
g66
NtRp2324
(dp2325
g69
(dp2326
g96
g97
ssg78
g2316
sg71
(lp2327
S':'
asbag64
(g85
g66
NtRp2328
(dp2329
g69
(dp2330
sg78
g2316
sg71
(lp2331
g64
(g65
g66
NtRp2332
(dp2333
g69
(dp2334
g77
I4
ssg78
g2328
sg71
(lp2335
g107
asbasbasbag64
(g80
g66
NtRp2336
(dp2337
g69
(dp2338
sg78
g2145
sg71
(lp2339
g64
(g85
g66
NtRp2340
(dp2341
g69
(dp2342
g89
g90
ssg78
g2336
sg71
(lp2343
g1404
asbag64
(g85
g66
NtRp2344
(dp2345
g69
(dp2346
g96
g97
ssg78
g2336
sg71
(lp2347
S':'
asbag64
(g85
g66
NtRp2348
(dp2349
g69
(dp2350
sg78
g2336
sg71
(lp2351
g64
(g65
g66
NtRp2352
(dp2353
g69
(dp2354
g77
I4
ssg78
g2348
sg71
(lp2355
g64
(g73
g66
NtRp2356
(dp2357
g69
(dp2358
g77
I3
ssg78
Nsg71
(lp2359
g64
(g80
g66
NtRp2360
(dp2361
g69
(dp2362
sg78
g2356
sg71
(lp2363
g64
(g85
g66
NtRp2364
(dp2365
g69
(dp2366
sg78
g2360
sg71
(lp2367
g64
(g65
g66
NtRp2368
(dp2369
g69
(dp2370
g77
I3
ssg78
g2364
sg71
(lp2371
g1433
asbasbasbag64
(g80
g66
NtRp2372
(dp2373
g69
(dp2374
sg78
g2356
sg71
(lp2375
g64
(g85
g66
NtRp2376
(dp2377
g69
(dp2378
sg78
g2372
sg71
(lp2379
g64
(g65
g66
NtRp2380
(dp2381
g69
(dp2382
g77
I3
ssg78
g2376
sg71
(lp2383
g1446
asbasbasbag64
(g80
g66
NtRp2384
(dp2385
g69
(dp2386
sg78
g2356
sg71
(lp2387
g64
(g85
g66
NtRp2388
(dp2389
g69
(dp2390
sg78
g2384
sg71
(lp2391
g64
(g65
g66
NtRp2392
(dp2393
g69
(dp2394
g77
I3
ssg78
g2388
sg71
(lp2395
g1459
asbasbasbag64
(g80
g66
NtRp2396
(dp2397
g69
(dp2398
sg78
g2356
sg71
(lp2399
g64
(g85
g66
NtRp2400
(dp2401
g69
(dp2402
sg78
g2396
sg71
(lp2403
g64
(g65
g66
NtRp2404
(dp2405
g69
(dp2406
g77
I3
ssg78
g2400
sg71
(lp2407
g1472
asbasbasbag64
(g80
g66
NtRp2408
(dp2409
g69
(dp2410
sg78
g2356
sg71
(lp2411
g64
(g85
g66
NtRp2412
(dp2413
g69
(dp2414
sg78
g2408
sg71
(lp2415
g64
(g65
g66
NtRp2416
(dp2417
g69
(dp2418
g77
I3
ssg78
g2412
sg71
(lp2419
g1485
asbasbasbasbasbasbasbag64
(g80
g66
NtRp2420
(dp2421
g69
(dp2422
sg78
g2145
sg71
(lp2423
g64
(g85
g66
NtRp2424
(dp2425
g69
(dp2426
g89
g90
ssg78
g2420
sg71
(lp2427
g1753
asbag64
(g85
g66
NtRp2428
(dp2429
g69
(dp2430
g96
g97
ssg78
g2420
sg71
(lp2431
S':'
asbag64
(g85
g66
NtRp2432
(dp2433
g69
(dp2434
sg78
g2420
sg71
(lp2435
g64
(g65
g66
NtRp2436
(dp2437
g69
(dp2438
g77
I4
ssg78
g2432
sg71
(lp2439
g64
(g73
g66
NtRp2440
(dp2441
g69
(dp2442
g77
I3
ssg78
Nsg71
(lp2443
g64
(g80
g66
NtRp2444
(dp2445
g69
(dp2446
sg78
g2440
sg71
(lp2447
g64
(g85
g66
NtRp2448
(dp2449
g69
(dp2450
sg78
g2444
sg71
(lp2451
g64
(g65
g66
NtRp2452
(dp2453
g69
(dp2454
g77
I3
ssg78
g2448
sg71
(lp2455
S'2'
asbasbasbag64
(g80
g66
NtRp2456
(dp2457
g69
(dp2458
sg78
g2440
sg71
(lp2459
g64
(g85
g66
NtRp2460
(dp2461
g69
(dp2462
sg78
g2456
sg71
(lp2463
g64
(g65
g66
NtRp2464
(dp2465
g69
(dp2466
g77
I3
ssg78
g2460
sg71
(lp2467
S'3'
asbasbasbag64
(g80
g66
NtRp2468
(dp2469
g69
(dp2470
sg78
g2440
sg71
(lp2471
g64
(g85
g66
NtRp2472
(dp2473
g69
(dp2474
sg78
g2468
sg71
(lp2475
g64
(g65
g66
NtRp2476
(dp2477
g69
(dp2478
g77
I3
ssg78
g2472
sg71
(lp2479
S'2'
asbasbasbag64
(g80
g66
NtRp2480
(dp2481
g69
(dp2482
sg78
g2440
sg71
(lp2483
g64
(g85
g66
NtRp2484
(dp2485
g69
(dp2486
sg78
g2480
sg71
(lp2487
g64
(g65
g66
NtRp2488
(dp2489
g69
(dp2490
g77
I3
ssg78
g2484
sg71
(lp2491
S'datetime.datetime(2012, 12, 17, 15, 3, 30)'
p2492
asbasbasbag64
(g80
g66
NtRp2493
(dp2494
g69
(dp2495
sg78
g2440
sg71
(lp2496
g64
(g85
g66
NtRp2497
(dp2498
g69
(dp2499
sg78
g2493
sg71
(lp2500
g64
(g65
g66
NtRp2501
(dp2502
g69
(dp2503
g77
I3
ssg78
g2497
sg71
(lp2504
g1831
asbasbasbasbasbasbasbasbasbasbasbag64
(g80
g66
NtRp2505
(dp2506
g69
(dp2507
sg78
g74
sg71
(lp2508
g64
(g85
g66
NtRp2509
(dp2510
g69
(dp2511
g89
g90
ssg78
g2505
sg71
(lp2512
S'is_https'
p2513
asbag64
(g85
g66
NtRp2514
(dp2515
g69
(dp2516
g96
g97
ssg78
g2505
sg71
(lp2517
S':'
asbag64
(g85
g66
NtRp2518
(dp2519
g69
(dp2520
sg78
g2505
sg71
(lp2521
g64
(g65
g66
NtRp2522
(dp2523
g69
(dp2524
g77
I5
ssg78
g2518
sg71
(lp2525
g107
asbasbasbag64
(g80
g66
NtRp2526
(dp2527
g69
(dp2528
sg78
g74
sg71
(lp2529
g64
(g85
g66
NtRp2530
(dp2531
g69
(dp2532
g89
g90
ssg78
g2526
sg71
(lp2533
S'is_local'
p2534
asbag64
(g85
g66
NtRp2535
(dp2536
g69
(dp2537
g96
g97
ssg78
g2526
sg71
(lp2538
S':'
asbag64
(g85
g66
NtRp2539
(dp2540
g69
(dp2541
sg78
g2526
sg71
(lp2542
g64
(g65
g66
NtRp2543
(dp2544
g69
(dp2545
g77
I5
ssg78
g2539
sg71
(lp2546
g1940
asbasbasbag64
(g80
g66
NtRp2547
(dp2548
g69
(dp2549
sg78
g74
sg71
(lp2550
g64
(g85
g66
NtRp2551
(dp2552
g69
(dp2553
g89
g90
ssg78
g2547
sg71
(lp2554
S'is_restful'
p2555
asbag64
(g85
g66
NtRp2556
(dp2557
g69
(dp2558
g96
g97
ssg78
g2547
sg71
(lp2559
S':'
asbag64
(g85
g66
NtRp2560
(dp2561
g69
(dp2562
sg78
g2547
sg71
(lp2563
g64
(g65
g66
NtRp2564
(dp2565
g69
(dp2566
g77
I5
ssg78
g2560
sg71
(lp2567
g107
asbasbasbag64
(g80
g66
NtRp2568
(dp2569
g69
(dp2570
sg78
g74
sg71
(lp2571
g64
(g85
g66
NtRp2572
(dp2573
g69
(dp2574
g89
g90
ssg78
g2568
sg71
(lp2575
S'now'
p2576
asbag64
(g85
g66
NtRp2577
(dp2578
g69
(dp2579
g96
g97
ssg78
g2568
sg71
(lp2580
S':'
asbag64
(g85
g66
NtRp2581
(dp2582
g69
(dp2583
sg78
g2568
sg71
(lp2584
g64
(g65
g66
NtRp2585
(dp2586
g69
(dp2587
g77
I5
ssg78
g2581
sg71
(lp2588
S'datetime.datetime(2013, 11, 9, 18, 7, 38, 114956)'
p2589
asbasbasbag64
(g80
g66
NtRp2590
(dp2591
g69
(dp2592
sg78
g74
sg71
(lp2593
g64
(g85
g66
NtRp2594
(dp2595
g69
(dp2596
g89
g90
ssg78
g2590
sg71
(lp2597
S'post_vars'
p2598
asbag64
(g85
g66
NtRp2599
(dp2600
g69
(dp2601
g96
g97
ssg78
g2590
sg71
(lp2602
S':'
asbag64
(g85
g66
NtRp2603
(dp2604
g69
(dp2605
sg78
g2590
sg71
(lp2606
g64
(g65
g66
NtRp2607
(dp2608
g69
(dp2609
g77
I5
ssg78
g2603
sg71
(lp2610
g64
(g73
g66
NtRp2611
(dp2612
g69
(dp2613
g77
I4
ssg78
Nsg71
(lp2614
sbasbasbasbag64
(g80
g66
NtRp2615
(dp2616
g69
(dp2617
sg78
g74
sg71
(lp2618
g64
(g85
g66
NtRp2619
(dp2620
g69
(dp2621
g89
g90
ssg78
g2615
sg71
(lp2622
S'raw_args'
p2623
asbag64
(g85
g66
NtRp2624
(dp2625
g69
(dp2626
g96
g97
ssg78
g2615
sg71
(lp2627
S':'
asbag64
(g85
g66
NtRp2628
(dp2629
g69
(dp2630
sg78
g2615
sg71
(lp2631
g64
(g65
g66
NtRp2632
(dp2633
g69
(dp2634
g77
I5
ssg78
g2628
sg71
(lp2635
S''
asbasbasbag64
(g80
g66
NtRp2636
(dp2637
g69
(dp2638
sg78
g74
sg71
(lp2639
g64
(g85
g66
NtRp2640
(dp2641
g69
(dp2642
g89
g90
ssg78
g2636
sg71
(lp2643
S'raw_extension'
p2644
asbag64
(g85
g66
NtRp2645
(dp2646
g69
(dp2647
g96
g97
ssg78
g2636
sg71
(lp2648
S':'
asbag64
(g85
g66
NtRp2649
(dp2650
g69
(dp2651
sg78
g2636
sg71
(lp2652
g64
(g65
g66
NtRp2653
(dp2654
g69
(dp2655
g77
I5
ssg78
g2649
sg71
(lp2656
S'None'
p2657
asbasbasbag64
(g80
g66
NtRp2658
(dp2659
g69
(dp2660
sg78
g74
sg71
(lp2661
g64
(g85
g66
NtRp2662
(dp2663
g69
(dp2664
g89
g90
ssg78
g2658
sg71
(lp2665
S'url'
p2666
asbag64
(g85
g66
NtRp2667
(dp2668
g69
(dp2669
g96
g97
ssg78
g2658
sg71
(lp2670
S':'
asbag64
(g85
g66
NtRp2671
(dp2672
g69
(dp2673
sg78
g2658
sg71
(lp2674
g64
(g65
g66
NtRp2675
(dp2676
g69
(dp2677
g77
I5
ssg78
g2671
sg71
(lp2678
g1507
asbasbasbag64
(g80
g66
NtRp2679
(dp2680
g69
(dp2681
sg78
g74
sg71
(lp2682
g64
(g85
g66
NtRp2683
(dp2684
g69
(dp2685
g89
g90
ssg78
g2679
sg71
(lp2686
S'utcnow'
p2687
asbag64
(g85
g66
NtRp2688
(dp2689
g69
(dp2690
g96
g97
ssg78
g2679
sg71
(lp2691
S':'
asbag64
(g85
g66
NtRp2692
(dp2693
g69
(dp2694
sg78
g2679
sg71
(lp2695
g64
(g65
g66
NtRp2696
(dp2697
g69
(dp2698
g77
I5
ssg78
g2692
sg71
(lp2699
S'datetime.datetime(2013, 11, 9, 12, 37, 38, 114989)'
p2700
asbasbasbag64
(g80
g66
NtRp2701
(dp2702
g69
(dp2703
sg78
g74
sg71
(lp2704
g64
(g85
g66
NtRp2705
(dp2706
g69
(dp2707
g89
g90
ssg78
g2701
sg71
(lp2708
S'uuid'
p2709
asbag64
(g85
g66
NtRp2710
(dp2711
g69
(dp2712
g96
g97
ssg78
g2701
sg71
(lp2713
S':'
asbag64
(g85
g66
NtRp2714
(dp2715
g69
(dp2716
sg78
g2701
sg71
(lp2717
g64
(g65
g66
NtRp2718
(dp2719
g69
(dp2720
g77
I5
ssg78
g2714
sg71
(lp2721
S'WSD_Tool/127.0.0.1.2013-11-09.18-07-38.675378cd-13ef-46e8-8184-4a9abea4a795'
p2722
asbasbasbag64
(g80
g66
NtRp2723
(dp2724
g69
(dp2725
sg78
g74
sg71
(lp2726
g64
(g85
g66
NtRp2727
(dp2728
g69
(dp2729
g89
g90
ssg78
g2723
sg71
(lp2730
S'vars'
p2731
asbag64
(g85
g66
NtRp2732
(dp2733
g69
(dp2734
g96
g97
ssg78
g2723
sg71
(lp2735
S':'
asbag64
(g85
g66
NtRp2736
(dp2737
g69
(dp2738
sg78
g2723
sg71
(lp2739
g64
(g65
g66
NtRp2740
(dp2741
g69
(dp2742
g77
I5
ssg78
g2736
sg71
(lp2743
g64
(g73
g66
NtRp2744
(dp2745
g69
(dp2746
g77
I4
ssg78
Nsg71
(lp2747
sbasbasbasbag64
(g80
g66
NtRp2748
(dp2749
g69
(dp2750
sg78
g74
sg71
(lp2751
g64
(g85
g66
NtRp2752
(dp2753
g69
(dp2754
g89
g90
ssg78
g2748
sg71
(lp2755
S'wsgi'
p2756
asbag64
(g85
g66
NtRp2757
(dp2758
g69
(dp2759
g96
g97
ssg78
g2748
sg71
(lp2760
S':'
asbag64
(g85
g66
NtRp2761
(dp2762
g69
(dp2763
sg78
g2748
sg71
(lp2764
g64
(g65
g66
NtRp2765
(dp2766
g69
(dp2767
g77
I5
ssg78
g2761
sg71
(lp2768
g64
(g73
g66
NtRp2769
(dp2770
g69
(dp2771
g77
I4
ssg78
Nsg71
(lp2772
g64
(g80
g66
NtRp2773
(dp2774
g69
(dp2775
sg78
g2769
sg71
(lp2776
g64
(g85
g66
NtRp2777
(dp2778
g69
(dp2779
g89
g90
ssg78
g2773
sg71
(lp2780
S'environ'
p2781
asbag64
(g85
g66
NtRp2782
(dp2783
g69
(dp2784
g96
g97
ssg78
g2773
sg71
(lp2785
S':'
asbag64
(g85
g66
NtRp2786
(dp2787
g69
(dp2788
sg78
g2773
sg71
(lp2789
g64
(g65
g66
NtRp2790
(dp2791
g69
(dp2792
g77
I4
ssg78
g2786
sg71
(lp2793
g64
(g73
g66
NtRp2794
(dp2795
g69
(dp2796
g77
I3
ssg78
Nsg71
(lp2797
g64
(g80
g66
NtRp2798
(dp2799
g69
(dp2800
sg78
g2794
sg71
(lp2801
g64
(g85
g66
NtRp2802
(dp2803
g69
(dp2804
g89
g90
ssg78
g2798
sg71
(lp2805
S'HTTP_ACCEPT'
p2806
asbag64
(g85
g66
NtRp2807
(dp2808
g69
(dp2809
g96
g97
ssg78
g2798
sg71
(lp2810
S':'
asbag64
(g85
g66
NtRp2811
(dp2812
g69
(dp2813
sg78
g2798
sg71
(lp2814
g64
(g65
g66
NtRp2815
(dp2816
g69
(dp2817
g77
I3
ssg78
g2811
sg71
(lp2818
g1221
asbasbasbag64
(g80
g66
NtRp2819
(dp2820
g69
(dp2821
sg78
g2794
sg71
(lp2822
g64
(g85
g66
NtRp2823
(dp2824
g69
(dp2825
g89
g90
ssg78
g2819
sg71
(lp2826
S'HTTP_ACCEPT_ENCODING'
p2827
asbag64
(g85
g66
NtRp2828
(dp2829
g69
(dp2830
g96
g97
ssg78
g2819
sg71
(lp2831
S':'
asbag64
(g85
g66
NtRp2832
(dp2833
g69
(dp2834
sg78
g2819
sg71
(lp2835
g64
(g65
g66
NtRp2836
(dp2837
g69
(dp2838
g77
I3
ssg78
g2832
sg71
(lp2839
g1243
asbasbasbag64
(g80
g66
NtRp2840
(dp2841
g69
(dp2842
sg78
g2794
sg71
(lp2843
g64
(g85
g66
NtRp2844
(dp2845
g69
(dp2846
g89
g90
ssg78
g2840
sg71
(lp2847
S'HTTP_ACCEPT_LANGUAGE'
p2848
asbag64
(g85
g66
NtRp2849
(dp2850
g69
(dp2851
g96
g97
ssg78
g2840
sg71
(lp2852
S':'
asbag64
(g85
g66
NtRp2853
(dp2854
g69
(dp2855
sg78
g2840
sg71
(lp2856
g64
(g65
g66
NtRp2857
(dp2858
g69
(dp2859
g77
I3
ssg78
g2853
sg71
(lp2860
g1265
asbasbasbag64
(g80
g66
NtRp2861
(dp2862
g69
(dp2863
sg78
g2794
sg71
(lp2864
g64
(g85
g66
NtRp2865
(dp2866
g69
(dp2867
g89
g90
ssg78
g2861
sg71
(lp2868
S'HTTP_CONNECTION'
p2869
asbag64
(g85
g66
NtRp2870
(dp2871
g69
(dp2872
g96
g97
ssg78
g2861
sg71
(lp2873
S':'
asbag64
(g85
g66
NtRp2874
(dp2875
g69
(dp2876
sg78
g2861
sg71
(lp2877
g64
(g65
g66
NtRp2878
(dp2879
g69
(dp2880
g77
I3
ssg78
g2874
sg71
(lp2881
g1287
asbasbasbag64
(g80
g66
NtRp2882
(dp2883
g69
(dp2884
sg78
g2794
sg71
(lp2885
g64
(g85
g66
NtRp2886
(dp2887
g69
(dp2888
g89
g90
ssg78
g2882
sg71
(lp2889
S'HTTP_COOKIE'
p2890
asbag64
(g85
g66
NtRp2891
(dp2892
g69
(dp2893
g96
g97
ssg78
g2882
sg71
(lp2894
S':'
asbag64
(g85
g66
NtRp2895
(dp2896
g69
(dp2897
sg78
g2882
sg71
(lp2898
g64
(g65
g66
NtRp2899
(dp2900
g69
(dp2901
g77
I3
ssg78
g2895
sg71
(lp2902
g1309
asbasbasbag64
(g80
g66
NtRp2903
(dp2904
g69
(dp2905
sg78
g2794
sg71
(lp2906
g64
(g85
g66
NtRp2907
(dp2908
g69
(dp2909
g89
g90
ssg78
g2903
sg71
(lp2910
S'HTTP_HOST'
p2911
asbag64
(g85
g66
NtRp2912
(dp2913
g69
(dp2914
g96
g97
ssg78
g2903
sg71
(lp2915
S':'
asbag64
(g85
g66
NtRp2916
(dp2917
g69
(dp2918
sg78
g2903
sg71
(lp2919
g64
(g65
g66
NtRp2920
(dp2921
g69
(dp2922
g77
I3
ssg78
g2916
sg71
(lp2923
g1331
asbasbasbag64
(g80
g66
NtRp2924
(dp2925
g69
(dp2926
sg78
g2794
sg71
(lp2927
g64
(g85
g66
NtRp2928
(dp2929
g69
(dp2930
g89
g90
ssg78
g2924
sg71
(lp2931
S'HTTP_USER_AGENT'
p2932
asbag64
(g85
g66
NtRp2933
(dp2934
g69
(dp2935
g96
g97
ssg78
g2924
sg71
(lp2936
S':'
asbag64
(g85
g66
NtRp2937
(dp2938
g69
(dp2939
sg78
g2924
sg71
(lp2940
g64
(g65
g66
NtRp2941
(dp2942
g69
(dp2943
g77
I3
ssg78
g2937
sg71
(lp2944
g1353
asbasbasbag64
(g80
g66
NtRp2945
(dp2946
g69
(dp2947
sg78
g2794
sg71
(lp2948
g64
(g85
g66
NtRp2949
(dp2950
g69
(dp2951
g89
g90
ssg78
g2945
sg71
(lp2952
S'PATH_INFO'
p2953
asbag64
(g85
g66
NtRp2954
(dp2955
g69
(dp2956
g96
g97
ssg78
g2945
sg71
(lp2957
S':'
asbag64
(g85
g66
NtRp2958
(dp2959
g69
(dp2960
sg78
g2945
sg71
(lp2961
g64
(g65
g66
NtRp2962
(dp2963
g69
(dp2964
g77
I3
ssg78
g2958
sg71
(lp2965
g1507
asbasbasbag64
(g80
g66
NtRp2966
(dp2967
g69
(dp2968
sg78
g2794
sg71
(lp2969
g64
(g85
g66
NtRp2970
(dp2971
g69
(dp2972
g89
g90
ssg78
g2966
sg71
(lp2973
S'QUERY_STRING'
p2974
asbag64
(g85
g66
NtRp2975
(dp2976
g69
(dp2977
g96
g97
ssg78
g2966
sg71
(lp2978
S':'
asbag64
(g85
g66
NtRp2979
(dp2980
g69
(dp2981
sg78
g2966
sg71
(lp2982
g64
(g65
g66
NtRp2983
(dp2984
g69
(dp2985
g77
I3
ssg78
g2979
sg71
(lp2986
S''
asbasbasbag64
(g80
g66
NtRp2987
(dp2988
g69
(dp2989
sg78
g2794
sg71
(lp2990
g64
(g85
g66
NtRp2991
(dp2992
g69
(dp2993
g89
g90
ssg78
g2987
sg71
(lp2994
S'REMOTE_ADDR'
p2995
asbag64
(g85
g66
NtRp2996
(dp2997
g69
(dp2998
g96
g97
ssg78
g2987
sg71
(lp2999
S':'
asbag64
(g85
g66
NtRp3000
(dp3001
g69
(dp3002
sg78
g2987
sg71
(lp3003
g64
(g65
g66
NtRp3004
(dp3005
g69
(dp3006
g77
I3
ssg78
g3000
sg71
(lp3007
g219
asbasbasbag64
(g80
g66
NtRp3008
(dp3009
g69
(dp3010
sg78
g2794
sg71
(lp3011
g64
(g85
g66
NtRp3012
(dp3013
g69
(dp3014
g89
g90
ssg78
g3008
sg71
(lp3015
S'REMOTE_PORT'
p3016
asbag64
(g85
g66
NtRp3017
(dp3018
g69
(dp3019
g96
g97
ssg78
g3008
sg71
(lp3020
S':'
asbag64
(g85
g66
NtRp3021
(dp3022
g69
(dp3023
sg78
g3008
sg71
(lp3024
g64
(g65
g66
NtRp3025
(dp3026
g69
(dp3027
g77
I3
ssg78
g3021
sg71
(lp3028
g1571
asbasbasbag64
(g80
g66
NtRp3029
(dp3030
g69
(dp3031
sg78
g2794
sg71
(lp3032
g64
(g85
g66
NtRp3033
(dp3034
g69
(dp3035
g89
g90
ssg78
g3029
sg71
(lp3036
S'REQUEST_METHOD'
p3037
asbag64
(g85
g66
NtRp3038
(dp3039
g69
(dp3040
g96
g97
ssg78
g3029
sg71
(lp3041
S':'
asbag64
(g85
g66
NtRp3042
(dp3043
g69
(dp3044
sg78
g3029
sg71
(lp3045
g64
(g65
g66
NtRp3046
(dp3047
g69
(dp3048
g77
I3
ssg78
g3042
sg71
(lp3049
g1593
asbasbasbag64
(g80
g66
NtRp3050
(dp3051
g69
(dp3052
sg78
g2794
sg71
(lp3053
g64
(g85
g66
NtRp3054
(dp3055
g69
(dp3056
g89
g90
ssg78
g3050
sg71
(lp3057
S'REQUEST_URI'
p3058
asbag64
(g85
g66
NtRp3059
(dp3060
g69
(dp3061
g96
g97
ssg78
g3050
sg71
(lp3062
S':'
asbag64
(g85
g66
NtRp3063
(dp3064
g69
(dp3065
sg78
g3050
sg71
(lp3066
g64
(g65
g66
NtRp3067
(dp3068
g69
(dp3069
g77
I3
ssg78
g3063
sg71
(lp3070
g1507
asbasbasbag64
(g80
g66
NtRp3071
(dp3072
g69
(dp3073
sg78
g2794
sg71
(lp3074
g64
(g85
g66
NtRp3075
(dp3076
g69
(dp3077
g89
g90
ssg78
g3071
sg71
(lp3078
S'SCRIPT_NAME'
p3079
asbag64
(g85
g66
NtRp3080
(dp3081
g69
(dp3082
g96
g97
ssg78
g3071
sg71
(lp3083
S':'
asbag64
(g85
g66
NtRp3084
(dp3085
g69
(dp3086
sg78
g3071
sg71
(lp3087
g64
(g65
g66
NtRp3088
(dp3089
g69
(dp3090
g77
I3
ssg78
g3084
sg71
(lp3091
S''
asbasbasbag64
(g80
g66
NtRp3092
(dp3093
g69
(dp3094
sg78
g2794
sg71
(lp3095
g64
(g85
g66
NtRp3096
(dp3097
g69
(dp3098
g89
g90
ssg78
g3092
sg71
(lp3099
S'SERVER_NAME'
p3100
asbag64
(g85
g66
NtRp3101
(dp3102
g69
(dp3103
g96
g97
ssg78
g3092
sg71
(lp3104
S':'
asbag64
(g85
g66
NtRp3105
(dp3106
g69
(dp3107
sg78
g3092
sg71
(lp3108
g64
(g65
g66
NtRp3109
(dp3110
g69
(dp3111
g77
I3
ssg78
g3105
sg71
(lp3112
g1657
asbasbasbag64
(g80
g66
NtRp3113
(dp3114
g69
(dp3115
sg78
g2794
sg71
(lp3116
g64
(g85
g66
NtRp3117
(dp3118
g69
(dp3119
g89
g90
ssg78
g3113
sg71
(lp3120
S'SERVER_PORT'
p3121
asbag64
(g85
g66
NtRp3122
(dp3123
g69
(dp3124
g96
g97
ssg78
g3113
sg71
(lp3125
S':'
asbag64
(g85
g66
NtRp3126
(dp3127
g69
(dp3128
sg78
g3113
sg71
(lp3129
g64
(g65
g66
NtRp3130
(dp3131
g69
(dp3132
g77
I3
ssg78
g3126
sg71
(lp3133
g1679
asbasbasbag64
(g80
g66
NtRp3134
(dp3135
g69
(dp3136
sg78
g2794
sg71
(lp3137
g64
(g85
g66
NtRp3138
(dp3139
g69
(dp3140
g89
g90
ssg78
g3134
sg71
(lp3141
S'SERVER_PROTOCOL'
p3142
asbag64
(g85
g66
NtRp3143
(dp3144
g69
(dp3145
g96
g97
ssg78
g3134
sg71
(lp3146
S':'
asbag64
(g85
g66
NtRp3147
(dp3148
g69
(dp3149
sg78
g3134
sg71
(lp3150
g64
(g65
g66
NtRp3151
(dp3152
g69
(dp3153
g77
I3
ssg78
g3147
sg71
(lp3154
g1701
asbasbasbag64
(g80
g66
NtRp3155
(dp3156
g69
(dp3157
sg78
g2794
sg71
(lp3158
g64
(g85
g66
NtRp3159
(dp3160
g69
(dp3161
g89
g90
ssg78
g3155
sg71
(lp3162
S'SERVER_SOFTWARE'
p3163
asbag64
(g85
g66
NtRp3164
(dp3165
g69
(dp3166
g96
g97
ssg78
g3155
sg71
(lp3167
S':'
asbag64
(g85
g66
NtRp3168
(dp3169
g69
(dp3170
sg78
g3155
sg71
(lp3171
g64
(g65
g66
NtRp3172
(dp3173
g69
(dp3174
g77
I3
ssg78
g3168
sg71
(lp3175
g1723
asbasbasbag64
(g80
g66
NtRp3176
(dp3177
g69
(dp3178
sg78
g2794
sg71
(lp3179
g64
(g85
g66
NtRp3180
(dp3181
g69
(dp3182
g89
g90
ssg78
g3176
sg71
(lp3183
S'wsgi.errors'
p3184
asbag64
(g85
g66
NtRp3185
(dp3186
g69
(dp3187
g96
g97
ssg78
g3176
sg71
(lp3188
S':'
asbag64
(g85
g66
NtRp3189
(dp3190
g69
(dp3191
sg78
g3176
sg71
(lp3192
g64
(g65
g66
NtRp3193
(dp3194
g69
(dp3195
g77
I3
ssg78
g3189
sg71
(lp3196
S"<open file '<stderr>', mode 'w' at 0xb72a80d0>"
p3197
asbasbasbag64
(g80
g66
NtRp3198
(dp3199
g69
(dp3200
sg78
g2794
sg71
(lp3201
g64
(g85
g66
NtRp3202
(dp3203
g69
(dp3204
g89
g90
ssg78
g3198
sg71
(lp3205
S'wsgi.file_wrapper'
p3206
asbag64
(g85
g66
NtRp3207
(dp3208
g69
(dp3209
g96
g97
ssg78
g3198
sg71
(lp3210
S':'
asbag64
(g85
g66
NtRp3211
(dp3212
g69
(dp3213
sg78
g3198
sg71
(lp3214
g64
(g65
g66
NtRp3215
(dp3216
g69
(dp3217
g77
I3
ssg78
g3211
sg71
(lp3218
S'<class wsgiref.util.FileWrapper at 0xa40147c>'
p3219
asbasbasbag64
(g80
g66
NtRp3220
(dp3221
g69
(dp3222
sg78
g2794
sg71
(lp3223
g64
(g85
g66
NtRp3224
(dp3225
g69
(dp3226
g89
g90
ssg78
g3220
sg71
(lp3227
S'wsgi.input'
p3228
asbag64
(g85
g66
NtRp3229
(dp3230
g69
(dp3231
g96
g97
ssg78
g3220
sg71
(lp3232
S':'
asbag64
(g85
g66
NtRp3233
(dp3234
g69
(dp3235
sg78
g3220
sg71
(lp3236
g64
(g65
g66
NtRp3237
(dp3238
g69
(dp3239
g77
I3
ssg78
g3233
sg71
(lp3240
S'<cStringIO.StringO object at 0xadd69f80>'
p3241
asbasbasbag64
(g80
g66
NtRp3242
(dp3243
g69
(dp3244
sg78
g2794
sg71
(lp3245
g64
(g85
g66
NtRp3246
(dp3247
g69
(dp3248
g89
g90
ssg78
g3242
sg71
(lp3249
S'wsgi.multiprocess'
p3250
asbag64
(g85
g66
NtRp3251
(dp3252
g69
(dp3253
g96
g97
ssg78
g3242
sg71
(lp3254
S':'
asbag64
(g85
g66
NtRp3255
(dp3256
g69
(dp3257
sg78
g3242
sg71
(lp3258
g64
(g65
g66
NtRp3259
(dp3260
g69
(dp3261
g77
I3
ssg78
g3255
sg71
(lp3262
g107
asbasbasbag64
(g80
g66
NtRp3263
(dp3264
g69
(dp3265
sg78
g2794
sg71
(lp3266
g64
(g85
g66
NtRp3267
(dp3268
g69
(dp3269
g89
g90
ssg78
g3263
sg71
(lp3270
S'wsgi.multithread'
p3271
asbag64
(g85
g66
NtRp3272
(dp3273
g69
(dp3274
g96
g97
ssg78
g3263
sg71
(lp3275
S':'
asbag64
(g85
g66
NtRp3276
(dp3277
g69
(dp3278
sg78
g3263
sg71
(lp3279
g64
(g65
g66
NtRp3280
(dp3281
g69
(dp3282
g77
I3
ssg78
g3276
sg71
(lp3283
g1940
asbasbasbag64
(g80
g66
NtRp3284
(dp3285
g69
(dp3286
sg78
g2794
sg71
(lp3287
g64
(g85
g66
NtRp3288
(dp3289
g69
(dp3290
g89
g90
ssg78
g3284
sg71
(lp3291
S'wsgi.run_once'
p3292
asbag64
(g85
g66
NtRp3293
(dp3294
g69
(dp3295
g96
g97
ssg78
g3284
sg71
(lp3296
S':'
asbag64
(g85
g66
NtRp3297
(dp3298
g69
(dp3299
sg78
g3284
sg71
(lp3300
g64
(g65
g66
NtRp3301
(dp3302
g69
(dp3303
g77
I3
ssg78
g3297
sg71
(lp3304
g107
asbasbasbag64
(g80
g66
NtRp3305
(dp3306
g69
(dp3307
sg78
g2794
sg71
(lp3308
g64
(g85
g66
NtRp3309
(dp3310
g69
(dp3311
g89
g90
ssg78
g3305
sg71
(lp3312
S'wsgi.url_scheme'
p3313
asbag64
(g85
g66
NtRp3314
(dp3315
g69
(dp3316
g96
g97
ssg78
g3305
sg71
(lp3317
S':'
asbag64
(g85
g66
NtRp3318
(dp3319
g69
(dp3320
sg78
g3305
sg71
(lp3321
g64
(g65
g66
NtRp3322
(dp3323
g69
(dp3324
g77
I3
ssg78
g3318
sg71
(lp3325
g1983
asbasbasbag64
(g80
g66
NtRp3326
(dp3327
g69
(dp3328
sg78
g2794
sg71
(lp3329
g64
(g85
g66
NtRp3330
(dp3331
g69
(dp3332
g89
g90
ssg78
g3326
sg71
(lp3333
S'wsgi.version'
p3334
asbag64
(g85
g66
NtRp3335
(dp3336
g69
(dp3337
g96
g97
ssg78
g3326
sg71
(lp3338
S':'
asbag64
(g85
g66
NtRp3339
(dp3340
g69
(dp3341
sg78
g3326
sg71
(lp3342
g64
(g65
g66
NtRp3343
(dp3344
g69
(dp3345
g77
I3
ssg78
g3339
sg71
(lp3346
S'1'
asbasbasbasbasbasbasbasbasbasbasbasbasbsS'frames'
p3347
(lp3348
(dp3349
S'file'
p3350
S'/home/nazrul/web2py/gluon/restricted.py'
p3351
sS'dump'
p3352
(dp3353
S'environment'
p3354
S"{'A': <class 'gluon.html.A'>, 'Auth': <class 'gluon.tools.Auth'>, 'B': <class 'gluon.html.B'>, 'BEAUTIFY': <class 'gluon.html.BEAUTIFY'>, 'BODY': <class 'gluon.html.BODY'>, 'BR': <class 'gluon.html.BR'>, 'BUTTON': <class 'gluon.html.BUTTON'>, 'CAT': <class 'gluon.html.CAT'>, 'CENTER': <class 'gluon.html.CENTER'>, 'CLEANUP': <class 'gluon.validators.CLEANUP'>, ...}"
p3355
sS'ccode'
p3356
S'<code object <module> at 0xab3ea88, file "/home/...ations/WSD_Tool/controllers/default.py", line 11>'
p3357
ssS'lnum'
p3358
I212
sS'lines'
p3359
(dp3360
I207
S'    try:'
p3361
sI208
S'        if isinstance(code, types.CodeType):'
p3362
sI209
S'            ccode = code'
p3363
sI210
S'        else:'
p3364
sI211
S'            ccode = compile2(code, layer)'
p3365
sI212
S'        exec ccode in environment'
p3366
sI213
S'    except HTTP:'
p3367
sI214
S'        raise'
p3368
sI215
S'    except RestrictedError:'
p3369
sI216
S'        # do not encapsulate (obfuscate) the original RestrictedError'
p3370
ssS'call'
p3371
S"(code='# -*- coding: utf-8 -*-\\n# this file is released ... dict(v=v)\\n\\nresponse._vars=response._caller(rel)\\n', environment={'A': <class 'gluon.html.A'>, 'Auth': <class 'gluon.tools.Auth'>, 'B': <class 'gluon.html.B'>, 'BEAUTIFY': <class 'gluon.html.BEAUTIFY'>, 'BODY': <class 'gluon.html.BODY'>, 'BR': <class 'gluon.html.BR'>, 'BUTTON': <class 'gluon.html.BUTTON'>, 'CAT': <class 'gluon.html.CAT'>, 'CENTER': <class 'gluon.html.CENTER'>, 'CLEANUP': <class 'gluon.validators.CLEANUP'>, ...}, layer='/home/nazrul/web2py/applications/WSD_Tool/controllers/default.py')"
p3372
sS'func'
p3373
S'restricted'
p3374
sa(dp3375
g3350
S'/home/nazrul/web2py/applications/WSD_Tool/controllers/default.py'
p3376
sg3352
(dp3377
sg3358
I261
sg3359
(dp3378
I256
S''
sI257
S'def testt():'
p3379
sI258
S'    v=db(db.auth_user).select()'
p3380
sI259
S'    return dict(v=v)'
p3381
sI250
S"       subprocess.call('/home/nazrul/Dropbox/iiit/sem3/ssad/project/anu_testing/bin/Anusaaraka_stanford.sh sample 0 True')"
p3382
sI251
S'       f.close()'
p3383
sI252
S"       f=open('$HOME_anu_tmp/tmp/sample_tmp/2.1/word.dat','r')"
p3384
sI253
S'       a=f.read()'
p3385
sI254
S'       f.close()'
p3386
sI255
S'       return dict(a=a)'
p3387
ssg3371
S'()'
p3388
sg3373
S'<module>'
p3389
sa(dp3390
g3350
S'/home/nazrul/web2py/gluon/globals.py'
p3391
sg3352
(dp3392
S'self'
p3393
S'undefined'
p3394
sS'f'
S'<function rel>'
p3395
ssg3358
I193
sg3359
(dp3396
I192
S'        self._vars = None'
p3397
sI193
S'        self._caller = lambda f: f()'
p3398
sI194
S'        self._view_environment = None'
p3399
sI195
S'        self._custom_commit = None'
p3400
sI196
S'        self._custom_rollback = None'
p3401
sI197
S''
sI188
S'        self.menu = []             # used by the default view layout'
p3402
sI189
S'        self.files = []            # used by web2py_ajax.html'
p3403
sI190
S'        self.generic_patterns = []  # patterns to allow generic views'
p3404
sI191
S"        self.delimiters = ('{{', '}}')"
p3405
ssg3371
S'(f=<function rel>)'
p3406
sg3373
S'<lambda>'
p3407
sa(dp3408
g3350
S'/home/nazrul/web2py/applications/WSD_Tool/controllers/default.py'
p3409
sg3352
(dp3410
S'subprocess.call'
p3411
S'<function call>'
p3412
sS'global subprocess'
p3413
S"<module 'subprocess' from '/usr/lib/python2.7/subprocess.pyc'>"
p3414
ssg3358
I250
sg3359
(dp3415
I245
S'       from subprocess import *'
p3416
sI246
S"       #shell_command = 'Anusaaraka_stanford.sh  sample 0 True'"
p3417
sI247
S'       #event = Popen(shell_command, shell=True, stdin=PIPE, stdout=PIPE, stderr=STDOUT)'
p3418
sI248
S'       #event.communicate()'
p3419
sI249
S'       #os.system("Anusaaraka_stanford.sh sample 0 True")'
p3420
sI250
S"       subprocess.call('/home/nazrul/Dropbox/iiit/sem3/ssad/project/anu_testing/bin/Anusaaraka_stanford.sh sample 0 True')"
p3421
sI251
S'       f.close()'
p3422
sI252
S"       f=open('$HOME_anu_tmp/tmp/sample_tmp/2.1/word.dat','r')"
p3423
sI253
S'       a=f.read()'
p3424
sI254
S'       f.close()'
p3425
ssg3371
S'()'
p3426
sg3373
S'rel'
p3427
sa(dp3428
g3350
S'/usr/lib/python2.7/subprocess.py'
p3429
sg3352
(dp3430
S').wait'
p3431
g3394
sS'global Popen'
p3432
S"<class 'subprocess.Popen'>"
p3433
sS'popenargs'
p3434
S"('/home/nazrul/Dropbox/iiit/sem3/ssad/project/anu_testing/bin/Anusaaraka_stanford.sh sample 0 True',)"
p3435
sS'kwargs'
p3436
S'{}'
p3437
ssg3358
I493
sg3359
(dp3438
I488
S''
sI489
S'    The arguments are the same as for the Popen constructor.  Example:'
p3439
sI490
S''
sI491
S'    retcode = call(["ls", "-l"])'
p3440
sI492
S'    """'
p3441
sI493
S'    return Popen(*popenargs, **kwargs).wait()'
p3442
sI494
S''
sI495
S''
sI496
S'def check_call(*popenargs, **kwargs):'
p3443
sI497
S'    """Run command with arguments.  Wait for command to complete.  If'
p3444
ssg3371
S"(*popenargs=('/home/nazrul/Dropbox/iiit/sem3/ssad/project/anu_testing/bin/Anusaaraka_stanford.sh sample 0 True',), **kwargs={})"
p3445
sg3373
g3371
sa(dp3446
g3350
S'/usr/lib/python2.7/subprocess.py'
p3447
sg3352
(dp3448
S'errwrite'
p3449
S'None'
p3450
sS'errread'
p3451
S'None'
p3452
ssg3358
I679
sg3359
(dp3453
I674
S'        self._execute_child(args, executable, preexec_fn, close_fds,'
p3454
sI675
S'                            cwd, env, universal_newlines,'
p3455
sI676
S'                            startupinfo, creationflags, shell,'
p3456
sI677
S'                            p2cread, p2cwrite,'
p3457
sI678
S'                            c2pread, c2pwrite,'
p3458
sI679
S'                            errread, errwrite)'
p3459
sI680
S''
sI681
S'        if mswindows:'
p3460
sI682
S'            if p2cwrite is not None:'
p3461
sI683
S'                p2cwrite = msvcrt.open_osfhandle(p2cwrite.Detach(), 0)'
p3462
ssg3371
S"(self=<subprocess.Popen object>, args='/home/nazrul/Dropbox/iiit/sem3/ssad/project/anu_testing/bin/Anusaaraka_stanford.sh sample 0 True', bufsize=0, executable=None, stdin=None, stdout=None, stderr=None, preexec_fn=None, close_fds=False, shell=False, cwd=None, env=None, universal_newlines=False, startupinfo=None, creationflags=0)"
p3463
sg3373
g22
sa(dp3464
g3350
S'/usr/lib/python2.7/subprocess.py'
p3465
sg3352
(dp3466
S'child_exception'
p3467
S"OSError(2, 'No such file or directory')"
p3468
ssg3358
I1249
sg3359
(dp3469
I1248
S'                        os.close(fd)'
p3470
sI1249
S'                raise child_exception'
p3471
sI1250
S''
sI1251
S''
sI1252
S'        def _handle_exitstatus(self, sts, _WIFSIGNALED=os.WIFSIGNALED,'
p3472
sI1253
S'                _WTERMSIG=os.WTERMSIG, _WIFEXITED=os.WIFEXITED,'
p3473
sI1244
S'                        raise'
p3474
sI1245
S'                child_exception = pickle.loads(data)'
p3475
sI1246
S'                for fd in (p2cwrite, c2pread, errread):'
p3476
sI1247
S'                    if fd is not None:'
p3477
ssg3371
S"(self=<subprocess.Popen object>, args=['/home/nazrul/Dropbox/iiit/sem3/ssad/project/anu_testing/bin/Anusaaraka_stanford.sh sample 0 True'], executable='/home/nazrul/Dropbox/iiit/sem3/ssad/project/anu_testing/bin/Anusaaraka_stanford.sh sample 0 True', preexec_fn=None, close_fds=False, cwd=None, env=None, universal_newlines=False, startupinfo=None, creationflags=0, shell=False, p2cread=None, p2cwrite=None, c2pread=None, c2pwrite=None, errread=None, errwrite=None)"
p3478
sg3373
S'_execute_child'
p3479
sasS'pyver'
p3480
S'Python 2.7.3: /usr/bin/python'
p3481
sS'session'
p3482
g64
(g65
g66
NtRp3483
(dp3484
g69
(dp3485
sg71
(lp3486
g64
(g73
g66
NtRp3487
(dp3488
g69
(dp3489
g77
I5
ssg78
Nsg71
(lp3490
g64
(g80
g66
NtRp3491
(dp3492
g69
(dp3493
sg78
g3487
sg71
(lp3494
g64
(g85
g66
NtRp3495
(dp3496
g69
(dp3497
g89
g90
ssg78
g3491
sg71
(lp3498
S'flash'
p3499
asbag64
(g85
g66
NtRp3500
(dp3501
g69
(dp3502
g96
g97
ssg78
g3491
sg71
(lp3503
S':'
asbag64
(g85
g66
NtRp3504
(dp3505
g69
(dp3506
sg78
g3491
sg71
(lp3507
g64
(g65
g66
NtRp3508
(dp3509
g69
(dp3510
g77
I5
ssg78
g3504
sg71
(lp3511
S'None'
p3512
asbasbasbag64
(g80
g66
NtRp3513
(dp3514
g69
(dp3515
sg78
g3487
sg71
(lp3516
g64
(g85
g66
NtRp3517
(dp3518
g69
(dp3519
g89
g90
ssg78
g3513
sg71
(lp3520
S'ide'
p3521
asbag64
(g85
g66
NtRp3522
(dp3523
g69
(dp3524
g96
g97
ssg78
g3513
sg71
(lp3525
S':'
asbag64
(g85
g66
NtRp3526
(dp3527
g69
(dp3528
sg78
g3513
sg71
(lp3529
g64
(g65
g66
NtRp3530
(dp3531
g69
(dp3532
g77
I5
ssg78
g3526
sg71
(lp3533
S'10'
p3534
asbasbasbag64
(g80
g66
NtRp3535
(dp3536
g69
(dp3537
sg78
g3487
sg71
(lp3538
g64
(g85
g66
NtRp3539
(dp3540
g69
(dp3541
g89
g90
ssg78
g3535
sg71
(lp3542
S'last_orderby'
p3543
asbag64
(g85
g66
NtRp3544
(dp3545
g69
(dp3546
g96
g97
ssg78
g3535
sg71
(lp3547
S':'
asbag64
(g85
g66
NtRp3548
(dp3549
g69
(dp3550
sg78
g3535
sg71
(lp3551
g64
(g65
g66
NtRp3552
(dp3553
g69
(dp3554
g77
I5
ssg78
g3548
sg71
(lp3555
S'None'
p3556
asbasbasbag64
(g80
g66
NtRp3557
(dp3558
g69
(dp3559
sg78
g3487
sg71
(lp3560
g64
(g85
g66
NtRp3561
(dp3562
g69
(dp3563
g89
g90
ssg78
g3557
sg71
(lp3564
S'last_query'
p3565
asbag64
(g85
g66
NtRp3566
(dp3567
g69
(dp3568
g96
g97
ssg78
g3557
sg71
(lp3569
S':'
asbag64
(g85
g66
NtRp3570
(dp3571
g69
(dp3572
sg78
g3557
sg71
(lp3573
g64
(g65
g66
NtRp3574
(dp3575
g69
(dp3576
g77
I5
ssg78
g3570
sg71
(lp3577
S'db.rules.id>0'
p3578
asbasbasbag64
(g80
g66
NtRp3579
(dp3580
g69
(dp3581
sg78
g3487
sg71
(lp3582
g64
(g85
g66
NtRp3583
(dp3584
g69
(dp3585
g89
g90
ssg78
g3579
sg71
(lp3586
S'sid'
p3587
asbag64
(g85
g66
NtRp3588
(dp3589
g69
(dp3590
g96
g97
ssg78
g3579
sg71
(lp3591
S':'
asbag64
(g85
g66
NtRp3592
(dp3593
g69
(dp3594
sg78
g3579
sg71
(lp3595
g64
(g65
g66
NtRp3596
(dp3597
g69
(dp3598
g77
I5
ssg78
g3592
sg71
(lp3599
S'11'
p3600
asbasbasbag64
(g80
g66
NtRp3601
(dp3602
g69
(dp3603
sg78
g3487
sg71
(lp3604
g64
(g85
g66
NtRp3605
(dp3606
g69
(dp3607
g89
g90
ssg78
g3601
sg71
(lp3608
S'word'
p3609
asbag64
(g85
g66
NtRp3610
(dp3611
g69
(dp3612
g96
g97
ssg78
g3601
sg71
(lp3613
S':'
asbag64
(g85
g66
NtRp3614
(dp3615
g69
(dp3616
sg78
g3601
sg71
(lp3617
g64
(g65
g66
NtRp3618
(dp3619
g69
(dp3620
g77
I5
ssg78
g3614
sg71
(lp3621
S'product'
p3622
asbasbasbasbasbsS'etype'
p3623
S"<type 'exceptions.OSError'>"
p3624
sS'date'
p3625
S'Sat Nov  9 18:07:38 2013'
p3626
sS'response'
p3627
g64
(g65
g66
NtRp3628
(dp3629
g69
(dp3630
sg71
(lp3631
g64
(g73
g66
NtRp3632
(dp3633
g69
(dp3634
g77
I5
ssg78
Nsg71
(lp3635
g64
(g80
g66
NtRp3636
(dp3637
g69
(dp3638
sg78
g3632
sg71
(lp3639
g64
(g85
g66
NtRp3640
(dp3641
g69
(dp3642
g89
g90
ssg78
g3636
sg71
(lp3643
g162
asbag64
(g85
g66
NtRp3644
(dp3645
g69
(dp3646
g96
g97
ssg78
g3636
sg71
(lp3647
S':'
asbag64
(g85
g66
NtRp3648
(dp3649
g69
(dp3650
sg78
g3636
sg71
(lp3651
g64
(g65
g66
NtRp3652
(dp3653
g69
(dp3654
g77
I5
ssg78
g3648
sg71
(lp3655
S'<cStringIO.StringO object at 0xadb59a0>'
p3656
asbasbasbag64
(g80
g66
NtRp3657
(dp3658
g69
(dp3659
sg78
g3632
sg71
(lp3660
g64
(g85
g66
NtRp3661
(dp3662
g69
(dp3663
g89
g90
ssg78
g3657
sg71
(lp3664
g250
asbag64
(g85
g66
NtRp3665
(dp3666
g69
(dp3667
g96
g97
ssg78
g3657
sg71
(lp3668
S':'
asbag64
(g85
g66
NtRp3669
(dp3670
g69
(dp3671
sg78
g3657
sg71
(lp3672
g64
(g65
g66
NtRp3673
(dp3674
g69
(dp3675
g77
I5
ssg78
g3669
sg71
(lp3676
g64
(g73
g66
NtRp3677
(dp3678
g69
(dp3679
g77
I4
ssg78
Nsg71
(lp3680
g64
(g80
g66
NtRp3681
(dp3682
g69
(dp3683
sg78
g3677
sg71
(lp3684
g64
(g85
g66
NtRp3685
(dp3686
g69
(dp3687
g89
g90
ssg78
g3681
sg71
(lp3688
S'session_id_wsd_tool'
p3689
asbag64
(g85
g66
NtRp3690
(dp3691
g69
(dp3692
g96
g97
ssg78
g3681
sg71
(lp3693
S':'
asbag64
(g85
g66
NtRp3694
(dp3695
g69
(dp3696
sg78
g3681
sg71
(lp3697
g64
(g65
g66
NtRp3698
(dp3699
g69
(dp3700
g77
I4
ssg78
g3694
sg71
(lp3701
g854
ag64
(g73
g66
NtRp3702
(dp3703
g69
(dp3704
g77
I3
ssg78
Nsg71
(lp3705
g64
(g80
g66
NtRp3706
(dp3707
g69
(dp3708
sg78
g3702
sg71
(lp3709
g64
(g85
g66
NtRp3710
(dp3711
g69
(dp3712
g89
g90
ssg78
g3706
sg71
(lp3713
g301
asbag64
(g85
g66
NtRp3714
(dp3715
g69
(dp3716
g96
g97
ssg78
g3706
sg71
(lp3717
S':'
asbag64
(g85
g66
NtRp3718
(dp3719
g69
(dp3720
sg78
g3706
sg71
(lp3721
g64
(g65
g66
NtRp3722
(dp3723
g69
(dp3724
g77
I3
ssg78
g3718
sg71
(lp3725
S''
asbasbasbag64
(g80
g66
NtRp3726
(dp3727
g69
(dp3728
sg78
g3702
sg71
(lp3729
g64
(g85
g66
NtRp3730
(dp3731
g69
(dp3732
g89
g90
ssg78
g3726
sg71
(lp3733
g322
asbag64
(g85
g66
NtRp3734
(dp3735
g69
(dp3736
g96
g97
ssg78
g3726
sg71
(lp3737
S':'
asbag64
(g85
g66
NtRp3738
(dp3739
g69
(dp3740
sg78
g3726
sg71
(lp3741
g64
(g65
g66
NtRp3742
(dp3743
g69
(dp3744
g77
I3
ssg78
g3738
sg71
(lp3745
S''
asbasbasbag64
(g80
g66
NtRp3746
(dp3747
g69
(dp3748
sg78
g3702
sg71
(lp3749
g64
(g85
g66
NtRp3750
(dp3751
g69
(dp3752
g89
g90
ssg78
g3746
sg71
(lp3753
g343
asbag64
(g85
g66
NtRp3754
(dp3755
g69
(dp3756
g96
g97
ssg78
g3746
sg71
(lp3757
S':'
asbag64
(g85
g66
NtRp3758
(dp3759
g69
(dp3760
sg78
g3746
sg71
(lp3761
g64
(g65
g66
NtRp3762
(dp3763
g69
(dp3764
g77
I3
ssg78
g3758
sg71
(lp3765
S''
asbasbasbag64
(g80
g66
NtRp3766
(dp3767
g69
(dp3768
sg78
g3702
sg71
(lp3769
g64
(g85
g66
NtRp3770
(dp3771
g69
(dp3772
g89
g90
ssg78
g3766
sg71
(lp3773
g364
asbag64
(g85
g66
NtRp3774
(dp3775
g69
(dp3776
g96
g97
ssg78
g3766
sg71
(lp3777
S':'
asbag64
(g85
g66
NtRp3778
(dp3779
g69
(dp3780
sg78
g3766
sg71
(lp3781
g64
(g65
g66
NtRp3782
(dp3783
g69
(dp3784
g77
I3
ssg78
g3778
sg71
(lp3785
S''
asbasbasbag64
(g80
g66
NtRp3786
(dp3787
g69
(dp3788
sg78
g3702
sg71
(lp3789
g64
(g85
g66
NtRp3790
(dp3791
g69
(dp3792
g89
g90
ssg78
g3786
sg71
(lp3793
g385
asbag64
(g85
g66
NtRp3794
(dp3795
g69
(dp3796
g96
g97
ssg78
g3786
sg71
(lp3797
S':'
asbag64
(g85
g66
NtRp3798
(dp3799
g69
(dp3800
sg78
g3786
sg71
(lp3801
g64
(g65
g66
NtRp3802
(dp3803
g69
(dp3804
g77
I3
ssg78
g3798
sg71
(lp3805
S''
asbasbasbag64
(g80
g66
NtRp3806
(dp3807
g69
(dp3808
sg78
g3702
sg71
(lp3809
g64
(g85
g66
NtRp3810
(dp3811
g69
(dp3812
g89
g90
ssg78
g3806
sg71
(lp3813
g406
asbag64
(g85
g66
NtRp3814
(dp3815
g69
(dp3816
g96
g97
ssg78
g3806
sg71
(lp3817
S':'
asbag64
(g85
g66
NtRp3818
(dp3819
g69
(dp3820
sg78
g3806
sg71
(lp3821
g64
(g65
g66
NtRp3822
(dp3823
g69
(dp3824
g77
I3
ssg78
g3818
sg71
(lp3825
S'/'
asbasbasbag64
(g80
g66
NtRp3826
(dp3827
g69
(dp3828
sg78
g3702
sg71
(lp3829
g64
(g85
g66
NtRp3830
(dp3831
g69
(dp3832
g89
g90
ssg78
g3826
sg71
(lp3833
g427
asbag64
(g85
g66
NtRp3834
(dp3835
g69
(dp3836
g96
g97
ssg78
g3826
sg71
(lp3837
S':'
asbag64
(g85
g66
NtRp3838
(dp3839
g69
(dp3840
sg78
g3826
sg71
(lp3841
g64
(g65
g66
NtRp3842
(dp3843
g69
(dp3844
g77
I3
ssg78
g3838
sg71
(lp3845
S''
asbasbasbag64
(g80
g66
NtRp3846
(dp3847
g69
(dp3848
sg78
g3702
sg71
(lp3849
g64
(g85
g66
NtRp3850
(dp3851
g69
(dp3852
g89
g90
ssg78
g3846
sg71
(lp3853
g448
asbag64
(g85
g66
NtRp3854
(dp3855
g69
(dp3856
g96
g97
ssg78
g3846
sg71
(lp3857
S':'
asbag64
(g85
g66
NtRp3858
(dp3859
g69
(dp3860
sg78
g3846
sg71
(lp3861
g64
(g65
g66
NtRp3862
(dp3863
g69
(dp3864
g77
I3
ssg78
g3858
sg71
(lp3865
S''
asbasbasbasbasbasbasbasbasbasbasbag64
(g80
g66
NtRp3866
(dp3867
g69
(dp3868
sg78
g3632
sg71
(lp3869
g64
(g85
g66
NtRp3870
(dp3871
g69
(dp3872
g89
g90
ssg78
g3866
sg71
(lp3873
S'delimiters'
p3874
asbag64
(g85
g66
NtRp3875
(dp3876
g69
(dp3877
g96
g97
ssg78
g3866
sg71
(lp3878
S':'
asbag64
(g85
g66
NtRp3879
(dp3880
g69
(dp3881
sg78
g3866
sg71
(lp3882
g64
(g65
g66
NtRp3883
(dp3884
g69
(dp3885
g77
I5
ssg78
g3879
sg71
(lp3886
g64
(g73
g66
NtRp3887
(dp3888
g69
(dp3889
g77
I4
ssg78
Nsg71
(lp3890
g64
(g80
g66
NtRp3891
(dp3892
g69
(dp3893
sg78
g3887
sg71
(lp3894
g64
(g85
g66
NtRp3895
(dp3896
g69
(dp3897
sg78
g3891
sg71
(lp3898
g64
(g65
g66
NtRp3899
(dp3900
g69
(dp3901
g77
I4
ssg78
g3895
sg71
(lp3902
S'{{'
p3903
asbasbasbag64
(g80
g66
NtRp3904
(dp3905
g69
(dp3906
sg78
g3887
sg71
(lp3907
g64
(g85
g66
NtRp3908
(dp3909
g69
(dp3910
sg78
g3904
sg71
(lp3911
g64
(g65
g66
NtRp3912
(dp3913
g69
(dp3914
g77
I4
ssg78
g3908
sg71
(lp3915
S'}}'
p3916
asbasbasbasbasbasbasbag64
(g80
g66
NtRp3917
(dp3918
g69
(dp3919
sg78
g3632
sg71
(lp3920
g64
(g85
g66
NtRp3921
(dp3922
g69
(dp3923
g89
g90
ssg78
g3917
sg71
(lp3924
S'files'
p3925
asbag64
(g85
g66
NtRp3926
(dp3927
g69
(dp3928
g96
g97
ssg78
g3917
sg71
(lp3929
S':'
asbag64
(g85
g66
NtRp3930
(dp3931
g69
(dp3932
sg78
g3917
sg71
(lp3933
g64
(g65
g66
NtRp3934
(dp3935
g69
(dp3936
g77
I5
ssg78
g3930
sg71
(lp3937
g64
(g73
g66
NtRp3938
(dp3939
g69
(dp3940
g77
I4
ssg78
Nsg71
(lp3941
sbasbasbasbag64
(g80
g66
NtRp3942
(dp3943
g69
(dp3944
sg78
g3632
sg71
(lp3945
g64
(g85
g66
NtRp3946
(dp3947
g69
(dp3948
g89
g90
ssg78
g3942
sg71
(lp3949
S'flash'
p3950
asbag64
(g85
g66
NtRp3951
(dp3952
g69
(dp3953
g96
g97
ssg78
g3942
sg71
(lp3954
S':'
asbag64
(g85
g66
NtRp3955
(dp3956
g69
(dp3957
sg78
g3942
sg71
(lp3958
g64
(g65
g66
NtRp3959
(dp3960
g69
(dp3961
g77
I5
ssg78
g3955
sg71
(lp3962
S''
asbasbasbag64
(g80
g66
NtRp3963
(dp3964
g69
(dp3965
sg78
g3632
sg71
(lp3966
g64
(g85
g66
NtRp3967
(dp3968
g69
(dp3969
g89
g90
ssg78
g3963
sg71
(lp3970
S'generic_patterns'
p3971
asbag64
(g85
g66
NtRp3972
(dp3973
g69
(dp3974
g96
g97
ssg78
g3963
sg71
(lp3975
S':'
asbag64
(g85
g66
NtRp3976
(dp3977
g69
(dp3978
sg78
g3963
sg71
(lp3979
g64
(g65
g66
NtRp3980
(dp3981
g69
(dp3982
g77
I5
ssg78
g3976
sg71
(lp3983
g64
(g73
g66
NtRp3984
(dp3985
g69
(dp3986
g77
I4
ssg78
Nsg71
(lp3987
g64
(g80
g66
NtRp3988
(dp3989
g69
(dp3990
sg78
g3984
sg71
(lp3991
g64
(g85
g66
NtRp3992
(dp3993
g69
(dp3994
sg78
g3988
sg71
(lp3995
g64
(g65
g66
NtRp3996
(dp3997
g69
(dp3998
g77
I4
ssg78
g3992
sg71
(lp3999
S'*'
asbasbasbasbasbasbasbag64
(g80
g66
NtRp4000
(dp4001
g69
(dp4002
sg78
g3632
sg71
(lp4003
g64
(g85
g66
NtRp4004
(dp4005
g69
(dp4006
g89
g90
ssg78
g4000
sg71
(lp4007
S'google_analytics_id'
p4008
asbag64
(g85
g66
NtRp4009
(dp4010
g69
(dp4011
g96
g97
ssg78
g4000
sg71
(lp4012
S':'
asbag64
(g85
g66
NtRp4013
(dp4014
g69
(dp4015
sg78
g4000
sg71
(lp4016
g64
(g65
g66
NtRp4017
(dp4018
g69
(dp4019
g77
I5
ssg78
g4013
sg71
(lp4020
S'None'
p4021
asbasbasbag64
(g80
g66
NtRp4022
(dp4023
g69
(dp4024
sg78
g3632
sg71
(lp4025
g64
(g85
g66
NtRp4026
(dp4027
g69
(dp4028
g89
g90
ssg78
g4022
sg71
(lp4029
S'headers'
p4030
asbag64
(g85
g66
NtRp4031
(dp4032
g69
(dp4033
g96
g97
ssg78
g4022
sg71
(lp4034
S':'
asbag64
(g85
g66
NtRp4035
(dp4036
g69
(dp4037
sg78
g4022
sg71
(lp4038
g64
(g65
g66
NtRp4039
(dp4040
g69
(dp4041
g77
I5
ssg78
g4035
sg71
(lp4042
g64
(g73
g66
NtRp4043
(dp4044
g69
(dp4045
g77
I4
ssg78
Nsg71
(lp4046
g64
(g80
g66
NtRp4047
(dp4048
g69
(dp4049
sg78
g4043
sg71
(lp4050
g64
(g85
g66
NtRp4051
(dp4052
g69
(dp4053
g89
g90
ssg78
g4047
sg71
(lp4054
S'X-Powered-By'
p4055
asbag64
(g85
g66
NtRp4056
(dp4057
g69
(dp4058
g96
g97
ssg78
g4047
sg71
(lp4059
S':'
asbag64
(g85
g66
NtRp4060
(dp4061
g69
(dp4062
sg78
g4047
sg71
(lp4063
g64
(g65
g66
NtRp4064
(dp4065
g69
(dp4066
g77
I4
ssg78
g4060
sg71
(lp4067
S'web2py'
p4068
asbasbasbasbasbasbasbag64
(g80
g66
NtRp4069
(dp4070
g69
(dp4071
sg78
g3632
sg71
(lp4072
g64
(g85
g66
NtRp4073
(dp4074
g69
(dp4075
g89
g90
ssg78
g4069
sg71
(lp4076
S'menu'
p4077
asbag64
(g85
g66
NtRp4078
(dp4079
g69
(dp4080
g96
g97
ssg78
g4069
sg71
(lp4081
S':'
asbag64
(g85
g66
NtRp4082
(dp4083
g69
(dp4084
sg78
g4069
sg71
(lp4085
g64
(g65
g66
NtRp4086
(dp4087
g69
(dp4088
g77
I5
ssg78
g4082
sg71
(lp4089
g64
(g73
g66
NtRp4090
(dp4091
g69
(dp4092
g77
I4
ssg78
Nsg71
(lp4093
g64
(g80
g66
NtRp4094
(dp4095
g69
(dp4096
sg78
g4090
sg71
(lp4097
g64
(g85
g66
NtRp4098
(dp4099
g69
(dp4100
sg78
g4094
sg71
(lp4101
g64
(g65
g66
NtRp4102
(dp4103
g69
(dp4104
g77
I4
ssg78
g4098
sg71
(lp4105
g64
(g73
g66
NtRp4106
(dp4107
g69
(dp4108
g77
I3
ssg78
Nsg71
(lp4109
g64
(g80
g66
NtRp4110
(dp4111
g69
(dp4112
sg78
g4106
sg71
(lp4113
g64
(g85
g66
NtRp4114
(dp4115
g69
(dp4116
sg78
g4110
sg71
(lp4117
g64
(g65
g66
NtRp4118
(dp4119
g69
(dp4120
g77
I3
ssg78
g4114
sg71
(lp4121
cgluon.languages
lazyT_unpickle
p4122
(S't\x04\x00\x00\x00Home'
tRp4123
asbasbasbag64
(g80
g66
NtRp4124
(dp4125
g69
(dp4126
sg78
g4106
sg71
(lp4127
g64
(g85
g66
NtRp4128
(dp4129
g69
(dp4130
sg78
g4124
sg71
(lp4131
g64
(g65
g66
NtRp4132
(dp4133
g69
(dp4134
g77
I3
ssg78
g4128
sg71
(lp4135
g107
asbasbasbag64
(g80
g66
NtRp4136
(dp4137
g69
(dp4138
sg78
g4106
sg71
(lp4139
g64
(g85
g66
NtRp4140
(dp4141
g69
(dp4142
sg78
g4136
sg71
(lp4143
g64
(g65
g66
NtRp4144
(dp4145
g69
(dp4146
g77
I3
ssg78
g4140
sg71
(lp4147
S'/WSD_Tool/default/index'
p4148
asbasbasbag64
(g80
g66
NtRp4149
(dp4150
g69
(dp4151
sg78
g4106
sg71
(lp4152
g64
(g85
g66
NtRp4153
(dp4154
g69
(dp4155
sg78
g4149
sg71
(lp4156
g64
(g65
g66
NtRp4157
(dp4158
g69
(dp4159
g77
I3
ssg78
g4153
sg71
(lp4160
g64
(g73
g66
NtRp4161
(dp4162
g69
(dp4163
g77
I2
ssg78
Nsg71
(lp4164
sbasbasbasbasbasbasbasbag64
(g80
g66
NtRp4165
(dp4166
g69
(dp4167
sg78
g4090
sg71
(lp4168
g64
(g85
g66
NtRp4169
(dp4170
g69
(dp4171
sg78
g4165
sg71
(lp4172
g64
(g65
g66
NtRp4173
(dp4174
g69
(dp4175
g77
I4
ssg78
g4169
sg71
(lp4176
g64
(g73
g66
NtRp4177
(dp4178
g69
(dp4179
g77
I3
ssg78
Nsg71
(lp4180
g64
(g80
g66
NtRp4181
(dp4182
g69
(dp4183
sg78
g4177
sg71
(lp4184
g64
(g85
g66
NtRp4185
(dp4186
g69
(dp4187
sg78
g4181
sg71
(lp4188
g64
(g65
g66
NtRp4189
(dp4190
g69
(dp4191
g77
I3
ssg78
g4185
sg71
(lp4192
g64
(cgluon.html
SPAN
p4193
g66
NtRp4194
(dp4195
g69
(dp4196
g89
S'color:yellow'
p4197
ssg78
Nsg71
(lp4198
g4068
asbasbasbasbag64
(g80
g66
NtRp4199
(dp4200
g69
(dp4201
sg78
g4177
sg71
(lp4202
g64
(g85
g66
NtRp4203
(dp4204
g69
(dp4205
sg78
g4199
sg71
(lp4206
g64
(g65
g66
NtRp4207
(dp4208
g69
(dp4209
g77
I3
ssg78
g4203
sg71
(lp4210
g107
asbasbasbag64
(g80
g66
NtRp4211
(dp4212
g69
(dp4213
sg78
g4177
sg71
(lp4214
g64
(g85
g66
NtRp4215
(dp4216
g69
(dp4217
sg78
g4211
sg71
(lp4218
g64
(g65
g66
NtRp4219
(dp4220
g69
(dp4221
g77
I3
ssg78
g4215
sg71
(lp4222
S'None'
p4223
asbasbasbag64
(g80
g66
NtRp4224
(dp4225
g69
(dp4226
sg78
g4177
sg71
(lp4227
g64
(g85
g66
NtRp4228
(dp4229
g69
(dp4230
sg78
g4224
sg71
(lp4231
g64
(g65
g66
NtRp4232
(dp4233
g69
(dp4234
g77
I3
ssg78
g4228
sg71
(lp4235
g64
(g73
g66
NtRp4236
(dp4237
g69
(dp4238
g77
I2
ssg78
Nsg71
(lp4239
g64
(g80
g66
NtRp4240
(dp4241
g69
(dp4242
sg78
g4236
sg71
(lp4243
g64
(g85
g66
NtRp4244
(dp4245
g69
(dp4246
sg78
g4240
sg71
(lp4247
g64
(g65
g66
NtRp4248
(dp4249
g69
(dp4250
g77
I2
ssg78
g4244
sg71
(lp4251
g64
(g73
g66
NtRp4252
(dp4253
g69
(dp4254
g77
I1
ssg78
Nsg71
(lp4255
g64
(g80
g66
NtRp4256
(dp4257
g69
(dp4258
sg78
g4252
sg71
(lp4259
g64
(g85
g66
NtRp4260
(dp4261
g69
(dp4262
sg78
g4256
sg71
(lp4263
g64
(g65
g66
NtRp4264
(dp4265
g69
(dp4266
g77
I1
ssg78
g4260
sg71
(lp4267
g4122
(S's\x08\x00\x00\x00My Sites'
tRp4268
asbasbasbag64
(g80
g66
NtRp4269
(dp4270
g69
(dp4271
sg78
g4252
sg71
(lp4272
g64
(g85
g66
NtRp4273
(dp4274
g69
(dp4275
sg78
g4269
sg71
(lp4276
g64
(g65
g66
NtRp4277
(dp4278
g69
(dp4279
g77
I1
ssg78
g4273
sg71
(lp4280
I00
asbasbasbag64
(g80
g66
NtRp4281
(dp4282
g69
(dp4283
sg78
g4252
sg71
(lp4284
g64
(g85
g66
NtRp4285
(dp4286
g69
(dp4287
sg78
g4281
sg71
(lp4288
g64
(g65
g66
NtRp4289
(dp4290
g69
(dp4291
g77
I1
ssg78
g4285
sg71
(lp4292
S'/admin/default/site'
p4293
asbasbasbasbasbasbasbag64
(g80
g66
NtRp4294
(dp4295
g69
(dp4296
sg78
g4236
sg71
(lp4297
g64
(g85
g66
NtRp4298
(dp4299
g69
(dp4300
sg78
g4294
sg71
(lp4301
g64
(g65
g66
NtRp4302
(dp4303
g69
(dp4304
g77
I2
ssg78
g4298
sg71
(lp4305
g64
(g73
g66
NtRp4306
(dp4307
g69
(dp4308
g77
I1
ssg78
Nsg71
(lp4309
g64
(g80
g66
NtRp4310
(dp4311
g69
(dp4312
sg78
g4306
sg71
(lp4313
g64
(g85
g66
NtRp4314
(dp4315
g69
(dp4316
sg78
g4310
sg71
(lp4317
g64
(g65
g66
NtRp4318
(dp4319
g69
(dp4320
g77
I1
ssg78
g4314
sg71
(lp4321
g4122
(S's\x08\x00\x00\x00This App'
tRp4322
asbasbasbag64
(g80
g66
NtRp4323
(dp4324
g69
(dp4325
sg78
g4306
sg71
(lp4326
g64
(g85
g66
NtRp4327
(dp4328
g69
(dp4329
sg78
g4323
sg71
(lp4330
g64
(g65
g66
NtRp4331
(dp4332
g69
(dp4333
g77
I1
ssg78
g4327
sg71
(lp4334
I00
asbasbasbag64
(g80
g66
NtRp4335
(dp4336
g69
(dp4337
sg78
g4306
sg71
(lp4338
g64
(g85
g66
NtRp4339
(dp4340
g69
(dp4341
sg78
g4335
sg71
(lp4342
g64
(g65
g66
NtRp4343
(dp4344
g69
(dp4345
g77
I1
ssg78
g4339
sg71
(lp4346
S'/admin/default/design/WSD_Tool'
p4347
asbasbasbag64
(g80
g66
NtRp4348
(dp4349
g69
(dp4350
sg78
g4306
sg71
(lp4351
g64
(g85
g66
NtRp4352
(dp4353
g69
(dp4354
sg78
g4348
sg71
(lp4355
g64
(g65
g66
NtRp4356
(dp4357
g69
(dp4358
g77
I1
ssg78
g4352
sg71
(lp4359
(lp4360
(g4122
(S't\n\x00\x00\x00Controller'
tRp4361
I00
S'/admin/default/edit/WSD_Tool/controllers/default.py'
tp4362
a(g4122
(S't\x04\x00\x00\x00View'
tRp4363
I00
S'/admin/default/edit/WSD_Tool/views/default/rel.html'
tp4364
a(g4122
(S't\x06\x00\x00\x00Layout'
tRp4365
I00
S'/admin/default/edit/WSD_Tool/views/layout.html'
tp4366
a(g4122
(S't\n\x00\x00\x00Stylesheet'
tRp4367
I00
S'/admin/default/edit/WSD_Tool/static/css/web2py.css'
tp4368
a(g4122
(S's\x08\x00\x00\x00DB Model'
tRp4369
I00
S'/admin/default/edit/WSD_Tool/models/db.py'
tp4370
a(g4122
(S's\n\x00\x00\x00Menu Model'
tRp4371
I00
S'/admin/default/edit/WSD_Tool/models/menu.py'
tp4372
a(g4122
(S't\x08\x00\x00\x00Database'
tRp4373
I00
S'/WSD_Tool/appadmin/index'
tp4374
a(g4122
(S't\x06\x00\x00\x00Errors'
tRp4375
I00
S'/admin/default/errors/WSD_Tool'
tp4376
a(g4122
(S't\x05\x00\x00\x00About'
tRp4377
I00
S'/admin/default/about/WSD_Tool'
tp4378
aasbasbasbasbasbasbasbag64
(g80
g66
NtRp4379
(dp4380
g69
(dp4381
sg78
g4236
sg71
(lp4382
g64
(g85
g66
NtRp4383
(dp4384
g69
(dp4385
sg78
g4379
sg71
(lp4386
g64
(g65
g66
NtRp4387
(dp4388
g69
(dp4389
g77
I2
ssg78
g4383
sg71
(lp4390
g64
(g73
g66
NtRp4391
(dp4392
g69
(dp4393
g77
I1
ssg78
Nsg71
(lp4394
g64
(g80
g66
NtRp4395
(dp4396
g69
(dp4397
sg78
g4391
sg71
(lp4398
g64
(g85
g66
NtRp4399
(dp4400
g69
(dp4401
sg78
g4395
sg71
(lp4402
g64
(g65
g66
NtRp4403
(dp4404
g69
(dp4405
g77
I1
ssg78
g4399
sg71
(lp4406
S'web2py.com'
p4407
asbasbasbag64
(g80
g66
NtRp4408
(dp4409
g69
(dp4410
sg78
g4391
sg71
(lp4411
g64
(g85
g66
NtRp4412
(dp4413
g69
(dp4414
sg78
g4408
sg71
(lp4415
g64
(g65
g66
NtRp4416
(dp4417
g69
(dp4418
g77
I1
ssg78
g4412
sg71
(lp4419
I00
asbasbasbag64
(g80
g66
NtRp4420
(dp4421
g69
(dp4422
sg78
g4391
sg71
(lp4423
g64
(g85
g66
NtRp4424
(dp4425
g69
(dp4426
sg78
g4420
sg71
(lp4427
g64
(g65
g66
NtRp4428
(dp4429
g69
(dp4430
g77
I1
ssg78
g4424
sg71
(lp4431
S'http://www.web2py.com'
p4432
asbasbasbag64
(g80
g66
NtRp4433
(dp4434
g69
(dp4435
sg78
g4391
sg71
(lp4436
g64
(g85
g66
NtRp4437
(dp4438
g69
(dp4439
sg78
g4433
sg71
(lp4440
g64
(g65
g66
NtRp4441
(dp4442
g69
(dp4443
g77
I1
ssg78
g4437
sg71
(lp4444
(lp4445
(g4122
(S't\x08\x00\x00\x00Download'
tRp4446
I00
S'http://www.web2py.com/examples/default/download'
p4447
tp4448
a(g4122
(S't\x07\x00\x00\x00Support'
tRp4449
I00
S'http://www.web2py.com/examples/default/support'
p4450
tp4451
a(g4122
(S't\x04\x00\x00\x00Demo'
tRp4452
I00
S'http://web2py.com/demo_admin'
p4453
tp4454
a(g4122
(S's\x0e\x00\x00\x00Quick Examples'
tRp4455
I00
S'http://web2py.com/examples/default/examples'
p4456
tp4457
a(g4122
(S't\x03\x00\x00\x00FAQ'
tRp4458
I00
S'http://web2py.com/AlterEgo'
p4459
tp4460
a(g4122
(S't\x06\x00\x00\x00Videos'
tRp4461
I00
S'http://www.web2py.com/examples/default/videos/'
p4462
tp4463
a(g4122
(S's\x11\x00\x00\x00Free Applications'
tRp4464
I00
S'http://web2py.com/appliances'
p4465
tp4466
a(g4122
(S't\x07\x00\x00\x00Plugins'
tRp4467
I00
S'http://web2py.com/plugins'
p4468
tp4469
a(g4122
(S't\x07\x00\x00\x00Layouts'
tRp4470
I00
S'http://web2py.com/layouts'
p4471
tp4472
a(g4122
(S't\x07\x00\x00\x00Recipes'
tRp4473
I00
S'http://web2pyslices.com/'
p4474
tp4475
a(g4122
(S't\x08\x00\x00\x00Semantic'
tRp4476
I00
S'http://web2py.com/semantic'
p4477
tp4478
aasbasbasbasbasbasbasbag64
(g80
g66
NtRp4479
(dp4480
g69
(dp4481
sg78
g4236
sg71
(lp4482
g64
(g85
g66
NtRp4483
(dp4484
g69
(dp4485
sg78
g4479
sg71
(lp4486
g64
(g65
g66
NtRp4487
(dp4488
g69
(dp4489
g77
I2
ssg78
g4483
sg71
(lp4490
g64
(g73
g66
NtRp4491
(dp4492
g69
(dp4493
g77
I1
ssg78
Nsg71
(lp4494
g64
(g80
g66
NtRp4495
(dp4496
g69
(dp4497
sg78
g4491
sg71
(lp4498
g64
(g85
g66
NtRp4499
(dp4500
g69
(dp4501
sg78
g4495
sg71
(lp4502
g64
(g65
g66
NtRp4503
(dp4504
g69
(dp4505
g77
I1
ssg78
g4499
sg71
(lp4506
g4122
(S't\r\x00\x00\x00Documentation'
tRp4507
asbasbasbag64
(g80
g66
NtRp4508
(dp4509
g69
(dp4510
sg78
g4491
sg71
(lp4511
g64
(g85
g66
NtRp4512
(dp4513
g69
(dp4514
sg78
g4508
sg71
(lp4515
g64
(g65
g66
NtRp4516
(dp4517
g69
(dp4518
g77
I1
ssg78
g4512
sg71
(lp4519
I00
asbasbasbag64
(g80
g66
NtRp4520
(dp4521
g69
(dp4522
sg78
g4491
sg71
(lp4523
g64
(g85
g66
NtRp4524
(dp4525
g69
(dp4526
sg78
g4520
sg71
(lp4527
g64
(g65
g66
NtRp4528
(dp4529
g69
(dp4530
g77
I1
ssg78
g4524
sg71
(lp4531
S'http://www.web2py.com/book'
p4532
asbasbasbag64
(g80
g66
NtRp4533
(dp4534
g69
(dp4535
sg78
g4491
sg71
(lp4536
g64
(g85
g66
NtRp4537
(dp4538
g69
(dp4539
sg78
g4533
sg71
(lp4540
g64
(g65
g66
NtRp4541
(dp4542
g69
(dp4543
g77
I1
ssg78
g4537
sg71
(lp4544
(lp4545
(g4122
(S't\x07\x00\x00\x00Preface'
tRp4546
I00
S'http://www.web2py.com/book/default/chapter/00'
p4547
tp4548
a(g4122
(S't\x0c\x00\x00\x00Introduction'
tRp4549
I00
S'http://www.web2py.com/book/default/chapter/01'
p4550
tp4551
a(g4122
(S't\x06\x00\x00\x00Python'
tRp4552
I00
S'http://www.web2py.com/book/default/chapter/02'
p4553
tp4554
a(g4122
(S't\x08\x00\x00\x00Overview'
tRp4555
I00
S'http://www.web2py.com/book/default/chapter/03'
p4556
tp4557
a(g4122
(S's\x08\x00\x00\x00The Core'
tRp4558
I00
S'http://www.web2py.com/book/default/chapter/04'
p4559
tp4560
a(g4122
(S's\t\x00\x00\x00The Views'
tRp4561
I00
S'http://www.web2py.com/book/default/chapter/05'
p4562
tp4563
a(g4122
(S't\x08\x00\x00\x00Database'
tRp4564
I00
S'http://www.web2py.com/book/default/chapter/06'
p4565
tp4566
a(g4122
(S's\x14\x00\x00\x00Forms and Validators'
tRp4567
I00
S'http://www.web2py.com/book/default/chapter/07'
p4568
tp4569
a(g4122
(S's\r\x00\x00\x00Email and SMS'
tRp4570
I00
S'http://www.web2py.com/book/default/chapter/08'
p4571
tp4572
a(g4122
(S's\x0e\x00\x00\x00Access Control'
tRp4573
I00
S'http://www.web2py.com/book/default/chapter/09'
p4574
tp4575
a(g4122
(S't\x08\x00\x00\x00Services'
tRp4576
I00
S'http://www.web2py.com/book/default/chapter/10'
p4577
tp4578
a(g4122
(S's\x0c\x00\x00\x00Ajax Recipes'
tRp4579
I00
S'http://www.web2py.com/book/default/chapter/11'
p4580
tp4581
a(g4122
(S's\x16\x00\x00\x00Components and Plugins'
tRp4582
I00
S'http://www.web2py.com/book/default/chapter/12'
p4583
tp4584
a(g4122
(S's\x12\x00\x00\x00Deployment Recipes'
tRp4585
I00
S'http://www.web2py.com/book/default/chapter/13'
p4586
tp4587
a(g4122
(S's\r\x00\x00\x00Other Recipes'
tRp4588
I00
S'http://www.web2py.com/book/default/chapter/14'
p4589
tp4590
a(g4122
(S's\r\x00\x00\x00Buy this book'
tRp4591
I00
S'http://stores.lulu.com/web2py'
p4592
tp4593
aasbasbasbasbasbasbasbag64
(g80
g66
NtRp4594
(dp4595
g69
(dp4596
sg78
g4236
sg71
(lp4597
g64
(g85
g66
NtRp4598
(dp4599
g69
(dp4600
sg78
g4594
sg71
(lp4601
g64
(g65
g66
NtRp4602
(dp4603
g69
(dp4604
g77
I2
ssg78
g4598
sg71
(lp4605
g64
(g73
g66
NtRp4606
(dp4607
g69
(dp4608
g77
I1
ssg78
Nsg71
(lp4609
g64
(g80
g66
NtRp4610
(dp4611
g69
(dp4612
sg78
g4606
sg71
(lp4613
g64
(g85
g66
NtRp4614
(dp4615
g69
(dp4616
sg78
g4610
sg71
(lp4617
g64
(g65
g66
NtRp4618
(dp4619
g69
(dp4620
g77
I1
ssg78
g4614
sg71
(lp4621
g4122
(S't\t\x00\x00\x00Community'
tRp4622
asbasbasbag64
(g80
g66
NtRp4623
(dp4624
g69
(dp4625
sg78
g4606
sg71
(lp4626
g64
(g85
g66
NtRp4627
(dp4628
g69
(dp4629
sg78
g4623
sg71
(lp4630
g64
(g65
g66
NtRp4631
(dp4632
g69
(dp4633
g77
I1
ssg78
g4627
sg71
(lp4634
I00
asbasbasbag64
(g80
g66
NtRp4635
(dp4636
g69
(dp4637
sg78
g4606
sg71
(lp4638
g64
(g85
g66
NtRp4639
(dp4640
g69
(dp4641
sg78
g4635
sg71
(lp4642
g64
(g65
g66
NtRp4643
(dp4644
g69
(dp4645
g77
I1
ssg78
g4639
sg71
(lp4646
Nasbasbasbag64
(g80
g66
NtRp4647
(dp4648
g69
(dp4649
sg78
g4606
sg71
(lp4650
g64
(g85
g66
NtRp4651
(dp4652
g69
(dp4653
sg78
g4647
sg71
(lp4654
g64
(g65
g66
NtRp4655
(dp4656
g69
(dp4657
g77
I1
ssg78
g4651
sg71
(lp4658
(lp4659
(g4122
(S't\x06\x00\x00\x00Groups'
tRp4660
I00
S'http://www.web2py.com/examples/default/usergroups'
p4661
tp4662
a(g4122
(S't\x07\x00\x00\x00Twitter'
tRp4663
I00
S'http://twitter.com/web2py'
p4664
tp4665
a(g4122
(S's\t\x00\x00\x00Live Chat'
tRp4666
I00
S'http://webchat.freenode.net/?channels=web2py'
p4667
tp4668
aasbasbasbasbasbasbasbag64
(g80
g66
NtRp4669
(dp4670
g69
(dp4671
sg78
g4236
sg71
(lp4672
g64
(g85
g66
NtRp4673
(dp4674
g69
(dp4675
sg78
g4669
sg71
(lp4676
g64
(g65
g66
NtRp4677
(dp4678
g69
(dp4679
g77
I2
ssg78
g4673
sg71
(lp4680
g64
(g73
g66
NtRp4681
(dp4682
g69
(dp4683
g77
I1
ssg78
Nsg71
(lp4684
g64
(g80
g66
NtRp4685
(dp4686
g69
(dp4687
sg78
g4681
sg71
(lp4688
g64
(g85
g66
NtRp4689
(dp4690
g69
(dp4691
sg78
g4685
sg71
(lp4692
g64
(g65
g66
NtRp4693
(dp4694
g69
(dp4695
g77
I1
ssg78
g4689
sg71
(lp4696
g4122
(S't\x07\x00\x00\x00Plugins'
tRp4697
asbasbasbag64
(g80
g66
NtRp4698
(dp4699
g69
(dp4700
sg78
g4681
sg71
(lp4701
g64
(g85
g66
NtRp4702
(dp4703
g69
(dp4704
sg78
g4698
sg71
(lp4705
g64
(g65
g66
NtRp4706
(dp4707
g69
(dp4708
g77
I1
ssg78
g4702
sg71
(lp4709
I00
asbasbasbag64
(g80
g66
NtRp4710
(dp4711
g69
(dp4712
sg78
g4681
sg71
(lp4713
g64
(g85
g66
NtRp4714
(dp4715
g69
(dp4716
sg78
g4710
sg71
(lp4717
g64
(g65
g66
NtRp4718
(dp4719
g69
(dp4720
g77
I1
ssg78
g4714
sg71
(lp4721
Nasbasbasbag64
(g80
g66
NtRp4722
(dp4723
g69
(dp4724
sg78
g4681
sg71
(lp4725
g64
(g85
g66
NtRp4726
(dp4727
g69
(dp4728
sg78
g4722
sg71
(lp4729
g64
(g65
g66
NtRp4730
(dp4731
g69
(dp4732
g77
I1
ssg78
g4726
sg71
(lp4733
(lp4734
(S'plugin_wiki'
p4735
I00
S'http://web2py.com/examples/default/download'
p4736
tp4737
a(g4122
(S's\r\x00\x00\x00Other Plugins'
tRp4738
I00
g4468
tp4739
a(g4122
(S's\x0e\x00\x00\x00Layout Plugins'
tRp4740
I00
g4471
tp4741
aasbasbasbasbasbasbasbasbasbasbasbasbasbasbasbasbasbasbasbag64
(g80
g66
NtRp4742
(dp4743
g69
(dp4744
sg78
g3632
sg71
(lp4745
g64
(g85
g66
NtRp4746
(dp4747
g69
(dp4748
g89
g90
ssg78
g4742
sg71
(lp4749
S'meta'
p4750
asbag64
(g85
g66
NtRp4751
(dp4752
g69
(dp4753
g96
g97
ssg78
g4742
sg71
(lp4754
S':'
asbag64
(g85
g66
NtRp4755
(dp4756
g69
(dp4757
sg78
g4742
sg71
(lp4758
g64
(g65
g66
NtRp4759
(dp4760
g69
(dp4761
g77
I5
ssg78
g4755
sg71
(lp4762
g64
(g73
g66
NtRp4763
(dp4764
g69
(dp4765
g77
I4
ssg78
Nsg71
(lp4766
g64
(g80
g66
NtRp4767
(dp4768
g69
(dp4769
sg78
g4763
sg71
(lp4770
g64
(g85
g66
NtRp4771
(dp4772
g69
(dp4773
g89
g90
ssg78
g4767
sg71
(lp4774
S'author'
p4775
asbag64
(g85
g66
NtRp4776
(dp4777
g69
(dp4778
g96
g97
ssg78
g4767
sg71
(lp4779
S':'
asbag64
(g85
g66
NtRp4780
(dp4781
g69
(dp4782
sg78
g4767
sg71
(lp4783
g64
(g65
g66
NtRp4784
(dp4785
g69
(dp4786
g77
I4
ssg78
g4780
sg71
(lp4787
S'Your Name <you@example.com>'
p4788
asbasbasbag64
(g80
g66
NtRp4789
(dp4790
g69
(dp4791
sg78
g4763
sg71
(lp4792
g64
(g85
g66
NtRp4793
(dp4794
g69
(dp4795
g89
g90
ssg78
g4789
sg71
(lp4796
S'copyright'
p4797
asbag64
(g85
g66
NtRp4798
(dp4799
g69
(dp4800
g96
g97
ssg78
g4789
sg71
(lp4801
S':'
asbag64
(g85
g66
NtRp4802
(dp4803
g69
(dp4804
sg78
g4789
sg71
(lp4805
g64
(g65
g66
NtRp4806
(dp4807
g69
(dp4808
g77
I4
ssg78
g4802
sg71
(lp4809
S'Copyright 2011'
p4810
asbasbasbag64
(g80
g66
NtRp4811
(dp4812
g69
(dp4813
sg78
g4763
sg71
(lp4814
g64
(g85
g66
NtRp4815
(dp4816
g69
(dp4817
g89
g90
ssg78
g4811
sg71
(lp4818
S'description'
p4819
asbag64
(g85
g66
NtRp4820
(dp4821
g69
(dp4822
g96
g97
ssg78
g4811
sg71
(lp4823
S':'
asbag64
(g85
g66
NtRp4824
(dp4825
g69
(dp4826
sg78
g4811
sg71
(lp4827
g64
(g65
g66
NtRp4828
(dp4829
g69
(dp4830
g77
I4
ssg78
g4824
sg71
(lp4831
S'a cool new app'
p4832
asbasbasbag64
(g80
g66
NtRp4833
(dp4834
g69
(dp4835
sg78
g4763
sg71
(lp4836
g64
(g85
g66
NtRp4837
(dp4838
g69
(dp4839
g89
g90
ssg78
g4833
sg71
(lp4840
S'generator'
p4841
asbag64
(g85
g66
NtRp4842
(dp4843
g69
(dp4844
g96
g97
ssg78
g4833
sg71
(lp4845
S':'
asbag64
(g85
g66
NtRp4846
(dp4847
g69
(dp4848
sg78
g4833
sg71
(lp4849
g64
(g65
g66
NtRp4850
(dp4851
g69
(dp4852
g77
I4
ssg78
g4846
sg71
(lp4853
S'Web2py Web Framework'
p4854
asbasbasbag64
(g80
g66
NtRp4855
(dp4856
g69
(dp4857
sg78
g4763
sg71
(lp4858
g64
(g85
g66
NtRp4859
(dp4860
g69
(dp4861
g89
g90
ssg78
g4855
sg71
(lp4862
S'keywords'
p4863
asbag64
(g85
g66
NtRp4864
(dp4865
g69
(dp4866
g96
g97
ssg78
g4855
sg71
(lp4867
S':'
asbag64
(g85
g66
NtRp4868
(dp4869
g69
(dp4870
sg78
g4855
sg71
(lp4871
g64
(g65
g66
NtRp4872
(dp4873
g69
(dp4874
g77
I4
ssg78
g4868
sg71
(lp4875
S'web2py, python, framework'
p4876
asbasbasbasbasbasbasbag64
(g80
g66
NtRp4877
(dp4878
g69
(dp4879
sg78
g3632
sg71
(lp4880
g64
(g85
g66
NtRp4881
(dp4882
g69
(dp4883
g89
g90
ssg78
g4877
sg71
(lp4884
S'models_to_run'
p4885
asbag64
(g85
g66
NtRp4886
(dp4887
g69
(dp4888
g96
g97
ssg78
g4877
sg71
(lp4889
S':'
asbag64
(g85
g66
NtRp4890
(dp4891
g69
(dp4892
sg78
g4877
sg71
(lp4893
g64
(g65
g66
NtRp4894
(dp4895
g69
(dp4896
g77
I5
ssg78
g4890
sg71
(lp4897
g64
(g73
g66
NtRp4898
(dp4899
g69
(dp4900
g77
I4
ssg78
Nsg71
(lp4901
g64
(g80
g66
NtRp4902
(dp4903
g69
(dp4904
sg78
g4898
sg71
(lp4905
g64
(g85
g66
NtRp4906
(dp4907
g69
(dp4908
sg78
g4902
sg71
(lp4909
g64
(g65
g66
NtRp4910
(dp4911
g69
(dp4912
g77
I4
ssg78
g4906
sg71
(lp4913
S'^\\w+\\.py$'
p4914
asbasbasbag64
(g80
g66
NtRp4915
(dp4916
g69
(dp4917
sg78
g4898
sg71
(lp4918
g64
(g85
g66
NtRp4919
(dp4920
g69
(dp4921
sg78
g4915
sg71
(lp4922
g64
(g65
g66
NtRp4923
(dp4924
g69
(dp4925
g77
I4
ssg78
g4919
sg71
(lp4926
S'^default/\\w+\\.py$'
p4927
asbasbasbag64
(g80
g66
NtRp4928
(dp4929
g69
(dp4930
sg78
g4898
sg71
(lp4931
g64
(g85
g66
NtRp4932
(dp4933
g69
(dp4934
sg78
g4928
sg71
(lp4935
g64
(g65
g66
NtRp4936
(dp4937
g69
(dp4938
g77
I4
ssg78
g4932
sg71
(lp4939
S'^default/rel/\\w+\\.py$'
p4940
asbasbasbasbasbasbasbag64
(g80
g66
NtRp4941
(dp4942
g69
(dp4943
sg78
g3632
sg71
(lp4944
g64
(g85
g66
NtRp4945
(dp4946
g69
(dp4947
g89
g90
ssg78
g4941
sg71
(lp4948
S'postprocessing'
p4949
asbag64
(g85
g66
NtRp4950
(dp4951
g69
(dp4952
g96
g97
ssg78
g4941
sg71
(lp4953
S':'
asbag64
(g85
g66
NtRp4954
(dp4955
g69
(dp4956
sg78
g4941
sg71
(lp4957
g64
(g65
g66
NtRp4958
(dp4959
g69
(dp4960
g77
I5
ssg78
g4954
sg71
(lp4961
g64
(g73
g66
NtRp4962
(dp4963
g69
(dp4964
g77
I4
ssg78
Nsg71
(lp4965
sbasbasbasbag64
(g80
g66
NtRp4966
(dp4967
g69
(dp4968
sg78
g3632
sg71
(lp4969
g64
(g85
g66
NtRp4970
(dp4971
g69
(dp4972
g89
g90
ssg78
g4966
sg71
(lp4973
S'session_cookie_expires'
p4974
asbag64
(g85
g66
NtRp4975
(dp4976
g69
(dp4977
g96
g97
ssg78
g4966
sg71
(lp4978
S':'
asbag64
(g85
g66
NtRp4979
(dp4980
g69
(dp4981
sg78
g4966
sg71
(lp4982
g64
(g65
g66
NtRp4983
(dp4984
g69
(dp4985
g77
I5
ssg78
g4979
sg71
(lp4986
S'None'
p4987
asbasbasbag64
(g80
g66
NtRp4988
(dp4989
g69
(dp4990
sg78
g3632
sg71
(lp4991
g64
(g85
g66
NtRp4992
(dp4993
g69
(dp4994
g89
g90
ssg78
g4988
sg71
(lp4995
S'session_data_name'
p4996
asbag64
(g85
g66
NtRp4997
(dp4998
g69
(dp4999
g96
g97
ssg78
g4988
sg71
(lp5000
S':'
asbag64
(g85
g66
NtRp5001
(dp5002
g69
(dp5003
sg78
g4988
sg71
(lp5004
g64
(g65
g66
NtRp5005
(dp5006
g69
(dp5007
g77
I5
ssg78
g5001
sg71
(lp5008
S'session_data_wsd_tool'
p5009
asbasbasbag64
(g80
g66
NtRp5010
(dp5011
g69
(dp5012
sg78
g3632
sg71
(lp5013
g64
(g85
g66
NtRp5014
(dp5015
g69
(dp5016
g89
g90
ssg78
g5010
sg71
(lp5017
S'session_file'
p5018
asbag64
(g85
g66
NtRp5019
(dp5020
g69
(dp5021
g96
g97
ssg78
g5010
sg71
(lp5022
S':'
asbag64
(g85
g66
NtRp5023
(dp5024
g69
(dp5025
sg78
g5010
sg71
(lp5026
g64
(g65
g66
NtRp5027
(dp5028
g69
(dp5029
g77
I5
ssg78
g5023
sg71
(lp5030
S"<open file '/home/nazrul/web2py/applications/WSD_Tool/sessions/127.0.0.1-1b9513ff-7a4a-46e3-9d60-f0b6086e5c03', mode 'rb+' at 0xadb468b8>"
p5031
asbasbasbag64
(g80
g66
NtRp5032
(dp5033
g69
(dp5034
sg78
g3632
sg71
(lp5035
g64
(g85
g66
NtRp5036
(dp5037
g69
(dp5038
g89
g90
ssg78
g5032
sg71
(lp5039
S'session_filename'
p5040
asbag64
(g85
g66
NtRp5041
(dp5042
g69
(dp5043
g96
g97
ssg78
g5032
sg71
(lp5044
S':'
asbag64
(g85
g66
NtRp5045
(dp5046
g69
(dp5047
sg78
g5032
sg71
(lp5048
g64
(g65
g66
NtRp5049
(dp5050
g69
(dp5051
g77
I5
ssg78
g5045
sg71
(lp5052
S'/home/nazrul/web2py/applications/WSD_Tool/sessions/127.0.0.1-1b9513ff-7a4a-46e3-9d60-f0b6086e5c03'
p5053
asbasbasbag64
(g80
g66
NtRp5054
(dp5055
g69
(dp5056
sg78
g3632
sg71
(lp5057
g64
(g85
g66
NtRp5058
(dp5059
g69
(dp5060
g89
g90
ssg78
g5054
sg71
(lp5061
S'session_id'
p5062
asbag64
(g85
g66
NtRp5063
(dp5064
g69
(dp5065
g96
g97
ssg78
g5054
sg71
(lp5066
S':'
asbag64
(g85
g66
NtRp5067
(dp5068
g69
(dp5069
sg78
g5054
sg71
(lp5070
g64
(g65
g66
NtRp5071
(dp5072
g69
(dp5073
g77
I5
ssg78
g5067
sg71
(lp5074
g854
asbasbasbag64
(g80
g66
NtRp5075
(dp5076
g69
(dp5077
sg78
g3632
sg71
(lp5078
g64
(g85
g66
NtRp5079
(dp5080
g69
(dp5081
g89
g90
ssg78
g5075
sg71
(lp5082
S'session_id_name'
p5083
asbag64
(g85
g66
NtRp5084
(dp5085
g69
(dp5086
g96
g97
ssg78
g5075
sg71
(lp5087
S':'
asbag64
(g85
g66
NtRp5088
(dp5089
g69
(dp5090
sg78
g5075
sg71
(lp5091
g64
(g65
g66
NtRp5092
(dp5093
g69
(dp5094
g77
I5
ssg78
g5088
sg71
(lp5095
g3689
asbasbasbag64
(g80
g66
NtRp5096
(dp5097
g69
(dp5098
sg78
g3632
sg71
(lp5099
g64
(g85
g66
NtRp5100
(dp5101
g69
(dp5102
g89
g90
ssg78
g5096
sg71
(lp5103
S'session_locked'
p5104
asbag64
(g85
g66
NtRp5105
(dp5106
g69
(dp5107
g96
g97
ssg78
g5096
sg71
(lp5108
S':'
asbag64
(g85
g66
NtRp5109
(dp5110
g69
(dp5111
sg78
g5096
sg71
(lp5112
g64
(g65
g66
NtRp5113
(dp5114
g69
(dp5115
g77
I5
ssg78
g5109
sg71
(lp5116
g1940
asbasbasbag64
(g80
g66
NtRp5117
(dp5118
g69
(dp5119
sg78
g3632
sg71
(lp5120
g64
(g85
g66
NtRp5121
(dp5122
g69
(dp5123
g89
g90
ssg78
g5117
sg71
(lp5124
S'session_new'
p5125
asbag64
(g85
g66
NtRp5126
(dp5127
g69
(dp5128
g96
g97
ssg78
g5117
sg71
(lp5129
S':'
asbag64
(g85
g66
NtRp5130
(dp5131
g69
(dp5132
sg78
g5117
sg71
(lp5133
g64
(g65
g66
NtRp5134
(dp5135
g69
(dp5136
g77
I5
ssg78
g5130
sg71
(lp5137
g107
asbasbasbag64
(g80
g66
NtRp5138
(dp5139
g69
(dp5140
sg78
g3632
sg71
(lp5141
g64
(g85
g66
NtRp5142
(dp5143
g69
(dp5144
g89
g90
ssg78
g5138
sg71
(lp5145
S'session_storage_type'
p5146
asbag64
(g85
g66
NtRp5147
(dp5148
g69
(dp5149
g96
g97
ssg78
g5138
sg71
(lp5150
S':'
asbag64
(g85
g66
NtRp5151
(dp5152
g69
(dp5153
sg78
g5138
sg71
(lp5154
g64
(g65
g66
NtRp5155
(dp5156
g69
(dp5157
g77
I5
ssg78
g5151
sg71
(lp5158
g3350
asbasbasbag64
(g80
g66
NtRp5159
(dp5160
g69
(dp5161
sg78
g3632
sg71
(lp5162
g64
(g85
g66
NtRp5163
(dp5164
g69
(dp5165
g89
g90
ssg78
g5159
sg71
(lp5166
S'status'
p5167
asbag64
(g85
g66
NtRp5168
(dp5169
g69
(dp5170
g96
g97
ssg78
g5159
sg71
(lp5171
S':'
asbag64
(g85
g66
NtRp5172
(dp5173
g69
(dp5174
sg78
g5159
sg71
(lp5175
g64
(g65
g66
NtRp5176
(dp5177
g69
(dp5178
g77
I5
ssg78
g5172
sg71
(lp5179
S'200'
p5180
asbasbasbag64
(g80
g66
NtRp5181
(dp5182
g69
(dp5183
sg78
g3632
sg71
(lp5184
g64
(g85
g66
NtRp5185
(dp5186
g69
(dp5187
g89
g90
ssg78
g5181
sg71
(lp5188
S'subtitle'
p5189
asbag64
(g85
g66
NtRp5190
(dp5191
g69
(dp5192
g96
g97
ssg78
g5181
sg71
(lp5193
S':'
asbag64
(g85
g66
NtRp5194
(dp5195
g69
(dp5196
sg78
g5181
sg71
(lp5197
g64
(g65
g66
NtRp5198
(dp5199
g69
(dp5200
g77
I5
ssg78
g5194
sg71
(lp5201
g4122
(S's\r\x00\x00\x00customize me!'
tRp5202
asbasbasbag64
(g80
g66
NtRp5203
(dp5204
g69
(dp5205
sg78
g3632
sg71
(lp5206
g64
(g85
g66
NtRp5207
(dp5208
g69
(dp5209
g89
g90
ssg78
g5203
sg71
(lp5210
S'title'
p5211
asbag64
(g85
g66
NtRp5212
(dp5213
g69
(dp5214
g96
g97
ssg78
g5203
sg71
(lp5215
S':'
asbag64
(g85
g66
NtRp5216
(dp5217
g69
(dp5218
sg78
g5203
sg71
(lp5219
g64
(g65
g66
NtRp5220
(dp5221
g69
(dp5222
g77
I5
ssg78
g5216
sg71
(lp5223
S'Wsd Tool'
p5224
asbasbasbag64
(g80
g66
NtRp5225
(dp5226
g69
(dp5227
sg78
g3632
sg71
(lp5228
g64
(g85
g66
NtRp5229
(dp5230
g69
(dp5231
g89
g90
ssg78
g5225
sg71
(lp5232
S'view'
p5233
asbag64
(g85
g66
NtRp5234
(dp5235
g69
(dp5236
g96
g97
ssg78
g5225
sg71
(lp5237
S':'
asbag64
(g85
g66
NtRp5238
(dp5239
g69
(dp5240
sg78
g5225
sg71
(lp5241
g64
(g65
g66
NtRp5242
(dp5243
g69
(dp5244
g77
I5
ssg78
g5238
sg71
(lp5245
S'default/rel.html'
p5246
asbasbasbasbasbsS'locals'
p5247
(dp5248
S'errread'
p5249
S'None'
p5250
sS'c2pread'
p5251
S'None'
p5252
sS'gc_was_enabled'
p5253
g1940
sS'errwrite'
p5254
S'None'
p5255
sS'child_exception'
p5256
S"OSError(2, 'No such file or directory')"
p5257
sS'errpipe_write'
p5258
S'13'
p5259
sS'executable'
p5260
S"'/home/nazrul/Dropbox/iiit/sem3/ssad/project/anu_testing/bin/Anusaaraka_stanford.sh sample 0 True'"
p5261
sS'close_fds'
p5262
g107
sS'self'
p5263
S'<subprocess.Popen object>'
p5264
sg1027
S'None'
p5265
sS'cwd'
p5266
S'None'
p5267
sS'shell'
p5268
g107
sg47
S"['/home/nazrul/Dropbox/iiit/sem3/ssad/project/anu_testing/bin/Anusaaraka_stanford.sh sample 0 True']"
p5269
sS'fd'
p5270
S'None'
p5271
sS'c2pwrite'
p5272
S'None'
p5273
sS'data'
p5274
S'"cexceptions\\nOSError\\np0\\n(I2\\nS\'No such file or dir...or: [Errno 2] No such file or directory\\\\n\'\\np6\\nsb."'
p5275
sS'creationflags'
p5276
S'0'
sS'errpipe_read'
p5277
S'10'
p5278
sS'preexec_fn'
p5279
S'None'
p5280
sS'p2cread'
p5281
S'None'
p5282
sS'startupinfo'
p5283
S'None'
p5284
sS'p2cwrite'
p5285
S'None'
p5286
sS'universal_newlines'
p5287
g107
sssS'traceback'
p5288
S'Traceback (most recent call last):\n  File "/home/nazrul/web2py/gluon/restricted.py", line 212, in restricted\n    exec ccode in environment\n  File "/home/nazrul/web2py/applications/WSD_Tool/controllers/default.py", line 261, in <module>\n  File "/home/nazrul/web2py/gluon/globals.py", line 193, in <lambda>\n    self._caller = lambda f: f()\n  File "/home/nazrul/web2py/applications/WSD_Tool/controllers/default.py", line 250, in rel\n    subprocess.call(\'/home/nazrul/Dropbox/iiit/sem3/ssad/project/anu_testing/bin/Anusaaraka_stanford.sh sample 0 True\')\n  File "/usr/lib/python2.7/subprocess.py", line 493, in call\n    return Popen(*popenargs, **kwargs).wait()\n  File "/usr/lib/python2.7/subprocess.py", line 679, in __init__\n    errread, errwrite)\n  File "/usr/lib/python2.7/subprocess.py", line 1249, in _execute_child\n    raise child_exception\nOSError: [Errno 2] No such file or directory\n'
p5289
s.