(dp1
S'output'
p2
S"<type 'exceptions.SyntaxError'> invalid syntax (default.py, line 216)"
p3
sS'layer'
p4
S'/home/abhinav/Desktop/iiit/web2py/applications/WSD/controllers/default.py'
p5
sS'code'
p6
S'# -*- coding: utf-8 -*-\n# this file is released under public domain and you can use without limitations\n\n#########################################################################\n## This is a samples controller\n## - index is the default action of any application\n## - user is required for authentication and authorization\n## - download is for downloading files uploaded in the db (does streaming)word_select?check=1\n## - call exposes all registered services (none by default)\n#########################################################################\nimport os,subprocess\ndef index():\n    redirect(URL(\'home\'))\n    """\n    example action using the internationalization operator T and flash\n    rendered by views/default/index.html or views/generic.html\n    """\n    response.flash = "Welcome to web2py!"\n    return dict(message=T(\'Hello World\'))\n\ndef user():\n    """\n    exposes:\n    http://..../[app]/default/user/login\n    http://..../[app]/default/user/logout\n    http://..../[app]/default/user/register\n    http://..../[app]/default/user/profile\n    http://..../[app]/default/user/retrieve_password\n    http://..../[app]/default/user/change_password\n    use @auth.requires_login()\n        @auth.requires_membership(\'group name\')\n        @auth.requires_permission(\'read\',\'table name\',record_id)\n    to decorate functions that need access control\n    """\n    return dict(form=auth())\n\n\ndef download():\n    """\n    allows downloading of uploaded files\n    http://..../[app]/default/download/[filename]\n    """\n    return response.download(request,db)\n\n\ndef call():\n    """\n    exposes services. for example:\n    http://..../[app]/default/call/jsonrpc\n    decorate with @services.jsonrpc the functions to expose\n    supports xml, json, xmlrpc, jsonrpc, amfrpc, rss, csv\n    """\n    return service()\n\n\n@auth.requires_signature()\ndef data():\n    """\n    http://..../[app]/default/data/tables\n    http://..../[app]/default/data/create/[table]\n    http://..../[app]/default/data/read/[table]/[id]\n    http://..../[app]/default/data/update/[table]/[id]\n    http://..../[app]/default/data/delete/[table]/[id]\n    http://..../[app]/default/data/select/[table]\n    http://..../[app]/default/data/search/[table]\n    but URLs must be signed, i.e. linked with\n      A(\'table\',_href=URL(\'data/tables\',user_signature=True))\n    or with the signed load operator\n      LOAD(\'default\',\'data.load\',args=\'tables\',ajax=True,user_signature=True)\n    """\n    return dict(form=crud())\n\n\n\n\n@auth.requires_login()\ndef home():\n    t = auth.user.id\n    h = db(db.rules.userid==t).select()\n    g = []\n    for i in h:\n        g.append(db(db.words.id==i.wid).select(db.words.word))\n    h=[]\n    for i in g:\n        for j in i:\n            h.append(j.word) \n    h=list(set(h))\n    return dict(t=t,h=h)\n\n@auth.requires_login()\ndef word_select():\n    if not request.vars.check:\n        redirect(\'home\')\n    else:\n        check=0\n    if request.vars.submit:\n        session.level = request.vars.level\n        w = request.vars.word\n        t = db(db.words).select()\n        for i in t:\n            if i.word==w:\n                session.word = w\n                session.ide = i.id\n                break\n        redirect(\'sentence_select\')\n    return dict()\n\n\n@auth.requires_login()\ndef changelevel():\n    if request.vars.submit:\n        if request.vars.new_email:\n            db(db.user_level).insert(email=request.vars.new_email,level=request.vars.level)\n        else:\n            db(db.user_level.email==request.vars.emailq).update(level=request.vars.level)\n        redirect(\'home\')\n    return dict()\n\n\n@auth.requires_login()\ndef word_selectc():\n    if not request.vars.check:\n        redirect(\'home\')\n    else:\n        check=0\n    if request.vars.submit:\n        session.level = request.vars.level\n        w = request.vars.word\n        t = db(db.words).select()\n        for i in t:\n            if i.word==w:\n                session.word = w\n                session.ide = i.id\n                break\n        redirect(URL(\'sentence_selectc\',vars=dict(second=request.vars.second)))\n    return dict()\n    \n#@auth.requires_login()\n#def reason():\n#    t=session.senid\n#    pre=db((db.rules.wid==session.ide)&(db.rules.sid==session.sid)).select()\n#    c=0\n#    for i in pre:\n#        c+=1\n#    if request.vars.hindit:\n#        db.rules.insert(name=session.word+str(c),userid=auth.user.id,wid=session.ide,sid=session.sid,translation=hindit)\n#        redirect(URL(\'rel\'))\n#    return dict()\n    \n    \n@auth.requires_login()\ndef sentence_select():\n    print \'*\'\n    f = \'\'\n    x = 0\n    if request.vars.submit and (request.vars.hindit):\n        t = request.vars.sentence\n        r = db(db.sentences.esentence==t).select(db.sentences.id)\n        for i in r:\n          session.sid=i.id\n          break\n        pre=db((db.rules.wid==session.ide)&(db.rules.userid==auth.user.id)).select()\n        c=0\n        f=0\n        for i in pre:\n            c+=1\n            if str(session.sid)==i.sid:\n                f=1\n                break\n        if f==0:\n            db.rules.insert(name=session.word+str(c),userid=auth.user.id,wid=session.ide,sid=session.sid,translation=request.vars.hindit)\n            session.f=0\n        redirect(URL(\'typ\'))\n    return dict(w=session.word,d=session.ide,f=f,level_set=session.level)\n\n\n@auth.requires_login()\ndef sentence_selectc():\n    print \'*\'\n    f = \'\'\n    x = 0\n    if request.vars.submit:\n        t = request.vars.sentence\n        r = db(db.sentences.esentence==t).select(db.sentences.id)\n        for i in r:\n          hindit=i.id\n          session.sid=i.id\n          break\n        redirect(URL(\'reasonc\',vars=dict(hindit=hindit)))\n    return dict(w=session.word,d=session.ide,f=f,level_set=session.level)\n\n\n@auth.requires_login()\ndef reasonc():\n    t=session.sid\n    r = db(db.sentences.id==t).select(db.sentences.hsentence)\n    if request.vars.advanced or request.vars.novice:\n        pre=db((db.rules.wid==session.ide)&(db.rules.userid==auth.user.id)).select()\n        c=0\n        f=0\n        for i in pre:\n            c+=1\n            if i.sid==str(session.sid):\n                f=1\n                break\n        if f==0:\n            db.rules.insert(name=session.word+str(c),userid=auth.user.id,wid=session.ide,sid=session.sid)\n        session.f=0\n\tif request.vars.advanced:\n\t  redirect(URL(\'typ\'))\n\telse:\n\t  redirect(URL(\'novi\'))\n    return dict(r=r)\n\n@auth.requires_login()\ndef novi:\n  return dict()\n\n@auth.requires_login()\ndef delaccount():\n    if request.vars.submit:\n        db(db.auth_user.email==request.vars.email).delete()\n        redirect("home")\n    return dict()\n\n@auth.requires_login()\ndef addword():\n    if request.vars.submit:\n       db.words.insert(word=request.vars.word)\n       word=request.vars.word\n       db.sentences.insert(level=request.vars.level,esentence=request.vars.esentence,hsentence=request.vars.hsentence)\n       w = db(db.words.word==request.vars.word).select(db.words.id)\n       s = db(db.sentences.esentence==request.vars.esentence).select(db.sentences.id)\n       #s=db(db.sentences.id==session.sid).select(db.sentences.esentence)\n       #s=s[0].esentence\n       sen=request.vars.esentence\n       print sen,word\n       f=open(\'sample\',\'w\')\n       st="\\n<TITLE> test. </TITLE>\\n<p>\\n" + sen + "\\n</p>\\n"\n       f.write(st)\n       f.close()\n       os.system("/bin/bash Anusaaraka_stanford.sh sample 0 True")\n       f=open(os.environ[\'HOME_anu_tmp\']+\'/tmp/sample_tmp/2.1/word.dat\',\'r\')\n       for line in f:\n           ind=line.rfind(\' \'+word)\n           print word+\'*\'+line\n           print "index"+str(ind)\n           if ind != -1 :\n               print \'*\'\n               anu_id=line[ind-2]\n               break\n       f.close() \n       print "anu_id= " + anu_id\n       f=open(os.environ[\'HOME_anu_tmp\']+\'/tmp/sample_tmp/2.1/cat_consistency_check.dat\',\'r\')\n       for line in f:\n           ind=line.find(\'id-cat_coarse \'+anu_id)\n           if ind != -1 :\n               line=line[::-1]\n               end=line.find(\' \')\n               psp=line[2:end][::-1]\n               break\n       f.close()\n       for i in w:\n           for j in s:\n               db.links.insert(wid=i.id,sid=j.id,typ=psp)\n               break\n           break\n       f=open(os.environ[\'HOME_anu_tmp\']+\'/tmp/sample_tmp/2.1/word.dat\',\'r\')\n       d={}\n       for i in f:\n           i=i.strip()\n           if i.find(\'id-word\')!=-1:\n               d[i[9]]=i[12:-1]\n       f.close()\n       f=open(os.environ[\'HOME_anu_tmp\']+\'/tmp/sample_tmp/2.1/relations.dat\',\'r\')\n       l,l1,l2=[],[],[]\n       for i in f:\n           i=i.strip()\n           if i[-4]==str(anu_id):\n               l1.append(i[:-4].strip()+\')\'+\' \'+\' \'+str(anu_id)+\',\'+\'\\"\'+str(word)+\'\\"\'+\' \'+i[-2]+\',\'+\'\\"\'+d[i[-2]]+\'\\"\')\n           elif i[-2]==str(anu_id):\n               l2.append(i[:-4].strip()+\')\'+\' \'+\' \'+i[-2]+\',\'+\'\\"\'+d[i[-4]]+\'\\"\'+\' \'+str(anu_id)+\',\'+\'\\"\'+str(word)+\'\\"\')\n       l=l1+l2\n       f.close()\n       for r in l:\n           db.rel_all.insert(wid=w[0].id,sid=s[0].id,relation=r)\n       session.flash="Word Added"\n       redirect(\'home\')\n    return dict()\n\n@auth.requires_login()\ndef delword():\n    if request.vars.submit:\n        g = db(db.words.word==request.vars.word).select(db.words.id)\n        for i in g:\n            db(db.words.id==i.id).delete()\n            db(db.rules.wid==i.id).delete()\n            y = db(db.links.wid==i.id).select(db.links.sid)\n            db(db.links.wid==i.id).delete()\n            for j in y:\n                db(db.sentences.id==j.sid).delete()\n                break\n            break\n            session.flash="Word Deleted "\n        redirect(\'home\')\n    return dict()\n\ndef typ():\n  psp=db((db.links.sid==session.sid)&(db.links.wid==session.ide)).select(db.links.typ)\n  psp=psp[0].typ\n  session.psp=psp\n  if request.vars.submit and request.vars.typ:\n    db((db.rules.userid==auth.user.id)&(db.rules.wid==session.ide)&(db.rules.sid==session.sid)).update(typ=psp)\n    if request.vars.typ==\'yes\':\n      redirect(URL(\'index\'))\n    else:\n      redirect(URL(\'rel\'))\n  return dict(psp=psp) \n\ndef rel():\n    s=db((db.rel_all.wid==session.ide)&(db.rel_all.sid==session.sid)).select(db.rel_all.relation)\n    l=[]\n    for i in s:\n        l+=[i.relation]\n    fields=[]   \n    fields.append(Field(\'Relations\',widget=SQLFORM.widgets.multiple.widget,requires=IS_IN_SET(l,multiple=True)))\n    if session.psp!=\'adverb\':\n        fields.append(Field(\'ans\',label=\'Is the relation sufficient for forming the rule ?\',widget=SQLFORM.widgets.radio.widget,requires=IS_IN_SET([\'yes\',\'no\'])))\n    form=SQLFORM.factory(*fields)\n    if form.accepts(request.vars,session):\n        for i in form.vars.Relations:\n            print "i="+str(i)\n            db.rel_rule.insert(wid=session.ide,sid=session.sid,relation=i)\n        if session.psp==\'adverb\':\n            redirect(\'index\')\n        elif form.vars.ans==\'yes\':\n            redirect(\'index\')\n        else :\n            redirect(URL(\'nature_\'+str(session.psp)))\n    return dict(form=form)\n\ndef nature_noun():\n    form=SQLFORM.factory(\n        Field(\'Nature\',requires=IS_IN_SET([\'Animate\',\'Inanimate\',\'Human\',\'Place\',\'Time\']),label=\'Semantic Property\'))\n    if form.accepts(request.vars,session):\n        db((db.rules.userid==auth.user.id)&(db.rules.wid==session.ide)&(db.rules.sid==session.sid)).update(property=form.vars.Nature)\n        redirect(URL(\'index\'))\n    return dict(form=form)\n\ndef nature_verb():\n    form=SQLFORM.factory(\n        Field(\'Nature\',requires=IS_IN_SET([\'transitive\',\'intransitive\'])))\n    if form.accepts(request.vars,session):\n        db((db.rules.userid==auth.user.id)&(db.rules.wid==session.ide)&(db.rules.sid==session.sid)).update(property=form.vars.Nature)\n        redirect(URL(\'index\'))\n    return dict(form=form)\n\ndef nature_adjective():\n    form=SQLFORM.factory(\n        Field(\'Nature\',requires=IS_IN_SET([\'Animate\',\'Inanimate\',\'Human\',\'Place\',\'Time\']),label=\'Semantic Property of noun whom it modifies\'))\n    if form.accepts(request.vars,session):\n        db((db.rules.userid==auth.user.id)&(db.rules.wid==session.ide)&(db.rules.sid==session.sid)).update(property=form.vars.Nature)\n        redirect(URL(\'index\'))\n    return dict(form=form)\n\ndef testt():\n    v=db(db.auth_user).select()\n    return dict(v=v)\n\nresponse._vars=response._caller(reasonc)\n'
p7
sS'snapshot'
p8
(dp9
S'exception'
p10
(dp11
S'__getslice__'
p12
S"<method-wrapper '__getslice__' of exceptions.SyntaxError object>"
p13
sS'text'
p14
S"'def novi:\\n'"
p15
sS'__str__'
p16
S"<method-wrapper '__str__' of exceptions.SyntaxError object>"
p17
sS'__reduce__'
p18
S'<built-in method __reduce__ of exceptions.SyntaxError object>'
p19
sS'__dict__'
p20
S'{}'
p21
sS'__sizeof__'
p22
S'<built-in method __sizeof__ of exceptions.SyntaxError object>'
p23
sS'__init__'
p24
S"<method-wrapper '__init__' of exceptions.SyntaxError object>"
p25
sS'__setattr__'
p26
S"<method-wrapper '__setattr__' of exceptions.SyntaxError object>"
p27
sS'__reduce_ex__'
p28
S'<built-in method __reduce_ex__ of exceptions.SyntaxError object>'
p29
sS'__new__'
p30
S'<built-in method __new__ of type object>'
p31
sS'__format__'
p32
S'<built-in method __format__ of exceptions.SyntaxError object>'
p33
sS'__class__'
p34
S"<type 'exceptions.SyntaxError'>"
p35
sS'filename'
p36
S"'/home/abhinav/Desktop/iiit/web2py/applications/WSD/controllers/default.py'"
p37
sS'lineno'
p38
S'216'
p39
sS'msg'
p40
S"'invalid syntax'"
p41
sS'__doc__'
p42
S"'Invalid syntax.'"
p43
sS'__getitem__'
p44
S"<method-wrapper '__getitem__' of exceptions.SyntaxError object>"
p45
sS'__setstate__'
p46
S'<built-in method __setstate__ of exceptions.SyntaxError object>'
p47
sS'__getattribute__'
p48
S"<method-wrapper '__getattribute__' of exceptions.SyntaxError object>"
p49
sS'print_file_and_line'
p50
S'None'
p51
sS'args'
p52
S"('invalid syntax', ('/home/abhinav/Desktop/iiit/web2py/applications/WSD/controllers/default.py', 216, 9, 'def novi:\\n'))"
p53
sS'__subclasshook__'
p54
S'<built-in method __subclasshook__ of type object>'
p55
sS'offset'
p56
S'9'
sS'__unicode__'
p57
S'<built-in method __unicode__ of exceptions.SyntaxError object>'
p58
sS'__delattr__'
p59
S"<method-wrapper '__delattr__' of exceptions.SyntaxError object>"
p60
sS'__repr__'
p61
S"<method-wrapper '__repr__' of exceptions.SyntaxError object>"
p62
sS'__hash__'
p63
S"<method-wrapper '__hash__' of exceptions.SyntaxError object>"
p64
ssS'evalue'
p65
S'invalid syntax (default.py, line 216)'
p66
sS'request'
p67
ccopy_reg
_reconstructor
p68
(cgluon.html
BEAUTIFY
p69
c__builtin__
object
p70
NtRp71
(dp72
S'attributes'
p73
(dp74
sS'components'
p75
(lp76
g68
(cgluon.html
TABLE
p77
g70
NtRp78
(dp79
g73
(dp80
S'level'
p81
I5
ssS'parent'
p82
Nsg75
(lp83
g68
(cgluon.html
TR
p84
g70
NtRp85
(dp86
g73
(dp87
sg82
g78
sg75
(lp88
g68
(cgluon.html
TD
p89
g70
NtRp90
(dp91
g73
(dp92
S'_style'
p93
S'font-weight:bold;vertical-align:top'
p94
ssg82
g85
sg75
(lp95
S'ajax'
p96
asbag68
(g89
g70
NtRp97
(dp98
g73
(dp99
S'_valign'
p100
S'top'
p101
ssg82
g85
sg75
(lp102
S':'
asbag68
(g89
g70
NtRp103
(dp104
g73
(dp105
sg82
g85
sg75
(lp106
g68
(g69
g70
NtRp107
(dp108
g73
(dp109
g81
I5
ssg82
g103
sg75
(lp110
S'False'
p111
asbasbasbag68
(g84
g70
NtRp112
(dp113
g73
(dp114
sg82
g78
sg75
(lp115
g68
(g89
g70
NtRp116
(dp117
g73
(dp118
g93
g94
ssg82
g112
sg75
(lp119
S'application'
p120
asbag68
(g89
g70
NtRp121
(dp122
g73
(dp123
g100
g101
ssg82
g112
sg75
(lp124
S':'
asbag68
(g89
g70
NtRp125
(dp126
g73
(dp127
sg82
g112
sg75
(lp128
g68
(g69
g70
NtRp129
(dp130
g73
(dp131
g81
I5
ssg82
g125
sg75
(lp132
S'WSD'
p133
asbasbasbag68
(g84
g70
NtRp134
(dp135
g73
(dp136
sg82
g78
sg75
(lp137
g68
(g89
g70
NtRp138
(dp139
g73
(dp140
g93
g94
ssg82
g134
sg75
(lp141
g52
asbag68
(g89
g70
NtRp142
(dp143
g73
(dp144
g100
g101
ssg82
g134
sg75
(lp145
S':'
asbag68
(g89
g70
NtRp146
(dp147
g73
(dp148
sg82
g134
sg75
(lp149
g68
(g69
g70
NtRp150
(dp151
g73
(dp152
g81
I5
ssg82
g146
sg75
(lp153
g68
(g77
g70
NtRp154
(dp155
g73
(dp156
g81
I4
ssg82
Nsg75
(lp157
sbasbasbasbag68
(g84
g70
NtRp158
(dp159
g73
(dp160
sg82
g78
sg75
(lp161
g68
(g89
g70
NtRp162
(dp163
g73
(dp164
g93
g94
ssg82
g158
sg75
(lp165
S'body'
p166
asbag68
(g89
g70
NtRp167
(dp168
g73
(dp169
g100
g101
ssg82
g158
sg75
(lp170
S':'
asbag68
(g89
g70
NtRp171
(dp172
g73
(dp173
sg82
g158
sg75
(lp174
g68
(g69
g70
NtRp175
(dp176
g73
(dp177
g81
I5
ssg82
g171
sg75
(lp178
S"<open file '<fdopen>', mode 'w+b' at 0xb06be338>"
p179
asbasbasbag68
(g84
g70
NtRp180
(dp181
g73
(dp182
sg82
g78
sg75
(lp183
g68
(g89
g70
NtRp184
(dp185
g73
(dp186
g93
g94
ssg82
g180
sg75
(lp187
S'cid'
p188
asbag68
(g89
g70
NtRp189
(dp190
g73
(dp191
g100
g101
ssg82
g180
sg75
(lp192
S':'
asbag68
(g89
g70
NtRp193
(dp194
g73
(dp195
sg82
g180
sg75
(lp196
g68
(g69
g70
NtRp197
(dp198
g73
(dp199
g81
I5
ssg82
g193
sg75
(lp200
S'None'
p201
asbasbasbag68
(g84
g70
NtRp202
(dp203
g73
(dp204
sg82
g78
sg75
(lp205
g68
(g89
g70
NtRp206
(dp207
g73
(dp208
g93
g94
ssg82
g202
sg75
(lp209
S'client'
p210
asbag68
(g89
g70
NtRp211
(dp212
g73
(dp213
g100
g101
ssg82
g202
sg75
(lp214
S':'
asbag68
(g89
g70
NtRp215
(dp216
g73
(dp217
sg82
g202
sg75
(lp218
g68
(g69
g70
NtRp219
(dp220
g73
(dp221
g81
I5
ssg82
g215
sg75
(lp222
S'127.0.0.1'
p223
asbasbasbag68
(g84
g70
NtRp224
(dp225
g73
(dp226
sg82
g78
sg75
(lp227
g68
(g89
g70
NtRp228
(dp229
g73
(dp230
g93
g94
ssg82
g224
sg75
(lp231
S'controller'
p232
asbag68
(g89
g70
NtRp233
(dp234
g73
(dp235
g100
g101
ssg82
g224
sg75
(lp236
S':'
asbag68
(g89
g70
NtRp237
(dp238
g73
(dp239
sg82
g224
sg75
(lp240
g68
(g69
g70
NtRp241
(dp242
g73
(dp243
g81
I5
ssg82
g237
sg75
(lp244
S'default'
p245
asbasbasbag68
(g84
g70
NtRp246
(dp247
g73
(dp248
sg82
g78
sg75
(lp249
g68
(g89
g70
NtRp250
(dp251
g73
(dp252
g93
g94
ssg82
g246
sg75
(lp253
S'cookies'
p254
asbag68
(g89
g70
NtRp255
(dp256
g73
(dp257
g100
g101
ssg82
g246
sg75
(lp258
S':'
asbag68
(g89
g70
NtRp259
(dp260
g73
(dp261
sg82
g246
sg75
(lp262
g68
(g69
g70
NtRp263
(dp264
g73
(dp265
g81
I5
ssg82
g259
sg75
(lp266
g68
(g77
g70
NtRp267
(dp268
g73
(dp269
g81
I4
ssg82
Nsg75
(lp270
g68
(g84
g70
NtRp271
(dp272
g73
(dp273
sg82
g267
sg75
(lp274
g68
(g89
g70
NtRp275
(dp276
g73
(dp277
g93
g94
ssg82
g271
sg75
(lp278
S'session_id_admin'
p279
asbag68
(g89
g70
NtRp280
(dp281
g73
(dp282
g100
g101
ssg82
g271
sg75
(lp283
S':'
asbag68
(g89
g70
NtRp284
(dp285
g73
(dp286
sg82
g271
sg75
(lp287
g68
(g69
g70
NtRp288
(dp289
g73
(dp290
g81
I4
ssg82
g284
sg75
(lp291
S'127.0.0.1-0899a34d-0969-41e2-b2bb-221f7f44e56f'
p292
ag68
(g77
g70
NtRp293
(dp294
g73
(dp295
g81
I3
ssg82
Nsg75
(lp296
g68
(g84
g70
NtRp297
(dp298
g73
(dp299
sg82
g293
sg75
(lp300
g68
(g89
g70
NtRp301
(dp302
g73
(dp303
g93
g94
ssg82
g297
sg75
(lp304
S'comment'
p305
asbag68
(g89
g70
NtRp306
(dp307
g73
(dp308
g100
g101
ssg82
g297
sg75
(lp309
S':'
asbag68
(g89
g70
NtRp310
(dp311
g73
(dp312
sg82
g297
sg75
(lp313
g68
(g69
g70
NtRp314
(dp315
g73
(dp316
g81
I3
ssg82
g310
sg75
(lp317
S''
asbasbasbag68
(g84
g70
NtRp318
(dp319
g73
(dp320
sg82
g293
sg75
(lp321
g68
(g89
g70
NtRp322
(dp323
g73
(dp324
g93
g94
ssg82
g318
sg75
(lp325
S'domain'
p326
asbag68
(g89
g70
NtRp327
(dp328
g73
(dp329
g100
g101
ssg82
g318
sg75
(lp330
S':'
asbag68
(g89
g70
NtRp331
(dp332
g73
(dp333
sg82
g318
sg75
(lp334
g68
(g69
g70
NtRp335
(dp336
g73
(dp337
g81
I3
ssg82
g331
sg75
(lp338
S''
asbasbasbag68
(g84
g70
NtRp339
(dp340
g73
(dp341
sg82
g293
sg75
(lp342
g68
(g89
g70
NtRp343
(dp344
g73
(dp345
g93
g94
ssg82
g339
sg75
(lp346
S'expires'
p347
asbag68
(g89
g70
NtRp348
(dp349
g73
(dp350
g100
g101
ssg82
g339
sg75
(lp351
S':'
asbag68
(g89
g70
NtRp352
(dp353
g73
(dp354
sg82
g339
sg75
(lp355
g68
(g69
g70
NtRp356
(dp357
g73
(dp358
g81
I3
ssg82
g352
sg75
(lp359
S''
asbasbasbag68
(g84
g70
NtRp360
(dp361
g73
(dp362
sg82
g293
sg75
(lp363
g68
(g89
g70
NtRp364
(dp365
g73
(dp366
g93
g94
ssg82
g360
sg75
(lp367
S'httponly'
p368
asbag68
(g89
g70
NtRp369
(dp370
g73
(dp371
g100
g101
ssg82
g360
sg75
(lp372
S':'
asbag68
(g89
g70
NtRp373
(dp374
g73
(dp375
sg82
g360
sg75
(lp376
g68
(g69
g70
NtRp377
(dp378
g73
(dp379
g81
I3
ssg82
g373
sg75
(lp380
S''
asbasbasbag68
(g84
g70
NtRp381
(dp382
g73
(dp383
sg82
g293
sg75
(lp384
g68
(g89
g70
NtRp385
(dp386
g73
(dp387
g93
g94
ssg82
g381
sg75
(lp388
S'max-age'
p389
asbag68
(g89
g70
NtRp390
(dp391
g73
(dp392
g100
g101
ssg82
g381
sg75
(lp393
S':'
asbag68
(g89
g70
NtRp394
(dp395
g73
(dp396
sg82
g381
sg75
(lp397
g68
(g69
g70
NtRp398
(dp399
g73
(dp400
g81
I3
ssg82
g394
sg75
(lp401
S''
asbasbasbag68
(g84
g70
NtRp402
(dp403
g73
(dp404
sg82
g293
sg75
(lp405
g68
(g89
g70
NtRp406
(dp407
g73
(dp408
g93
g94
ssg82
g402
sg75
(lp409
S'path'
p410
asbag68
(g89
g70
NtRp411
(dp412
g73
(dp413
g100
g101
ssg82
g402
sg75
(lp414
S':'
asbag68
(g89
g70
NtRp415
(dp416
g73
(dp417
sg82
g402
sg75
(lp418
g68
(g69
g70
NtRp419
(dp420
g73
(dp421
g81
I3
ssg82
g415
sg75
(lp422
S''
asbasbasbag68
(g84
g70
NtRp423
(dp424
g73
(dp425
sg82
g293
sg75
(lp426
g68
(g89
g70
NtRp427
(dp428
g73
(dp429
g93
g94
ssg82
g423
sg75
(lp430
S'secure'
p431
asbag68
(g89
g70
NtRp432
(dp433
g73
(dp434
g100
g101
ssg82
g423
sg75
(lp435
S':'
asbag68
(g89
g70
NtRp436
(dp437
g73
(dp438
sg82
g423
sg75
(lp439
g68
(g69
g70
NtRp440
(dp441
g73
(dp442
g81
I3
ssg82
g436
sg75
(lp443
S''
asbasbasbag68
(g84
g70
NtRp444
(dp445
g73
(dp446
sg82
g293
sg75
(lp447
g68
(g89
g70
NtRp448
(dp449
g73
(dp450
g93
g94
ssg82
g444
sg75
(lp451
S'version'
p452
asbag68
(g89
g70
NtRp453
(dp454
g73
(dp455
g100
g101
ssg82
g444
sg75
(lp456
S':'
asbag68
(g89
g70
NtRp457
(dp458
g73
(dp459
sg82
g444
sg75
(lp460
g68
(g69
g70
NtRp461
(dp462
g73
(dp463
g81
I3
ssg82
g457
sg75
(lp464
S''
asbasbasbasbasbasbasbag68
(g84
g70
NtRp465
(dp466
g73
(dp467
sg82
g267
sg75
(lp468
g68
(g89
g70
NtRp469
(dp470
g73
(dp471
g93
g94
ssg82
g465
sg75
(lp472
S'session_id_welcome'
p473
asbag68
(g89
g70
NtRp474
(dp475
g73
(dp476
g100
g101
ssg82
g465
sg75
(lp477
S':'
asbag68
(g89
g70
NtRp478
(dp479
g73
(dp480
sg82
g465
sg75
(lp481
g68
(g69
g70
NtRp482
(dp483
g73
(dp484
g81
I4
ssg82
g478
sg75
(lp485
S'127.0.0.1-e3a2f4c4-572a-48c1-bc94-f37bd5f5024b'
p486
ag68
(g77
g70
NtRp487
(dp488
g73
(dp489
g81
I3
ssg82
Nsg75
(lp490
g68
(g84
g70
NtRp491
(dp492
g73
(dp493
sg82
g487
sg75
(lp494
g68
(g89
g70
NtRp495
(dp496
g73
(dp497
g93
g94
ssg82
g491
sg75
(lp498
g305
asbag68
(g89
g70
NtRp499
(dp500
g73
(dp501
g100
g101
ssg82
g491
sg75
(lp502
S':'
asbag68
(g89
g70
NtRp503
(dp504
g73
(dp505
sg82
g491
sg75
(lp506
g68
(g69
g70
NtRp507
(dp508
g73
(dp509
g81
I3
ssg82
g503
sg75
(lp510
S''
asbasbasbag68
(g84
g70
NtRp511
(dp512
g73
(dp513
sg82
g487
sg75
(lp514
g68
(g89
g70
NtRp515
(dp516
g73
(dp517
g93
g94
ssg82
g511
sg75
(lp518
g326
asbag68
(g89
g70
NtRp519
(dp520
g73
(dp521
g100
g101
ssg82
g511
sg75
(lp522
S':'
asbag68
(g89
g70
NtRp523
(dp524
g73
(dp525
sg82
g511
sg75
(lp526
g68
(g69
g70
NtRp527
(dp528
g73
(dp529
g81
I3
ssg82
g523
sg75
(lp530
S''
asbasbasbag68
(g84
g70
NtRp531
(dp532
g73
(dp533
sg82
g487
sg75
(lp534
g68
(g89
g70
NtRp535
(dp536
g73
(dp537
g93
g94
ssg82
g531
sg75
(lp538
g347
asbag68
(g89
g70
NtRp539
(dp540
g73
(dp541
g100
g101
ssg82
g531
sg75
(lp542
S':'
asbag68
(g89
g70
NtRp543
(dp544
g73
(dp545
sg82
g531
sg75
(lp546
g68
(g69
g70
NtRp547
(dp548
g73
(dp549
g81
I3
ssg82
g543
sg75
(lp550
S''
asbasbasbag68
(g84
g70
NtRp551
(dp552
g73
(dp553
sg82
g487
sg75
(lp554
g68
(g89
g70
NtRp555
(dp556
g73
(dp557
g93
g94
ssg82
g551
sg75
(lp558
g368
asbag68
(g89
g70
NtRp559
(dp560
g73
(dp561
g100
g101
ssg82
g551
sg75
(lp562
S':'
asbag68
(g89
g70
NtRp563
(dp564
g73
(dp565
sg82
g551
sg75
(lp566
g68
(g69
g70
NtRp567
(dp568
g73
(dp569
g81
I3
ssg82
g563
sg75
(lp570
S''
asbasbasbag68
(g84
g70
NtRp571
(dp572
g73
(dp573
sg82
g487
sg75
(lp574
g68
(g89
g70
NtRp575
(dp576
g73
(dp577
g93
g94
ssg82
g571
sg75
(lp578
g389
asbag68
(g89
g70
NtRp579
(dp580
g73
(dp581
g100
g101
ssg82
g571
sg75
(lp582
S':'
asbag68
(g89
g70
NtRp583
(dp584
g73
(dp585
sg82
g571
sg75
(lp586
g68
(g69
g70
NtRp587
(dp588
g73
(dp589
g81
I3
ssg82
g583
sg75
(lp590
S''
asbasbasbag68
(g84
g70
NtRp591
(dp592
g73
(dp593
sg82
g487
sg75
(lp594
g68
(g89
g70
NtRp595
(dp596
g73
(dp597
g93
g94
ssg82
g591
sg75
(lp598
g410
asbag68
(g89
g70
NtRp599
(dp600
g73
(dp601
g100
g101
ssg82
g591
sg75
(lp602
S':'
asbag68
(g89
g70
NtRp603
(dp604
g73
(dp605
sg82
g591
sg75
(lp606
g68
(g69
g70
NtRp607
(dp608
g73
(dp609
g81
I3
ssg82
g603
sg75
(lp610
S''
asbasbasbag68
(g84
g70
NtRp611
(dp612
g73
(dp613
sg82
g487
sg75
(lp614
g68
(g89
g70
NtRp615
(dp616
g73
(dp617
g93
g94
ssg82
g611
sg75
(lp618
g431
asbag68
(g89
g70
NtRp619
(dp620
g73
(dp621
g100
g101
ssg82
g611
sg75
(lp622
S':'
asbag68
(g89
g70
NtRp623
(dp624
g73
(dp625
sg82
g611
sg75
(lp626
g68
(g69
g70
NtRp627
(dp628
g73
(dp629
g81
I3
ssg82
g623
sg75
(lp630
S''
asbasbasbag68
(g84
g70
NtRp631
(dp632
g73
(dp633
sg82
g487
sg75
(lp634
g68
(g89
g70
NtRp635
(dp636
g73
(dp637
g93
g94
ssg82
g631
sg75
(lp638
g452
asbag68
(g89
g70
NtRp639
(dp640
g73
(dp641
g100
g101
ssg82
g631
sg75
(lp642
S':'
asbag68
(g89
g70
NtRp643
(dp644
g73
(dp645
sg82
g631
sg75
(lp646
g68
(g69
g70
NtRp647
(dp648
g73
(dp649
g81
I3
ssg82
g643
sg75
(lp650
S''
asbasbasbasbasbasbasbag68
(g84
g70
NtRp651
(dp652
g73
(dp653
sg82
g267
sg75
(lp654
g68
(g89
g70
NtRp655
(dp656
g73
(dp657
g93
g94
ssg82
g651
sg75
(lp658
S'session_id_wsd'
p659
asbag68
(g89
g70
NtRp660
(dp661
g73
(dp662
g100
g101
ssg82
g651
sg75
(lp663
S':'
asbag68
(g89
g70
NtRp664
(dp665
g73
(dp666
sg82
g651
sg75
(lp667
g68
(g69
g70
NtRp668
(dp669
g73
(dp670
g81
I4
ssg82
g664
sg75
(lp671
S'127.0.0.1-08588e50-1a77-405d-a024-4e5a7aea3fb7'
p672
ag68
(g77
g70
NtRp673
(dp674
g73
(dp675
g81
I3
ssg82
Nsg75
(lp676
g68
(g84
g70
NtRp677
(dp678
g73
(dp679
sg82
g673
sg75
(lp680
g68
(g89
g70
NtRp681
(dp682
g73
(dp683
g93
g94
ssg82
g677
sg75
(lp684
g305
asbag68
(g89
g70
NtRp685
(dp686
g73
(dp687
g100
g101
ssg82
g677
sg75
(lp688
S':'
asbag68
(g89
g70
NtRp689
(dp690
g73
(dp691
sg82
g677
sg75
(lp692
g68
(g69
g70
NtRp693
(dp694
g73
(dp695
g81
I3
ssg82
g689
sg75
(lp696
S''
asbasbasbag68
(g84
g70
NtRp697
(dp698
g73
(dp699
sg82
g673
sg75
(lp700
g68
(g89
g70
NtRp701
(dp702
g73
(dp703
g93
g94
ssg82
g697
sg75
(lp704
g326
asbag68
(g89
g70
NtRp705
(dp706
g73
(dp707
g100
g101
ssg82
g697
sg75
(lp708
S':'
asbag68
(g89
g70
NtRp709
(dp710
g73
(dp711
sg82
g697
sg75
(lp712
g68
(g69
g70
NtRp713
(dp714
g73
(dp715
g81
I3
ssg82
g709
sg75
(lp716
S''
asbasbasbag68
(g84
g70
NtRp717
(dp718
g73
(dp719
sg82
g673
sg75
(lp720
g68
(g89
g70
NtRp721
(dp722
g73
(dp723
g93
g94
ssg82
g717
sg75
(lp724
g347
asbag68
(g89
g70
NtRp725
(dp726
g73
(dp727
g100
g101
ssg82
g717
sg75
(lp728
S':'
asbag68
(g89
g70
NtRp729
(dp730
g73
(dp731
sg82
g717
sg75
(lp732
g68
(g69
g70
NtRp733
(dp734
g73
(dp735
g81
I3
ssg82
g729
sg75
(lp736
S''
asbasbasbag68
(g84
g70
NtRp737
(dp738
g73
(dp739
sg82
g673
sg75
(lp740
g68
(g89
g70
NtRp741
(dp742
g73
(dp743
g93
g94
ssg82
g737
sg75
(lp744
g368
asbag68
(g89
g70
NtRp745
(dp746
g73
(dp747
g100
g101
ssg82
g737
sg75
(lp748
S':'
asbag68
(g89
g70
NtRp749
(dp750
g73
(dp751
sg82
g737
sg75
(lp752
g68
(g69
g70
NtRp753
(dp754
g73
(dp755
g81
I3
ssg82
g749
sg75
(lp756
S''
asbasbasbag68
(g84
g70
NtRp757
(dp758
g73
(dp759
sg82
g673
sg75
(lp760
g68
(g89
g70
NtRp761
(dp762
g73
(dp763
g93
g94
ssg82
g757
sg75
(lp764
g389
asbag68
(g89
g70
NtRp765
(dp766
g73
(dp767
g100
g101
ssg82
g757
sg75
(lp768
S':'
asbag68
(g89
g70
NtRp769
(dp770
g73
(dp771
sg82
g757
sg75
(lp772
g68
(g69
g70
NtRp773
(dp774
g73
(dp775
g81
I3
ssg82
g769
sg75
(lp776
S''
asbasbasbag68
(g84
g70
NtRp777
(dp778
g73
(dp779
sg82
g673
sg75
(lp780
g68
(g89
g70
NtRp781
(dp782
g73
(dp783
g93
g94
ssg82
g777
sg75
(lp784
g410
asbag68
(g89
g70
NtRp785
(dp786
g73
(dp787
g100
g101
ssg82
g777
sg75
(lp788
S':'
asbag68
(g89
g70
NtRp789
(dp790
g73
(dp791
sg82
g777
sg75
(lp792
g68
(g69
g70
NtRp793
(dp794
g73
(dp795
g81
I3
ssg82
g789
sg75
(lp796
S''
asbasbasbag68
(g84
g70
NtRp797
(dp798
g73
(dp799
sg82
g673
sg75
(lp800
g68
(g89
g70
NtRp801
(dp802
g73
(dp803
g93
g94
ssg82
g797
sg75
(lp804
g431
asbag68
(g89
g70
NtRp805
(dp806
g73
(dp807
g100
g101
ssg82
g797
sg75
(lp808
S':'
asbag68
(g89
g70
NtRp809
(dp810
g73
(dp811
sg82
g797
sg75
(lp812
g68
(g69
g70
NtRp813
(dp814
g73
(dp815
g81
I3
ssg82
g809
sg75
(lp816
S''
asbasbasbag68
(g84
g70
NtRp817
(dp818
g73
(dp819
sg82
g673
sg75
(lp820
g68
(g89
g70
NtRp821
(dp822
g73
(dp823
g93
g94
ssg82
g817
sg75
(lp824
g452
asbag68
(g89
g70
NtRp825
(dp826
g73
(dp827
g100
g101
ssg82
g817
sg75
(lp828
S':'
asbag68
(g89
g70
NtRp829
(dp830
g73
(dp831
sg82
g817
sg75
(lp832
g68
(g69
g70
NtRp833
(dp834
g73
(dp835
g81
I3
ssg82
g829
sg75
(lp836
S''
asbasbasbasbasbasbasbasbasbasbasbag68
(g84
g70
NtRp837
(dp838
g73
(dp839
sg82
g78
sg75
(lp840
g68
(g89
g70
NtRp841
(dp842
g73
(dp843
g93
g94
ssg82
g837
sg75
(lp844
S'env'
p845
asbag68
(g89
g70
NtRp846
(dp847
g73
(dp848
g100
g101
ssg82
g837
sg75
(lp849
S':'
asbag68
(g89
g70
NtRp850
(dp851
g73
(dp852
sg82
g837
sg75
(lp853
g68
(g69
g70
NtRp854
(dp855
g73
(dp856
g81
I5
ssg82
g850
sg75
(lp857
g68
(g77
g70
NtRp858
(dp859
g73
(dp860
g81
I4
ssg82
Nsg75
(lp861
g68
(g84
g70
NtRp862
(dp863
g73
(dp864
sg82
g858
sg75
(lp865
g68
(g89
g70
NtRp866
(dp867
g73
(dp868
g93
g94
ssg82
g862
sg75
(lp869
S'app_folders'
p870
asbag68
(g89
g70
NtRp871
(dp872
g73
(dp873
g100
g101
ssg82
g862
sg75
(lp874
S':'
asbag68
(g89
g70
NtRp875
(dp876
g73
(dp877
sg82
g862
sg75
(lp878
g68
(g69
g70
NtRp879
(dp880
g73
(dp881
g81
I4
ssg82
g875
sg75
(lp882
S"set(['/home/abhinav/Desktop/iiit/web2py/applications/welcome/', '/home/abhinav/Desktop/iiit/web2py/applications/admin/', '/home/abhinav/Desktop/iiit/web2py/applications/WSD/'])"
p883
asbasbasbag68
(g84
g70
NtRp884
(dp885
g73
(dp886
sg82
g858
sg75
(lp887
g68
(g89
g70
NtRp888
(dp889
g73
(dp890
g93
g94
ssg82
g884
sg75
(lp891
S'applications_parent'
p892
asbag68
(g89
g70
NtRp893
(dp894
g73
(dp895
g100
g101
ssg82
g884
sg75
(lp896
S':'
asbag68
(g89
g70
NtRp897
(dp898
g73
(dp899
sg82
g884
sg75
(lp900
g68
(g69
g70
NtRp901
(dp902
g73
(dp903
g81
I4
ssg82
g897
sg75
(lp904
S'/home/abhinav/Desktop/iiit/web2py'
p905
asbasbasbag68
(g84
g70
NtRp906
(dp907
g73
(dp908
sg82
g858
sg75
(lp909
g68
(g89
g70
NtRp910
(dp911
g73
(dp912
g93
g94
ssg82
g906
sg75
(lp913
S'cmd_args'
p914
asbag68
(g89
g70
NtRp915
(dp916
g73
(dp917
g100
g101
ssg82
g906
sg75
(lp918
S':'
asbag68
(g89
g70
NtRp919
(dp920
g73
(dp921
sg82
g906
sg75
(lp922
g68
(g69
g70
NtRp923
(dp924
g73
(dp925
g81
I4
ssg82
g919
sg75
(lp926
g68
(g77
g70
NtRp927
(dp928
g73
(dp929
g81
I3
ssg82
Nsg75
(lp930
sbasbasbasbag68
(g84
g70
NtRp931
(dp932
g73
(dp933
sg82
g858
sg75
(lp934
g68
(g89
g70
NtRp935
(dp936
g73
(dp937
g93
g94
ssg82
g931
sg75
(lp938
S'cmd_options'
p939
asbag68
(g89
g70
NtRp940
(dp941
g73
(dp942
g100
g101
ssg82
g931
sg75
(lp943
S':'
asbag68
(g89
g70
NtRp944
(dp945
g73
(dp946
sg82
g931
sg75
(lp947
g68
(g69
g70
NtRp948
(dp949
g73
(dp950
g81
I4
ssg82
g944
sg75
(lp951
S"<Values at 0xa558aac: {'verbose': False, 'ip': '127.0.0.1', 'with_scheduler': False, 'ips': [], 'shutdown_timeout': 5, 'taskbar': False, 'port': 8000, 'maxthreads': None, 'softcron': False, 'server_name': 'abhinav-HP-Pavilion-dv6-Notebook-PC', 'bpython': False, 'nogui': False, 'pid_filename': 'httpserver.pid', 'extcron': False, 'runcron': False, 'run_system_tests': False, 'test': None, 'folder': '/home/abhinav/Desktop/iiit/web2py', 'config': '', 'import_models': False, 'winservice': '', 'shell': None, 'run': '', 'log_filename': 'httpserver.log', 'debuglevel': 30, 'args': [''], 'socket_timeout': 5, 'ssl_ca_certificate': None, 'scheduler': None, 'profiler_filename': None, 'ssl_private_key': '', 'scheduler_groups': None, 'password': '<ask>', 'request_queue_size': 5, 'ssl_certificate': '', 'cronjob': False, 'numthreads': None, 'quiet': False, 'interfaces': None, 'minthreads': None, 'timeout': 10, 'plain': False, 'nobanner': False}>"
p952
asbasbasbag68
(g84
g70
NtRp953
(dp954
g73
(dp955
sg82
g858
sg75
(lp956
g68
(g89
g70
NtRp957
(dp958
g73
(dp959
g93
g94
ssg82
g953
sg75
(lp960
S'content_length'
p961
asbag68
(g89
g70
NtRp962
(dp963
g73
(dp964
g100
g101
ssg82
g953
sg75
(lp965
S':'
asbag68
(g89
g70
NtRp966
(dp967
g73
(dp968
sg82
g953
sg75
(lp969
g68
(g69
g70
NtRp970
(dp971
g73
(dp972
g81
I4
ssg82
g966
sg75
(lp973
S'13'
p974
asbasbasbag68
(g84
g70
NtRp975
(dp976
g73
(dp977
sg82
g858
sg75
(lp978
g68
(g89
g70
NtRp979
(dp980
g73
(dp981
g93
g94
ssg82
g975
sg75
(lp982
S'content_type'
p983
asbag68
(g89
g70
NtRp984
(dp985
g73
(dp986
g100
g101
ssg82
g975
sg75
(lp987
S':'
asbag68
(g89
g70
NtRp988
(dp989
g73
(dp990
sg82
g975
sg75
(lp991
g68
(g69
g70
NtRp992
(dp993
g73
(dp994
g81
I4
ssg82
g988
sg75
(lp995
S'application/x-www-form-urlencoded'
p996
asbasbasbag68
(g84
g70
NtRp997
(dp998
g73
(dp999
sg82
g858
sg75
(lp1000
g68
(g89
g70
NtRp1001
(dp1002
g73
(dp1003
g93
g94
ssg82
g997
sg75
(lp1004
S'db_sessions'
p1005
asbag68
(g89
g70
NtRp1006
(dp1007
g73
(dp1008
g100
g101
ssg82
g997
sg75
(lp1009
S':'
asbag68
(g89
g70
NtRp1010
(dp1011
g73
(dp1012
sg82
g997
sg75
(lp1013
g68
(g69
g70
NtRp1014
(dp1015
g73
(dp1016
g81
I4
ssg82
g1010
sg75
(lp1017
S'set([])'
p1018
asbasbasbag68
(g84
g70
NtRp1019
(dp1020
g73
(dp1021
sg82
g858
sg75
(lp1022
g68
(g89
g70
NtRp1023
(dp1024
g73
(dp1025
g93
g94
ssg82
g1019
sg75
(lp1026
S'debugging'
p1027
asbag68
(g89
g70
NtRp1028
(dp1029
g73
(dp1030
g100
g101
ssg82
g1019
sg75
(lp1031
S':'
asbag68
(g89
g70
NtRp1032
(dp1033
g73
(dp1034
sg82
g1019
sg75
(lp1035
g68
(g69
g70
NtRp1036
(dp1037
g73
(dp1038
g81
I4
ssg82
g1032
sg75
(lp1039
g111
asbasbasbag68
(g84
g70
NtRp1040
(dp1041
g73
(dp1042
sg82
g858
sg75
(lp1043
g68
(g89
g70
NtRp1044
(dp1045
g73
(dp1046
g93
g94
ssg82
g1040
sg75
(lp1047
S'gluon_parent'
p1048
asbag68
(g89
g70
NtRp1049
(dp1050
g73
(dp1051
g100
g101
ssg82
g1040
sg75
(lp1052
S':'
asbag68
(g89
g70
NtRp1053
(dp1054
g73
(dp1055
sg82
g1040
sg75
(lp1056
g68
(g69
g70
NtRp1057
(dp1058
g73
(dp1059
g81
I4
ssg82
g1053
sg75
(lp1060
S'/home/abhinav/Desktop/iiit/web2py'
p1061
asbasbasbag68
(g84
g70
NtRp1062
(dp1063
g73
(dp1064
sg82
g858
sg75
(lp1065
g68
(g89
g70
NtRp1066
(dp1067
g73
(dp1068
g93
g94
ssg82
g1062
sg75
(lp1069
S'http_accept'
p1070
asbag68
(g89
g70
NtRp1071
(dp1072
g73
(dp1073
g100
g101
ssg82
g1062
sg75
(lp1074
S':'
asbag68
(g89
g70
NtRp1075
(dp1076
g73
(dp1077
sg82
g1062
sg75
(lp1078
g68
(g69
g70
NtRp1079
(dp1080
g73
(dp1081
g81
I4
ssg82
g1075
sg75
(lp1082
S'text/html,application/xhtml+xml,application/xml;q=0.9,image/webp,*/*;q=0.8'
p1083
asbasbasbag68
(g84
g70
NtRp1084
(dp1085
g73
(dp1086
sg82
g858
sg75
(lp1087
g68
(g89
g70
NtRp1088
(dp1089
g73
(dp1090
g93
g94
ssg82
g1084
sg75
(lp1091
S'http_accept_encoding'
p1092
asbag68
(g89
g70
NtRp1093
(dp1094
g73
(dp1095
g100
g101
ssg82
g1084
sg75
(lp1096
S':'
asbag68
(g89
g70
NtRp1097
(dp1098
g73
(dp1099
sg82
g1084
sg75
(lp1100
g68
(g69
g70
NtRp1101
(dp1102
g73
(dp1103
g81
I4
ssg82
g1097
sg75
(lp1104
S'gzip,deflate,sdch'
p1105
asbasbasbag68
(g84
g70
NtRp1106
(dp1107
g73
(dp1108
sg82
g858
sg75
(lp1109
g68
(g89
g70
NtRp1110
(dp1111
g73
(dp1112
g93
g94
ssg82
g1106
sg75
(lp1113
S'http_accept_language'
p1114
asbag68
(g89
g70
NtRp1115
(dp1116
g73
(dp1117
g100
g101
ssg82
g1106
sg75
(lp1118
S':'
asbag68
(g89
g70
NtRp1119
(dp1120
g73
(dp1121
sg82
g1106
sg75
(lp1122
g68
(g69
g70
NtRp1123
(dp1124
g73
(dp1125
g81
I4
ssg82
g1119
sg75
(lp1126
S'en-US,en;q=0.8'
p1127
asbasbasbag68
(g84
g70
NtRp1128
(dp1129
g73
(dp1130
sg82
g858
sg75
(lp1131
g68
(g89
g70
NtRp1132
(dp1133
g73
(dp1134
g93
g94
ssg82
g1128
sg75
(lp1135
S'http_cache_control'
p1136
asbag68
(g89
g70
NtRp1137
(dp1138
g73
(dp1139
g100
g101
ssg82
g1128
sg75
(lp1140
S':'
asbag68
(g89
g70
NtRp1141
(dp1142
g73
(dp1143
sg82
g1128
sg75
(lp1144
g68
(g69
g70
NtRp1145
(dp1146
g73
(dp1147
g81
I4
ssg82
g1141
sg75
(lp1148
S'max-age=0'
p1149
asbasbasbag68
(g84
g70
NtRp1150
(dp1151
g73
(dp1152
sg82
g858
sg75
(lp1153
g68
(g89
g70
NtRp1154
(dp1155
g73
(dp1156
g93
g94
ssg82
g1150
sg75
(lp1157
S'http_connection'
p1158
asbag68
(g89
g70
NtRp1159
(dp1160
g73
(dp1161
g100
g101
ssg82
g1150
sg75
(lp1162
S':'
asbag68
(g89
g70
NtRp1163
(dp1164
g73
(dp1165
sg82
g1150
sg75
(lp1166
g68
(g69
g70
NtRp1167
(dp1168
g73
(dp1169
g81
I4
ssg82
g1163
sg75
(lp1170
S'keep-alive'
p1171
asbasbasbag68
(g84
g70
NtRp1172
(dp1173
g73
(dp1174
sg82
g858
sg75
(lp1175
g68
(g89
g70
NtRp1176
(dp1177
g73
(dp1178
g93
g94
ssg82
g1172
sg75
(lp1179
S'http_content_length'
p1180
asbag68
(g89
g70
NtRp1181
(dp1182
g73
(dp1183
g100
g101
ssg82
g1172
sg75
(lp1184
S':'
asbag68
(g89
g70
NtRp1185
(dp1186
g73
(dp1187
sg82
g1172
sg75
(lp1188
g68
(g69
g70
NtRp1189
(dp1190
g73
(dp1191
g81
I4
ssg82
g1185
sg75
(lp1192
g974
asbasbasbag68
(g84
g70
NtRp1193
(dp1194
g73
(dp1195
sg82
g858
sg75
(lp1196
g68
(g89
g70
NtRp1197
(dp1198
g73
(dp1199
g93
g94
ssg82
g1193
sg75
(lp1200
S'http_content_type'
p1201
asbag68
(g89
g70
NtRp1202
(dp1203
g73
(dp1204
g100
g101
ssg82
g1193
sg75
(lp1205
S':'
asbag68
(g89
g70
NtRp1206
(dp1207
g73
(dp1208
sg82
g1193
sg75
(lp1209
g68
(g69
g70
NtRp1210
(dp1211
g73
(dp1212
g81
I4
ssg82
g1206
sg75
(lp1213
g996
asbasbasbag68
(g84
g70
NtRp1214
(dp1215
g73
(dp1216
sg82
g858
sg75
(lp1217
g68
(g89
g70
NtRp1218
(dp1219
g73
(dp1220
g93
g94
ssg82
g1214
sg75
(lp1221
S'http_cookie'
p1222
asbag68
(g89
g70
NtRp1223
(dp1224
g73
(dp1225
g100
g101
ssg82
g1214
sg75
(lp1226
S':'
asbag68
(g89
g70
NtRp1227
(dp1228
g73
(dp1229
sg82
g1214
sg75
(lp1230
g68
(g69
g70
NtRp1231
(dp1232
g73
(dp1233
g81
I4
ssg82
g1227
sg75
(lp1234
S'session_id_welcome=127.0.0.1-e3a2f4c4-572a-48c1-bc94-f37bd5f5024b; session_id_admin=127.0.0.1-0899a34d-0969-41e2-b2bb-221f7f44e56f; session_id_wsd=127.0.0.1-08588e50-1a77-405d-a024-4e5a7aea3fb7'
p1235
asbasbasbag68
(g84
g70
NtRp1236
(dp1237
g73
(dp1238
sg82
g858
sg75
(lp1239
g68
(g89
g70
NtRp1240
(dp1241
g73
(dp1242
g93
g94
ssg82
g1236
sg75
(lp1243
S'http_host'
p1244
asbag68
(g89
g70
NtRp1245
(dp1246
g73
(dp1247
g100
g101
ssg82
g1236
sg75
(lp1248
S':'
asbag68
(g89
g70
NtRp1249
(dp1250
g73
(dp1251
sg82
g1236
sg75
(lp1252
g68
(g69
g70
NtRp1253
(dp1254
g73
(dp1255
g81
I4
ssg82
g1249
sg75
(lp1256
S'127.0.0.1:8000'
p1257
asbasbasbag68
(g84
g70
NtRp1258
(dp1259
g73
(dp1260
sg82
g858
sg75
(lp1261
g68
(g89
g70
NtRp1262
(dp1263
g73
(dp1264
g93
g94
ssg82
g1258
sg75
(lp1265
S'http_origin'
p1266
asbag68
(g89
g70
NtRp1267
(dp1268
g73
(dp1269
g100
g101
ssg82
g1258
sg75
(lp1270
S':'
asbag68
(g89
g70
NtRp1271
(dp1272
g73
(dp1273
sg82
g1258
sg75
(lp1274
g68
(g69
g70
NtRp1275
(dp1276
g73
(dp1277
g81
I4
ssg82
g1271
sg75
(lp1278
S'http://127.0.0.1:8000'
p1279
asbasbasbag68
(g84
g70
NtRp1280
(dp1281
g73
(dp1282
sg82
g858
sg75
(lp1283
g68
(g89
g70
NtRp1284
(dp1285
g73
(dp1286
g93
g94
ssg82
g1280
sg75
(lp1287
S'http_referer'
p1288
asbag68
(g89
g70
NtRp1289
(dp1290
g73
(dp1291
g100
g101
ssg82
g1280
sg75
(lp1292
S':'
asbag68
(g89
g70
NtRp1293
(dp1294
g73
(dp1295
sg82
g1280
sg75
(lp1296
g68
(g69
g70
NtRp1297
(dp1298
g73
(dp1299
g81
I4
ssg82
g1293
sg75
(lp1300
S'http://127.0.0.1:8000/WSD/default/reasonc?hindit=11'
p1301
asbasbasbag68
(g84
g70
NtRp1302
(dp1303
g73
(dp1304
sg82
g858
sg75
(lp1305
g68
(g89
g70
NtRp1306
(dp1307
g73
(dp1308
g93
g94
ssg82
g1302
sg75
(lp1309
S'http_user_agent'
p1310
asbag68
(g89
g70
NtRp1311
(dp1312
g73
(dp1313
g100
g101
ssg82
g1302
sg75
(lp1314
S':'
asbag68
(g89
g70
NtRp1315
(dp1316
g73
(dp1317
sg82
g1302
sg75
(lp1318
g68
(g69
g70
NtRp1319
(dp1320
g73
(dp1321
g81
I4
ssg82
g1315
sg75
(lp1322
S'Mozilla/5.0 (X11; Linux i686) AppleWebKit/537.36 (KHTML, like Gecko) Chrome/30.0.1599.114 Safari/537.36'
p1323
asbasbasbag68
(g84
g70
NtRp1324
(dp1325
g73
(dp1326
sg82
g858
sg75
(lp1327
g68
(g89
g70
NtRp1328
(dp1329
g73
(dp1330
g93
g94
ssg82
g1324
sg75
(lp1331
S'is_jython'
p1332
asbag68
(g89
g70
NtRp1333
(dp1334
g73
(dp1335
g100
g101
ssg82
g1324
sg75
(lp1336
S':'
asbag68
(g89
g70
NtRp1337
(dp1338
g73
(dp1339
sg82
g1324
sg75
(lp1340
g68
(g69
g70
NtRp1341
(dp1342
g73
(dp1343
g81
I4
ssg82
g1337
sg75
(lp1344
g111
asbasbasbag68
(g84
g70
NtRp1345
(dp1346
g73
(dp1347
sg82
g858
sg75
(lp1348
g68
(g89
g70
NtRp1349
(dp1350
g73
(dp1351
g93
g94
ssg82
g1345
sg75
(lp1352
S'is_pypy'
p1353
asbag68
(g89
g70
NtRp1354
(dp1355
g73
(dp1356
g100
g101
ssg82
g1345
sg75
(lp1357
S':'
asbag68
(g89
g70
NtRp1358
(dp1359
g73
(dp1360
sg82
g1345
sg75
(lp1361
g68
(g69
g70
NtRp1362
(dp1363
g73
(dp1364
g81
I4
ssg82
g1358
sg75
(lp1365
g111
asbasbasbag68
(g84
g70
NtRp1366
(dp1367
g73
(dp1368
sg82
g858
sg75
(lp1369
g68
(g89
g70
NtRp1370
(dp1371
g73
(dp1372
g93
g94
ssg82
g1366
sg75
(lp1373
S'local_hosts'
p1374
asbag68
(g89
g70
NtRp1375
(dp1376
g73
(dp1377
g100
g101
ssg82
g1366
sg75
(lp1378
S':'
asbag68
(g89
g70
NtRp1379
(dp1380
g73
(dp1381
sg82
g1366
sg75
(lp1382
g68
(g69
g70
NtRp1383
(dp1384
g73
(dp1385
g81
I4
ssg82
g1379
sg75
(lp1386
g68
(g77
g70
NtRp1387
(dp1388
g73
(dp1389
g81
I3
ssg82
Nsg75
(lp1390
g68
(g84
g70
NtRp1391
(dp1392
g73
(dp1393
sg82
g1387
sg75
(lp1394
g68
(g89
g70
NtRp1395
(dp1396
g73
(dp1397
sg82
g1391
sg75
(lp1398
g68
(g69
g70
NtRp1399
(dp1400
g73
(dp1401
g81
I3
ssg82
g1395
sg75
(lp1402
S'::1'
p1403
asbasbasbag68
(g84
g70
NtRp1404
(dp1405
g73
(dp1406
sg82
g1387
sg75
(lp1407
g68
(g89
g70
NtRp1408
(dp1409
g73
(dp1410
sg82
g1404
sg75
(lp1411
g68
(g69
g70
NtRp1412
(dp1413
g73
(dp1414
g81
I3
ssg82
g1408
sg75
(lp1415
S'127.0.1.1'
p1416
asbasbasbag68
(g84
g70
NtRp1417
(dp1418
g73
(dp1419
sg82
g1387
sg75
(lp1420
g68
(g89
g70
NtRp1421
(dp1422
g73
(dp1423
sg82
g1417
sg75
(lp1424
g68
(g69
g70
NtRp1425
(dp1426
g73
(dp1427
g81
I3
ssg82
g1421
sg75
(lp1428
S'::ffff:127.0.0.1'
p1429
asbasbasbag68
(g84
g70
NtRp1430
(dp1431
g73
(dp1432
sg82
g1387
sg75
(lp1433
g68
(g89
g70
NtRp1434
(dp1435
g73
(dp1436
sg82
g1430
sg75
(lp1437
g68
(g69
g70
NtRp1438
(dp1439
g73
(dp1440
g81
I3
ssg82
g1434
sg75
(lp1441
S'127.0.0.1'
p1442
asbasbasbag68
(g84
g70
NtRp1443
(dp1444
g73
(dp1445
sg82
g1387
sg75
(lp1446
g68
(g89
g70
NtRp1447
(dp1448
g73
(dp1449
sg82
g1443
sg75
(lp1450
g68
(g69
g70
NtRp1451
(dp1452
g73
(dp1453
g81
I3
ssg82
g1447
sg75
(lp1454
S'abhinav-HP-Pavilion-dv6-Notebook-PC'
p1455
asbasbasbasbasbasbasbag68
(g84
g70
NtRp1456
(dp1457
g73
(dp1458
sg82
g858
sg75
(lp1459
g68
(g89
g70
NtRp1460
(dp1461
g73
(dp1462
g93
g94
ssg82
g1456
sg75
(lp1463
S'path_info'
p1464
asbag68
(g89
g70
NtRp1465
(dp1466
g73
(dp1467
g100
g101
ssg82
g1456
sg75
(lp1468
S':'
asbag68
(g89
g70
NtRp1469
(dp1470
g73
(dp1471
sg82
g1456
sg75
(lp1472
g68
(g69
g70
NtRp1473
(dp1474
g73
(dp1475
g81
I4
ssg82
g1469
sg75
(lp1476
S'/WSD/default/reasonc'
p1477
asbasbasbag68
(g84
g70
NtRp1478
(dp1479
g73
(dp1480
sg82
g858
sg75
(lp1481
g68
(g89
g70
NtRp1482
(dp1483
g73
(dp1484
g93
g94
ssg82
g1478
sg75
(lp1485
S'query_string'
p1486
asbag68
(g89
g70
NtRp1487
(dp1488
g73
(dp1489
g100
g101
ssg82
g1478
sg75
(lp1490
S':'
asbag68
(g89
g70
NtRp1491
(dp1492
g73
(dp1493
sg82
g1478
sg75
(lp1494
g68
(g69
g70
NtRp1495
(dp1496
g73
(dp1497
g81
I4
ssg82
g1491
sg75
(lp1498
S'hindit=11'
p1499
asbasbasbag68
(g84
g70
NtRp1500
(dp1501
g73
(dp1502
sg82
g858
sg75
(lp1503
g68
(g89
g70
NtRp1504
(dp1505
g73
(dp1506
g93
g94
ssg82
g1500
sg75
(lp1507
S'remote_addr'
p1508
asbag68
(g89
g70
NtRp1509
(dp1510
g73
(dp1511
g100
g101
ssg82
g1500
sg75
(lp1512
S':'
asbag68
(g89
g70
NtRp1513
(dp1514
g73
(dp1515
sg82
g1500
sg75
(lp1516
g68
(g69
g70
NtRp1517
(dp1518
g73
(dp1519
g81
I4
ssg82
g1513
sg75
(lp1520
g223
asbasbasbag68
(g84
g70
NtRp1521
(dp1522
g73
(dp1523
sg82
g858
sg75
(lp1524
g68
(g89
g70
NtRp1525
(dp1526
g73
(dp1527
g93
g94
ssg82
g1521
sg75
(lp1528
S'remote_port'
p1529
asbag68
(g89
g70
NtRp1530
(dp1531
g73
(dp1532
g100
g101
ssg82
g1521
sg75
(lp1533
S':'
asbag68
(g89
g70
NtRp1534
(dp1535
g73
(dp1536
sg82
g1521
sg75
(lp1537
g68
(g69
g70
NtRp1538
(dp1539
g73
(dp1540
g81
I4
ssg82
g1534
sg75
(lp1541
S'32777'
p1542
asbasbasbag68
(g84
g70
NtRp1543
(dp1544
g73
(dp1545
sg82
g858
sg75
(lp1546
g68
(g89
g70
NtRp1547
(dp1548
g73
(dp1549
g93
g94
ssg82
g1543
sg75
(lp1550
S'request_method'
p1551
asbag68
(g89
g70
NtRp1552
(dp1553
g73
(dp1554
g100
g101
ssg82
g1543
sg75
(lp1555
S':'
asbag68
(g89
g70
NtRp1556
(dp1557
g73
(dp1558
sg82
g1543
sg75
(lp1559
g68
(g69
g70
NtRp1560
(dp1561
g73
(dp1562
g81
I4
ssg82
g1556
sg75
(lp1563
S'POST'
p1564
asbasbasbag68
(g84
g70
NtRp1565
(dp1566
g73
(dp1567
sg82
g858
sg75
(lp1568
g68
(g89
g70
NtRp1569
(dp1570
g73
(dp1571
g93
g94
ssg82
g1565
sg75
(lp1572
S'request_uri'
p1573
asbag68
(g89
g70
NtRp1574
(dp1575
g73
(dp1576
g100
g101
ssg82
g1565
sg75
(lp1577
S':'
asbag68
(g89
g70
NtRp1578
(dp1579
g73
(dp1580
sg82
g1565
sg75
(lp1581
g68
(g69
g70
NtRp1582
(dp1583
g73
(dp1584
g81
I4
ssg82
g1578
sg75
(lp1585
S'/WSD/default/reasonc?hindit=11'
p1586
asbasbasbag68
(g84
g70
NtRp1587
(dp1588
g73
(dp1589
sg82
g858
sg75
(lp1590
g68
(g89
g70
NtRp1591
(dp1592
g73
(dp1593
g93
g94
ssg82
g1587
sg75
(lp1594
S'script_name'
p1595
asbag68
(g89
g70
NtRp1596
(dp1597
g73
(dp1598
g100
g101
ssg82
g1587
sg75
(lp1599
S':'
asbag68
(g89
g70
NtRp1600
(dp1601
g73
(dp1602
sg82
g1587
sg75
(lp1603
g68
(g69
g70
NtRp1604
(dp1605
g73
(dp1606
g81
I4
ssg82
g1600
sg75
(lp1607
S''
asbasbasbag68
(g84
g70
NtRp1608
(dp1609
g73
(dp1610
sg82
g858
sg75
(lp1611
g68
(g89
g70
NtRp1612
(dp1613
g73
(dp1614
g93
g94
ssg82
g1608
sg75
(lp1615
S'server_name'
p1616
asbag68
(g89
g70
NtRp1617
(dp1618
g73
(dp1619
g100
g101
ssg82
g1608
sg75
(lp1620
S':'
asbag68
(g89
g70
NtRp1621
(dp1622
g73
(dp1623
sg82
g1608
sg75
(lp1624
g68
(g69
g70
NtRp1625
(dp1626
g73
(dp1627
g81
I4
ssg82
g1621
sg75
(lp1628
S'abhinav-HP-Pavilion-dv6-Notebook-PC'
p1629
asbasbasbag68
(g84
g70
NtRp1630
(dp1631
g73
(dp1632
sg82
g858
sg75
(lp1633
g68
(g89
g70
NtRp1634
(dp1635
g73
(dp1636
g93
g94
ssg82
g1630
sg75
(lp1637
S'server_port'
p1638
asbag68
(g89
g70
NtRp1639
(dp1640
g73
(dp1641
g100
g101
ssg82
g1630
sg75
(lp1642
S':'
asbag68
(g89
g70
NtRp1643
(dp1644
g73
(dp1645
sg82
g1630
sg75
(lp1646
g68
(g69
g70
NtRp1647
(dp1648
g73
(dp1649
g81
I4
ssg82
g1643
sg75
(lp1650
S'8000'
p1651
asbasbasbag68
(g84
g70
NtRp1652
(dp1653
g73
(dp1654
sg82
g858
sg75
(lp1655
g68
(g89
g70
NtRp1656
(dp1657
g73
(dp1658
g93
g94
ssg82
g1652
sg75
(lp1659
S'server_protocol'
p1660
asbag68
(g89
g70
NtRp1661
(dp1662
g73
(dp1663
g100
g101
ssg82
g1652
sg75
(lp1664
S':'
asbag68
(g89
g70
NtRp1665
(dp1666
g73
(dp1667
sg82
g1652
sg75
(lp1668
g68
(g69
g70
NtRp1669
(dp1670
g73
(dp1671
g81
I4
ssg82
g1665
sg75
(lp1672
S'HTTP/1.1'
p1673
asbasbasbag68
(g84
g70
NtRp1674
(dp1675
g73
(dp1676
sg82
g858
sg75
(lp1677
g68
(g89
g70
NtRp1678
(dp1679
g73
(dp1680
g93
g94
ssg82
g1674
sg75
(lp1681
S'server_software'
p1682
asbag68
(g89
g70
NtRp1683
(dp1684
g73
(dp1685
g100
g101
ssg82
g1674
sg75
(lp1686
S':'
asbag68
(g89
g70
NtRp1687
(dp1688
g73
(dp1689
sg82
g1674
sg75
(lp1690
g68
(g69
g70
NtRp1691
(dp1692
g73
(dp1693
g81
I4
ssg82
g1687
sg75
(lp1694
S'Rocket 1.2.6'
p1695
asbasbasbag68
(g84
g70
NtRp1696
(dp1697
g73
(dp1698
sg82
g858
sg75
(lp1699
g68
(g89
g70
NtRp1700
(dp1701
g73
(dp1702
g93
g94
ssg82
g1696
sg75
(lp1703
S'web2py_path'
p1704
asbag68
(g89
g70
NtRp1705
(dp1706
g73
(dp1707
g100
g101
ssg82
g1696
sg75
(lp1708
S':'
asbag68
(g89
g70
NtRp1709
(dp1710
g73
(dp1711
sg82
g1696
sg75
(lp1712
g68
(g69
g70
NtRp1713
(dp1714
g73
(dp1715
g81
I4
ssg82
g1709
sg75
(lp1716
g905
asbasbasbag68
(g84
g70
NtRp1717
(dp1718
g73
(dp1719
sg82
g858
sg75
(lp1720
g68
(g89
g70
NtRp1721
(dp1722
g73
(dp1723
g93
g94
ssg82
g1717
sg75
(lp1724
S'web2py_version'
p1725
asbag68
(g89
g70
NtRp1726
(dp1727
g73
(dp1728
g100
g101
ssg82
g1717
sg75
(lp1729
S':'
asbag68
(g89
g70
NtRp1730
(dp1731
g73
(dp1732
sg82
g1717
sg75
(lp1733
g68
(g69
g70
NtRp1734
(dp1735
g73
(dp1736
g81
I4
ssg82
g1730
sg75
(lp1737
g68
(g77
g70
NtRp1738
(dp1739
g73
(dp1740
g81
I3
ssg82
Nsg75
(lp1741
g68
(g84
g70
NtRp1742
(dp1743
g73
(dp1744
sg82
g1738
sg75
(lp1745
g68
(g89
g70
NtRp1746
(dp1747
g73
(dp1748
sg82
g1742
sg75
(lp1749
g68
(g69
g70
NtRp1750
(dp1751
g73
(dp1752
g81
I3
ssg82
g1746
sg75
(lp1753
S'2'
asbasbasbag68
(g84
g70
NtRp1754
(dp1755
g73
(dp1756
sg82
g1738
sg75
(lp1757
g68
(g89
g70
NtRp1758
(dp1759
g73
(dp1760
sg82
g1754
sg75
(lp1761
g68
(g69
g70
NtRp1762
(dp1763
g73
(dp1764
g81
I3
ssg82
g1758
sg75
(lp1765
S'3'
asbasbasbag68
(g84
g70
NtRp1766
(dp1767
g73
(dp1768
sg82
g1738
sg75
(lp1769
g68
(g89
g70
NtRp1770
(dp1771
g73
(dp1772
sg82
g1766
sg75
(lp1773
g68
(g69
g70
NtRp1774
(dp1775
g73
(dp1776
g81
I3
ssg82
g1770
sg75
(lp1777
S'2'
asbasbasbag68
(g84
g70
NtRp1778
(dp1779
g73
(dp1780
sg82
g1738
sg75
(lp1781
g68
(g89
g70
NtRp1782
(dp1783
g73
(dp1784
sg82
g1778
sg75
(lp1785
g68
(g69
g70
NtRp1786
(dp1787
g73
(dp1788
g81
I3
ssg82
g1782
sg75
(lp1789
S'datetime.datetime(2012, 12, 17, 15, 3, 30)'
p1790
asbasbasbag68
(g84
g70
NtRp1791
(dp1792
g73
(dp1793
sg82
g1738
sg75
(lp1794
g68
(g89
g70
NtRp1795
(dp1796
g73
(dp1797
sg82
g1791
sg75
(lp1798
g68
(g69
g70
NtRp1799
(dp1800
g73
(dp1801
g81
I3
ssg82
g1795
sg75
(lp1802
S'stable'
p1803
asbasbasbasbasbasbasbag68
(g84
g70
NtRp1804
(dp1805
g73
(dp1806
sg82
g858
sg75
(lp1807
g68
(g89
g70
NtRp1808
(dp1809
g73
(dp1810
g93
g94
ssg82
g1804
sg75
(lp1811
S'wsgi_errors'
p1812
asbag68
(g89
g70
NtRp1813
(dp1814
g73
(dp1815
g100
g101
ssg82
g1804
sg75
(lp1816
S':'
asbag68
(g89
g70
NtRp1817
(dp1818
g73
(dp1819
sg82
g1804
sg75
(lp1820
g68
(g69
g70
NtRp1821
(dp1822
g73
(dp1823
g81
I4
ssg82
g1817
sg75
(lp1824
S"<open file '<stderr>', mode 'w' at 0xb73490d0>"
p1825
asbasbasbag68
(g84
g70
NtRp1826
(dp1827
g73
(dp1828
sg82
g858
sg75
(lp1829
g68
(g89
g70
NtRp1830
(dp1831
g73
(dp1832
g93
g94
ssg82
g1826
sg75
(lp1833
S'wsgi_file_wrapper'
p1834
asbag68
(g89
g70
NtRp1835
(dp1836
g73
(dp1837
g100
g101
ssg82
g1826
sg75
(lp1838
S':'
asbag68
(g89
g70
NtRp1839
(dp1840
g73
(dp1841
sg82
g1826
sg75
(lp1842
g68
(g69
g70
NtRp1843
(dp1844
g73
(dp1845
g81
I4
ssg82
g1839
sg75
(lp1846
S'<class wsgiref.util.FileWrapper at 0xa5186ec>'
p1847
asbasbasbag68
(g84
g70
NtRp1848
(dp1849
g73
(dp1850
sg82
g858
sg75
(lp1851
g68
(g89
g70
NtRp1852
(dp1853
g73
(dp1854
g93
g94
ssg82
g1848
sg75
(lp1855
S'wsgi_input'
p1856
asbag68
(g89
g70
NtRp1857
(dp1858
g73
(dp1859
g100
g101
ssg82
g1848
sg75
(lp1860
S':'
asbag68
(g89
g70
NtRp1861
(dp1862
g73
(dp1863
sg82
g1848
sg75
(lp1864
g68
(g69
g70
NtRp1865
(dp1866
g73
(dp1867
g81
I4
ssg82
g1861
sg75
(lp1868
S'<socket._fileobject object at 0xad03feac>'
p1869
asbasbasbag68
(g84
g70
NtRp1870
(dp1871
g73
(dp1872
sg82
g858
sg75
(lp1873
g68
(g89
g70
NtRp1874
(dp1875
g73
(dp1876
g93
g94
ssg82
g1870
sg75
(lp1877
S'wsgi_multiprocess'
p1878
asbag68
(g89
g70
NtRp1879
(dp1880
g73
(dp1881
g100
g101
ssg82
g1870
sg75
(lp1882
S':'
asbag68
(g89
g70
NtRp1883
(dp1884
g73
(dp1885
sg82
g1870
sg75
(lp1886
g68
(g69
g70
NtRp1887
(dp1888
g73
(dp1889
g81
I4
ssg82
g1883
sg75
(lp1890
g111
asbasbasbag68
(g84
g70
NtRp1891
(dp1892
g73
(dp1893
sg82
g858
sg75
(lp1894
g68
(g89
g70
NtRp1895
(dp1896
g73
(dp1897
g93
g94
ssg82
g1891
sg75
(lp1898
S'wsgi_multithread'
p1899
asbag68
(g89
g70
NtRp1900
(dp1901
g73
(dp1902
g100
g101
ssg82
g1891
sg75
(lp1903
S':'
asbag68
(g89
g70
NtRp1904
(dp1905
g73
(dp1906
sg82
g1891
sg75
(lp1907
g68
(g69
g70
NtRp1908
(dp1909
g73
(dp1910
g81
I4
ssg82
g1904
sg75
(lp1911
S'True'
p1912
asbasbasbag68
(g84
g70
NtRp1913
(dp1914
g73
(dp1915
sg82
g858
sg75
(lp1916
g68
(g89
g70
NtRp1917
(dp1918
g73
(dp1919
g93
g94
ssg82
g1913
sg75
(lp1920
S'wsgi_run_once'
p1921
asbag68
(g89
g70
NtRp1922
(dp1923
g73
(dp1924
g100
g101
ssg82
g1913
sg75
(lp1925
S':'
asbag68
(g89
g70
NtRp1926
(dp1927
g73
(dp1928
sg82
g1913
sg75
(lp1929
g68
(g69
g70
NtRp1930
(dp1931
g73
(dp1932
g81
I4
ssg82
g1926
sg75
(lp1933
g111
asbasbasbag68
(g84
g70
NtRp1934
(dp1935
g73
(dp1936
sg82
g858
sg75
(lp1937
g68
(g89
g70
NtRp1938
(dp1939
g73
(dp1940
g93
g94
ssg82
g1934
sg75
(lp1941
S'wsgi_url_scheme'
p1942
asbag68
(g89
g70
NtRp1943
(dp1944
g73
(dp1945
g100
g101
ssg82
g1934
sg75
(lp1946
S':'
asbag68
(g89
g70
NtRp1947
(dp1948
g73
(dp1949
sg82
g1934
sg75
(lp1950
g68
(g69
g70
NtRp1951
(dp1952
g73
(dp1953
g81
I4
ssg82
g1947
sg75
(lp1954
S'http'
p1955
asbasbasbag68
(g84
g70
NtRp1956
(dp1957
g73
(dp1958
sg82
g858
sg75
(lp1959
g68
(g89
g70
NtRp1960
(dp1961
g73
(dp1962
g93
g94
ssg82
g1956
sg75
(lp1963
S'wsgi_version'
p1964
asbag68
(g89
g70
NtRp1965
(dp1966
g73
(dp1967
g100
g101
ssg82
g1956
sg75
(lp1968
S':'
asbag68
(g89
g70
NtRp1969
(dp1970
g73
(dp1971
sg82
g1956
sg75
(lp1972
g68
(g69
g70
NtRp1973
(dp1974
g73
(dp1975
g81
I4
ssg82
g1969
sg75
(lp1976
g68
(g77
g70
NtRp1977
(dp1978
g73
(dp1979
g81
I3
ssg82
Nsg75
(lp1980
g68
(g84
g70
NtRp1981
(dp1982
g73
(dp1983
sg82
g1977
sg75
(lp1984
g68
(g89
g70
NtRp1985
(dp1986
g73
(dp1987
sg82
g1981
sg75
(lp1988
g68
(g69
g70
NtRp1989
(dp1990
g73
(dp1991
g81
I3
ssg82
g1985
sg75
(lp1992
S'1'
asbasbasbag68
(g84
g70
NtRp1993
(dp1994
g73
(dp1995
sg82
g1977
sg75
(lp1996
g68
(g89
g70
NtRp1997
(dp1998
g73
(dp1999
sg82
g1993
sg75
(lp2000
g68
(g69
g70
NtRp2001
(dp2002
g73
(dp2003
g81
I3
ssg82
g1997
sg75
(lp2004
S'0'
asbasbasbasbasbasbasbasbasbasbasbag68
(g84
g70
NtRp2005
(dp2006
g73
(dp2007
sg82
g78
sg75
(lp2008
g68
(g89
g70
NtRp2009
(dp2010
g73
(dp2011
g93
g94
ssg82
g2005
sg75
(lp2012
S'extension'
p2013
asbag68
(g89
g70
NtRp2014
(dp2015
g73
(dp2016
g100
g101
ssg82
g2005
sg75
(lp2017
S':'
asbag68
(g89
g70
NtRp2018
(dp2019
g73
(dp2020
sg82
g2005
sg75
(lp2021
g68
(g69
g70
NtRp2022
(dp2023
g73
(dp2024
g81
I5
ssg82
g2018
sg75
(lp2025
S'html'
p2026
asbasbasbag68
(g84
g70
NtRp2027
(dp2028
g73
(dp2029
sg82
g78
sg75
(lp2030
g68
(g89
g70
NtRp2031
(dp2032
g73
(dp2033
g93
g94
ssg82
g2027
sg75
(lp2034
S'folder'
p2035
asbag68
(g89
g70
NtRp2036
(dp2037
g73
(dp2038
g100
g101
ssg82
g2027
sg75
(lp2039
S':'
asbag68
(g89
g70
NtRp2040
(dp2041
g73
(dp2042
sg82
g2027
sg75
(lp2043
g68
(g69
g70
NtRp2044
(dp2045
g73
(dp2046
g81
I5
ssg82
g2040
sg75
(lp2047
S'/home/abhinav/Desktop/iiit/web2py/applications/WSD/'
p2048
asbasbasbag68
(g84
g70
NtRp2049
(dp2050
g73
(dp2051
sg82
g78
sg75
(lp2052
g68
(g89
g70
NtRp2053
(dp2054
g73
(dp2055
g93
g94
ssg82
g2049
sg75
(lp2056
S'function'
p2057
asbag68
(g89
g70
NtRp2058
(dp2059
g73
(dp2060
g100
g101
ssg82
g2049
sg75
(lp2061
S':'
asbag68
(g89
g70
NtRp2062
(dp2063
g73
(dp2064
sg82
g2049
sg75
(lp2065
g68
(g69
g70
NtRp2066
(dp2067
g73
(dp2068
g81
I5
ssg82
g2062
sg75
(lp2069
S'reasonc'
p2070
asbasbasbag68
(g84
g70
NtRp2071
(dp2072
g73
(dp2073
sg82
g78
sg75
(lp2074
g68
(g89
g70
NtRp2075
(dp2076
g73
(dp2077
g93
g94
ssg82
g2071
sg75
(lp2078
S'get_vars'
p2079
asbag68
(g89
g70
NtRp2080
(dp2081
g73
(dp2082
g100
g101
ssg82
g2071
sg75
(lp2083
S':'
asbag68
(g89
g70
NtRp2084
(dp2085
g73
(dp2086
sg82
g2071
sg75
(lp2087
g68
(g69
g70
NtRp2088
(dp2089
g73
(dp2090
g81
I5
ssg82
g2084
sg75
(lp2091
g68
(g77
g70
NtRp2092
(dp2093
g73
(dp2094
g81
I4
ssg82
Nsg75
(lp2095
g68
(g84
g70
NtRp2096
(dp2097
g73
(dp2098
sg82
g2092
sg75
(lp2099
g68
(g89
g70
NtRp2100
(dp2101
g73
(dp2102
g93
g94
ssg82
g2096
sg75
(lp2103
S'hindit'
p2104
asbag68
(g89
g70
NtRp2105
(dp2106
g73
(dp2107
g100
g101
ssg82
g2096
sg75
(lp2108
S':'
asbag68
(g89
g70
NtRp2109
(dp2110
g73
(dp2111
sg82
g2096
sg75
(lp2112
g68
(g69
g70
NtRp2113
(dp2114
g73
(dp2115
g81
I4
ssg82
g2109
sg75
(lp2116
S'11'
p2117
asbasbasbasbasbasbasbag68
(g84
g70
NtRp2118
(dp2119
g73
(dp2120
sg82
g78
sg75
(lp2121
g68
(g89
g70
NtRp2122
(dp2123
g73
(dp2124
g93
g94
ssg82
g2118
sg75
(lp2125
S'global_settings'
p2126
asbag68
(g89
g70
NtRp2127
(dp2128
g73
(dp2129
g100
g101
ssg82
g2118
sg75
(lp2130
S':'
asbag68
(g89
g70
NtRp2131
(dp2132
g73
(dp2133
sg82
g2118
sg75
(lp2134
g68
(g69
g70
NtRp2135
(dp2136
g73
(dp2137
g81
I5
ssg82
g2131
sg75
(lp2138
g68
(g77
g70
NtRp2139
(dp2140
g73
(dp2141
g81
I4
ssg82
Nsg75
(lp2142
g68
(g84
g70
NtRp2143
(dp2144
g73
(dp2145
sg82
g2139
sg75
(lp2146
g68
(g89
g70
NtRp2147
(dp2148
g73
(dp2149
g93
g94
ssg82
g2143
sg75
(lp2150
g870
asbag68
(g89
g70
NtRp2151
(dp2152
g73
(dp2153
g100
g101
ssg82
g2143
sg75
(lp2154
S':'
asbag68
(g89
g70
NtRp2155
(dp2156
g73
(dp2157
sg82
g2143
sg75
(lp2158
g68
(g69
g70
NtRp2159
(dp2160
g73
(dp2161
g81
I4
ssg82
g2155
sg75
(lp2162
S"set(['/home/abhinav/Desktop/iiit/web2py/applications/welcome/', '/home/abhinav/Desktop/iiit/web2py/applications/admin/', '/home/abhinav/Desktop/iiit/web2py/applications/WSD/'])"
p2163
asbasbasbag68
(g84
g70
NtRp2164
(dp2165
g73
(dp2166
sg82
g2139
sg75
(lp2167
g68
(g89
g70
NtRp2168
(dp2169
g73
(dp2170
g93
g94
ssg82
g2164
sg75
(lp2171
g892
asbag68
(g89
g70
NtRp2172
(dp2173
g73
(dp2174
g100
g101
ssg82
g2164
sg75
(lp2175
S':'
asbag68
(g89
g70
NtRp2176
(dp2177
g73
(dp2178
sg82
g2164
sg75
(lp2179
g68
(g69
g70
NtRp2180
(dp2181
g73
(dp2182
g81
I4
ssg82
g2176
sg75
(lp2183
g905
asbasbasbag68
(g84
g70
NtRp2184
(dp2185
g73
(dp2186
sg82
g2139
sg75
(lp2187
g68
(g89
g70
NtRp2188
(dp2189
g73
(dp2190
g93
g94
ssg82
g2184
sg75
(lp2191
g914
asbag68
(g89
g70
NtRp2192
(dp2193
g73
(dp2194
g100
g101
ssg82
g2184
sg75
(lp2195
S':'
asbag68
(g89
g70
NtRp2196
(dp2197
g73
(dp2198
sg82
g2184
sg75
(lp2199
g68
(g69
g70
NtRp2200
(dp2201
g73
(dp2202
g81
I4
ssg82
g2196
sg75
(lp2203
g68
(g77
g70
NtRp2204
(dp2205
g73
(dp2206
g81
I3
ssg82
Nsg75
(lp2207
sbasbasbasbag68
(g84
g70
NtRp2208
(dp2209
g73
(dp2210
sg82
g2139
sg75
(lp2211
g68
(g89
g70
NtRp2212
(dp2213
g73
(dp2214
g93
g94
ssg82
g2208
sg75
(lp2215
g939
asbag68
(g89
g70
NtRp2216
(dp2217
g73
(dp2218
g100
g101
ssg82
g2208
sg75
(lp2219
S':'
asbag68
(g89
g70
NtRp2220
(dp2221
g73
(dp2222
sg82
g2208
sg75
(lp2223
g68
(g69
g70
NtRp2224
(dp2225
g73
(dp2226
g81
I4
ssg82
g2220
sg75
(lp2227
S"<Values at 0xa558aac: {'verbose': False, 'ip': '127.0.0.1', 'with_scheduler': False, 'ips': [], 'shutdown_timeout': 5, 'taskbar': False, 'port': 8000, 'maxthreads': None, 'softcron': False, 'server_name': 'abhinav-HP-Pavilion-dv6-Notebook-PC', 'bpython': False, 'nogui': False, 'pid_filename': 'httpserver.pid', 'extcron': False, 'runcron': False, 'run_system_tests': False, 'test': None, 'folder': '/home/abhinav/Desktop/iiit/web2py', 'config': '', 'import_models': False, 'winservice': '', 'shell': None, 'run': '', 'log_filename': 'httpserver.log', 'debuglevel': 30, 'args': [''], 'socket_timeout': 5, 'ssl_ca_certificate': None, 'scheduler': None, 'profiler_filename': None, 'ssl_private_key': '', 'scheduler_groups': None, 'password': '<ask>', 'request_queue_size': 5, 'ssl_certificate': '', 'cronjob': False, 'numthreads': None, 'quiet': False, 'interfaces': None, 'minthreads': None, 'timeout': 10, 'plain': False, 'nobanner': False}>"
p2228
asbasbasbag68
(g84
g70
NtRp2229
(dp2230
g73
(dp2231
sg82
g2139
sg75
(lp2232
g68
(g89
g70
NtRp2233
(dp2234
g73
(dp2235
g93
g94
ssg82
g2229
sg75
(lp2236
g1005
asbag68
(g89
g70
NtRp2237
(dp2238
g73
(dp2239
g100
g101
ssg82
g2229
sg75
(lp2240
S':'
asbag68
(g89
g70
NtRp2241
(dp2242
g73
(dp2243
sg82
g2229
sg75
(lp2244
g68
(g69
g70
NtRp2245
(dp2246
g73
(dp2247
g81
I4
ssg82
g2241
sg75
(lp2248
S'set([])'
p2249
asbasbasbag68
(g84
g70
NtRp2250
(dp2251
g73
(dp2252
sg82
g2139
sg75
(lp2253
g68
(g89
g70
NtRp2254
(dp2255
g73
(dp2256
g93
g94
ssg82
g2250
sg75
(lp2257
g1027
asbag68
(g89
g70
NtRp2258
(dp2259
g73
(dp2260
g100
g101
ssg82
g2250
sg75
(lp2261
S':'
asbag68
(g89
g70
NtRp2262
(dp2263
g73
(dp2264
sg82
g2250
sg75
(lp2265
g68
(g69
g70
NtRp2266
(dp2267
g73
(dp2268
g81
I4
ssg82
g2262
sg75
(lp2269
g111
asbasbasbag68
(g84
g70
NtRp2270
(dp2271
g73
(dp2272
sg82
g2139
sg75
(lp2273
g68
(g89
g70
NtRp2274
(dp2275
g73
(dp2276
g93
g94
ssg82
g2270
sg75
(lp2277
g1048
asbag68
(g89
g70
NtRp2278
(dp2279
g73
(dp2280
g100
g101
ssg82
g2270
sg75
(lp2281
S':'
asbag68
(g89
g70
NtRp2282
(dp2283
g73
(dp2284
sg82
g2270
sg75
(lp2285
g68
(g69
g70
NtRp2286
(dp2287
g73
(dp2288
g81
I4
ssg82
g2282
sg75
(lp2289
g1061
asbasbasbag68
(g84
g70
NtRp2290
(dp2291
g73
(dp2292
sg82
g2139
sg75
(lp2293
g68
(g89
g70
NtRp2294
(dp2295
g73
(dp2296
g93
g94
ssg82
g2290
sg75
(lp2297
g1332
asbag68
(g89
g70
NtRp2298
(dp2299
g73
(dp2300
g100
g101
ssg82
g2290
sg75
(lp2301
S':'
asbag68
(g89
g70
NtRp2302
(dp2303
g73
(dp2304
sg82
g2290
sg75
(lp2305
g68
(g69
g70
NtRp2306
(dp2307
g73
(dp2308
g81
I4
ssg82
g2302
sg75
(lp2309
g111
asbasbasbag68
(g84
g70
NtRp2310
(dp2311
g73
(dp2312
sg82
g2139
sg75
(lp2313
g68
(g89
g70
NtRp2314
(dp2315
g73
(dp2316
g93
g94
ssg82
g2310
sg75
(lp2317
g1353
asbag68
(g89
g70
NtRp2318
(dp2319
g73
(dp2320
g100
g101
ssg82
g2310
sg75
(lp2321
S':'
asbag68
(g89
g70
NtRp2322
(dp2323
g73
(dp2324
sg82
g2310
sg75
(lp2325
g68
(g69
g70
NtRp2326
(dp2327
g73
(dp2328
g81
I4
ssg82
g2322
sg75
(lp2329
g111
asbasbasbag68
(g84
g70
NtRp2330
(dp2331
g73
(dp2332
sg82
g2139
sg75
(lp2333
g68
(g89
g70
NtRp2334
(dp2335
g73
(dp2336
g93
g94
ssg82
g2330
sg75
(lp2337
g1374
asbag68
(g89
g70
NtRp2338
(dp2339
g73
(dp2340
g100
g101
ssg82
g2330
sg75
(lp2341
S':'
asbag68
(g89
g70
NtRp2342
(dp2343
g73
(dp2344
sg82
g2330
sg75
(lp2345
g68
(g69
g70
NtRp2346
(dp2347
g73
(dp2348
g81
I4
ssg82
g2342
sg75
(lp2349
g68
(g77
g70
NtRp2350
(dp2351
g73
(dp2352
g81
I3
ssg82
Nsg75
(lp2353
g68
(g84
g70
NtRp2354
(dp2355
g73
(dp2356
sg82
g2350
sg75
(lp2357
g68
(g89
g70
NtRp2358
(dp2359
g73
(dp2360
sg82
g2354
sg75
(lp2361
g68
(g69
g70
NtRp2362
(dp2363
g73
(dp2364
g81
I3
ssg82
g2358
sg75
(lp2365
g1403
asbasbasbag68
(g84
g70
NtRp2366
(dp2367
g73
(dp2368
sg82
g2350
sg75
(lp2369
g68
(g89
g70
NtRp2370
(dp2371
g73
(dp2372
sg82
g2366
sg75
(lp2373
g68
(g69
g70
NtRp2374
(dp2375
g73
(dp2376
g81
I3
ssg82
g2370
sg75
(lp2377
g1416
asbasbasbag68
(g84
g70
NtRp2378
(dp2379
g73
(dp2380
sg82
g2350
sg75
(lp2381
g68
(g89
g70
NtRp2382
(dp2383
g73
(dp2384
sg82
g2378
sg75
(lp2385
g68
(g69
g70
NtRp2386
(dp2387
g73
(dp2388
g81
I3
ssg82
g2382
sg75
(lp2389
g1429
asbasbasbag68
(g84
g70
NtRp2390
(dp2391
g73
(dp2392
sg82
g2350
sg75
(lp2393
g68
(g89
g70
NtRp2394
(dp2395
g73
(dp2396
sg82
g2390
sg75
(lp2397
g68
(g69
g70
NtRp2398
(dp2399
g73
(dp2400
g81
I3
ssg82
g2394
sg75
(lp2401
g1442
asbasbasbag68
(g84
g70
NtRp2402
(dp2403
g73
(dp2404
sg82
g2350
sg75
(lp2405
g68
(g89
g70
NtRp2406
(dp2407
g73
(dp2408
sg82
g2402
sg75
(lp2409
g68
(g69
g70
NtRp2410
(dp2411
g73
(dp2412
g81
I3
ssg82
g2406
sg75
(lp2413
g1455
asbasbasbasbasbasbasbag68
(g84
g70
NtRp2414
(dp2415
g73
(dp2416
sg82
g2139
sg75
(lp2417
g68
(g89
g70
NtRp2418
(dp2419
g73
(dp2420
g93
g94
ssg82
g2414
sg75
(lp2421
g1725
asbag68
(g89
g70
NtRp2422
(dp2423
g73
(dp2424
g100
g101
ssg82
g2414
sg75
(lp2425
S':'
asbag68
(g89
g70
NtRp2426
(dp2427
g73
(dp2428
sg82
g2414
sg75
(lp2429
g68
(g69
g70
NtRp2430
(dp2431
g73
(dp2432
g81
I4
ssg82
g2426
sg75
(lp2433
g68
(g77
g70
NtRp2434
(dp2435
g73
(dp2436
g81
I3
ssg82
Nsg75
(lp2437
g68
(g84
g70
NtRp2438
(dp2439
g73
(dp2440
sg82
g2434
sg75
(lp2441
g68
(g89
g70
NtRp2442
(dp2443
g73
(dp2444
sg82
g2438
sg75
(lp2445
g68
(g69
g70
NtRp2446
(dp2447
g73
(dp2448
g81
I3
ssg82
g2442
sg75
(lp2449
S'2'
asbasbasbag68
(g84
g70
NtRp2450
(dp2451
g73
(dp2452
sg82
g2434
sg75
(lp2453
g68
(g89
g70
NtRp2454
(dp2455
g73
(dp2456
sg82
g2450
sg75
(lp2457
g68
(g69
g70
NtRp2458
(dp2459
g73
(dp2460
g81
I3
ssg82
g2454
sg75
(lp2461
S'3'
asbasbasbag68
(g84
g70
NtRp2462
(dp2463
g73
(dp2464
sg82
g2434
sg75
(lp2465
g68
(g89
g70
NtRp2466
(dp2467
g73
(dp2468
sg82
g2462
sg75
(lp2469
g68
(g69
g70
NtRp2470
(dp2471
g73
(dp2472
g81
I3
ssg82
g2466
sg75
(lp2473
S'2'
asbasbasbag68
(g84
g70
NtRp2474
(dp2475
g73
(dp2476
sg82
g2434
sg75
(lp2477
g68
(g89
g70
NtRp2478
(dp2479
g73
(dp2480
sg82
g2474
sg75
(lp2481
g68
(g69
g70
NtRp2482
(dp2483
g73
(dp2484
g81
I3
ssg82
g2478
sg75
(lp2485
S'datetime.datetime(2012, 12, 17, 15, 3, 30)'
p2486
asbasbasbag68
(g84
g70
NtRp2487
(dp2488
g73
(dp2489
sg82
g2434
sg75
(lp2490
g68
(g89
g70
NtRp2491
(dp2492
g73
(dp2493
sg82
g2487
sg75
(lp2494
g68
(g69
g70
NtRp2495
(dp2496
g73
(dp2497
g81
I3
ssg82
g2491
sg75
(lp2498
g1803
asbasbasbasbasbasbasbasbasbasbasbag68
(g84
g70
NtRp2499
(dp2500
g73
(dp2501
sg82
g78
sg75
(lp2502
g68
(g89
g70
NtRp2503
(dp2504
g73
(dp2505
g93
g94
ssg82
g2499
sg75
(lp2506
S'is_https'
p2507
asbag68
(g89
g70
NtRp2508
(dp2509
g73
(dp2510
g100
g101
ssg82
g2499
sg75
(lp2511
S':'
asbag68
(g89
g70
NtRp2512
(dp2513
g73
(dp2514
sg82
g2499
sg75
(lp2515
g68
(g69
g70
NtRp2516
(dp2517
g73
(dp2518
g81
I5
ssg82
g2512
sg75
(lp2519
g111
asbasbasbag68
(g84
g70
NtRp2520
(dp2521
g73
(dp2522
sg82
g78
sg75
(lp2523
g68
(g89
g70
NtRp2524
(dp2525
g73
(dp2526
g93
g94
ssg82
g2520
sg75
(lp2527
S'is_local'
p2528
asbag68
(g89
g70
NtRp2529
(dp2530
g73
(dp2531
g100
g101
ssg82
g2520
sg75
(lp2532
S':'
asbag68
(g89
g70
NtRp2533
(dp2534
g73
(dp2535
sg82
g2520
sg75
(lp2536
g68
(g69
g70
NtRp2537
(dp2538
g73
(dp2539
g81
I5
ssg82
g2533
sg75
(lp2540
g1912
asbasbasbag68
(g84
g70
NtRp2541
(dp2542
g73
(dp2543
sg82
g78
sg75
(lp2544
g68
(g89
g70
NtRp2545
(dp2546
g73
(dp2547
g93
g94
ssg82
g2541
sg75
(lp2548
S'is_restful'
p2549
asbag68
(g89
g70
NtRp2550
(dp2551
g73
(dp2552
g100
g101
ssg82
g2541
sg75
(lp2553
S':'
asbag68
(g89
g70
NtRp2554
(dp2555
g73
(dp2556
sg82
g2541
sg75
(lp2557
g68
(g69
g70
NtRp2558
(dp2559
g73
(dp2560
g81
I5
ssg82
g2554
sg75
(lp2561
g111
asbasbasbag68
(g84
g70
NtRp2562
(dp2563
g73
(dp2564
sg82
g78
sg75
(lp2565
g68
(g89
g70
NtRp2566
(dp2567
g73
(dp2568
g93
g94
ssg82
g2562
sg75
(lp2569
S'now'
p2570
asbag68
(g89
g70
NtRp2571
(dp2572
g73
(dp2573
g100
g101
ssg82
g2562
sg75
(lp2574
S':'
asbag68
(g89
g70
NtRp2575
(dp2576
g73
(dp2577
sg82
g2562
sg75
(lp2578
g68
(g69
g70
NtRp2579
(dp2580
g73
(dp2581
g81
I5
ssg82
g2575
sg75
(lp2582
S'datetime.datetime(2013, 11, 18, 0, 36, 2, 185263)'
p2583
asbasbasbag68
(g84
g70
NtRp2584
(dp2585
g73
(dp2586
sg82
g78
sg75
(lp2587
g68
(g89
g70
NtRp2588
(dp2589
g73
(dp2590
g93
g94
ssg82
g2584
sg75
(lp2591
S'post_vars'
p2592
asbag68
(g89
g70
NtRp2593
(dp2594
g73
(dp2595
g100
g101
ssg82
g2584
sg75
(lp2596
S':'
asbag68
(g89
g70
NtRp2597
(dp2598
g73
(dp2599
sg82
g2584
sg75
(lp2600
g68
(g69
g70
NtRp2601
(dp2602
g73
(dp2603
g81
I5
ssg82
g2597
sg75
(lp2604
g68
(g77
g70
NtRp2605
(dp2606
g73
(dp2607
g81
I4
ssg82
Nsg75
(lp2608
g68
(g84
g70
NtRp2609
(dp2610
g73
(dp2611
sg82
g2605
sg75
(lp2612
g68
(g89
g70
NtRp2613
(dp2614
g73
(dp2615
g93
g94
ssg82
g2609
sg75
(lp2616
S'novice'
p2617
asbag68
(g89
g70
NtRp2618
(dp2619
g73
(dp2620
g100
g101
ssg82
g2609
sg75
(lp2621
S':'
asbag68
(g89
g70
NtRp2622
(dp2623
g73
(dp2624
sg82
g2609
sg75
(lp2625
g68
(g69
g70
NtRp2626
(dp2627
g73
(dp2628
g81
I4
ssg82
g2622
sg75
(lp2629
S'Novice'
p2630
asbasbasbasbasbasbasbag68
(g84
g70
NtRp2631
(dp2632
g73
(dp2633
sg82
g78
sg75
(lp2634
g68
(g89
g70
NtRp2635
(dp2636
g73
(dp2637
g93
g94
ssg82
g2631
sg75
(lp2638
S'raw_args'
p2639
asbag68
(g89
g70
NtRp2640
(dp2641
g73
(dp2642
g100
g101
ssg82
g2631
sg75
(lp2643
S':'
asbag68
(g89
g70
NtRp2644
(dp2645
g73
(dp2646
sg82
g2631
sg75
(lp2647
g68
(g69
g70
NtRp2648
(dp2649
g73
(dp2650
g81
I5
ssg82
g2644
sg75
(lp2651
S''
asbasbasbag68
(g84
g70
NtRp2652
(dp2653
g73
(dp2654
sg82
g78
sg75
(lp2655
g68
(g89
g70
NtRp2656
(dp2657
g73
(dp2658
g93
g94
ssg82
g2652
sg75
(lp2659
S'raw_extension'
p2660
asbag68
(g89
g70
NtRp2661
(dp2662
g73
(dp2663
g100
g101
ssg82
g2652
sg75
(lp2664
S':'
asbag68
(g89
g70
NtRp2665
(dp2666
g73
(dp2667
sg82
g2652
sg75
(lp2668
g68
(g69
g70
NtRp2669
(dp2670
g73
(dp2671
g81
I5
ssg82
g2665
sg75
(lp2672
S'None'
p2673
asbasbasbag68
(g84
g70
NtRp2674
(dp2675
g73
(dp2676
sg82
g78
sg75
(lp2677
g68
(g89
g70
NtRp2678
(dp2679
g73
(dp2680
g93
g94
ssg82
g2674
sg75
(lp2681
S'url'
p2682
asbag68
(g89
g70
NtRp2683
(dp2684
g73
(dp2685
g100
g101
ssg82
g2674
sg75
(lp2686
S':'
asbag68
(g89
g70
NtRp2687
(dp2688
g73
(dp2689
sg82
g2674
sg75
(lp2690
g68
(g69
g70
NtRp2691
(dp2692
g73
(dp2693
g81
I5
ssg82
g2687
sg75
(lp2694
g1477
asbasbasbag68
(g84
g70
NtRp2695
(dp2696
g73
(dp2697
sg82
g78
sg75
(lp2698
g68
(g89
g70
NtRp2699
(dp2700
g73
(dp2701
g93
g94
ssg82
g2695
sg75
(lp2702
S'utcnow'
p2703
asbag68
(g89
g70
NtRp2704
(dp2705
g73
(dp2706
g100
g101
ssg82
g2695
sg75
(lp2707
S':'
asbag68
(g89
g70
NtRp2708
(dp2709
g73
(dp2710
sg82
g2695
sg75
(lp2711
g68
(g69
g70
NtRp2712
(dp2713
g73
(dp2714
g81
I5
ssg82
g2708
sg75
(lp2715
S'datetime.datetime(2013, 11, 17, 19, 6, 2, 185296)'
p2716
asbasbasbag68
(g84
g70
NtRp2717
(dp2718
g73
(dp2719
sg82
g78
sg75
(lp2720
g68
(g89
g70
NtRp2721
(dp2722
g73
(dp2723
g93
g94
ssg82
g2717
sg75
(lp2724
S'uuid'
p2725
asbag68
(g89
g70
NtRp2726
(dp2727
g73
(dp2728
g100
g101
ssg82
g2717
sg75
(lp2729
S':'
asbag68
(g89
g70
NtRp2730
(dp2731
g73
(dp2732
sg82
g2717
sg75
(lp2733
g68
(g69
g70
NtRp2734
(dp2735
g73
(dp2736
g81
I5
ssg82
g2730
sg75
(lp2737
S'WSD/127.0.0.1.2013-11-18.00-36-02.542b193b-c4ed-4f6a-a041-2181b5d7e58b'
p2738
asbasbasbag68
(g84
g70
NtRp2739
(dp2740
g73
(dp2741
sg82
g78
sg75
(lp2742
g68
(g89
g70
NtRp2743
(dp2744
g73
(dp2745
g93
g94
ssg82
g2739
sg75
(lp2746
S'vars'
p2747
asbag68
(g89
g70
NtRp2748
(dp2749
g73
(dp2750
g100
g101
ssg82
g2739
sg75
(lp2751
S':'
asbag68
(g89
g70
NtRp2752
(dp2753
g73
(dp2754
sg82
g2739
sg75
(lp2755
g68
(g69
g70
NtRp2756
(dp2757
g73
(dp2758
g81
I5
ssg82
g2752
sg75
(lp2759
g68
(g77
g70
NtRp2760
(dp2761
g73
(dp2762
g81
I4
ssg82
Nsg75
(lp2763
g68
(g84
g70
NtRp2764
(dp2765
g73
(dp2766
sg82
g2760
sg75
(lp2767
g68
(g89
g70
NtRp2768
(dp2769
g73
(dp2770
g93
g94
ssg82
g2764
sg75
(lp2771
g2104
asbag68
(g89
g70
NtRp2772
(dp2773
g73
(dp2774
g100
g101
ssg82
g2764
sg75
(lp2775
S':'
asbag68
(g89
g70
NtRp2776
(dp2777
g73
(dp2778
sg82
g2764
sg75
(lp2779
g68
(g69
g70
NtRp2780
(dp2781
g73
(dp2782
g81
I4
ssg82
g2776
sg75
(lp2783
S'11'
p2784
asbasbasbag68
(g84
g70
NtRp2785
(dp2786
g73
(dp2787
sg82
g2760
sg75
(lp2788
g68
(g89
g70
NtRp2789
(dp2790
g73
(dp2791
g93
g94
ssg82
g2785
sg75
(lp2792
g2617
asbag68
(g89
g70
NtRp2793
(dp2794
g73
(dp2795
g100
g101
ssg82
g2785
sg75
(lp2796
S':'
asbag68
(g89
g70
NtRp2797
(dp2798
g73
(dp2799
sg82
g2785
sg75
(lp2800
g68
(g69
g70
NtRp2801
(dp2802
g73
(dp2803
g81
I4
ssg82
g2797
sg75
(lp2804
g2630
asbasbasbasbasbasbasbag68
(g84
g70
NtRp2805
(dp2806
g73
(dp2807
sg82
g78
sg75
(lp2808
g68
(g89
g70
NtRp2809
(dp2810
g73
(dp2811
g93
g94
ssg82
g2805
sg75
(lp2812
S'wsgi'
p2813
asbag68
(g89
g70
NtRp2814
(dp2815
g73
(dp2816
g100
g101
ssg82
g2805
sg75
(lp2817
S':'
asbag68
(g89
g70
NtRp2818
(dp2819
g73
(dp2820
sg82
g2805
sg75
(lp2821
g68
(g69
g70
NtRp2822
(dp2823
g73
(dp2824
g81
I5
ssg82
g2818
sg75
(lp2825
g68
(g77
g70
NtRp2826
(dp2827
g73
(dp2828
g81
I4
ssg82
Nsg75
(lp2829
g68
(g84
g70
NtRp2830
(dp2831
g73
(dp2832
sg82
g2826
sg75
(lp2833
g68
(g89
g70
NtRp2834
(dp2835
g73
(dp2836
g93
g94
ssg82
g2830
sg75
(lp2837
S'environ'
p2838
asbag68
(g89
g70
NtRp2839
(dp2840
g73
(dp2841
g100
g101
ssg82
g2830
sg75
(lp2842
S':'
asbag68
(g89
g70
NtRp2843
(dp2844
g73
(dp2845
sg82
g2830
sg75
(lp2846
g68
(g69
g70
NtRp2847
(dp2848
g73
(dp2849
g81
I4
ssg82
g2843
sg75
(lp2850
g68
(g77
g70
NtRp2851
(dp2852
g73
(dp2853
g81
I3
ssg82
Nsg75
(lp2854
g68
(g84
g70
NtRp2855
(dp2856
g73
(dp2857
sg82
g2851
sg75
(lp2858
g68
(g89
g70
NtRp2859
(dp2860
g73
(dp2861
g93
g94
ssg82
g2855
sg75
(lp2862
S'CONTENT_LENGTH'
p2863
asbag68
(g89
g70
NtRp2864
(dp2865
g73
(dp2866
g100
g101
ssg82
g2855
sg75
(lp2867
S':'
asbag68
(g89
g70
NtRp2868
(dp2869
g73
(dp2870
sg82
g2855
sg75
(lp2871
g68
(g69
g70
NtRp2872
(dp2873
g73
(dp2874
g81
I3
ssg82
g2868
sg75
(lp2875
g974
asbasbasbag68
(g84
g70
NtRp2876
(dp2877
g73
(dp2878
sg82
g2851
sg75
(lp2879
g68
(g89
g70
NtRp2880
(dp2881
g73
(dp2882
g93
g94
ssg82
g2876
sg75
(lp2883
S'CONTENT_TYPE'
p2884
asbag68
(g89
g70
NtRp2885
(dp2886
g73
(dp2887
g100
g101
ssg82
g2876
sg75
(lp2888
S':'
asbag68
(g89
g70
NtRp2889
(dp2890
g73
(dp2891
sg82
g2876
sg75
(lp2892
g68
(g69
g70
NtRp2893
(dp2894
g73
(dp2895
g81
I3
ssg82
g2889
sg75
(lp2896
g996
asbasbasbag68
(g84
g70
NtRp2897
(dp2898
g73
(dp2899
sg82
g2851
sg75
(lp2900
g68
(g89
g70
NtRp2901
(dp2902
g73
(dp2903
g93
g94
ssg82
g2897
sg75
(lp2904
S'HTTP_ACCEPT'
p2905
asbag68
(g89
g70
NtRp2906
(dp2907
g73
(dp2908
g100
g101
ssg82
g2897
sg75
(lp2909
S':'
asbag68
(g89
g70
NtRp2910
(dp2911
g73
(dp2912
sg82
g2897
sg75
(lp2913
g68
(g69
g70
NtRp2914
(dp2915
g73
(dp2916
g81
I3
ssg82
g2910
sg75
(lp2917
g1083
asbasbasbag68
(g84
g70
NtRp2918
(dp2919
g73
(dp2920
sg82
g2851
sg75
(lp2921
g68
(g89
g70
NtRp2922
(dp2923
g73
(dp2924
g93
g94
ssg82
g2918
sg75
(lp2925
S'HTTP_ACCEPT_ENCODING'
p2926
asbag68
(g89
g70
NtRp2927
(dp2928
g73
(dp2929
g100
g101
ssg82
g2918
sg75
(lp2930
S':'
asbag68
(g89
g70
NtRp2931
(dp2932
g73
(dp2933
sg82
g2918
sg75
(lp2934
g68
(g69
g70
NtRp2935
(dp2936
g73
(dp2937
g81
I3
ssg82
g2931
sg75
(lp2938
g1105
asbasbasbag68
(g84
g70
NtRp2939
(dp2940
g73
(dp2941
sg82
g2851
sg75
(lp2942
g68
(g89
g70
NtRp2943
(dp2944
g73
(dp2945
g93
g94
ssg82
g2939
sg75
(lp2946
S'HTTP_ACCEPT_LANGUAGE'
p2947
asbag68
(g89
g70
NtRp2948
(dp2949
g73
(dp2950
g100
g101
ssg82
g2939
sg75
(lp2951
S':'
asbag68
(g89
g70
NtRp2952
(dp2953
g73
(dp2954
sg82
g2939
sg75
(lp2955
g68
(g69
g70
NtRp2956
(dp2957
g73
(dp2958
g81
I3
ssg82
g2952
sg75
(lp2959
g1127
asbasbasbag68
(g84
g70
NtRp2960
(dp2961
g73
(dp2962
sg82
g2851
sg75
(lp2963
g68
(g89
g70
NtRp2964
(dp2965
g73
(dp2966
g93
g94
ssg82
g2960
sg75
(lp2967
S'HTTP_CACHE_CONTROL'
p2968
asbag68
(g89
g70
NtRp2969
(dp2970
g73
(dp2971
g100
g101
ssg82
g2960
sg75
(lp2972
S':'
asbag68
(g89
g70
NtRp2973
(dp2974
g73
(dp2975
sg82
g2960
sg75
(lp2976
g68
(g69
g70
NtRp2977
(dp2978
g73
(dp2979
g81
I3
ssg82
g2973
sg75
(lp2980
g1149
asbasbasbag68
(g84
g70
NtRp2981
(dp2982
g73
(dp2983
sg82
g2851
sg75
(lp2984
g68
(g89
g70
NtRp2985
(dp2986
g73
(dp2987
g93
g94
ssg82
g2981
sg75
(lp2988
S'HTTP_CONNECTION'
p2989
asbag68
(g89
g70
NtRp2990
(dp2991
g73
(dp2992
g100
g101
ssg82
g2981
sg75
(lp2993
S':'
asbag68
(g89
g70
NtRp2994
(dp2995
g73
(dp2996
sg82
g2981
sg75
(lp2997
g68
(g69
g70
NtRp2998
(dp2999
g73
(dp3000
g81
I3
ssg82
g2994
sg75
(lp3001
g1171
asbasbasbag68
(g84
g70
NtRp3002
(dp3003
g73
(dp3004
sg82
g2851
sg75
(lp3005
g68
(g89
g70
NtRp3006
(dp3007
g73
(dp3008
g93
g94
ssg82
g3002
sg75
(lp3009
S'HTTP_CONTENT_LENGTH'
p3010
asbag68
(g89
g70
NtRp3011
(dp3012
g73
(dp3013
g100
g101
ssg82
g3002
sg75
(lp3014
S':'
asbag68
(g89
g70
NtRp3015
(dp3016
g73
(dp3017
sg82
g3002
sg75
(lp3018
g68
(g69
g70
NtRp3019
(dp3020
g73
(dp3021
g81
I3
ssg82
g3015
sg75
(lp3022
g974
asbasbasbag68
(g84
g70
NtRp3023
(dp3024
g73
(dp3025
sg82
g2851
sg75
(lp3026
g68
(g89
g70
NtRp3027
(dp3028
g73
(dp3029
g93
g94
ssg82
g3023
sg75
(lp3030
S'HTTP_CONTENT_TYPE'
p3031
asbag68
(g89
g70
NtRp3032
(dp3033
g73
(dp3034
g100
g101
ssg82
g3023
sg75
(lp3035
S':'
asbag68
(g89
g70
NtRp3036
(dp3037
g73
(dp3038
sg82
g3023
sg75
(lp3039
g68
(g69
g70
NtRp3040
(dp3041
g73
(dp3042
g81
I3
ssg82
g3036
sg75
(lp3043
g996
asbasbasbag68
(g84
g70
NtRp3044
(dp3045
g73
(dp3046
sg82
g2851
sg75
(lp3047
g68
(g89
g70
NtRp3048
(dp3049
g73
(dp3050
g93
g94
ssg82
g3044
sg75
(lp3051
S'HTTP_COOKIE'
p3052
asbag68
(g89
g70
NtRp3053
(dp3054
g73
(dp3055
g100
g101
ssg82
g3044
sg75
(lp3056
S':'
asbag68
(g89
g70
NtRp3057
(dp3058
g73
(dp3059
sg82
g3044
sg75
(lp3060
g68
(g69
g70
NtRp3061
(dp3062
g73
(dp3063
g81
I3
ssg82
g3057
sg75
(lp3064
g1235
asbasbasbag68
(g84
g70
NtRp3065
(dp3066
g73
(dp3067
sg82
g2851
sg75
(lp3068
g68
(g89
g70
NtRp3069
(dp3070
g73
(dp3071
g93
g94
ssg82
g3065
sg75
(lp3072
S'HTTP_HOST'
p3073
asbag68
(g89
g70
NtRp3074
(dp3075
g73
(dp3076
g100
g101
ssg82
g3065
sg75
(lp3077
S':'
asbag68
(g89
g70
NtRp3078
(dp3079
g73
(dp3080
sg82
g3065
sg75
(lp3081
g68
(g69
g70
NtRp3082
(dp3083
g73
(dp3084
g81
I3
ssg82
g3078
sg75
(lp3085
g1257
asbasbasbag68
(g84
g70
NtRp3086
(dp3087
g73
(dp3088
sg82
g2851
sg75
(lp3089
g68
(g89
g70
NtRp3090
(dp3091
g73
(dp3092
g93
g94
ssg82
g3086
sg75
(lp3093
S'HTTP_ORIGIN'
p3094
asbag68
(g89
g70
NtRp3095
(dp3096
g73
(dp3097
g100
g101
ssg82
g3086
sg75
(lp3098
S':'
asbag68
(g89
g70
NtRp3099
(dp3100
g73
(dp3101
sg82
g3086
sg75
(lp3102
g68
(g69
g70
NtRp3103
(dp3104
g73
(dp3105
g81
I3
ssg82
g3099
sg75
(lp3106
g1279
asbasbasbag68
(g84
g70
NtRp3107
(dp3108
g73
(dp3109
sg82
g2851
sg75
(lp3110
g68
(g89
g70
NtRp3111
(dp3112
g73
(dp3113
g93
g94
ssg82
g3107
sg75
(lp3114
S'HTTP_REFERER'
p3115
asbag68
(g89
g70
NtRp3116
(dp3117
g73
(dp3118
g100
g101
ssg82
g3107
sg75
(lp3119
S':'
asbag68
(g89
g70
NtRp3120
(dp3121
g73
(dp3122
sg82
g3107
sg75
(lp3123
g68
(g69
g70
NtRp3124
(dp3125
g73
(dp3126
g81
I3
ssg82
g3120
sg75
(lp3127
g1301
asbasbasbag68
(g84
g70
NtRp3128
(dp3129
g73
(dp3130
sg82
g2851
sg75
(lp3131
g68
(g89
g70
NtRp3132
(dp3133
g73
(dp3134
g93
g94
ssg82
g3128
sg75
(lp3135
S'HTTP_USER_AGENT'
p3136
asbag68
(g89
g70
NtRp3137
(dp3138
g73
(dp3139
g100
g101
ssg82
g3128
sg75
(lp3140
S':'
asbag68
(g89
g70
NtRp3141
(dp3142
g73
(dp3143
sg82
g3128
sg75
(lp3144
g68
(g69
g70
NtRp3145
(dp3146
g73
(dp3147
g81
I3
ssg82
g3141
sg75
(lp3148
g1323
asbasbasbag68
(g84
g70
NtRp3149
(dp3150
g73
(dp3151
sg82
g2851
sg75
(lp3152
g68
(g89
g70
NtRp3153
(dp3154
g73
(dp3155
g93
g94
ssg82
g3149
sg75
(lp3156
S'PATH_INFO'
p3157
asbag68
(g89
g70
NtRp3158
(dp3159
g73
(dp3160
g100
g101
ssg82
g3149
sg75
(lp3161
S':'
asbag68
(g89
g70
NtRp3162
(dp3163
g73
(dp3164
sg82
g3149
sg75
(lp3165
g68
(g69
g70
NtRp3166
(dp3167
g73
(dp3168
g81
I3
ssg82
g3162
sg75
(lp3169
g1477
asbasbasbag68
(g84
g70
NtRp3170
(dp3171
g73
(dp3172
sg82
g2851
sg75
(lp3173
g68
(g89
g70
NtRp3174
(dp3175
g73
(dp3176
g93
g94
ssg82
g3170
sg75
(lp3177
S'QUERY_STRING'
p3178
asbag68
(g89
g70
NtRp3179
(dp3180
g73
(dp3181
g100
g101
ssg82
g3170
sg75
(lp3182
S':'
asbag68
(g89
g70
NtRp3183
(dp3184
g73
(dp3185
sg82
g3170
sg75
(lp3186
g68
(g69
g70
NtRp3187
(dp3188
g73
(dp3189
g81
I3
ssg82
g3183
sg75
(lp3190
g1499
asbasbasbag68
(g84
g70
NtRp3191
(dp3192
g73
(dp3193
sg82
g2851
sg75
(lp3194
g68
(g89
g70
NtRp3195
(dp3196
g73
(dp3197
g93
g94
ssg82
g3191
sg75
(lp3198
S'REMOTE_ADDR'
p3199
asbag68
(g89
g70
NtRp3200
(dp3201
g73
(dp3202
g100
g101
ssg82
g3191
sg75
(lp3203
S':'
asbag68
(g89
g70
NtRp3204
(dp3205
g73
(dp3206
sg82
g3191
sg75
(lp3207
g68
(g69
g70
NtRp3208
(dp3209
g73
(dp3210
g81
I3
ssg82
g3204
sg75
(lp3211
g223
asbasbasbag68
(g84
g70
NtRp3212
(dp3213
g73
(dp3214
sg82
g2851
sg75
(lp3215
g68
(g89
g70
NtRp3216
(dp3217
g73
(dp3218
g93
g94
ssg82
g3212
sg75
(lp3219
S'REMOTE_PORT'
p3220
asbag68
(g89
g70
NtRp3221
(dp3222
g73
(dp3223
g100
g101
ssg82
g3212
sg75
(lp3224
S':'
asbag68
(g89
g70
NtRp3225
(dp3226
g73
(dp3227
sg82
g3212
sg75
(lp3228
g68
(g69
g70
NtRp3229
(dp3230
g73
(dp3231
g81
I3
ssg82
g3225
sg75
(lp3232
g1542
asbasbasbag68
(g84
g70
NtRp3233
(dp3234
g73
(dp3235
sg82
g2851
sg75
(lp3236
g68
(g89
g70
NtRp3237
(dp3238
g73
(dp3239
g93
g94
ssg82
g3233
sg75
(lp3240
S'REQUEST_METHOD'
p3241
asbag68
(g89
g70
NtRp3242
(dp3243
g73
(dp3244
g100
g101
ssg82
g3233
sg75
(lp3245
S':'
asbag68
(g89
g70
NtRp3246
(dp3247
g73
(dp3248
sg82
g3233
sg75
(lp3249
g68
(g69
g70
NtRp3250
(dp3251
g73
(dp3252
g81
I3
ssg82
g3246
sg75
(lp3253
g1564
asbasbasbag68
(g84
g70
NtRp3254
(dp3255
g73
(dp3256
sg82
g2851
sg75
(lp3257
g68
(g89
g70
NtRp3258
(dp3259
g73
(dp3260
g93
g94
ssg82
g3254
sg75
(lp3261
S'REQUEST_URI'
p3262
asbag68
(g89
g70
NtRp3263
(dp3264
g73
(dp3265
g100
g101
ssg82
g3254
sg75
(lp3266
S':'
asbag68
(g89
g70
NtRp3267
(dp3268
g73
(dp3269
sg82
g3254
sg75
(lp3270
g68
(g69
g70
NtRp3271
(dp3272
g73
(dp3273
g81
I3
ssg82
g3267
sg75
(lp3274
g1586
asbasbasbag68
(g84
g70
NtRp3275
(dp3276
g73
(dp3277
sg82
g2851
sg75
(lp3278
g68
(g89
g70
NtRp3279
(dp3280
g73
(dp3281
g93
g94
ssg82
g3275
sg75
(lp3282
S'SCRIPT_NAME'
p3283
asbag68
(g89
g70
NtRp3284
(dp3285
g73
(dp3286
g100
g101
ssg82
g3275
sg75
(lp3287
S':'
asbag68
(g89
g70
NtRp3288
(dp3289
g73
(dp3290
sg82
g3275
sg75
(lp3291
g68
(g69
g70
NtRp3292
(dp3293
g73
(dp3294
g81
I3
ssg82
g3288
sg75
(lp3295
S''
asbasbasbag68
(g84
g70
NtRp3296
(dp3297
g73
(dp3298
sg82
g2851
sg75
(lp3299
g68
(g89
g70
NtRp3300
(dp3301
g73
(dp3302
g93
g94
ssg82
g3296
sg75
(lp3303
S'SERVER_NAME'
p3304
asbag68
(g89
g70
NtRp3305
(dp3306
g73
(dp3307
g100
g101
ssg82
g3296
sg75
(lp3308
S':'
asbag68
(g89
g70
NtRp3309
(dp3310
g73
(dp3311
sg82
g3296
sg75
(lp3312
g68
(g69
g70
NtRp3313
(dp3314
g73
(dp3315
g81
I3
ssg82
g3309
sg75
(lp3316
g1629
asbasbasbag68
(g84
g70
NtRp3317
(dp3318
g73
(dp3319
sg82
g2851
sg75
(lp3320
g68
(g89
g70
NtRp3321
(dp3322
g73
(dp3323
g93
g94
ssg82
g3317
sg75
(lp3324
S'SERVER_PORT'
p3325
asbag68
(g89
g70
NtRp3326
(dp3327
g73
(dp3328
g100
g101
ssg82
g3317
sg75
(lp3329
S':'
asbag68
(g89
g70
NtRp3330
(dp3331
g73
(dp3332
sg82
g3317
sg75
(lp3333
g68
(g69
g70
NtRp3334
(dp3335
g73
(dp3336
g81
I3
ssg82
g3330
sg75
(lp3337
g1651
asbasbasbag68
(g84
g70
NtRp3338
(dp3339
g73
(dp3340
sg82
g2851
sg75
(lp3341
g68
(g89
g70
NtRp3342
(dp3343
g73
(dp3344
g93
g94
ssg82
g3338
sg75
(lp3345
S'SERVER_PROTOCOL'
p3346
asbag68
(g89
g70
NtRp3347
(dp3348
g73
(dp3349
g100
g101
ssg82
g3338
sg75
(lp3350
S':'
asbag68
(g89
g70
NtRp3351
(dp3352
g73
(dp3353
sg82
g3338
sg75
(lp3354
g68
(g69
g70
NtRp3355
(dp3356
g73
(dp3357
g81
I3
ssg82
g3351
sg75
(lp3358
g1673
asbasbasbag68
(g84
g70
NtRp3359
(dp3360
g73
(dp3361
sg82
g2851
sg75
(lp3362
g68
(g89
g70
NtRp3363
(dp3364
g73
(dp3365
g93
g94
ssg82
g3359
sg75
(lp3366
S'SERVER_SOFTWARE'
p3367
asbag68
(g89
g70
NtRp3368
(dp3369
g73
(dp3370
g100
g101
ssg82
g3359
sg75
(lp3371
S':'
asbag68
(g89
g70
NtRp3372
(dp3373
g73
(dp3374
sg82
g3359
sg75
(lp3375
g68
(g69
g70
NtRp3376
(dp3377
g73
(dp3378
g81
I3
ssg82
g3372
sg75
(lp3379
g1695
asbasbasbag68
(g84
g70
NtRp3380
(dp3381
g73
(dp3382
sg82
g2851
sg75
(lp3383
g68
(g89
g70
NtRp3384
(dp3385
g73
(dp3386
g93
g94
ssg82
g3380
sg75
(lp3387
S'wsgi.errors'
p3388
asbag68
(g89
g70
NtRp3389
(dp3390
g73
(dp3391
g100
g101
ssg82
g3380
sg75
(lp3392
S':'
asbag68
(g89
g70
NtRp3393
(dp3394
g73
(dp3395
sg82
g3380
sg75
(lp3396
g68
(g69
g70
NtRp3397
(dp3398
g73
(dp3399
g81
I3
ssg82
g3393
sg75
(lp3400
S"<open file '<stderr>', mode 'w' at 0xb73490d0>"
p3401
asbasbasbag68
(g84
g70
NtRp3402
(dp3403
g73
(dp3404
sg82
g2851
sg75
(lp3405
g68
(g89
g70
NtRp3406
(dp3407
g73
(dp3408
g93
g94
ssg82
g3402
sg75
(lp3409
S'wsgi.file_wrapper'
p3410
asbag68
(g89
g70
NtRp3411
(dp3412
g73
(dp3413
g100
g101
ssg82
g3402
sg75
(lp3414
S':'
asbag68
(g89
g70
NtRp3415
(dp3416
g73
(dp3417
sg82
g3402
sg75
(lp3418
g68
(g69
g70
NtRp3419
(dp3420
g73
(dp3421
g81
I3
ssg82
g3415
sg75
(lp3422
S'<class wsgiref.util.FileWrapper at 0xa5186ec>'
p3423
asbasbasbag68
(g84
g70
NtRp3424
(dp3425
g73
(dp3426
sg82
g2851
sg75
(lp3427
g68
(g89
g70
NtRp3428
(dp3429
g73
(dp3430
g93
g94
ssg82
g3424
sg75
(lp3431
S'wsgi.input'
p3432
asbag68
(g89
g70
NtRp3433
(dp3434
g73
(dp3435
g100
g101
ssg82
g3424
sg75
(lp3436
S':'
asbag68
(g89
g70
NtRp3437
(dp3438
g73
(dp3439
sg82
g3424
sg75
(lp3440
g68
(g69
g70
NtRp3441
(dp3442
g73
(dp3443
g81
I3
ssg82
g3437
sg75
(lp3444
S"<open file '<fdopen>', mode 'w+b' at 0xb06be338>"
p3445
asbasbasbag68
(g84
g70
NtRp3446
(dp3447
g73
(dp3448
sg82
g2851
sg75
(lp3449
g68
(g89
g70
NtRp3450
(dp3451
g73
(dp3452
g93
g94
ssg82
g3446
sg75
(lp3453
S'wsgi.multiprocess'
p3454
asbag68
(g89
g70
NtRp3455
(dp3456
g73
(dp3457
g100
g101
ssg82
g3446
sg75
(lp3458
S':'
asbag68
(g89
g70
NtRp3459
(dp3460
g73
(dp3461
sg82
g3446
sg75
(lp3462
g68
(g69
g70
NtRp3463
(dp3464
g73
(dp3465
g81
I3
ssg82
g3459
sg75
(lp3466
g111
asbasbasbag68
(g84
g70
NtRp3467
(dp3468
g73
(dp3469
sg82
g2851
sg75
(lp3470
g68
(g89
g70
NtRp3471
(dp3472
g73
(dp3473
g93
g94
ssg82
g3467
sg75
(lp3474
S'wsgi.multithread'
p3475
asbag68
(g89
g70
NtRp3476
(dp3477
g73
(dp3478
g100
g101
ssg82
g3467
sg75
(lp3479
S':'
asbag68
(g89
g70
NtRp3480
(dp3481
g73
(dp3482
sg82
g3467
sg75
(lp3483
g68
(g69
g70
NtRp3484
(dp3485
g73
(dp3486
g81
I3
ssg82
g3480
sg75
(lp3487
g1912
asbasbasbag68
(g84
g70
NtRp3488
(dp3489
g73
(dp3490
sg82
g2851
sg75
(lp3491
g68
(g89
g70
NtRp3492
(dp3493
g73
(dp3494
g93
g94
ssg82
g3488
sg75
(lp3495
S'wsgi.run_once'
p3496
asbag68
(g89
g70
NtRp3497
(dp3498
g73
(dp3499
g100
g101
ssg82
g3488
sg75
(lp3500
S':'
asbag68
(g89
g70
NtRp3501
(dp3502
g73
(dp3503
sg82
g3488
sg75
(lp3504
g68
(g69
g70
NtRp3505
(dp3506
g73
(dp3507
g81
I3
ssg82
g3501
sg75
(lp3508
g111
asbasbasbag68
(g84
g70
NtRp3509
(dp3510
g73
(dp3511
sg82
g2851
sg75
(lp3512
g68
(g89
g70
NtRp3513
(dp3514
g73
(dp3515
g93
g94
ssg82
g3509
sg75
(lp3516
S'wsgi.url_scheme'
p3517
asbag68
(g89
g70
NtRp3518
(dp3519
g73
(dp3520
g100
g101
ssg82
g3509
sg75
(lp3521
S':'
asbag68
(g89
g70
NtRp3522
(dp3523
g73
(dp3524
sg82
g3509
sg75
(lp3525
g68
(g69
g70
NtRp3526
(dp3527
g73
(dp3528
g81
I3
ssg82
g3522
sg75
(lp3529
g1955
asbasbasbag68
(g84
g70
NtRp3530
(dp3531
g73
(dp3532
sg82
g2851
sg75
(lp3533
g68
(g89
g70
NtRp3534
(dp3535
g73
(dp3536
g93
g94
ssg82
g3530
sg75
(lp3537
S'wsgi.version'
p3538
asbag68
(g89
g70
NtRp3539
(dp3540
g73
(dp3541
g100
g101
ssg82
g3530
sg75
(lp3542
S':'
asbag68
(g89
g70
NtRp3543
(dp3544
g73
(dp3545
sg82
g3530
sg75
(lp3546
g68
(g69
g70
NtRp3547
(dp3548
g73
(dp3549
g81
I3
ssg82
g3543
sg75
(lp3550
S'1'
asbasbasbasbasbasbasbasbasbasbasbasbasbsS'frames'
p3551
(lp3552
(dp3553
S'file'
p3554
S'/home/abhinav/Desktop/iiit/web2py/gluon/restricted.py'
p3555
sS'dump'
p3556
(dp3557
S'code'
p3558
S"'# -*- coding: utf-8 -*-\\n# this file is released ...t(v=v)\\n\\nresponse._vars=response._caller(reasonc)\\n'"
p3559
sS'layer'
p3560
S"'/home/abhinav/Desktop/iiit/web2py/applications/WSD/controllers/default.py'"
p3561
sS'global compile2'
p3562
S'<function compile2>'
p3563
sS'ccode'
p3564
S'undefined'
p3565
ssS'lnum'
p3566
I211
sS'lines'
p3567
(dp3568
I206
S"    environment['__name__'] = '__restricted__'"
p3569
sI207
S'    try:'
p3570
sI208
S'        if isinstance(code, types.CodeType):'
p3571
sI209
S'            ccode = code'
p3572
sI210
S'        else:'
p3573
sI211
S'            ccode = compile2(code, layer)'
p3574
sI212
S'        exec ccode in environment'
p3575
sI213
S'    except HTTP:'
p3576
sI214
S'        raise'
p3577
sI215
S'    except RestrictedError:'
p3578
ssS'call'
p3579
S"(code='# -*- coding: utf-8 -*-\\n# this file is released ...t(v=v)\\n\\nresponse._vars=response._caller(reasonc)\\n', environment={'A': <class 'gluon.html.A'>, 'Auth': <class 'gluon.tools.Auth'>, 'B': <class 'gluon.html.B'>, 'BEAUTIFY': <class 'gluon.html.BEAUTIFY'>, 'BODY': <class 'gluon.html.BODY'>, 'BR': <class 'gluon.html.BR'>, 'BUTTON': <class 'gluon.html.BUTTON'>, 'CAT': <class 'gluon.html.CAT'>, 'CENTER': <class 'gluon.html.CENTER'>, 'CLEANUP': <class 'gluon.validators.CLEANUP'>, ...}, layer='/home/abhinav/Desktop/iiit/web2py/applications/WSD/controllers/default.py')"
p3580
sS'func'
p3581
S'restricted'
p3582
sa(dp3583
g3554
S'/home/abhinav/Desktop/iiit/web2py/gluon/restricted.py'
p3584
sg3556
(dp3585
S'builtincompile'
p3586
S'<built-in function compile>'
p3587
sS'code'
p3588
S"'# -*- coding: utf-8 -*-\\n# this file is released ...t(v=v)\\n\\nresponse._vars=response._caller(reasonc)\\n'"
p3589
sS'code.rstrip'
p3590
S'<built-in method rstrip of str object>'
p3591
sS').replace'
p3592
g3565
sS'layer'
p3593
S"'/home/abhinav/Desktop/iiit/web2py/applications/WSD/controllers/default.py'"
p3594
ssg3566
I194
sg3567
(dp3595
I192
S"    The +'\\n' is necessary else compile fails when code ends in a comment."
p3596
sI193
S'    """'
p3597
sI194
S"    return compile(code.rstrip().replace('\\r\\n', '\\n') + '\\n', layer, 'exec')"
p3598
sI195
S''
sI196
S''
sI197
S"def restricted(code, environment=None, layer='Unknown'):"
p3599
sI198
S'    """'
p3600
sI189
S''
sI190
S'def compile2(code, layer):'
p3601
sI191
S'    """'
p3602
ssg3579
S"(code='# -*- coding: utf-8 -*-\\n# this file is released ...t(v=v)\\n\\nresponse._vars=response._caller(reasonc)\\n', layer='/home/abhinav/Desktop/iiit/web2py/applications/WSD/controllers/default.py')"
p3603
sg3581
S'compile2'
p3604
sasS'pyver'
p3605
S'Python 2.7.3: /usr/bin/python'
p3606
sS'session'
p3607
g68
(g69
g70
NtRp3608
(dp3609
g73
(dp3610
sg75
(lp3611
g68
(g77
g70
NtRp3612
(dp3613
g73
(dp3614
g81
I5
ssg82
Nsg75
(lp3615
g68
(g84
g70
NtRp3616
(dp3617
g73
(dp3618
sg82
g3612
sg75
(lp3619
g68
(g89
g70
NtRp3620
(dp3621
g73
(dp3622
g93
g94
ssg82
g3616
sg75
(lp3623
S'auth'
p3624
asbag68
(g89
g70
NtRp3625
(dp3626
g73
(dp3627
g100
g101
ssg82
g3616
sg75
(lp3628
S':'
asbag68
(g89
g70
NtRp3629
(dp3630
g73
(dp3631
sg82
g3616
sg75
(lp3632
g68
(g69
g70
NtRp3633
(dp3634
g73
(dp3635
g81
I5
ssg82
g3629
sg75
(lp3636
g68
(g77
g70
NtRp3637
(dp3638
g73
(dp3639
g81
I4
ssg82
Nsg75
(lp3640
g68
(g84
g70
NtRp3641
(dp3642
g73
(dp3643
sg82
g3637
sg75
(lp3644
g68
(g89
g70
NtRp3645
(dp3646
g73
(dp3647
g93
g94
ssg82
g3641
sg75
(lp3648
S'expiration'
p3649
asbag68
(g89
g70
NtRp3650
(dp3651
g73
(dp3652
g100
g101
ssg82
g3641
sg75
(lp3653
S':'
asbag68
(g89
g70
NtRp3654
(dp3655
g73
(dp3656
sg82
g3641
sg75
(lp3657
g68
(g69
g70
NtRp3658
(dp3659
g73
(dp3660
g81
I4
ssg82
g3654
sg75
(lp3661
S'3600'
p3662
asbasbasbag68
(g84
g70
NtRp3663
(dp3664
g73
(dp3665
sg82
g3637
sg75
(lp3666
g68
(g89
g70
NtRp3667
(dp3668
g73
(dp3669
g93
g94
ssg82
g3663
sg75
(lp3670
S'hmac_key'
p3671
asbag68
(g89
g70
NtRp3672
(dp3673
g73
(dp3674
g100
g101
ssg82
g3663
sg75
(lp3675
S':'
asbag68
(g89
g70
NtRp3676
(dp3677
g73
(dp3678
sg82
g3663
sg75
(lp3679
g68
(g69
g70
NtRp3680
(dp3681
g73
(dp3682
g81
I4
ssg82
g3676
sg75
(lp3683
S'2d2b8ae7-811f-4a25-aff7-f802e73028ff'
p3684
asbasbasbag68
(g84
g70
NtRp3685
(dp3686
g73
(dp3687
sg82
g3637
sg75
(lp3688
g68
(g89
g70
NtRp3689
(dp3690
g73
(dp3691
g93
g94
ssg82
g3685
sg75
(lp3692
S'last_visit'
p3693
asbag68
(g89
g70
NtRp3694
(dp3695
g73
(dp3696
g100
g101
ssg82
g3685
sg75
(lp3697
S':'
asbag68
(g89
g70
NtRp3698
(dp3699
g73
(dp3700
sg82
g3685
sg75
(lp3701
g68
(g69
g70
NtRp3702
(dp3703
g73
(dp3704
g81
I4
ssg82
g3698
sg75
(lp3705
S'datetime.datetime(2013, 11, 18, 0, 34, 54, 782180)'
p3706
asbasbasbag68
(g84
g70
NtRp3707
(dp3708
g73
(dp3709
sg82
g3637
sg75
(lp3710
g68
(g89
g70
NtRp3711
(dp3712
g73
(dp3713
g93
g94
ssg82
g3707
sg75
(lp3714
S'remember'
p3715
asbag68
(g89
g70
NtRp3716
(dp3717
g73
(dp3718
g100
g101
ssg82
g3707
sg75
(lp3719
S':'
asbag68
(g89
g70
NtRp3720
(dp3721
g73
(dp3722
sg82
g3707
sg75
(lp3723
g68
(g69
g70
NtRp3724
(dp3725
g73
(dp3726
g81
I4
ssg82
g3720
sg75
(lp3727
g111
asbasbasbag68
(g84
g70
NtRp3728
(dp3729
g73
(dp3730
sg82
g3637
sg75
(lp3731
g68
(g89
g70
NtRp3732
(dp3733
g73
(dp3734
g93
g94
ssg82
g3728
sg75
(lp3735
S'user'
p3736
asbag68
(g89
g70
NtRp3737
(dp3738
g73
(dp3739
g100
g101
ssg82
g3728
sg75
(lp3740
S':'
asbag68
(g89
g70
NtRp3741
(dp3742
g73
(dp3743
sg82
g3728
sg75
(lp3744
g68
(g69
g70
NtRp3745
(dp3746
g73
(dp3747
g81
I4
ssg82
g3741
sg75
(lp3748
g68
(g77
g70
NtRp3749
(dp3750
g73
(dp3751
g81
I3
ssg82
Nsg75
(lp3752
g68
(g84
g70
NtRp3753
(dp3754
g73
(dp3755
sg82
g3749
sg75
(lp3756
g68
(g89
g70
NtRp3757
(dp3758
g73
(dp3759
g93
g94
ssg82
g3753
sg75
(lp3760
S'email'
p3761
asbag68
(g89
g70
NtRp3762
(dp3763
g73
(dp3764
g100
g101
ssg82
g3753
sg75
(lp3765
S':'
asbag68
(g89
g70
NtRp3766
(dp3767
g73
(dp3768
sg82
g3753
sg75
(lp3769
g68
(g69
g70
NtRp3770
(dp3771
g73
(dp3772
g81
I3
ssg82
g3766
sg75
(lp3773
S'root@sys.com'
p3774
asbasbasbag68
(g84
g70
NtRp3775
(dp3776
g73
(dp3777
sg82
g3749
sg75
(lp3778
g68
(g89
g70
NtRp3779
(dp3780
g73
(dp3781
g93
g94
ssg82
g3775
sg75
(lp3782
S'first_name'
p3783
asbag68
(g89
g70
NtRp3784
(dp3785
g73
(dp3786
g100
g101
ssg82
g3775
sg75
(lp3787
S':'
asbag68
(g89
g70
NtRp3788
(dp3789
g73
(dp3790
sg82
g3775
sg75
(lp3791
g68
(g69
g70
NtRp3792
(dp3793
g73
(dp3794
g81
I3
ssg82
g3788
sg75
(lp3795
S'root'
p3796
asbasbasbag68
(g84
g70
NtRp3797
(dp3798
g73
(dp3799
sg82
g3749
sg75
(lp3800
g68
(g89
g70
NtRp3801
(dp3802
g73
(dp3803
g93
g94
ssg82
g3797
sg75
(lp3804
S'id'
p3805
asbag68
(g89
g70
NtRp3806
(dp3807
g73
(dp3808
g100
g101
ssg82
g3797
sg75
(lp3809
S':'
asbag68
(g89
g70
NtRp3810
(dp3811
g73
(dp3812
sg82
g3797
sg75
(lp3813
g68
(g69
g70
NtRp3814
(dp3815
g73
(dp3816
g81
I3
ssg82
g3810
sg75
(lp3817
S'4'
asbasbasbag68
(g84
g70
NtRp3818
(dp3819
g73
(dp3820
sg82
g3749
sg75
(lp3821
g68
(g89
g70
NtRp3822
(dp3823
g73
(dp3824
g93
g94
ssg82
g3818
sg75
(lp3825
S'last_name'
p3826
asbag68
(g89
g70
NtRp3827
(dp3828
g73
(dp3829
g100
g101
ssg82
g3818
sg75
(lp3830
S':'
asbag68
(g89
g70
NtRp3831
(dp3832
g73
(dp3833
sg82
g3818
sg75
(lp3834
g68
(g69
g70
NtRp3835
(dp3836
g73
(dp3837
g81
I3
ssg82
g3831
sg75
(lp3838
S'root'
p3839
asbasbasbag68
(g84
g70
NtRp3840
(dp3841
g73
(dp3842
sg82
g3749
sg75
(lp3843
g68
(g89
g70
NtRp3844
(dp3845
g73
(dp3846
g93
g94
ssg82
g3840
sg75
(lp3847
S'registration_id'
p3848
asbag68
(g89
g70
NtRp3849
(dp3850
g73
(dp3851
g100
g101
ssg82
g3840
sg75
(lp3852
S':'
asbag68
(g89
g70
NtRp3853
(dp3854
g73
(dp3855
sg82
g3840
sg75
(lp3856
g68
(g69
g70
NtRp3857
(dp3858
g73
(dp3859
g81
I3
ssg82
g3853
sg75
(lp3860
S''
asbasbasbag68
(g84
g70
NtRp3861
(dp3862
g73
(dp3863
sg82
g3749
sg75
(lp3864
g68
(g89
g70
NtRp3865
(dp3866
g73
(dp3867
g93
g94
ssg82
g3861
sg75
(lp3868
S'registration_key'
p3869
asbag68
(g89
g70
NtRp3870
(dp3871
g73
(dp3872
g100
g101
ssg82
g3861
sg75
(lp3873
S':'
asbag68
(g89
g70
NtRp3874
(dp3875
g73
(dp3876
sg82
g3861
sg75
(lp3877
g68
(g69
g70
NtRp3878
(dp3879
g73
(dp3880
g81
I3
ssg82
g3874
sg75
(lp3881
S''
asbasbasbag68
(g84
g70
NtRp3882
(dp3883
g73
(dp3884
sg82
g3749
sg75
(lp3885
g68
(g89
g70
NtRp3886
(dp3887
g73
(dp3888
g93
g94
ssg82
g3882
sg75
(lp3889
S'reset_password_key'
p3890
asbag68
(g89
g70
NtRp3891
(dp3892
g73
(dp3893
g100
g101
ssg82
g3882
sg75
(lp3894
S':'
asbag68
(g89
g70
NtRp3895
(dp3896
g73
(dp3897
sg82
g3882
sg75
(lp3898
g68
(g69
g70
NtRp3899
(dp3900
g73
(dp3901
g81
I3
ssg82
g3895
sg75
(lp3902
S''
asbasbasbasbasbasbasbag68
(g84
g70
NtRp3903
(dp3904
g73
(dp3905
sg82
g3637
sg75
(lp3906
g68
(g89
g70
NtRp3907
(dp3908
g73
(dp3909
g93
g94
ssg82
g3903
sg75
(lp3910
S'user_groups'
p3911
asbag68
(g89
g70
NtRp3912
(dp3913
g73
(dp3914
g100
g101
ssg82
g3903
sg75
(lp3915
S':'
asbag68
(g89
g70
NtRp3916
(dp3917
g73
(dp3918
sg82
g3903
sg75
(lp3919
g68
(g69
g70
NtRp3920
(dp3921
g73
(dp3922
g81
I4
ssg82
g3916
sg75
(lp3923
g68
(g77
g70
NtRp3924
(dp3925
g73
(dp3926
g81
I3
ssg82
Nsg75
(lp3927
sbasbasbasbasbasbasbasbag68
(g84
g70
NtRp3928
(dp3929
g73
(dp3930
sg82
g3612
sg75
(lp3931
g68
(g89
g70
NtRp3932
(dp3933
g73
(dp3934
g93
g94
ssg82
g3928
sg75
(lp3935
S'f'
asbag68
(g89
g70
NtRp3936
(dp3937
g73
(dp3938
g100
g101
ssg82
g3928
sg75
(lp3939
S':'
asbag68
(g89
g70
NtRp3940
(dp3941
g73
(dp3942
sg82
g3928
sg75
(lp3943
g68
(g69
g70
NtRp3944
(dp3945
g73
(dp3946
g81
I5
ssg82
g3940
sg75
(lp3947
S'0'
asbasbasbag68
(g84
g70
NtRp3948
(dp3949
g73
(dp3950
sg82
g3612
sg75
(lp3951
g68
(g89
g70
NtRp3952
(dp3953
g73
(dp3954
g93
g94
ssg82
g3948
sg75
(lp3955
S'flash'
p3956
asbag68
(g89
g70
NtRp3957
(dp3958
g73
(dp3959
g100
g101
ssg82
g3948
sg75
(lp3960
S':'
asbag68
(g89
g70
NtRp3961
(dp3962
g73
(dp3963
sg82
g3948
sg75
(lp3964
g68
(g69
g70
NtRp3965
(dp3966
g73
(dp3967
g81
I5
ssg82
g3961
sg75
(lp3968
S'None'
p3969
asbasbasbag68
(g84
g70
NtRp3970
(dp3971
g73
(dp3972
sg82
g3612
sg75
(lp3973
g68
(g89
g70
NtRp3974
(dp3975
g73
(dp3976
g93
g94
ssg82
g3970
sg75
(lp3977
S'ide'
p3978
asbag68
(g89
g70
NtRp3979
(dp3980
g73
(dp3981
g100
g101
ssg82
g3970
sg75
(lp3982
S':'
asbag68
(g89
g70
NtRp3983
(dp3984
g73
(dp3985
sg82
g3970
sg75
(lp3986
g68
(g69
g70
NtRp3987
(dp3988
g73
(dp3989
g81
I5
ssg82
g3983
sg75
(lp3990
S'10'
p3991
asbasbasbag68
(g84
g70
NtRp3992
(dp3993
g73
(dp3994
sg82
g3612
sg75
(lp3995
g68
(g89
g70
NtRp3996
(dp3997
g73
(dp3998
g93
g94
ssg82
g3992
sg75
(lp3999
S'level'
p4000
asbag68
(g89
g70
NtRp4001
(dp4002
g73
(dp4003
g100
g101
ssg82
g3992
sg75
(lp4004
S':'
asbag68
(g89
g70
NtRp4005
(dp4006
g73
(dp4007
sg82
g3992
sg75
(lp4008
g68
(g69
g70
NtRp4009
(dp4010
g73
(dp4011
g81
I5
ssg82
g4005
sg75
(lp4012
S'1'
asbasbasbag68
(g84
g70
NtRp4013
(dp4014
g73
(dp4015
sg82
g3612
sg75
(lp4016
g68
(g89
g70
NtRp4017
(dp4018
g73
(dp4019
g93
g94
ssg82
g4013
sg75
(lp4020
S'psp'
p4021
asbag68
(g89
g70
NtRp4022
(dp4023
g73
(dp4024
g100
g101
ssg82
g4013
sg75
(lp4025
S':'
asbag68
(g89
g70
NtRp4026
(dp4027
g73
(dp4028
sg82
g4013
sg75
(lp4029
g68
(g69
g70
NtRp4030
(dp4031
g73
(dp4032
g81
I5
ssg82
g4026
sg75
(lp4033
S'None'
p4034
asbasbasbag68
(g84
g70
NtRp4035
(dp4036
g73
(dp4037
sg82
g3612
sg75
(lp4038
g68
(g89
g70
NtRp4039
(dp4040
g73
(dp4041
g93
g94
ssg82
g4035
sg75
(lp4042
S'sid'
p4043
asbag68
(g89
g70
NtRp4044
(dp4045
g73
(dp4046
g100
g101
ssg82
g4035
sg75
(lp4047
S':'
asbag68
(g89
g70
NtRp4048
(dp4049
g73
(dp4050
sg82
g4035
sg75
(lp4051
g68
(g69
g70
NtRp4052
(dp4053
g73
(dp4054
g81
I5
ssg82
g4048
sg75
(lp4055
S'11'
p4056
asbasbasbag68
(g84
g70
NtRp4057
(dp4058
g73
(dp4059
sg82
g3612
sg75
(lp4060
g68
(g89
g70
NtRp4061
(dp4062
g73
(dp4063
g93
g94
ssg82
g4057
sg75
(lp4064
S'word'
p4065
asbag68
(g89
g70
NtRp4066
(dp4067
g73
(dp4068
g100
g101
ssg82
g4057
sg75
(lp4069
S':'
asbag68
(g89
g70
NtRp4070
(dp4071
g73
(dp4072
sg82
g4057
sg75
(lp4073
g68
(g69
g70
NtRp4074
(dp4075
g73
(dp4076
g81
I5
ssg82
g4070
sg75
(lp4077
S'product'
p4078
asbasbasbasbasbsS'etype'
p4079
S"<type 'exceptions.SyntaxError'>"
p4080
sS'date'
p4081
S'Mon Nov 18 00:36:02 2013'
p4082
sS'response'
p4083
g68
(g69
g70
NtRp4084
(dp4085
g73
(dp4086
sg75
(lp4087
g68
(g77
g70
NtRp4088
(dp4089
g73
(dp4090
g81
I5
ssg82
Nsg75
(lp4091
g68
(g84
g70
NtRp4092
(dp4093
g73
(dp4094
sg82
g4088
sg75
(lp4095
g68
(g89
g70
NtRp4096
(dp4097
g73
(dp4098
g93
g94
ssg82
g4092
sg75
(lp4099
g166
asbag68
(g89
g70
NtRp4100
(dp4101
g73
(dp4102
g100
g101
ssg82
g4092
sg75
(lp4103
S':'
asbag68
(g89
g70
NtRp4104
(dp4105
g73
(dp4106
sg82
g4092
sg75
(lp4107
g68
(g69
g70
NtRp4108
(dp4109
g73
(dp4110
g81
I5
ssg82
g4104
sg75
(lp4111
S'<cStringIO.StringO object at 0xad039100>'
p4112
asbasbasbag68
(g84
g70
NtRp4113
(dp4114
g73
(dp4115
sg82
g4088
sg75
(lp4116
g68
(g89
g70
NtRp4117
(dp4118
g73
(dp4119
g93
g94
ssg82
g4113
sg75
(lp4120
g254
asbag68
(g89
g70
NtRp4121
(dp4122
g73
(dp4123
g100
g101
ssg82
g4113
sg75
(lp4124
S':'
asbag68
(g89
g70
NtRp4125
(dp4126
g73
(dp4127
sg82
g4113
sg75
(lp4128
g68
(g69
g70
NtRp4129
(dp4130
g73
(dp4131
g81
I5
ssg82
g4125
sg75
(lp4132
g68
(g77
g70
NtRp4133
(dp4134
g73
(dp4135
g81
I4
ssg82
Nsg75
(lp4136
g68
(g84
g70
NtRp4137
(dp4138
g73
(dp4139
sg82
g4133
sg75
(lp4140
g68
(g89
g70
NtRp4141
(dp4142
g73
(dp4143
g93
g94
ssg82
g4137
sg75
(lp4144
S'session_id_wsd'
p4145
asbag68
(g89
g70
NtRp4146
(dp4147
g73
(dp4148
g100
g101
ssg82
g4137
sg75
(lp4149
S':'
asbag68
(g89
g70
NtRp4150
(dp4151
g73
(dp4152
sg82
g4137
sg75
(lp4153
g68
(g69
g70
NtRp4154
(dp4155
g73
(dp4156
g81
I4
ssg82
g4150
sg75
(lp4157
g672
ag68
(g77
g70
NtRp4158
(dp4159
g73
(dp4160
g81
I3
ssg82
Nsg75
(lp4161
g68
(g84
g70
NtRp4162
(dp4163
g73
(dp4164
sg82
g4158
sg75
(lp4165
g68
(g89
g70
NtRp4166
(dp4167
g73
(dp4168
g93
g94
ssg82
g4162
sg75
(lp4169
g305
asbag68
(g89
g70
NtRp4170
(dp4171
g73
(dp4172
g100
g101
ssg82
g4162
sg75
(lp4173
S':'
asbag68
(g89
g70
NtRp4174
(dp4175
g73
(dp4176
sg82
g4162
sg75
(lp4177
g68
(g69
g70
NtRp4178
(dp4179
g73
(dp4180
g81
I3
ssg82
g4174
sg75
(lp4181
S''
asbasbasbag68
(g84
g70
NtRp4182
(dp4183
g73
(dp4184
sg82
g4158
sg75
(lp4185
g68
(g89
g70
NtRp4186
(dp4187
g73
(dp4188
g93
g94
ssg82
g4182
sg75
(lp4189
g326
asbag68
(g89
g70
NtRp4190
(dp4191
g73
(dp4192
g100
g101
ssg82
g4182
sg75
(lp4193
S':'
asbag68
(g89
g70
NtRp4194
(dp4195
g73
(dp4196
sg82
g4182
sg75
(lp4197
g68
(g69
g70
NtRp4198
(dp4199
g73
(dp4200
g81
I3
ssg82
g4194
sg75
(lp4201
S''
asbasbasbag68
(g84
g70
NtRp4202
(dp4203
g73
(dp4204
sg82
g4158
sg75
(lp4205
g68
(g89
g70
NtRp4206
(dp4207
g73
(dp4208
g93
g94
ssg82
g4202
sg75
(lp4209
g347
asbag68
(g89
g70
NtRp4210
(dp4211
g73
(dp4212
g100
g101
ssg82
g4202
sg75
(lp4213
S':'
asbag68
(g89
g70
NtRp4214
(dp4215
g73
(dp4216
sg82
g4202
sg75
(lp4217
g68
(g69
g70
NtRp4218
(dp4219
g73
(dp4220
g81
I3
ssg82
g4214
sg75
(lp4221
S''
asbasbasbag68
(g84
g70
NtRp4222
(dp4223
g73
(dp4224
sg82
g4158
sg75
(lp4225
g68
(g89
g70
NtRp4226
(dp4227
g73
(dp4228
g93
g94
ssg82
g4222
sg75
(lp4229
g368
asbag68
(g89
g70
NtRp4230
(dp4231
g73
(dp4232
g100
g101
ssg82
g4222
sg75
(lp4233
S':'
asbag68
(g89
g70
NtRp4234
(dp4235
g73
(dp4236
sg82
g4222
sg75
(lp4237
g68
(g69
g70
NtRp4238
(dp4239
g73
(dp4240
g81
I3
ssg82
g4234
sg75
(lp4241
S''
asbasbasbag68
(g84
g70
NtRp4242
(dp4243
g73
(dp4244
sg82
g4158
sg75
(lp4245
g68
(g89
g70
NtRp4246
(dp4247
g73
(dp4248
g93
g94
ssg82
g4242
sg75
(lp4249
g389
asbag68
(g89
g70
NtRp4250
(dp4251
g73
(dp4252
g100
g101
ssg82
g4242
sg75
(lp4253
S':'
asbag68
(g89
g70
NtRp4254
(dp4255
g73
(dp4256
sg82
g4242
sg75
(lp4257
g68
(g69
g70
NtRp4258
(dp4259
g73
(dp4260
g81
I3
ssg82
g4254
sg75
(lp4261
S''
asbasbasbag68
(g84
g70
NtRp4262
(dp4263
g73
(dp4264
sg82
g4158
sg75
(lp4265
g68
(g89
g70
NtRp4266
(dp4267
g73
(dp4268
g93
g94
ssg82
g4262
sg75
(lp4269
g410
asbag68
(g89
g70
NtRp4270
(dp4271
g73
(dp4272
g100
g101
ssg82
g4262
sg75
(lp4273
S':'
asbag68
(g89
g70
NtRp4274
(dp4275
g73
(dp4276
sg82
g4262
sg75
(lp4277
g68
(g69
g70
NtRp4278
(dp4279
g73
(dp4280
g81
I3
ssg82
g4274
sg75
(lp4281
S'/'
asbasbasbag68
(g84
g70
NtRp4282
(dp4283
g73
(dp4284
sg82
g4158
sg75
(lp4285
g68
(g89
g70
NtRp4286
(dp4287
g73
(dp4288
g93
g94
ssg82
g4282
sg75
(lp4289
g431
asbag68
(g89
g70
NtRp4290
(dp4291
g73
(dp4292
g100
g101
ssg82
g4282
sg75
(lp4293
S':'
asbag68
(g89
g70
NtRp4294
(dp4295
g73
(dp4296
sg82
g4282
sg75
(lp4297
g68
(g69
g70
NtRp4298
(dp4299
g73
(dp4300
g81
I3
ssg82
g4294
sg75
(lp4301
S''
asbasbasbag68
(g84
g70
NtRp4302
(dp4303
g73
(dp4304
sg82
g4158
sg75
(lp4305
g68
(g89
g70
NtRp4306
(dp4307
g73
(dp4308
g93
g94
ssg82
g4302
sg75
(lp4309
g452
asbag68
(g89
g70
NtRp4310
(dp4311
g73
(dp4312
g100
g101
ssg82
g4302
sg75
(lp4313
S':'
asbag68
(g89
g70
NtRp4314
(dp4315
g73
(dp4316
sg82
g4302
sg75
(lp4317
g68
(g69
g70
NtRp4318
(dp4319
g73
(dp4320
g81
I3
ssg82
g4314
sg75
(lp4321
S''
asbasbasbasbasbasbasbasbasbasbasbag68
(g84
g70
NtRp4322
(dp4323
g73
(dp4324
sg82
g4088
sg75
(lp4325
g68
(g89
g70
NtRp4326
(dp4327
g73
(dp4328
g93
g94
ssg82
g4322
sg75
(lp4329
S'delimiters'
p4330
asbag68
(g89
g70
NtRp4331
(dp4332
g73
(dp4333
g100
g101
ssg82
g4322
sg75
(lp4334
S':'
asbag68
(g89
g70
NtRp4335
(dp4336
g73
(dp4337
sg82
g4322
sg75
(lp4338
g68
(g69
g70
NtRp4339
(dp4340
g73
(dp4341
g81
I5
ssg82
g4335
sg75
(lp4342
g68
(g77
g70
NtRp4343
(dp4344
g73
(dp4345
g81
I4
ssg82
Nsg75
(lp4346
g68
(g84
g70
NtRp4347
(dp4348
g73
(dp4349
sg82
g4343
sg75
(lp4350
g68
(g89
g70
NtRp4351
(dp4352
g73
(dp4353
sg82
g4347
sg75
(lp4354
g68
(g69
g70
NtRp4355
(dp4356
g73
(dp4357
g81
I4
ssg82
g4351
sg75
(lp4358
S'{{'
p4359
asbasbasbag68
(g84
g70
NtRp4360
(dp4361
g73
(dp4362
sg82
g4343
sg75
(lp4363
g68
(g89
g70
NtRp4364
(dp4365
g73
(dp4366
sg82
g4360
sg75
(lp4367
g68
(g69
g70
NtRp4368
(dp4369
g73
(dp4370
g81
I4
ssg82
g4364
sg75
(lp4371
S'}}'
p4372
asbasbasbasbasbasbasbag68
(g84
g70
NtRp4373
(dp4374
g73
(dp4375
sg82
g4088
sg75
(lp4376
g68
(g89
g70
NtRp4377
(dp4378
g73
(dp4379
g93
g94
ssg82
g4373
sg75
(lp4380
S'files'
p4381
asbag68
(g89
g70
NtRp4382
(dp4383
g73
(dp4384
g100
g101
ssg82
g4373
sg75
(lp4385
S':'
asbag68
(g89
g70
NtRp4386
(dp4387
g73
(dp4388
sg82
g4373
sg75
(lp4389
g68
(g69
g70
NtRp4390
(dp4391
g73
(dp4392
g81
I5
ssg82
g4386
sg75
(lp4393
g68
(g77
g70
NtRp4394
(dp4395
g73
(dp4396
g81
I4
ssg82
Nsg75
(lp4397
sbasbasbasbag68
(g84
g70
NtRp4398
(dp4399
g73
(dp4400
sg82
g4088
sg75
(lp4401
g68
(g89
g70
NtRp4402
(dp4403
g73
(dp4404
g93
g94
ssg82
g4398
sg75
(lp4405
S'flash'
p4406
asbag68
(g89
g70
NtRp4407
(dp4408
g73
(dp4409
g100
g101
ssg82
g4398
sg75
(lp4410
S':'
asbag68
(g89
g70
NtRp4411
(dp4412
g73
(dp4413
sg82
g4398
sg75
(lp4414
g68
(g69
g70
NtRp4415
(dp4416
g73
(dp4417
g81
I5
ssg82
g4411
sg75
(lp4418
S''
asbasbasbag68
(g84
g70
NtRp4419
(dp4420
g73
(dp4421
sg82
g4088
sg75
(lp4422
g68
(g89
g70
NtRp4423
(dp4424
g73
(dp4425
g93
g94
ssg82
g4419
sg75
(lp4426
S'generic_patterns'
p4427
asbag68
(g89
g70
NtRp4428
(dp4429
g73
(dp4430
g100
g101
ssg82
g4419
sg75
(lp4431
S':'
asbag68
(g89
g70
NtRp4432
(dp4433
g73
(dp4434
sg82
g4419
sg75
(lp4435
g68
(g69
g70
NtRp4436
(dp4437
g73
(dp4438
g81
I5
ssg82
g4432
sg75
(lp4439
g68
(g77
g70
NtRp4440
(dp4441
g73
(dp4442
g81
I4
ssg82
Nsg75
(lp4443
g68
(g84
g70
NtRp4444
(dp4445
g73
(dp4446
sg82
g4440
sg75
(lp4447
g68
(g89
g70
NtRp4448
(dp4449
g73
(dp4450
sg82
g4444
sg75
(lp4451
g68
(g69
g70
NtRp4452
(dp4453
g73
(dp4454
g81
I4
ssg82
g4448
sg75
(lp4455
S'*'
asbasbasbasbasbasbasbag68
(g84
g70
NtRp4456
(dp4457
g73
(dp4458
sg82
g4088
sg75
(lp4459
g68
(g89
g70
NtRp4460
(dp4461
g73
(dp4462
g93
g94
ssg82
g4456
sg75
(lp4463
S'google_analytics_id'
p4464
asbag68
(g89
g70
NtRp4465
(dp4466
g73
(dp4467
g100
g101
ssg82
g4456
sg75
(lp4468
S':'
asbag68
(g89
g70
NtRp4469
(dp4470
g73
(dp4471
sg82
g4456
sg75
(lp4472
g68
(g69
g70
NtRp4473
(dp4474
g73
(dp4475
g81
I5
ssg82
g4469
sg75
(lp4476
S'None'
p4477
asbasbasbag68
(g84
g70
NtRp4478
(dp4479
g73
(dp4480
sg82
g4088
sg75
(lp4481
g68
(g89
g70
NtRp4482
(dp4483
g73
(dp4484
g93
g94
ssg82
g4478
sg75
(lp4485
S'headers'
p4486
asbag68
(g89
g70
NtRp4487
(dp4488
g73
(dp4489
g100
g101
ssg82
g4478
sg75
(lp4490
S':'
asbag68
(g89
g70
NtRp4491
(dp4492
g73
(dp4493
sg82
g4478
sg75
(lp4494
g68
(g69
g70
NtRp4495
(dp4496
g73
(dp4497
g81
I5
ssg82
g4491
sg75
(lp4498
g68
(g77
g70
NtRp4499
(dp4500
g73
(dp4501
g81
I4
ssg82
Nsg75
(lp4502
g68
(g84
g70
NtRp4503
(dp4504
g73
(dp4505
sg82
g4499
sg75
(lp4506
g68
(g89
g70
NtRp4507
(dp4508
g73
(dp4509
g93
g94
ssg82
g4503
sg75
(lp4510
S'X-Powered-By'
p4511
asbag68
(g89
g70
NtRp4512
(dp4513
g73
(dp4514
g100
g101
ssg82
g4503
sg75
(lp4515
S':'
asbag68
(g89
g70
NtRp4516
(dp4517
g73
(dp4518
sg82
g4503
sg75
(lp4519
g68
(g69
g70
NtRp4520
(dp4521
g73
(dp4522
g81
I4
ssg82
g4516
sg75
(lp4523
S'web2py'
p4524
asbasbasbasbasbasbasbag68
(g84
g70
NtRp4525
(dp4526
g73
(dp4527
sg82
g4088
sg75
(lp4528
g68
(g89
g70
NtRp4529
(dp4530
g73
(dp4531
g93
g94
ssg82
g4525
sg75
(lp4532
S'menu'
p4533
asbag68
(g89
g70
NtRp4534
(dp4535
g73
(dp4536
g100
g101
ssg82
g4525
sg75
(lp4537
S':'
asbag68
(g89
g70
NtRp4538
(dp4539
g73
(dp4540
sg82
g4525
sg75
(lp4541
g68
(g69
g70
NtRp4542
(dp4543
g73
(dp4544
g81
I5
ssg82
g4538
sg75
(lp4545
g68
(g77
g70
NtRp4546
(dp4547
g73
(dp4548
g81
I4
ssg82
Nsg75
(lp4549
g68
(g84
g70
NtRp4550
(dp4551
g73
(dp4552
sg82
g4546
sg75
(lp4553
g68
(g89
g70
NtRp4554
(dp4555
g73
(dp4556
sg82
g4550
sg75
(lp4557
g68
(g69
g70
NtRp4558
(dp4559
g73
(dp4560
g81
I4
ssg82
g4554
sg75
(lp4561
g68
(g77
g70
NtRp4562
(dp4563
g73
(dp4564
g81
I3
ssg82
Nsg75
(lp4565
g68
(g84
g70
NtRp4566
(dp4567
g73
(dp4568
sg82
g4562
sg75
(lp4569
g68
(g89
g70
NtRp4570
(dp4571
g73
(dp4572
sg82
g4566
sg75
(lp4573
g68
(g69
g70
NtRp4574
(dp4575
g73
(dp4576
g81
I3
ssg82
g4570
sg75
(lp4577
cgluon.languages
lazyT_unpickle
p4578
(S't\x04\x00\x00\x00Home'
tRp4579
asbasbasbag68
(g84
g70
NtRp4580
(dp4581
g73
(dp4582
sg82
g4562
sg75
(lp4583
g68
(g89
g70
NtRp4584
(dp4585
g73
(dp4586
sg82
g4580
sg75
(lp4587
g68
(g69
g70
NtRp4588
(dp4589
g73
(dp4590
g81
I3
ssg82
g4584
sg75
(lp4591
g111
asbasbasbag68
(g84
g70
NtRp4592
(dp4593
g73
(dp4594
sg82
g4562
sg75
(lp4595
g68
(g89
g70
NtRp4596
(dp4597
g73
(dp4598
sg82
g4592
sg75
(lp4599
g68
(g69
g70
NtRp4600
(dp4601
g73
(dp4602
g81
I3
ssg82
g4596
sg75
(lp4603
S'/WSD/default/index'
p4604
asbasbasbag68
(g84
g70
NtRp4605
(dp4606
g73
(dp4607
sg82
g4562
sg75
(lp4608
g68
(g89
g70
NtRp4609
(dp4610
g73
(dp4611
sg82
g4605
sg75
(lp4612
g68
(g69
g70
NtRp4613
(dp4614
g73
(dp4615
g81
I3
ssg82
g4609
sg75
(lp4616
g68
(g77
g70
NtRp4617
(dp4618
g73
(dp4619
g81
I2
ssg82
Nsg75
(lp4620
sbasbasbasbasbasbasbasbag68
(g84
g70
NtRp4621
(dp4622
g73
(dp4623
sg82
g4546
sg75
(lp4624
g68
(g89
g70
NtRp4625
(dp4626
g73
(dp4627
sg82
g4621
sg75
(lp4628
g68
(g69
g70
NtRp4629
(dp4630
g73
(dp4631
g81
I4
ssg82
g4625
sg75
(lp4632
g68
(g77
g70
NtRp4633
(dp4634
g73
(dp4635
g81
I3
ssg82
Nsg75
(lp4636
g68
(g84
g70
NtRp4637
(dp4638
g73
(dp4639
sg82
g4633
sg75
(lp4640
g68
(g89
g70
NtRp4641
(dp4642
g73
(dp4643
sg82
g4637
sg75
(lp4644
g68
(g69
g70
NtRp4645
(dp4646
g73
(dp4647
g81
I3
ssg82
g4641
sg75
(lp4648
g68
(cgluon.html
SPAN
p4649
g70
NtRp4650
(dp4651
g73
(dp4652
g93
S'color:yellow'
p4653
ssg82
Nsg75
(lp4654
g4524
asbasbasbasbag68
(g84
g70
NtRp4655
(dp4656
g73
(dp4657
sg82
g4633
sg75
(lp4658
g68
(g89
g70
NtRp4659
(dp4660
g73
(dp4661
sg82
g4655
sg75
(lp4662
g68
(g69
g70
NtRp4663
(dp4664
g73
(dp4665
g81
I3
ssg82
g4659
sg75
(lp4666
g111
asbasbasbag68
(g84
g70
NtRp4667
(dp4668
g73
(dp4669
sg82
g4633
sg75
(lp4670
g68
(g89
g70
NtRp4671
(dp4672
g73
(dp4673
sg82
g4667
sg75
(lp4674
g68
(g69
g70
NtRp4675
(dp4676
g73
(dp4677
g81
I3
ssg82
g4671
sg75
(lp4678
S'None'
p4679
asbasbasbag68
(g84
g70
NtRp4680
(dp4681
g73
(dp4682
sg82
g4633
sg75
(lp4683
g68
(g89
g70
NtRp4684
(dp4685
g73
(dp4686
sg82
g4680
sg75
(lp4687
g68
(g69
g70
NtRp4688
(dp4689
g73
(dp4690
g81
I3
ssg82
g4684
sg75
(lp4691
g68
(g77
g70
NtRp4692
(dp4693
g73
(dp4694
g81
I2
ssg82
Nsg75
(lp4695
g68
(g84
g70
NtRp4696
(dp4697
g73
(dp4698
sg82
g4692
sg75
(lp4699
g68
(g89
g70
NtRp4700
(dp4701
g73
(dp4702
sg82
g4696
sg75
(lp4703
g68
(g69
g70
NtRp4704
(dp4705
g73
(dp4706
g81
I2
ssg82
g4700
sg75
(lp4707
g68
(g77
g70
NtRp4708
(dp4709
g73
(dp4710
g81
I1
ssg82
Nsg75
(lp4711
g68
(g84
g70
NtRp4712
(dp4713
g73
(dp4714
sg82
g4708
sg75
(lp4715
g68
(g89
g70
NtRp4716
(dp4717
g73
(dp4718
sg82
g4712
sg75
(lp4719
g68
(g69
g70
NtRp4720
(dp4721
g73
(dp4722
g81
I1
ssg82
g4716
sg75
(lp4723
g4578
(S's\x08\x00\x00\x00My Sites'
tRp4724
asbasbasbag68
(g84
g70
NtRp4725
(dp4726
g73
(dp4727
sg82
g4708
sg75
(lp4728
g68
(g89
g70
NtRp4729
(dp4730
g73
(dp4731
sg82
g4725
sg75
(lp4732
g68
(g69
g70
NtRp4733
(dp4734
g73
(dp4735
g81
I1
ssg82
g4729
sg75
(lp4736
I00
asbasbasbag68
(g84
g70
NtRp4737
(dp4738
g73
(dp4739
sg82
g4708
sg75
(lp4740
g68
(g89
g70
NtRp4741
(dp4742
g73
(dp4743
sg82
g4737
sg75
(lp4744
g68
(g69
g70
NtRp4745
(dp4746
g73
(dp4747
g81
I1
ssg82
g4741
sg75
(lp4748
S'/admin/default/site'
p4749
asbasbasbasbasbasbasbag68
(g84
g70
NtRp4750
(dp4751
g73
(dp4752
sg82
g4692
sg75
(lp4753
g68
(g89
g70
NtRp4754
(dp4755
g73
(dp4756
sg82
g4750
sg75
(lp4757
g68
(g69
g70
NtRp4758
(dp4759
g73
(dp4760
g81
I2
ssg82
g4754
sg75
(lp4761
g68
(g77
g70
NtRp4762
(dp4763
g73
(dp4764
g81
I1
ssg82
Nsg75
(lp4765
g68
(g84
g70
NtRp4766
(dp4767
g73
(dp4768
sg82
g4762
sg75
(lp4769
g68
(g89
g70
NtRp4770
(dp4771
g73
(dp4772
sg82
g4766
sg75
(lp4773
g68
(g69
g70
NtRp4774
(dp4775
g73
(dp4776
g81
I1
ssg82
g4770
sg75
(lp4777
g4578
(S's\x08\x00\x00\x00This App'
tRp4778
asbasbasbag68
(g84
g70
NtRp4779
(dp4780
g73
(dp4781
sg82
g4762
sg75
(lp4782
g68
(g89
g70
NtRp4783
(dp4784
g73
(dp4785
sg82
g4779
sg75
(lp4786
g68
(g69
g70
NtRp4787
(dp4788
g73
(dp4789
g81
I1
ssg82
g4783
sg75
(lp4790
I00
asbasbasbag68
(g84
g70
NtRp4791
(dp4792
g73
(dp4793
sg82
g4762
sg75
(lp4794
g68
(g89
g70
NtRp4795
(dp4796
g73
(dp4797
sg82
g4791
sg75
(lp4798
g68
(g69
g70
NtRp4799
(dp4800
g73
(dp4801
g81
I1
ssg82
g4795
sg75
(lp4802
S'/admin/default/design/WSD'
p4803
asbasbasbag68
(g84
g70
NtRp4804
(dp4805
g73
(dp4806
sg82
g4762
sg75
(lp4807
g68
(g89
g70
NtRp4808
(dp4809
g73
(dp4810
sg82
g4804
sg75
(lp4811
g68
(g69
g70
NtRp4812
(dp4813
g73
(dp4814
g81
I1
ssg82
g4808
sg75
(lp4815
(lp4816
(g4578
(S't\n\x00\x00\x00Controller'
tRp4817
I00
S'/admin/default/edit/WSD/controllers/default.py'
tp4818
a(g4578
(S't\x04\x00\x00\x00View'
tRp4819
I00
S'/admin/default/edit/WSD/views/default/reasonc.html'
tp4820
a(g4578
(S't\x06\x00\x00\x00Layout'
tRp4821
I00
S'/admin/default/edit/WSD/views/layout.html'
tp4822
a(g4578
(S't\n\x00\x00\x00Stylesheet'
tRp4823
I00
S'/admin/default/edit/WSD/static/css/web2py.css'
tp4824
a(g4578
(S's\x08\x00\x00\x00DB Model'
tRp4825
I00
S'/admin/default/edit/WSD/models/db.py'
tp4826
a(g4578
(S's\n\x00\x00\x00Menu Model'
tRp4827
I00
S'/admin/default/edit/WSD/models/menu.py'
tp4828
a(g4578
(S't\x08\x00\x00\x00Database'
tRp4829
I00
S'/WSD/appadmin/index'
tp4830
a(g4578
(S't\x06\x00\x00\x00Errors'
tRp4831
I00
S'/admin/default/errors/WSD'
tp4832
a(g4578
(S't\x05\x00\x00\x00About'
tRp4833
I00
S'/admin/default/about/WSD'
tp4834
aasbasbasbasbasbasbasbag68
(g84
g70
NtRp4835
(dp4836
g73
(dp4837
sg82
g4692
sg75
(lp4838
g68
(g89
g70
NtRp4839
(dp4840
g73
(dp4841
sg82
g4835
sg75
(lp4842
g68
(g69
g70
NtRp4843
(dp4844
g73
(dp4845
g81
I2
ssg82
g4839
sg75
(lp4846
g68
(g77
g70
NtRp4847
(dp4848
g73
(dp4849
g81
I1
ssg82
Nsg75
(lp4850
g68
(g84
g70
NtRp4851
(dp4852
g73
(dp4853
sg82
g4847
sg75
(lp4854
g68
(g89
g70
NtRp4855
(dp4856
g73
(dp4857
sg82
g4851
sg75
(lp4858
g68
(g69
g70
NtRp4859
(dp4860
g73
(dp4861
g81
I1
ssg82
g4855
sg75
(lp4862
S'web2py.com'
p4863
asbasbasbag68
(g84
g70
NtRp4864
(dp4865
g73
(dp4866
sg82
g4847
sg75
(lp4867
g68
(g89
g70
NtRp4868
(dp4869
g73
(dp4870
sg82
g4864
sg75
(lp4871
g68
(g69
g70
NtRp4872
(dp4873
g73
(dp4874
g81
I1
ssg82
g4868
sg75
(lp4875
I00
asbasbasbag68
(g84
g70
NtRp4876
(dp4877
g73
(dp4878
sg82
g4847
sg75
(lp4879
g68
(g89
g70
NtRp4880
(dp4881
g73
(dp4882
sg82
g4876
sg75
(lp4883
g68
(g69
g70
NtRp4884
(dp4885
g73
(dp4886
g81
I1
ssg82
g4880
sg75
(lp4887
S'http://www.web2py.com'
p4888
asbasbasbag68
(g84
g70
NtRp4889
(dp4890
g73
(dp4891
sg82
g4847
sg75
(lp4892
g68
(g89
g70
NtRp4893
(dp4894
g73
(dp4895
sg82
g4889
sg75
(lp4896
g68
(g69
g70
NtRp4897
(dp4898
g73
(dp4899
g81
I1
ssg82
g4893
sg75
(lp4900
(lp4901
(g4578
(S't\x08\x00\x00\x00Download'
tRp4902
I00
S'http://www.web2py.com/examples/default/download'
p4903
tp4904
a(g4578
(S't\x07\x00\x00\x00Support'
tRp4905
I00
S'http://www.web2py.com/examples/default/support'
p4906
tp4907
a(g4578
(S't\x04\x00\x00\x00Demo'
tRp4908
I00
S'http://web2py.com/demo_admin'
p4909
tp4910
a(g4578
(S's\x0e\x00\x00\x00Quick Examples'
tRp4911
I00
S'http://web2py.com/examples/default/examples'
p4912
tp4913
a(g4578
(S't\x03\x00\x00\x00FAQ'
tRp4914
I00
S'http://web2py.com/AlterEgo'
p4915
tp4916
a(g4578
(S't\x06\x00\x00\x00Videos'
tRp4917
I00
S'http://www.web2py.com/examples/default/videos/'
p4918
tp4919
a(g4578
(S's\x11\x00\x00\x00Free Applications'
tRp4920
I00
S'http://web2py.com/appliances'
p4921
tp4922
a(g4578
(S't\x07\x00\x00\x00Plugins'
tRp4923
I00
S'http://web2py.com/plugins'
p4924
tp4925
a(g4578
(S't\x07\x00\x00\x00Layouts'
tRp4926
I00
S'http://web2py.com/layouts'
p4927
tp4928
a(g4578
(S't\x07\x00\x00\x00Recipes'
tRp4929
I00
S'http://web2pyslices.com/'
p4930
tp4931
a(g4578
(S't\x08\x00\x00\x00Semantic'
tRp4932
I00
S'http://web2py.com/semantic'
p4933
tp4934
aasbasbasbasbasbasbasbag68
(g84
g70
NtRp4935
(dp4936
g73
(dp4937
sg82
g4692
sg75
(lp4938
g68
(g89
g70
NtRp4939
(dp4940
g73
(dp4941
sg82
g4935
sg75
(lp4942
g68
(g69
g70
NtRp4943
(dp4944
g73
(dp4945
g81
I2
ssg82
g4939
sg75
(lp4946
g68
(g77
g70
NtRp4947
(dp4948
g73
(dp4949
g81
I1
ssg82
Nsg75
(lp4950
g68
(g84
g70
NtRp4951
(dp4952
g73
(dp4953
sg82
g4947
sg75
(lp4954
g68
(g89
g70
NtRp4955
(dp4956
g73
(dp4957
sg82
g4951
sg75
(lp4958
g68
(g69
g70
NtRp4959
(dp4960
g73
(dp4961
g81
I1
ssg82
g4955
sg75
(lp4962
g4578
(S't\r\x00\x00\x00Documentation'
tRp4963
asbasbasbag68
(g84
g70
NtRp4964
(dp4965
g73
(dp4966
sg82
g4947
sg75
(lp4967
g68
(g89
g70
NtRp4968
(dp4969
g73
(dp4970
sg82
g4964
sg75
(lp4971
g68
(g69
g70
NtRp4972
(dp4973
g73
(dp4974
g81
I1
ssg82
g4968
sg75
(lp4975
I00
asbasbasbag68
(g84
g70
NtRp4976
(dp4977
g73
(dp4978
sg82
g4947
sg75
(lp4979
g68
(g89
g70
NtRp4980
(dp4981
g73
(dp4982
sg82
g4976
sg75
(lp4983
g68
(g69
g70
NtRp4984
(dp4985
g73
(dp4986
g81
I1
ssg82
g4980
sg75
(lp4987
S'http://www.web2py.com/book'
p4988
asbasbasbag68
(g84
g70
NtRp4989
(dp4990
g73
(dp4991
sg82
g4947
sg75
(lp4992
g68
(g89
g70
NtRp4993
(dp4994
g73
(dp4995
sg82
g4989
sg75
(lp4996
g68
(g69
g70
NtRp4997
(dp4998
g73
(dp4999
g81
I1
ssg82
g4993
sg75
(lp5000
(lp5001
(g4578
(S't\x07\x00\x00\x00Preface'
tRp5002
I00
S'http://www.web2py.com/book/default/chapter/00'
p5003
tp5004
a(g4578
(S't\x0c\x00\x00\x00Introduction'
tRp5005
I00
S'http://www.web2py.com/book/default/chapter/01'
p5006
tp5007
a(g4578
(S't\x06\x00\x00\x00Python'
tRp5008
I00
S'http://www.web2py.com/book/default/chapter/02'
p5009
tp5010
a(g4578
(S't\x08\x00\x00\x00Overview'
tRp5011
I00
S'http://www.web2py.com/book/default/chapter/03'
p5012
tp5013
a(g4578
(S's\x08\x00\x00\x00The Core'
tRp5014
I00
S'http://www.web2py.com/book/default/chapter/04'
p5015
tp5016
a(g4578
(S's\t\x00\x00\x00The Views'
tRp5017
I00
S'http://www.web2py.com/book/default/chapter/05'
p5018
tp5019
a(g4578
(S't\x08\x00\x00\x00Database'
tRp5020
I00
S'http://www.web2py.com/book/default/chapter/06'
p5021
tp5022
a(g4578
(S's\x14\x00\x00\x00Forms and Validators'
tRp5023
I00
S'http://www.web2py.com/book/default/chapter/07'
p5024
tp5025
a(g4578
(S's\r\x00\x00\x00Email and SMS'
tRp5026
I00
S'http://www.web2py.com/book/default/chapter/08'
p5027
tp5028
a(g4578
(S's\x0e\x00\x00\x00Access Control'
tRp5029
I00
S'http://www.web2py.com/book/default/chapter/09'
p5030
tp5031
a(g4578
(S't\x08\x00\x00\x00Services'
tRp5032
I00
S'http://www.web2py.com/book/default/chapter/10'
p5033
tp5034
a(g4578
(S's\x0c\x00\x00\x00Ajax Recipes'
tRp5035
I00
S'http://www.web2py.com/book/default/chapter/11'
p5036
tp5037
a(g4578
(S's\x16\x00\x00\x00Components and Plugins'
tRp5038
I00
S'http://www.web2py.com/book/default/chapter/12'
p5039
tp5040
a(g4578
(S's\x12\x00\x00\x00Deployment Recipes'
tRp5041
I00
S'http://www.web2py.com/book/default/chapter/13'
p5042
tp5043
a(g4578
(S's\r\x00\x00\x00Other Recipes'
tRp5044
I00
S'http://www.web2py.com/book/default/chapter/14'
p5045
tp5046
a(g4578
(S's\r\x00\x00\x00Buy this book'
tRp5047
I00
S'http://stores.lulu.com/web2py'
p5048
tp5049
aasbasbasbasbasbasbasbag68
(g84
g70
NtRp5050
(dp5051
g73
(dp5052
sg82
g4692
sg75
(lp5053
g68
(g89
g70
NtRp5054
(dp5055
g73
(dp5056
sg82
g5050
sg75
(lp5057
g68
(g69
g70
NtRp5058
(dp5059
g73
(dp5060
g81
I2
ssg82
g5054
sg75
(lp5061
g68
(g77
g70
NtRp5062
(dp5063
g73
(dp5064
g81
I1
ssg82
Nsg75
(lp5065
g68
(g84
g70
NtRp5066
(dp5067
g73
(dp5068
sg82
g5062
sg75
(lp5069
g68
(g89
g70
NtRp5070
(dp5071
g73
(dp5072
sg82
g5066
sg75
(lp5073
g68
(g69
g70
NtRp5074
(dp5075
g73
(dp5076
g81
I1
ssg82
g5070
sg75
(lp5077
g4578
(S't\t\x00\x00\x00Community'
tRp5078
asbasbasbag68
(g84
g70
NtRp5079
(dp5080
g73
(dp5081
sg82
g5062
sg75
(lp5082
g68
(g89
g70
NtRp5083
(dp5084
g73
(dp5085
sg82
g5079
sg75
(lp5086
g68
(g69
g70
NtRp5087
(dp5088
g73
(dp5089
g81
I1
ssg82
g5083
sg75
(lp5090
I00
asbasbasbag68
(g84
g70
NtRp5091
(dp5092
g73
(dp5093
sg82
g5062
sg75
(lp5094
g68
(g89
g70
NtRp5095
(dp5096
g73
(dp5097
sg82
g5091
sg75
(lp5098
g68
(g69
g70
NtRp5099
(dp5100
g73
(dp5101
g81
I1
ssg82
g5095
sg75
(lp5102
Nasbasbasbag68
(g84
g70
NtRp5103
(dp5104
g73
(dp5105
sg82
g5062
sg75
(lp5106
g68
(g89
g70
NtRp5107
(dp5108
g73
(dp5109
sg82
g5103
sg75
(lp5110
g68
(g69
g70
NtRp5111
(dp5112
g73
(dp5113
g81
I1
ssg82
g5107
sg75
(lp5114
(lp5115
(g4578
(S't\x06\x00\x00\x00Groups'
tRp5116
I00
S'http://www.web2py.com/examples/default/usergroups'
p5117
tp5118
a(g4578
(S't\x07\x00\x00\x00Twitter'
tRp5119
I00
S'http://twitter.com/web2py'
p5120
tp5121
a(g4578
(S's\t\x00\x00\x00Live Chat'
tRp5122
I00
S'http://webchat.freenode.net/?channels=web2py'
p5123
tp5124
aasbasbasbasbasbasbasbag68
(g84
g70
NtRp5125
(dp5126
g73
(dp5127
sg82
g4692
sg75
(lp5128
g68
(g89
g70
NtRp5129
(dp5130
g73
(dp5131
sg82
g5125
sg75
(lp5132
g68
(g69
g70
NtRp5133
(dp5134
g73
(dp5135
g81
I2
ssg82
g5129
sg75
(lp5136
g68
(g77
g70
NtRp5137
(dp5138
g73
(dp5139
g81
I1
ssg82
Nsg75
(lp5140
g68
(g84
g70
NtRp5141
(dp5142
g73
(dp5143
sg82
g5137
sg75
(lp5144
g68
(g89
g70
NtRp5145
(dp5146
g73
(dp5147
sg82
g5141
sg75
(lp5148
g68
(g69
g70
NtRp5149
(dp5150
g73
(dp5151
g81
I1
ssg82
g5145
sg75
(lp5152
g4578
(S't\x07\x00\x00\x00Plugins'
tRp5153
asbasbasbag68
(g84
g70
NtRp5154
(dp5155
g73
(dp5156
sg82
g5137
sg75
(lp5157
g68
(g89
g70
NtRp5158
(dp5159
g73
(dp5160
sg82
g5154
sg75
(lp5161
g68
(g69
g70
NtRp5162
(dp5163
g73
(dp5164
g81
I1
ssg82
g5158
sg75
(lp5165
I00
asbasbasbag68
(g84
g70
NtRp5166
(dp5167
g73
(dp5168
sg82
g5137
sg75
(lp5169
g68
(g89
g70
NtRp5170
(dp5171
g73
(dp5172
sg82
g5166
sg75
(lp5173
g68
(g69
g70
NtRp5174
(dp5175
g73
(dp5176
g81
I1
ssg82
g5170
sg75
(lp5177
Nasbasbasbag68
(g84
g70
NtRp5178
(dp5179
g73
(dp5180
sg82
g5137
sg75
(lp5181
g68
(g89
g70
NtRp5182
(dp5183
g73
(dp5184
sg82
g5178
sg75
(lp5185
g68
(g69
g70
NtRp5186
(dp5187
g73
(dp5188
g81
I1
ssg82
g5182
sg75
(lp5189
(lp5190
(S'plugin_wiki'
p5191
I00
S'http://web2py.com/examples/default/download'
p5192
tp5193
a(g4578
(S's\r\x00\x00\x00Other Plugins'
tRp5194
I00
g4924
tp5195
a(g4578
(S's\x0e\x00\x00\x00Layout Plugins'
tRp5196
I00
g4927
tp5197
aasbasbasbasbasbasbasbasbasbasbasbasbasbasbasbasbasbasbasbag68
(g84
g70
NtRp5198
(dp5199
g73
(dp5200
sg82
g4088
sg75
(lp5201
g68
(g89
g70
NtRp5202
(dp5203
g73
(dp5204
g93
g94
ssg82
g5198
sg75
(lp5205
S'meta'
p5206
asbag68
(g89
g70
NtRp5207
(dp5208
g73
(dp5209
g100
g101
ssg82
g5198
sg75
(lp5210
S':'
asbag68
(g89
g70
NtRp5211
(dp5212
g73
(dp5213
sg82
g5198
sg75
(lp5214
g68
(g69
g70
NtRp5215
(dp5216
g73
(dp5217
g81
I5
ssg82
g5211
sg75
(lp5218
g68
(g77
g70
NtRp5219
(dp5220
g73
(dp5221
g81
I4
ssg82
Nsg75
(lp5222
g68
(g84
g70
NtRp5223
(dp5224
g73
(dp5225
sg82
g5219
sg75
(lp5226
g68
(g89
g70
NtRp5227
(dp5228
g73
(dp5229
g93
g94
ssg82
g5223
sg75
(lp5230
S'author'
p5231
asbag68
(g89
g70
NtRp5232
(dp5233
g73
(dp5234
g100
g101
ssg82
g5223
sg75
(lp5235
S':'
asbag68
(g89
g70
NtRp5236
(dp5237
g73
(dp5238
sg82
g5223
sg75
(lp5239
g68
(g69
g70
NtRp5240
(dp5241
g73
(dp5242
g81
I4
ssg82
g5236
sg75
(lp5243
S'Your Name <you@example.com>'
p5244
asbasbasbag68
(g84
g70
NtRp5245
(dp5246
g73
(dp5247
sg82
g5219
sg75
(lp5248
g68
(g89
g70
NtRp5249
(dp5250
g73
(dp5251
g93
g94
ssg82
g5245
sg75
(lp5252
S'copyright'
p5253
asbag68
(g89
g70
NtRp5254
(dp5255
g73
(dp5256
g100
g101
ssg82
g5245
sg75
(lp5257
S':'
asbag68
(g89
g70
NtRp5258
(dp5259
g73
(dp5260
sg82
g5245
sg75
(lp5261
g68
(g69
g70
NtRp5262
(dp5263
g73
(dp5264
g81
I4
ssg82
g5258
sg75
(lp5265
S'Copyright 2011'
p5266
asbasbasbag68
(g84
g70
NtRp5267
(dp5268
g73
(dp5269
sg82
g5219
sg75
(lp5270
g68
(g89
g70
NtRp5271
(dp5272
g73
(dp5273
g93
g94
ssg82
g5267
sg75
(lp5274
S'description'
p5275
asbag68
(g89
g70
NtRp5276
(dp5277
g73
(dp5278
g100
g101
ssg82
g5267
sg75
(lp5279
S':'
asbag68
(g89
g70
NtRp5280
(dp5281
g73
(dp5282
sg82
g5267
sg75
(lp5283
g68
(g69
g70
NtRp5284
(dp5285
g73
(dp5286
g81
I4
ssg82
g5280
sg75
(lp5287
S'a cool new app'
p5288
asbasbasbag68
(g84
g70
NtRp5289
(dp5290
g73
(dp5291
sg82
g5219
sg75
(lp5292
g68
(g89
g70
NtRp5293
(dp5294
g73
(dp5295
g93
g94
ssg82
g5289
sg75
(lp5296
S'generator'
p5297
asbag68
(g89
g70
NtRp5298
(dp5299
g73
(dp5300
g100
g101
ssg82
g5289
sg75
(lp5301
S':'
asbag68
(g89
g70
NtRp5302
(dp5303
g73
(dp5304
sg82
g5289
sg75
(lp5305
g68
(g69
g70
NtRp5306
(dp5307
g73
(dp5308
g81
I4
ssg82
g5302
sg75
(lp5309
S'Web2py Web Framework'
p5310
asbasbasbag68
(g84
g70
NtRp5311
(dp5312
g73
(dp5313
sg82
g5219
sg75
(lp5314
g68
(g89
g70
NtRp5315
(dp5316
g73
(dp5317
g93
g94
ssg82
g5311
sg75
(lp5318
S'keywords'
p5319
asbag68
(g89
g70
NtRp5320
(dp5321
g73
(dp5322
g100
g101
ssg82
g5311
sg75
(lp5323
S':'
asbag68
(g89
g70
NtRp5324
(dp5325
g73
(dp5326
sg82
g5311
sg75
(lp5327
g68
(g69
g70
NtRp5328
(dp5329
g73
(dp5330
g81
I4
ssg82
g5324
sg75
(lp5331
S'web2py, python, framework'
p5332
asbasbasbasbasbasbasbag68
(g84
g70
NtRp5333
(dp5334
g73
(dp5335
sg82
g4088
sg75
(lp5336
g68
(g89
g70
NtRp5337
(dp5338
g73
(dp5339
g93
g94
ssg82
g5333
sg75
(lp5340
S'models_to_run'
p5341
asbag68
(g89
g70
NtRp5342
(dp5343
g73
(dp5344
g100
g101
ssg82
g5333
sg75
(lp5345
S':'
asbag68
(g89
g70
NtRp5346
(dp5347
g73
(dp5348
sg82
g5333
sg75
(lp5349
g68
(g69
g70
NtRp5350
(dp5351
g73
(dp5352
g81
I5
ssg82
g5346
sg75
(lp5353
g68
(g77
g70
NtRp5354
(dp5355
g73
(dp5356
g81
I4
ssg82
Nsg75
(lp5357
g68
(g84
g70
NtRp5358
(dp5359
g73
(dp5360
sg82
g5354
sg75
(lp5361
g68
(g89
g70
NtRp5362
(dp5363
g73
(dp5364
sg82
g5358
sg75
(lp5365
g68
(g69
g70
NtRp5366
(dp5367
g73
(dp5368
g81
I4
ssg82
g5362
sg75
(lp5369
S'^\\w+\\.py$'
p5370
asbasbasbag68
(g84
g70
NtRp5371
(dp5372
g73
(dp5373
sg82
g5354
sg75
(lp5374
g68
(g89
g70
NtRp5375
(dp5376
g73
(dp5377
sg82
g5371
sg75
(lp5378
g68
(g69
g70
NtRp5379
(dp5380
g73
(dp5381
g81
I4
ssg82
g5375
sg75
(lp5382
S'^default/\\w+\\.py$'
p5383
asbasbasbag68
(g84
g70
NtRp5384
(dp5385
g73
(dp5386
sg82
g5354
sg75
(lp5387
g68
(g89
g70
NtRp5388
(dp5389
g73
(dp5390
sg82
g5384
sg75
(lp5391
g68
(g69
g70
NtRp5392
(dp5393
g73
(dp5394
g81
I4
ssg82
g5388
sg75
(lp5395
S'^default/reasonc/\\w+\\.py$'
p5396
asbasbasbasbasbasbasbag68
(g84
g70
NtRp5397
(dp5398
g73
(dp5399
sg82
g4088
sg75
(lp5400
g68
(g89
g70
NtRp5401
(dp5402
g73
(dp5403
g93
g94
ssg82
g5397
sg75
(lp5404
S'postprocessing'
p5405
asbag68
(g89
g70
NtRp5406
(dp5407
g73
(dp5408
g100
g101
ssg82
g5397
sg75
(lp5409
S':'
asbag68
(g89
g70
NtRp5410
(dp5411
g73
(dp5412
sg82
g5397
sg75
(lp5413
g68
(g69
g70
NtRp5414
(dp5415
g73
(dp5416
g81
I5
ssg82
g5410
sg75
(lp5417
g68
(g77
g70
NtRp5418
(dp5419
g73
(dp5420
g81
I4
ssg82
Nsg75
(lp5421
sbasbasbasbag68
(g84
g70
NtRp5422
(dp5423
g73
(dp5424
sg82
g4088
sg75
(lp5425
g68
(g89
g70
NtRp5426
(dp5427
g73
(dp5428
g93
g94
ssg82
g5422
sg75
(lp5429
S'session_cookie_expires'
p5430
asbag68
(g89
g70
NtRp5431
(dp5432
g73
(dp5433
g100
g101
ssg82
g5422
sg75
(lp5434
S':'
asbag68
(g89
g70
NtRp5435
(dp5436
g73
(dp5437
sg82
g5422
sg75
(lp5438
g68
(g69
g70
NtRp5439
(dp5440
g73
(dp5441
g81
I5
ssg82
g5435
sg75
(lp5442
S'None'
p5443
asbasbasbag68
(g84
g70
NtRp5444
(dp5445
g73
(dp5446
sg82
g4088
sg75
(lp5447
g68
(g89
g70
NtRp5448
(dp5449
g73
(dp5450
g93
g94
ssg82
g5444
sg75
(lp5451
S'session_data_name'
p5452
asbag68
(g89
g70
NtRp5453
(dp5454
g73
(dp5455
g100
g101
ssg82
g5444
sg75
(lp5456
S':'
asbag68
(g89
g70
NtRp5457
(dp5458
g73
(dp5459
sg82
g5444
sg75
(lp5460
g68
(g69
g70
NtRp5461
(dp5462
g73
(dp5463
g81
I5
ssg82
g5457
sg75
(lp5464
S'session_data_wsd'
p5465
asbasbasbag68
(g84
g70
NtRp5466
(dp5467
g73
(dp5468
sg82
g4088
sg75
(lp5469
g68
(g89
g70
NtRp5470
(dp5471
g73
(dp5472
g93
g94
ssg82
g5466
sg75
(lp5473
S'session_file'
p5474
asbag68
(g89
g70
NtRp5475
(dp5476
g73
(dp5477
g100
g101
ssg82
g5466
sg75
(lp5478
S':'
asbag68
(g89
g70
NtRp5479
(dp5480
g73
(dp5481
sg82
g5466
sg75
(lp5482
g68
(g69
g70
NtRp5483
(dp5484
g73
(dp5485
g81
I5
ssg82
g5479
sg75
(lp5486
S"<open file '/home/abhinav/Desktop/iiit/web2py/applications/WSD/sessions/127.0.0.1-08588e50-1a77-405d-a024-4e5a7aea3fb7', mode 'rb+' at 0xb06be2e0>"
p5487
asbasbasbag68
(g84
g70
NtRp5488
(dp5489
g73
(dp5490
sg82
g4088
sg75
(lp5491
g68
(g89
g70
NtRp5492
(dp5493
g73
(dp5494
g93
g94
ssg82
g5488
sg75
(lp5495
S'session_filename'
p5496
asbag68
(g89
g70
NtRp5497
(dp5498
g73
(dp5499
g100
g101
ssg82
g5488
sg75
(lp5500
S':'
asbag68
(g89
g70
NtRp5501
(dp5502
g73
(dp5503
sg82
g5488
sg75
(lp5504
g68
(g69
g70
NtRp5505
(dp5506
g73
(dp5507
g81
I5
ssg82
g5501
sg75
(lp5508
S'/home/abhinav/Desktop/iiit/web2py/applications/WSD/sessions/127.0.0.1-08588e50-1a77-405d-a024-4e5a7aea3fb7'
p5509
asbasbasbag68
(g84
g70
NtRp5510
(dp5511
g73
(dp5512
sg82
g4088
sg75
(lp5513
g68
(g89
g70
NtRp5514
(dp5515
g73
(dp5516
g93
g94
ssg82
g5510
sg75
(lp5517
S'session_id'
p5518
asbag68
(g89
g70
NtRp5519
(dp5520
g73
(dp5521
g100
g101
ssg82
g5510
sg75
(lp5522
S':'
asbag68
(g89
g70
NtRp5523
(dp5524
g73
(dp5525
sg82
g5510
sg75
(lp5526
g68
(g69
g70
NtRp5527
(dp5528
g73
(dp5529
g81
I5
ssg82
g5523
sg75
(lp5530
g672
asbasbasbag68
(g84
g70
NtRp5531
(dp5532
g73
(dp5533
sg82
g4088
sg75
(lp5534
g68
(g89
g70
NtRp5535
(dp5536
g73
(dp5537
g93
g94
ssg82
g5531
sg75
(lp5538
S'session_id_name'
p5539
asbag68
(g89
g70
NtRp5540
(dp5541
g73
(dp5542
g100
g101
ssg82
g5531
sg75
(lp5543
S':'
asbag68
(g89
g70
NtRp5544
(dp5545
g73
(dp5546
sg82
g5531
sg75
(lp5547
g68
(g69
g70
NtRp5548
(dp5549
g73
(dp5550
g81
I5
ssg82
g5544
sg75
(lp5551
g4145
asbasbasbag68
(g84
g70
NtRp5552
(dp5553
g73
(dp5554
sg82
g4088
sg75
(lp5555
g68
(g89
g70
NtRp5556
(dp5557
g73
(dp5558
g93
g94
ssg82
g5552
sg75
(lp5559
S'session_locked'
p5560
asbag68
(g89
g70
NtRp5561
(dp5562
g73
(dp5563
g100
g101
ssg82
g5552
sg75
(lp5564
S':'
asbag68
(g89
g70
NtRp5565
(dp5566
g73
(dp5567
sg82
g5552
sg75
(lp5568
g68
(g69
g70
NtRp5569
(dp5570
g73
(dp5571
g81
I5
ssg82
g5565
sg75
(lp5572
g1912
asbasbasbag68
(g84
g70
NtRp5573
(dp5574
g73
(dp5575
sg82
g4088
sg75
(lp5576
g68
(g89
g70
NtRp5577
(dp5578
g73
(dp5579
g93
g94
ssg82
g5573
sg75
(lp5580
S'session_new'
p5581
asbag68
(g89
g70
NtRp5582
(dp5583
g73
(dp5584
g100
g101
ssg82
g5573
sg75
(lp5585
S':'
asbag68
(g89
g70
NtRp5586
(dp5587
g73
(dp5588
sg82
g5573
sg75
(lp5589
g68
(g69
g70
NtRp5590
(dp5591
g73
(dp5592
g81
I5
ssg82
g5586
sg75
(lp5593
g111
asbasbasbag68
(g84
g70
NtRp5594
(dp5595
g73
(dp5596
sg82
g4088
sg75
(lp5597
g68
(g89
g70
NtRp5598
(dp5599
g73
(dp5600
g93
g94
ssg82
g5594
sg75
(lp5601
S'session_storage_type'
p5602
asbag68
(g89
g70
NtRp5603
(dp5604
g73
(dp5605
g100
g101
ssg82
g5594
sg75
(lp5606
S':'
asbag68
(g89
g70
NtRp5607
(dp5608
g73
(dp5609
sg82
g5594
sg75
(lp5610
g68
(g69
g70
NtRp5611
(dp5612
g73
(dp5613
g81
I5
ssg82
g5607
sg75
(lp5614
g3554
asbasbasbag68
(g84
g70
NtRp5615
(dp5616
g73
(dp5617
sg82
g4088
sg75
(lp5618
g68
(g89
g70
NtRp5619
(dp5620
g73
(dp5621
g93
g94
ssg82
g5615
sg75
(lp5622
S'status'
p5623
asbag68
(g89
g70
NtRp5624
(dp5625
g73
(dp5626
g100
g101
ssg82
g5615
sg75
(lp5627
S':'
asbag68
(g89
g70
NtRp5628
(dp5629
g73
(dp5630
sg82
g5615
sg75
(lp5631
g68
(g69
g70
NtRp5632
(dp5633
g73
(dp5634
g81
I5
ssg82
g5628
sg75
(lp5635
S'200'
p5636
asbasbasbag68
(g84
g70
NtRp5637
(dp5638
g73
(dp5639
sg82
g4088
sg75
(lp5640
g68
(g89
g70
NtRp5641
(dp5642
g73
(dp5643
g93
g94
ssg82
g5637
sg75
(lp5644
S'subtitle'
p5645
asbag68
(g89
g70
NtRp5646
(dp5647
g73
(dp5648
g100
g101
ssg82
g5637
sg75
(lp5649
S':'
asbag68
(g89
g70
NtRp5650
(dp5651
g73
(dp5652
sg82
g5637
sg75
(lp5653
g68
(g69
g70
NtRp5654
(dp5655
g73
(dp5656
g81
I5
ssg82
g5650
sg75
(lp5657
g4578
(S's\r\x00\x00\x00customize me!'
tRp5658
asbasbasbag68
(g84
g70
NtRp5659
(dp5660
g73
(dp5661
sg82
g4088
sg75
(lp5662
g68
(g89
g70
NtRp5663
(dp5664
g73
(dp5665
g93
g94
ssg82
g5659
sg75
(lp5666
S'title'
p5667
asbag68
(g89
g70
NtRp5668
(dp5669
g73
(dp5670
g100
g101
ssg82
g5659
sg75
(lp5671
S':'
asbag68
(g89
g70
NtRp5672
(dp5673
g73
(dp5674
sg82
g5659
sg75
(lp5675
g68
(g69
g70
NtRp5676
(dp5677
g73
(dp5678
g81
I5
ssg82
g5672
sg75
(lp5679
S'Wsd'
p5680
asbasbasbag68
(g84
g70
NtRp5681
(dp5682
g73
(dp5683
sg82
g4088
sg75
(lp5684
g68
(g89
g70
NtRp5685
(dp5686
g73
(dp5687
g93
g94
ssg82
g5681
sg75
(lp5688
S'view'
p5689
asbag68
(g89
g70
NtRp5690
(dp5691
g73
(dp5692
g100
g101
ssg82
g5681
sg75
(lp5693
S':'
asbag68
(g89
g70
NtRp5694
(dp5695
g73
(dp5696
sg82
g5681
sg75
(lp5697
g68
(g69
g70
NtRp5698
(dp5699
g73
(dp5700
g81
I5
ssg82
g5694
sg75
(lp5701
S'default/reasonc.html'
p5702
asbasbasbasbasbsS'locals'
p5703
(dp5704
g4
S"'/home/abhinav/Desktop/iiit/web2py/applications/WSD/controllers/default.py'"
p5705
sg6
S"'# -*- coding: utf-8 -*-\\n# this file is released ...t(v=v)\\n\\nresponse._vars=response._caller(reasonc)\\n'"
p5706
sssS'traceback'
p5707
S'Traceback (most recent call last):\n  File "/home/abhinav/Desktop/iiit/web2py/gluon/restricted.py", line 211, in restricted\n    ccode = compile2(code, layer)\n  File "/home/abhinav/Desktop/iiit/web2py/gluon/restricted.py", line 194, in compile2\n    return compile(code.rstrip().replace(\'\\r\\n\', \'\\n\') + \'\\n\', layer, \'exec\')\n  File "/home/abhinav/Desktop/iiit/web2py/applications/WSD/controllers/default.py", line 216\n    def novi:\n            ^\nSyntaxError: invalid syntax\n'
p5708
s.