(dp1
S'output'
p2
S"<type 'exceptions.KeyError'> ' '"
p3
sS'layer'
p4
S'/home/nazrul/web2py/applications/WSD/controllers/default.py'
p5
sS'code'
p6
S'# -*- coding: utf-8 -*-\n# this file is released under public domain and you can use without limitations\n\n#########################################################################\n## This is a samples controller\n## - index is the default action of any application\n## - user is required for authentication and authorization\n## - download is for downloading files uploaded in the db (does streaming)word_select?check=1\n## - call exposes all registered services (none by default)\n#########################################################################\nimport os,subprocess\ndef index():\n    redirect(URL(\'home\'))\n    """\n    example action using the internationalization operator T and flash\n    rendered by views/default/index.html or views/generic.html\n    """\n    response.flash = "Welcome to web2py!"\n    return dict(message=T(\'Hello World\'))\n\ndef user():\n    """\n    exposes:\n    http://..../[app]/default/user/login\n    http://..../[app]/default/user/logout\n    http://..../[app]/default/user/register\n    http://..../[app]/default/user/profile\n    http://..../[app]/default/user/retrieve_password\n    http://..../[app]/default/user/change_password\n    use @auth.requires_login()\n        @auth.requires_membership(\'group name\')\n        @auth.requires_permission(\'read\',\'table name\',record_id)\n    to decorate functions that need access control\n    """\n    return dict(form=auth())\n\n\ndef download():\n    """\n    allows downloading of uploaded files\n    http://..../[app]/default/download/[filename]\n    """\n    return response.download(request,db)\n\n\ndef call():\n    """\n    exposes services. for example:\n    http://..../[app]/default/call/jsonrpc\n    decorate with @services.jsonrpc the functions to expose\n    supports xml, json, xmlrpc, jsonrpc, amfrpc, rss, csv\n    """\n    return service()\n\n\n@auth.requires_signature()\ndef data():\n    """\n    http://..../[app]/default/data/tables\n    http://..../[app]/default/data/create/[table]\n    http://..../[app]/default/data/read/[table]/[id]\n    http://..../[app]/default/data/update/[table]/[id]\n    http://..../[app]/default/data/delete/[table]/[id]\n    http://..../[app]/default/data/select/[table]\n    http://..../[app]/default/data/search/[table]\n    but URLs must be signed, i.e. linked with\n      A(\'table\',_href=URL(\'data/tables\',user_signature=True))\n    or with the signed load operator\n      LOAD(\'default\',\'data.load\',args=\'tables\',ajax=True,user_signature=True)\n    """\n    return dict(form=crud())\n\n\n\n\n@auth.requires_login()\ndef home():\n    t = auth.user.id\n    h = db(db.rules.userid==t).select()\n    g = []\n    for i in h:\n        g.append(db(db.words.id==i.wid).select(db.words.word))\n    h=[]\n    for i in g:\n        for j in i:\n            h.append(j.word) \n    h=list(set(h))\n    return dict(t=t,h=h)\n\n@auth.requires_login()\ndef word_select():\n    if not request.vars.check:\n        redirect(\'home\')\n    else:\n        check=0\n    if request.vars.submit:\n        session.level = request.vars.level\n        w = request.vars.word\n        t = db(db.words).select()\n        for i in t:\n            if i.word==w:\n                session.word = w\n                session.ide = i.id\n                break\n        redirect(\'sentence_select\')\n    return dict()\n\n\n@auth.requires_login()\ndef changelevel():\n    if request.vars.submit:\n        if request.vars.new_email:\n            db(db.user_level).insert(email=request.vars.new_email,level=request.vars.level)\n        else:\n            db(db.user_level.email==request.vars.emailq).update(level=request.vars.level)\n        redirect(\'home\')\n    return dict()\n\n\n@auth.requires_login()\ndef word_selectc():\n    if not request.vars.check:\n        redirect(\'home\')\n    else:\n        check=0\n    if request.vars.submit:\n        session.level = request.vars.level\n        w = request.vars.word\n        t = db(db.words).select()\n        for i in t:\n            if i.word==w:\n                session.word = w\n                session.ide = i.id\n                break\n        redirect(URL(\'sentence_selectc\',vars=dict(second=request.vars.second)))\n    return dict()\n    \n#@auth.requires_login()\n#def reason():\n#    t=session.senid\n#    pre=db((db.rules.wid==session.ide)&(db.rules.sid==session.sid)).select()\n#    c=0\n#    for i in pre:\n#        c+=1\n#    if request.vars.hindit:\n#        db.rules.insert(name=session.word+str(c),userid=auth.user.id,wid=session.ide,sid=session.sid,translation=hindit)\n#        redirect(URL(\'rel\'))\n#    return dict()\n    \n    \n@auth.requires_login()\ndef sentence_select():\n    print \'*\'\n    f = \'\'\n    x = 0\n    if request.vars.submit and (request.vars.hindit):\n        t = request.vars.sentence\n        r = db(db.sentences.esentence==t).select(db.sentences.id)\n        for i in r:\n          session.sid=i.id\n          break\n        pre=db((db.rules.wid==session.ide)&(db.rules.userid==auth.user.id)).select()\n        c=0\n        f=0\n        for i in pre:\n            c+=1\n            if str(session.sid)==i.sid:\n                f=1\n                break\n        if f==0:\n            db.rules.insert(name=session.word+str(c),userid=auth.user.id,wid=session.ide,sid=session.sid,translation=request.vars.hindit)\n            session.f=0\n        redirect(URL(\'typ\'))\n    return dict(w=session.word,d=session.ide,f=f,level_set=session.level)\n\n\n@auth.requires_login()\ndef sentence_selectc():\n    print \'*\'\n    f = \'\'\n    x = 0\n    if request.vars.submit:\n        t = request.vars.sentence\n        r = db(db.sentences.esentence==t).select(db.sentences.id)\n        for i in r:\n          hindit=i.id\n          session.sid=i.id\n          break\n        redirect(URL(\'reasonc\',vars=dict(hindit=hindit)))\n    return dict(w=session.word,d=session.ide,f=f,level_set=session.level)\n\n\n@auth.requires_login()\ndef reasonc():\n    t=session.sid\n    r = db(db.sentences.id==t).select(db.sentences.hsentence)\n    if request.vars.advanced or request.vars.novice:\n        pre=db((db.rules.wid==session.ide)&(db.rules.userid==auth.user.id)).select()\n        c=0\n        f=0\n        for i in pre:\n            c+=1\n            if i.sid==str(session.sid):\n                f=1\n                break\n        if f==0:\n            db.rules.insert(name=session.word+str(c),userid=auth.user.id,wid=session.ide,sid=session.sid)\n        session.f=0\n\tif request.vars.advanced:\n\t  redirect(URL(\'typ\'))\n\telse:\n\t  redirect(URL(\'novi\'))\n    return dict(r=r)\n\n@auth.requires_login()\ndef novi():\n  t=session.sid\n  r=db(db.sentences.id==t).select(db.sentences.esentence)\n  r=r[0].esentence\n  l=r.split()\n  w=session.word\n  return dict(l=l,w=w)\n@auth.requires_login()\ndef novi_insert():\n    print request.vars.property,request.vars.word\n    a=db((db.novice.userid==auth.user.id)&(db.novice.wid==session.ide)&(db.novice.sid==session.sid)&(db.novice.word==request.vars.word)).select()\n    if a:\n        if request.vars.property==\'1\':\n            print \'haha\'\n            db((db.novice.userid==auth.user.id)&(db.novice.wid==session.ide)&(db.novice.sid==session.sid)&(db.novice.word==request.vars.word)).update(relation=1,property=0,both=0)\n        elif request.vars.property==\'2\':\n            db((db.novice.userid==auth.user.id)&(db.novice.wid==session.ide)&(db.novice.sid==session.sid)&(db.novice.word==request.vars.word)).update(relation=0,property=1,both=0)\n        elif request.vars.property==\'3\':   \n            db((db.novice.userid==auth.user.id)&(db.novice.wid==session.ide)&(db.novice.sid==session.sid)&(db.novice.word==request.vars.word)).update(relation=0,property=0,both=1)                     \n    else:\n        if request.vars.property==\'1\':\n            db.novice.insert(userid=auth.user.id,sid=session.sid,wid=session.ide,word=request.vars.word,relation=1,property=0,both=0)\n        elif request.vars.property==\'2\':\n            db.novice.insert(userid=auth.user.id,sid=session.sid,wid=session.ide,word=request.vars.word,relation=0,property=1,both=0)\n        elif request.vars.property==\'3\':\n            db.novice.insert(userid=auth.user.id,sid=session.sid,wid=session.ide,word=request.vars.word,relation=0,property=0,both=1)\n    return None\n@auth.requires_login()\ndef delaccount():\n    if request.vars.submit:\n        db(db.auth_user.email==request.vars.email).delete()\n        redirect("home")\n    return dict()\n\n@auth.requires_login()\ndef addword():\n    if request.vars.submit:\n       db.words.insert(word=request.vars.word)\n       word=request.vars.word\n       db.sentences.insert(level=request.vars.level,esentence=request.vars.esentence,hsentence=request.vars.hsentence)\n       w = db(db.words.word==request.vars.word).select(db.words.id)\n       s = db(db.sentences.esentence==request.vars.esentence).select(db.sentences.id)\n       #s=db(db.sentences.id==session.sid).select(db.sentences.esentence)\n       #s=s[0].esentence\n       sen=request.vars.esentence\n       print sen,word\n       f=open(\'sample\',\'w\')\n       st="\\n<TITLE> test. </TITLE>\\n<p>\\n" + sen + "\\n</p>\\n"\n       f.write(st)\n       f.close()\n       os.system("/bin/bash Anusaaraka_stanford.sh sample 0 True")\n       f=open(os.environ[\'HOME_anu_tmp\']+\'/tmp/sample_tmp/2.1/word.dat\',\'r\')\n       for line in f:\n           ind=line.rfind(\' \'+word)\n           print word+\'*\'+line\n           print "index"+str(ind)\n           if ind != -1 :\n               print \'*\'\n               anu_id=line[ind-2]\n               break\n       f.close() \n       print "anu_id= " + anu_id\n       f=open(os.environ[\'HOME_anu_tmp\']+\'/tmp/sample_tmp/2.1/cat_consistency_check.dat\',\'r\')\n       for line in f:\n           ind=line.find(\'id-cat_coarse \'+anu_id)\n           if ind != -1 :\n               line=line[::-1]\n               end=line.find(\' \')\n               psp=line[2:end][::-1]\n               break\n       f.close()\n       for i in w:\n           for j in s:\n               db.links.insert(wid=i.id,sid=j.id,typ=psp)\n               break\n           break\n       f=open(os.environ[\'HOME_anu_tmp\']+\'/tmp/sample_tmp/2.1/word.dat\',\'r\')\n       d={}\n       for i in f:\n           i=i.strip()\n           if i.find(\'id-word\')!=-1:\n               d[i[9]]=i[12:-1]\n       f.close()\n       f=open(os.environ[\'HOME_anu_tmp\']+\'/tmp/sample_tmp/2.1/relations.dat\',\'r\')\n       l,l1,l2=[],[],[]\n       for i in f:\n           i=i.strip()\n           if i[-4]==str(anu_id):\n               l1.append(i[:-4].strip()+\')\'+\' \'+\' \'+str(anu_id)+\',\'+\'\\"\'+str(word)+\'\\"\'+\' \'+i[-2]+\',\'+\'\\"\'+d[i[-2]]+\'\\"\')\n           elif i[-2]==str(anu_id):\n               l2.append(i[:-4].strip()+\')\'+\' \'+\' \'+i[-2]+\',\'+\'\\"\'+d[i[-4]]+\'\\"\'+\' \'+str(anu_id)+\',\'+\'\\"\'+str(word)+\'\\"\')\n       l=l1+l2\n       f.close()\n       for r in l:\n           db.rel_all.insert(wid=w[0].id,sid=s[0].id,relation=r)\n       session.flash="Word Added"\n       redirect(\'home\')\n    return dict()\n\n@auth.requires_login()\ndef delword():\n    if request.vars.submit:\n        g = db(db.words.word==request.vars.word).select(db.words.id)\n        for i in g:\n            db(db.words.id==i.id).delete()\n            db(db.rules.wid==i.id).delete()\n            y = db(db.links.wid==i.id).select(db.links.sid)\n            db(db.links.wid==i.id).delete()\n            for j in y:\n                db(db.sentences.id==j.sid).delete()\n                break\n            break\n            session.flash="Word Deleted "\n        redirect(\'home\')\n    return dict()\n\ndef typ():\n  psp=db((db.links.sid==session.sid)&(db.links.wid==session.ide)).select(db.links.typ)\n  psp=psp[0].typ\n  session.psp=psp\n  if request.vars.submit and request.vars.typ:\n    db((db.rules.userid==auth.user.id)&(db.rules.wid==session.ide)&(db.rules.sid==session.sid)).update(typ=psp)\n    if request.vars.typ==\'yes\':\n      redirect(URL(\'index\'))\n    else:\n      redirect(URL(\'rel\'))\n  return dict(psp=psp) \n\ndef rel():\n    s=db((db.rel_all.wid==session.ide)&(db.rel_all.sid==session.sid)).select(db.rel_all.relation)\n    l=[]\n    for i in s:\n        l+=[i.relation]\n    fields=[]   \n    fields.append(Field(\'Relations\',widget=SQLFORM.widgets.multiple.widget,requires=IS_IN_SET(l,multiple=True)))\n    if session.psp!=\'adverb\':\n        fields.append(Field(\'ans\',label=\'Is the relation sufficient for forming the rule ?\',widget=SQLFORM.widgets.radio.widget,requires=IS_IN_SET([\'yes\',\'no\'])))\n    form=SQLFORM.factory(*fields)\n    if form.accepts(request.vars,session):\n        for i in form.vars.Relations:\n            print "i="+str(i)\n            db.rel_rule.insert(wid=session.ide,sid=session.sid,relation=i)\n        if session.psp==\'adverb\':\n            redirect(\'index\')\n        elif form.vars.ans==\'yes\':\n            redirect(\'index\')\n        else :\n            redirect(URL(\'nature_\'+str(session.psp)))\n    return dict(form=form)\n\ndef nature_noun():\n    form=SQLFORM.factory(\n        Field(\'Nature\',requires=IS_IN_SET([\'Animate\',\'Inanimate\',\'Human\',\'Place\',\'Time\']),label=\'Semantic Property\'))\n    if form.accepts(request.vars,session):\n        db((db.rules.userid==auth.user.id)&(db.rules.wid==session.ide)&(db.rules.sid==session.sid)).update(property=form.vars.Nature)\n        redirect(URL(\'index\'))\n    return dict(form=form)\n\ndef nature_verb():\n    form=SQLFORM.factory(\n        Field(\'Nature\',requires=IS_IN_SET([\'transitive\',\'intransitive\'])))\n    if form.accepts(request.vars,session):\n        db((db.rules.userid==auth.user.id)&(db.rules.wid==session.ide)&(db.rules.sid==session.sid)).update(property=form.vars.Nature)\n        redirect(URL(\'index\'))\n    return dict(form=form)\n\ndef nature_adjective():\n    form=SQLFORM.factory(\n        Field(\'Nature\',requires=IS_IN_SET([\'Animate\',\'Inanimate\',\'Human\',\'Place\',\'Time\']),label=\'Semantic Property of noun whom it modifies\'))\n    if form.accepts(request.vars,session):\n        db((db.rules.userid==auth.user.id)&(db.rules.wid==session.ide)&(db.rules.sid==session.sid)).update(property=form.vars.Nature)\n        redirect(URL(\'index\'))\n    return dict(form=form)\ndef testt():\n    v=db(db.auth_user).select()\n    return dict(v=v)\ndef sel_novice():\n    a=db(db.novice.userid==db.auth_user.id).select(db.auth_user.email,db.auth_user.id)\n    l,d=[],{}\n    for i in a:\n        l+=[i.email]\n        d[i.email]=i.id\n    l=list(set(l))\n    form=SQLFORM.factory(Field(\'user\',requires=IS_IN_SET(l)))\n    if form.accepts(request.vars,session):\n            redirect(URL(\'disp_novice\',vars=dict(uid=d[form.vars.user])))\n    return dict(form=form)\ndef disp_novice():\n    u=request.vars.uid\n    email=db(db.auth_user.id==u).select(db.auth_user.email)\n    email=email[0].email\n    l=db(db.novice.userid==u).select()\n    return dict(l=l,email=email)\ndef sel_adv():\n    a=db(db.rules.userid==db.auth_user.id).select(db.auth_user.email,db.auth_user.id)\n    l,d=[],{}\n    for i in a:\n        l+=[i.email]\n        d[i.email]=i.id\n    l=list(set(l))\n    form=SQLFORM.factory(Field(\'user\',requires=IS_IN_SET(l)))\n    if form.accepts(request.vars,session):\n            redirect(URL(\'disp_adv\',vars=dict(uid=d[form.vars.user])))\n    return dict(form=form)\ndef disp_adv():\n    u=request.vars.uid\n    email=db(db.auth_user.id==u).select(db.auth_user.email)\n    email=email[0].email\n    l=db(db.rules.userid==u).select()\n    return dict(l=l,email=email)\n\nresponse._vars=response._caller(addword)\n'
p7
sS'snapshot'
p8
(dp9
S'exception'
p10
(dp11
S'__hash__'
p12
S"<method-wrapper '__hash__' of exceptions.KeyError object>"
p13
sS'__setattr__'
p14
S"<method-wrapper '__setattr__' of exceptions.KeyError object>"
p15
sS'__reduce_ex__'
p16
S'<built-in method __reduce_ex__ of exceptions.KeyError object>'
p17
sS'__getslice__'
p18
S"<method-wrapper '__getslice__' of exceptions.KeyError object>"
p19
sS'__getitem__'
p20
S"<method-wrapper '__getitem__' of exceptions.KeyError object>"
p21
sS'__setstate__'
p22
S'<built-in method __setstate__ of exceptions.KeyError object>'
p23
sS'__reduce__'
p24
S'<built-in method __reduce__ of exceptions.KeyError object>'
p25
sS'__str__'
p26
S"<method-wrapper '__str__' of exceptions.KeyError object>"
p27
sS'__format__'
p28
S'<built-in method __format__ of exceptions.KeyError object>'
p29
sS'__getattribute__'
p30
S"<method-wrapper '__getattribute__' of exceptions.KeyError object>"
p31
sS'__class__'
p32
S"<type 'exceptions.KeyError'>"
p33
sS'__unicode__'
p34
S'<built-in method __unicode__ of exceptions.KeyError object>'
p35
sS'__delattr__'
p36
S"<method-wrapper '__delattr__' of exceptions.KeyError object>"
p37
sS'__subclasshook__'
p38
S'<built-in method __subclasshook__ of type object>'
p39
sS'__repr__'
p40
S"<method-wrapper '__repr__' of exceptions.KeyError object>"
p41
sS'args'
p42
S"(' ',)"
p43
sS'__dict__'
p44
S'{}'
p45
sS'__sizeof__'
p46
S'<built-in method __sizeof__ of exceptions.KeyError object>'
p47
sS'__doc__'
p48
S"'Mapping key not found.'"
p49
sS'__init__'
p50
S"<method-wrapper '__init__' of exceptions.KeyError object>"
p51
sS'__new__'
p52
S'<built-in method __new__ of type object>'
p53
ssS'evalue'
p54
S"' '"
p55
sS'request'
p56
ccopy_reg
_reconstructor
p57
(cgluon.html
BEAUTIFY
p58
c__builtin__
object
p59
NtRp60
(dp61
S'attributes'
p62
(dp63
sS'components'
p64
(lp65
g57
(cgluon.html
TABLE
p66
g59
NtRp67
(dp68
g62
(dp69
S'level'
p70
I5
ssS'parent'
p71
Nsg64
(lp72
g57
(cgluon.html
TR
p73
g59
NtRp74
(dp75
g62
(dp76
sg71
g67
sg64
(lp77
g57
(cgluon.html
TD
p78
g59
NtRp79
(dp80
g62
(dp81
S'_style'
p82
S'font-weight:bold;vertical-align:top'
p83
ssg71
g74
sg64
(lp84
S'ajax'
p85
asbag57
(g78
g59
NtRp86
(dp87
g62
(dp88
S'_valign'
p89
S'top'
p90
ssg71
g74
sg64
(lp91
S':'
asbag57
(g78
g59
NtRp92
(dp93
g62
(dp94
sg71
g74
sg64
(lp95
g57
(g58
g59
NtRp96
(dp97
g62
(dp98
g70
I5
ssg71
g92
sg64
(lp99
S'False'
p100
asbasbasbag57
(g73
g59
NtRp101
(dp102
g62
(dp103
sg71
g67
sg64
(lp104
g57
(g78
g59
NtRp105
(dp106
g62
(dp107
g82
g83
ssg71
g101
sg64
(lp108
S'application'
p109
asbag57
(g78
g59
NtRp110
(dp111
g62
(dp112
g89
g90
ssg71
g101
sg64
(lp113
S':'
asbag57
(g78
g59
NtRp114
(dp115
g62
(dp116
sg71
g101
sg64
(lp117
g57
(g58
g59
NtRp118
(dp119
g62
(dp120
g70
I5
ssg71
g114
sg64
(lp121
S'WSD'
p122
asbasbasbag57
(g73
g59
NtRp123
(dp124
g62
(dp125
sg71
g67
sg64
(lp126
g57
(g78
g59
NtRp127
(dp128
g62
(dp129
g82
g83
ssg71
g123
sg64
(lp130
g42
asbag57
(g78
g59
NtRp131
(dp132
g62
(dp133
g89
g90
ssg71
g123
sg64
(lp134
S':'
asbag57
(g78
g59
NtRp135
(dp136
g62
(dp137
sg71
g123
sg64
(lp138
g57
(g58
g59
NtRp139
(dp140
g62
(dp141
g70
I5
ssg71
g135
sg64
(lp142
g57
(g66
g59
NtRp143
(dp144
g62
(dp145
g70
I4
ssg71
Nsg64
(lp146
sbasbasbasbag57
(g73
g59
NtRp147
(dp148
g62
(dp149
sg71
g67
sg64
(lp150
g57
(g78
g59
NtRp151
(dp152
g62
(dp153
g82
g83
ssg71
g147
sg64
(lp154
S'body'
p155
asbag57
(g78
g59
NtRp156
(dp157
g62
(dp158
g89
g90
ssg71
g147
sg64
(lp159
S':'
asbag57
(g78
g59
NtRp160
(dp161
g62
(dp162
sg71
g147
sg64
(lp163
g57
(g58
g59
NtRp164
(dp165
g62
(dp166
g70
I5
ssg71
g160
sg64
(lp167
S"<open file '<fdopen>', mode 'w+b' at 0x92ad230>"
p168
asbasbasbag57
(g73
g59
NtRp169
(dp170
g62
(dp171
sg71
g67
sg64
(lp172
g57
(g78
g59
NtRp173
(dp174
g62
(dp175
g82
g83
ssg71
g169
sg64
(lp176
S'cid'
p177
asbag57
(g78
g59
NtRp178
(dp179
g62
(dp180
g89
g90
ssg71
g169
sg64
(lp181
S':'
asbag57
(g78
g59
NtRp182
(dp183
g62
(dp184
sg71
g169
sg64
(lp185
g57
(g58
g59
NtRp186
(dp187
g62
(dp188
g70
I5
ssg71
g182
sg64
(lp189
S'None'
p190
asbasbasbag57
(g73
g59
NtRp191
(dp192
g62
(dp193
sg71
g67
sg64
(lp194
g57
(g78
g59
NtRp195
(dp196
g62
(dp197
g82
g83
ssg71
g191
sg64
(lp198
S'client'
p199
asbag57
(g78
g59
NtRp200
(dp201
g62
(dp202
g89
g90
ssg71
g191
sg64
(lp203
S':'
asbag57
(g78
g59
NtRp204
(dp205
g62
(dp206
sg71
g191
sg64
(lp207
g57
(g58
g59
NtRp208
(dp209
g62
(dp210
g70
I5
ssg71
g204
sg64
(lp211
S'127.0.0.1'
p212
asbasbasbag57
(g73
g59
NtRp213
(dp214
g62
(dp215
sg71
g67
sg64
(lp216
g57
(g78
g59
NtRp217
(dp218
g62
(dp219
g82
g83
ssg71
g213
sg64
(lp220
S'controller'
p221
asbag57
(g78
g59
NtRp222
(dp223
g62
(dp224
g89
g90
ssg71
g213
sg64
(lp225
S':'
asbag57
(g78
g59
NtRp226
(dp227
g62
(dp228
sg71
g213
sg64
(lp229
g57
(g58
g59
NtRp230
(dp231
g62
(dp232
g70
I5
ssg71
g226
sg64
(lp233
S'default'
p234
asbasbasbag57
(g73
g59
NtRp235
(dp236
g62
(dp237
sg71
g67
sg64
(lp238
g57
(g78
g59
NtRp239
(dp240
g62
(dp241
g82
g83
ssg71
g235
sg64
(lp242
S'cookies'
p243
asbag57
(g78
g59
NtRp244
(dp245
g62
(dp246
g89
g90
ssg71
g235
sg64
(lp247
S':'
asbag57
(g78
g59
NtRp248
(dp249
g62
(dp250
sg71
g235
sg64
(lp251
g57
(g58
g59
NtRp252
(dp253
g62
(dp254
g70
I5
ssg71
g248
sg64
(lp255
g57
(g66
g59
NtRp256
(dp257
g62
(dp258
g70
I4
ssg71
Nsg64
(lp259
g57
(g73
g59
NtRp260
(dp261
g62
(dp262
sg71
g256
sg64
(lp263
g57
(g78
g59
NtRp264
(dp265
g62
(dp266
g82
g83
ssg71
g260
sg64
(lp267
S'KBD'
p268
asbag57
(g78
g59
NtRp269
(dp270
g62
(dp271
g89
g90
ssg71
g260
sg64
(lp272
S':'
asbag57
(g78
g59
NtRp273
(dp274
g62
(dp275
sg71
g260
sg64
(lp276
g57
(g58
g59
NtRp277
(dp278
g62
(dp279
g70
I4
ssg71
g273
sg64
(lp280
S'0hi-0'
p281
ag57
(g66
g59
NtRp282
(dp283
g62
(dp284
g70
I3
ssg71
Nsg64
(lp285
g57
(g73
g59
NtRp286
(dp287
g62
(dp288
sg71
g282
sg64
(lp289
g57
(g78
g59
NtRp290
(dp291
g62
(dp292
g82
g83
ssg71
g286
sg64
(lp293
S'comment'
p294
asbag57
(g78
g59
NtRp295
(dp296
g62
(dp297
g89
g90
ssg71
g286
sg64
(lp298
S':'
asbag57
(g78
g59
NtRp299
(dp300
g62
(dp301
sg71
g286
sg64
(lp302
g57
(g58
g59
NtRp303
(dp304
g62
(dp305
g70
I3
ssg71
g299
sg64
(lp306
S''
asbasbasbag57
(g73
g59
NtRp307
(dp308
g62
(dp309
sg71
g282
sg64
(lp310
g57
(g78
g59
NtRp311
(dp312
g62
(dp313
g82
g83
ssg71
g307
sg64
(lp314
S'domain'
p315
asbag57
(g78
g59
NtRp316
(dp317
g62
(dp318
g89
g90
ssg71
g307
sg64
(lp319
S':'
asbag57
(g78
g59
NtRp320
(dp321
g62
(dp322
sg71
g307
sg64
(lp323
g57
(g58
g59
NtRp324
(dp325
g62
(dp326
g70
I3
ssg71
g320
sg64
(lp327
S''
asbasbasbag57
(g73
g59
NtRp328
(dp329
g62
(dp330
sg71
g282
sg64
(lp331
g57
(g78
g59
NtRp332
(dp333
g62
(dp334
g82
g83
ssg71
g328
sg64
(lp335
S'expires'
p336
asbag57
(g78
g59
NtRp337
(dp338
g62
(dp339
g89
g90
ssg71
g328
sg64
(lp340
S':'
asbag57
(g78
g59
NtRp341
(dp342
g62
(dp343
sg71
g328
sg64
(lp344
g57
(g58
g59
NtRp345
(dp346
g62
(dp347
g70
I3
ssg71
g341
sg64
(lp348
S''
asbasbasbag57
(g73
g59
NtRp349
(dp350
g62
(dp351
sg71
g282
sg64
(lp352
g57
(g78
g59
NtRp353
(dp354
g62
(dp355
g82
g83
ssg71
g349
sg64
(lp356
S'httponly'
p357
asbag57
(g78
g59
NtRp358
(dp359
g62
(dp360
g89
g90
ssg71
g349
sg64
(lp361
S':'
asbag57
(g78
g59
NtRp362
(dp363
g62
(dp364
sg71
g349
sg64
(lp365
g57
(g58
g59
NtRp366
(dp367
g62
(dp368
g70
I3
ssg71
g362
sg64
(lp369
S''
asbasbasbag57
(g73
g59
NtRp370
(dp371
g62
(dp372
sg71
g282
sg64
(lp373
g57
(g78
g59
NtRp374
(dp375
g62
(dp376
g82
g83
ssg71
g370
sg64
(lp377
S'max-age'
p378
asbag57
(g78
g59
NtRp379
(dp380
g62
(dp381
g89
g90
ssg71
g370
sg64
(lp382
S':'
asbag57
(g78
g59
NtRp383
(dp384
g62
(dp385
sg71
g370
sg64
(lp386
g57
(g58
g59
NtRp387
(dp388
g62
(dp389
g70
I3
ssg71
g383
sg64
(lp390
S''
asbasbasbag57
(g73
g59
NtRp391
(dp392
g62
(dp393
sg71
g282
sg64
(lp394
g57
(g78
g59
NtRp395
(dp396
g62
(dp397
g82
g83
ssg71
g391
sg64
(lp398
S'path'
p399
asbag57
(g78
g59
NtRp400
(dp401
g62
(dp402
g89
g90
ssg71
g391
sg64
(lp403
S':'
asbag57
(g78
g59
NtRp404
(dp405
g62
(dp406
sg71
g391
sg64
(lp407
g57
(g58
g59
NtRp408
(dp409
g62
(dp410
g70
I3
ssg71
g404
sg64
(lp411
S''
asbasbasbag57
(g73
g59
NtRp412
(dp413
g62
(dp414
sg71
g282
sg64
(lp415
g57
(g78
g59
NtRp416
(dp417
g62
(dp418
g82
g83
ssg71
g412
sg64
(lp419
S'secure'
p420
asbag57
(g78
g59
NtRp421
(dp422
g62
(dp423
g89
g90
ssg71
g412
sg64
(lp424
S':'
asbag57
(g78
g59
NtRp425
(dp426
g62
(dp427
sg71
g412
sg64
(lp428
g57
(g58
g59
NtRp429
(dp430
g62
(dp431
g70
I3
ssg71
g425
sg64
(lp432
S''
asbasbasbag57
(g73
g59
NtRp433
(dp434
g62
(dp435
sg71
g282
sg64
(lp436
g57
(g78
g59
NtRp437
(dp438
g62
(dp439
g82
g83
ssg71
g433
sg64
(lp440
S'version'
p441
asbag57
(g78
g59
NtRp442
(dp443
g62
(dp444
g89
g90
ssg71
g433
sg64
(lp445
S':'
asbag57
(g78
g59
NtRp446
(dp447
g62
(dp448
sg71
g433
sg64
(lp449
g57
(g58
g59
NtRp450
(dp451
g62
(dp452
g70
I3
ssg71
g446
sg64
(lp453
S''
asbasbasbasbasbasbasbag57
(g73
g59
NtRp454
(dp455
g62
(dp456
sg71
g256
sg64
(lp457
g57
(g78
g59
NtRp458
(dp459
g62
(dp460
g82
g83
ssg71
g454
sg64
(lp461
S'session_id_admin'
p462
asbag57
(g78
g59
NtRp463
(dp464
g62
(dp465
g89
g90
ssg71
g454
sg64
(lp466
S':'
asbag57
(g78
g59
NtRp467
(dp468
g62
(dp469
sg71
g454
sg64
(lp470
g57
(g58
g59
NtRp471
(dp472
g62
(dp473
g70
I4
ssg71
g467
sg64
(lp474
S'127.0.0.1-76a862a2-9a71-40a1-95b6-27d29da4fe5d'
p475
ag57
(g66
g59
NtRp476
(dp477
g62
(dp478
g70
I3
ssg71
Nsg64
(lp479
g57
(g73
g59
NtRp480
(dp481
g62
(dp482
sg71
g476
sg64
(lp483
g57
(g78
g59
NtRp484
(dp485
g62
(dp486
g82
g83
ssg71
g480
sg64
(lp487
g294
asbag57
(g78
g59
NtRp488
(dp489
g62
(dp490
g89
g90
ssg71
g480
sg64
(lp491
S':'
asbag57
(g78
g59
NtRp492
(dp493
g62
(dp494
sg71
g480
sg64
(lp495
g57
(g58
g59
NtRp496
(dp497
g62
(dp498
g70
I3
ssg71
g492
sg64
(lp499
S''
asbasbasbag57
(g73
g59
NtRp500
(dp501
g62
(dp502
sg71
g476
sg64
(lp503
g57
(g78
g59
NtRp504
(dp505
g62
(dp506
g82
g83
ssg71
g500
sg64
(lp507
g315
asbag57
(g78
g59
NtRp508
(dp509
g62
(dp510
g89
g90
ssg71
g500
sg64
(lp511
S':'
asbag57
(g78
g59
NtRp512
(dp513
g62
(dp514
sg71
g500
sg64
(lp515
g57
(g58
g59
NtRp516
(dp517
g62
(dp518
g70
I3
ssg71
g512
sg64
(lp519
S''
asbasbasbag57
(g73
g59
NtRp520
(dp521
g62
(dp522
sg71
g476
sg64
(lp523
g57
(g78
g59
NtRp524
(dp525
g62
(dp526
g82
g83
ssg71
g520
sg64
(lp527
g336
asbag57
(g78
g59
NtRp528
(dp529
g62
(dp530
g89
g90
ssg71
g520
sg64
(lp531
S':'
asbag57
(g78
g59
NtRp532
(dp533
g62
(dp534
sg71
g520
sg64
(lp535
g57
(g58
g59
NtRp536
(dp537
g62
(dp538
g70
I3
ssg71
g532
sg64
(lp539
S''
asbasbasbag57
(g73
g59
NtRp540
(dp541
g62
(dp542
sg71
g476
sg64
(lp543
g57
(g78
g59
NtRp544
(dp545
g62
(dp546
g82
g83
ssg71
g540
sg64
(lp547
g357
asbag57
(g78
g59
NtRp548
(dp549
g62
(dp550
g89
g90
ssg71
g540
sg64
(lp551
S':'
asbag57
(g78
g59
NtRp552
(dp553
g62
(dp554
sg71
g540
sg64
(lp555
g57
(g58
g59
NtRp556
(dp557
g62
(dp558
g70
I3
ssg71
g552
sg64
(lp559
S''
asbasbasbag57
(g73
g59
NtRp560
(dp561
g62
(dp562
sg71
g476
sg64
(lp563
g57
(g78
g59
NtRp564
(dp565
g62
(dp566
g82
g83
ssg71
g560
sg64
(lp567
g378
asbag57
(g78
g59
NtRp568
(dp569
g62
(dp570
g89
g90
ssg71
g560
sg64
(lp571
S':'
asbag57
(g78
g59
NtRp572
(dp573
g62
(dp574
sg71
g560
sg64
(lp575
g57
(g58
g59
NtRp576
(dp577
g62
(dp578
g70
I3
ssg71
g572
sg64
(lp579
S''
asbasbasbag57
(g73
g59
NtRp580
(dp581
g62
(dp582
sg71
g476
sg64
(lp583
g57
(g78
g59
NtRp584
(dp585
g62
(dp586
g82
g83
ssg71
g580
sg64
(lp587
g399
asbag57
(g78
g59
NtRp588
(dp589
g62
(dp590
g89
g90
ssg71
g580
sg64
(lp591
S':'
asbag57
(g78
g59
NtRp592
(dp593
g62
(dp594
sg71
g580
sg64
(lp595
g57
(g58
g59
NtRp596
(dp597
g62
(dp598
g70
I3
ssg71
g592
sg64
(lp599
S''
asbasbasbag57
(g73
g59
NtRp600
(dp601
g62
(dp602
sg71
g476
sg64
(lp603
g57
(g78
g59
NtRp604
(dp605
g62
(dp606
g82
g83
ssg71
g600
sg64
(lp607
g420
asbag57
(g78
g59
NtRp608
(dp609
g62
(dp610
g89
g90
ssg71
g600
sg64
(lp611
S':'
asbag57
(g78
g59
NtRp612
(dp613
g62
(dp614
sg71
g600
sg64
(lp615
g57
(g58
g59
NtRp616
(dp617
g62
(dp618
g70
I3
ssg71
g612
sg64
(lp619
S''
asbasbasbag57
(g73
g59
NtRp620
(dp621
g62
(dp622
sg71
g476
sg64
(lp623
g57
(g78
g59
NtRp624
(dp625
g62
(dp626
g82
g83
ssg71
g620
sg64
(lp627
g441
asbag57
(g78
g59
NtRp628
(dp629
g62
(dp630
g89
g90
ssg71
g620
sg64
(lp631
S':'
asbag57
(g78
g59
NtRp632
(dp633
g62
(dp634
sg71
g620
sg64
(lp635
g57
(g58
g59
NtRp636
(dp637
g62
(dp638
g70
I3
ssg71
g632
sg64
(lp639
S''
asbasbasbasbasbasbasbag57
(g73
g59
NtRp640
(dp641
g62
(dp642
sg71
g256
sg64
(lp643
g57
(g78
g59
NtRp644
(dp645
g62
(dp646
g82
g83
ssg71
g640
sg64
(lp647
S'session_id_news'
p648
asbag57
(g78
g59
NtRp649
(dp650
g62
(dp651
g89
g90
ssg71
g640
sg64
(lp652
S':'
asbag57
(g78
g59
NtRp653
(dp654
g62
(dp655
sg71
g640
sg64
(lp656
g57
(g58
g59
NtRp657
(dp658
g62
(dp659
g70
I4
ssg71
g653
sg64
(lp660
S'127.0.0.1-4eea093e-3431-4797-bd7a-1e49bcb534a8'
p661
ag57
(g66
g59
NtRp662
(dp663
g62
(dp664
g70
I3
ssg71
Nsg64
(lp665
g57
(g73
g59
NtRp666
(dp667
g62
(dp668
sg71
g662
sg64
(lp669
g57
(g78
g59
NtRp670
(dp671
g62
(dp672
g82
g83
ssg71
g666
sg64
(lp673
g294
asbag57
(g78
g59
NtRp674
(dp675
g62
(dp676
g89
g90
ssg71
g666
sg64
(lp677
S':'
asbag57
(g78
g59
NtRp678
(dp679
g62
(dp680
sg71
g666
sg64
(lp681
g57
(g58
g59
NtRp682
(dp683
g62
(dp684
g70
I3
ssg71
g678
sg64
(lp685
S''
asbasbasbag57
(g73
g59
NtRp686
(dp687
g62
(dp688
sg71
g662
sg64
(lp689
g57
(g78
g59
NtRp690
(dp691
g62
(dp692
g82
g83
ssg71
g686
sg64
(lp693
g315
asbag57
(g78
g59
NtRp694
(dp695
g62
(dp696
g89
g90
ssg71
g686
sg64
(lp697
S':'
asbag57
(g78
g59
NtRp698
(dp699
g62
(dp700
sg71
g686
sg64
(lp701
g57
(g58
g59
NtRp702
(dp703
g62
(dp704
g70
I3
ssg71
g698
sg64
(lp705
S''
asbasbasbag57
(g73
g59
NtRp706
(dp707
g62
(dp708
sg71
g662
sg64
(lp709
g57
(g78
g59
NtRp710
(dp711
g62
(dp712
g82
g83
ssg71
g706
sg64
(lp713
g336
asbag57
(g78
g59
NtRp714
(dp715
g62
(dp716
g89
g90
ssg71
g706
sg64
(lp717
S':'
asbag57
(g78
g59
NtRp718
(dp719
g62
(dp720
sg71
g706
sg64
(lp721
g57
(g58
g59
NtRp722
(dp723
g62
(dp724
g70
I3
ssg71
g718
sg64
(lp725
S''
asbasbasbag57
(g73
g59
NtRp726
(dp727
g62
(dp728
sg71
g662
sg64
(lp729
g57
(g78
g59
NtRp730
(dp731
g62
(dp732
g82
g83
ssg71
g726
sg64
(lp733
g357
asbag57
(g78
g59
NtRp734
(dp735
g62
(dp736
g89
g90
ssg71
g726
sg64
(lp737
S':'
asbag57
(g78
g59
NtRp738
(dp739
g62
(dp740
sg71
g726
sg64
(lp741
g57
(g58
g59
NtRp742
(dp743
g62
(dp744
g70
I3
ssg71
g738
sg64
(lp745
S''
asbasbasbag57
(g73
g59
NtRp746
(dp747
g62
(dp748
sg71
g662
sg64
(lp749
g57
(g78
g59
NtRp750
(dp751
g62
(dp752
g82
g83
ssg71
g746
sg64
(lp753
g378
asbag57
(g78
g59
NtRp754
(dp755
g62
(dp756
g89
g90
ssg71
g746
sg64
(lp757
S':'
asbag57
(g78
g59
NtRp758
(dp759
g62
(dp760
sg71
g746
sg64
(lp761
g57
(g58
g59
NtRp762
(dp763
g62
(dp764
g70
I3
ssg71
g758
sg64
(lp765
S''
asbasbasbag57
(g73
g59
NtRp766
(dp767
g62
(dp768
sg71
g662
sg64
(lp769
g57
(g78
g59
NtRp770
(dp771
g62
(dp772
g82
g83
ssg71
g766
sg64
(lp773
g399
asbag57
(g78
g59
NtRp774
(dp775
g62
(dp776
g89
g90
ssg71
g766
sg64
(lp777
S':'
asbag57
(g78
g59
NtRp778
(dp779
g62
(dp780
sg71
g766
sg64
(lp781
g57
(g58
g59
NtRp782
(dp783
g62
(dp784
g70
I3
ssg71
g778
sg64
(lp785
S''
asbasbasbag57
(g73
g59
NtRp786
(dp787
g62
(dp788
sg71
g662
sg64
(lp789
g57
(g78
g59
NtRp790
(dp791
g62
(dp792
g82
g83
ssg71
g786
sg64
(lp793
g420
asbag57
(g78
g59
NtRp794
(dp795
g62
(dp796
g89
g90
ssg71
g786
sg64
(lp797
S':'
asbag57
(g78
g59
NtRp798
(dp799
g62
(dp800
sg71
g786
sg64
(lp801
g57
(g58
g59
NtRp802
(dp803
g62
(dp804
g70
I3
ssg71
g798
sg64
(lp805
S''
asbasbasbag57
(g73
g59
NtRp806
(dp807
g62
(dp808
sg71
g662
sg64
(lp809
g57
(g78
g59
NtRp810
(dp811
g62
(dp812
g82
g83
ssg71
g806
sg64
(lp813
g441
asbag57
(g78
g59
NtRp814
(dp815
g62
(dp816
g89
g90
ssg71
g806
sg64
(lp817
S':'
asbag57
(g78
g59
NtRp818
(dp819
g62
(dp820
sg71
g806
sg64
(lp821
g57
(g58
g59
NtRp822
(dp823
g62
(dp824
g70
I3
ssg71
g818
sg64
(lp825
S''
asbasbasbasbasbasbasbag57
(g73
g59
NtRp826
(dp827
g62
(dp828
sg71
g256
sg64
(lp829
g57
(g78
g59
NtRp830
(dp831
g62
(dp832
g82
g83
ssg71
g826
sg64
(lp833
S'session_id_welcome'
p834
asbag57
(g78
g59
NtRp835
(dp836
g62
(dp837
g89
g90
ssg71
g826
sg64
(lp838
S':'
asbag57
(g78
g59
NtRp839
(dp840
g62
(dp841
sg71
g826
sg64
(lp842
g57
(g58
g59
NtRp843
(dp844
g62
(dp845
g70
I4
ssg71
g839
sg64
(lp846
S'127.0.0.1-4ab9dacb-7270-459d-aef4-f28bb3d059e1'
p847
ag57
(g66
g59
NtRp848
(dp849
g62
(dp850
g70
I3
ssg71
Nsg64
(lp851
g57
(g73
g59
NtRp852
(dp853
g62
(dp854
sg71
g848
sg64
(lp855
g57
(g78
g59
NtRp856
(dp857
g62
(dp858
g82
g83
ssg71
g852
sg64
(lp859
g294
asbag57
(g78
g59
NtRp860
(dp861
g62
(dp862
g89
g90
ssg71
g852
sg64
(lp863
S':'
asbag57
(g78
g59
NtRp864
(dp865
g62
(dp866
sg71
g852
sg64
(lp867
g57
(g58
g59
NtRp868
(dp869
g62
(dp870
g70
I3
ssg71
g864
sg64
(lp871
S''
asbasbasbag57
(g73
g59
NtRp872
(dp873
g62
(dp874
sg71
g848
sg64
(lp875
g57
(g78
g59
NtRp876
(dp877
g62
(dp878
g82
g83
ssg71
g872
sg64
(lp879
g315
asbag57
(g78
g59
NtRp880
(dp881
g62
(dp882
g89
g90
ssg71
g872
sg64
(lp883
S':'
asbag57
(g78
g59
NtRp884
(dp885
g62
(dp886
sg71
g872
sg64
(lp887
g57
(g58
g59
NtRp888
(dp889
g62
(dp890
g70
I3
ssg71
g884
sg64
(lp891
S''
asbasbasbag57
(g73
g59
NtRp892
(dp893
g62
(dp894
sg71
g848
sg64
(lp895
g57
(g78
g59
NtRp896
(dp897
g62
(dp898
g82
g83
ssg71
g892
sg64
(lp899
g336
asbag57
(g78
g59
NtRp900
(dp901
g62
(dp902
g89
g90
ssg71
g892
sg64
(lp903
S':'
asbag57
(g78
g59
NtRp904
(dp905
g62
(dp906
sg71
g892
sg64
(lp907
g57
(g58
g59
NtRp908
(dp909
g62
(dp910
g70
I3
ssg71
g904
sg64
(lp911
S''
asbasbasbag57
(g73
g59
NtRp912
(dp913
g62
(dp914
sg71
g848
sg64
(lp915
g57
(g78
g59
NtRp916
(dp917
g62
(dp918
g82
g83
ssg71
g912
sg64
(lp919
g357
asbag57
(g78
g59
NtRp920
(dp921
g62
(dp922
g89
g90
ssg71
g912
sg64
(lp923
S':'
asbag57
(g78
g59
NtRp924
(dp925
g62
(dp926
sg71
g912
sg64
(lp927
g57
(g58
g59
NtRp928
(dp929
g62
(dp930
g70
I3
ssg71
g924
sg64
(lp931
S''
asbasbasbag57
(g73
g59
NtRp932
(dp933
g62
(dp934
sg71
g848
sg64
(lp935
g57
(g78
g59
NtRp936
(dp937
g62
(dp938
g82
g83
ssg71
g932
sg64
(lp939
g378
asbag57
(g78
g59
NtRp940
(dp941
g62
(dp942
g89
g90
ssg71
g932
sg64
(lp943
S':'
asbag57
(g78
g59
NtRp944
(dp945
g62
(dp946
sg71
g932
sg64
(lp947
g57
(g58
g59
NtRp948
(dp949
g62
(dp950
g70
I3
ssg71
g944
sg64
(lp951
S''
asbasbasbag57
(g73
g59
NtRp952
(dp953
g62
(dp954
sg71
g848
sg64
(lp955
g57
(g78
g59
NtRp956
(dp957
g62
(dp958
g82
g83
ssg71
g952
sg64
(lp959
g399
asbag57
(g78
g59
NtRp960
(dp961
g62
(dp962
g89
g90
ssg71
g952
sg64
(lp963
S':'
asbag57
(g78
g59
NtRp964
(dp965
g62
(dp966
sg71
g952
sg64
(lp967
g57
(g58
g59
NtRp968
(dp969
g62
(dp970
g70
I3
ssg71
g964
sg64
(lp971
S''
asbasbasbag57
(g73
g59
NtRp972
(dp973
g62
(dp974
sg71
g848
sg64
(lp975
g57
(g78
g59
NtRp976
(dp977
g62
(dp978
g82
g83
ssg71
g972
sg64
(lp979
g420
asbag57
(g78
g59
NtRp980
(dp981
g62
(dp982
g89
g90
ssg71
g972
sg64
(lp983
S':'
asbag57
(g78
g59
NtRp984
(dp985
g62
(dp986
sg71
g972
sg64
(lp987
g57
(g58
g59
NtRp988
(dp989
g62
(dp990
g70
I3
ssg71
g984
sg64
(lp991
S''
asbasbasbag57
(g73
g59
NtRp992
(dp993
g62
(dp994
sg71
g848
sg64
(lp995
g57
(g78
g59
NtRp996
(dp997
g62
(dp998
g82
g83
ssg71
g992
sg64
(lp999
g441
asbag57
(g78
g59
NtRp1000
(dp1001
g62
(dp1002
g89
g90
ssg71
g992
sg64
(lp1003
S':'
asbag57
(g78
g59
NtRp1004
(dp1005
g62
(dp1006
sg71
g992
sg64
(lp1007
g57
(g58
g59
NtRp1008
(dp1009
g62
(dp1010
g70
I3
ssg71
g1004
sg64
(lp1011
S''
asbasbasbasbasbasbasbag57
(g73
g59
NtRp1012
(dp1013
g62
(dp1014
sg71
g256
sg64
(lp1015
g57
(g78
g59
NtRp1016
(dp1017
g62
(dp1018
g82
g83
ssg71
g1012
sg64
(lp1019
S'session_id_wsd'
p1020
asbag57
(g78
g59
NtRp1021
(dp1022
g62
(dp1023
g89
g90
ssg71
g1012
sg64
(lp1024
S':'
asbag57
(g78
g59
NtRp1025
(dp1026
g62
(dp1027
sg71
g1012
sg64
(lp1028
g57
(g58
g59
NtRp1029
(dp1030
g62
(dp1031
g70
I4
ssg71
g1025
sg64
(lp1032
S'127.0.0.1-d76d2f66-a702-4d08-8b16-65a16f46815e'
p1033
ag57
(g66
g59
NtRp1034
(dp1035
g62
(dp1036
g70
I3
ssg71
Nsg64
(lp1037
g57
(g73
g59
NtRp1038
(dp1039
g62
(dp1040
sg71
g1034
sg64
(lp1041
g57
(g78
g59
NtRp1042
(dp1043
g62
(dp1044
g82
g83
ssg71
g1038
sg64
(lp1045
g294
asbag57
(g78
g59
NtRp1046
(dp1047
g62
(dp1048
g89
g90
ssg71
g1038
sg64
(lp1049
S':'
asbag57
(g78
g59
NtRp1050
(dp1051
g62
(dp1052
sg71
g1038
sg64
(lp1053
g57
(g58
g59
NtRp1054
(dp1055
g62
(dp1056
g70
I3
ssg71
g1050
sg64
(lp1057
S''
asbasbasbag57
(g73
g59
NtRp1058
(dp1059
g62
(dp1060
sg71
g1034
sg64
(lp1061
g57
(g78
g59
NtRp1062
(dp1063
g62
(dp1064
g82
g83
ssg71
g1058
sg64
(lp1065
g315
asbag57
(g78
g59
NtRp1066
(dp1067
g62
(dp1068
g89
g90
ssg71
g1058
sg64
(lp1069
S':'
asbag57
(g78
g59
NtRp1070
(dp1071
g62
(dp1072
sg71
g1058
sg64
(lp1073
g57
(g58
g59
NtRp1074
(dp1075
g62
(dp1076
g70
I3
ssg71
g1070
sg64
(lp1077
S''
asbasbasbag57
(g73
g59
NtRp1078
(dp1079
g62
(dp1080
sg71
g1034
sg64
(lp1081
g57
(g78
g59
NtRp1082
(dp1083
g62
(dp1084
g82
g83
ssg71
g1078
sg64
(lp1085
g336
asbag57
(g78
g59
NtRp1086
(dp1087
g62
(dp1088
g89
g90
ssg71
g1078
sg64
(lp1089
S':'
asbag57
(g78
g59
NtRp1090
(dp1091
g62
(dp1092
sg71
g1078
sg64
(lp1093
g57
(g58
g59
NtRp1094
(dp1095
g62
(dp1096
g70
I3
ssg71
g1090
sg64
(lp1097
S''
asbasbasbag57
(g73
g59
NtRp1098
(dp1099
g62
(dp1100
sg71
g1034
sg64
(lp1101
g57
(g78
g59
NtRp1102
(dp1103
g62
(dp1104
g82
g83
ssg71
g1098
sg64
(lp1105
g357
asbag57
(g78
g59
NtRp1106
(dp1107
g62
(dp1108
g89
g90
ssg71
g1098
sg64
(lp1109
S':'
asbag57
(g78
g59
NtRp1110
(dp1111
g62
(dp1112
sg71
g1098
sg64
(lp1113
g57
(g58
g59
NtRp1114
(dp1115
g62
(dp1116
g70
I3
ssg71
g1110
sg64
(lp1117
S''
asbasbasbag57
(g73
g59
NtRp1118
(dp1119
g62
(dp1120
sg71
g1034
sg64
(lp1121
g57
(g78
g59
NtRp1122
(dp1123
g62
(dp1124
g82
g83
ssg71
g1118
sg64
(lp1125
g378
asbag57
(g78
g59
NtRp1126
(dp1127
g62
(dp1128
g89
g90
ssg71
g1118
sg64
(lp1129
S':'
asbag57
(g78
g59
NtRp1130
(dp1131
g62
(dp1132
sg71
g1118
sg64
(lp1133
g57
(g58
g59
NtRp1134
(dp1135
g62
(dp1136
g70
I3
ssg71
g1130
sg64
(lp1137
S''
asbasbasbag57
(g73
g59
NtRp1138
(dp1139
g62
(dp1140
sg71
g1034
sg64
(lp1141
g57
(g78
g59
NtRp1142
(dp1143
g62
(dp1144
g82
g83
ssg71
g1138
sg64
(lp1145
g399
asbag57
(g78
g59
NtRp1146
(dp1147
g62
(dp1148
g89
g90
ssg71
g1138
sg64
(lp1149
S':'
asbag57
(g78
g59
NtRp1150
(dp1151
g62
(dp1152
sg71
g1138
sg64
(lp1153
g57
(g58
g59
NtRp1154
(dp1155
g62
(dp1156
g70
I3
ssg71
g1150
sg64
(lp1157
S''
asbasbasbag57
(g73
g59
NtRp1158
(dp1159
g62
(dp1160
sg71
g1034
sg64
(lp1161
g57
(g78
g59
NtRp1162
(dp1163
g62
(dp1164
g82
g83
ssg71
g1158
sg64
(lp1165
g420
asbag57
(g78
g59
NtRp1166
(dp1167
g62
(dp1168
g89
g90
ssg71
g1158
sg64
(lp1169
S':'
asbag57
(g78
g59
NtRp1170
(dp1171
g62
(dp1172
sg71
g1158
sg64
(lp1173
g57
(g58
g59
NtRp1174
(dp1175
g62
(dp1176
g70
I3
ssg71
g1170
sg64
(lp1177
S''
asbasbasbag57
(g73
g59
NtRp1178
(dp1179
g62
(dp1180
sg71
g1034
sg64
(lp1181
g57
(g78
g59
NtRp1182
(dp1183
g62
(dp1184
g82
g83
ssg71
g1178
sg64
(lp1185
g441
asbag57
(g78
g59
NtRp1186
(dp1187
g62
(dp1188
g89
g90
ssg71
g1178
sg64
(lp1189
S':'
asbag57
(g78
g59
NtRp1190
(dp1191
g62
(dp1192
sg71
g1178
sg64
(lp1193
g57
(g58
g59
NtRp1194
(dp1195
g62
(dp1196
g70
I3
ssg71
g1190
sg64
(lp1197
S''
asbasbasbasbasbasbasbag57
(g73
g59
NtRp1198
(dp1199
g62
(dp1200
sg71
g256
sg64
(lp1201
g57
(g78
g59
NtRp1202
(dp1203
g62
(dp1204
g82
g83
ssg71
g1198
sg64
(lp1205
S'session_id_wsd_tool'
p1206
asbag57
(g78
g59
NtRp1207
(dp1208
g62
(dp1209
g89
g90
ssg71
g1198
sg64
(lp1210
S':'
asbag57
(g78
g59
NtRp1211
(dp1212
g62
(dp1213
sg71
g1198
sg64
(lp1214
g57
(g58
g59
NtRp1215
(dp1216
g62
(dp1217
g70
I4
ssg71
g1211
sg64
(lp1218
S'127.0.0.1-371771bb-b080-4b4c-a32f-73741752bafe'
p1219
ag57
(g66
g59
NtRp1220
(dp1221
g62
(dp1222
g70
I3
ssg71
Nsg64
(lp1223
g57
(g73
g59
NtRp1224
(dp1225
g62
(dp1226
sg71
g1220
sg64
(lp1227
g57
(g78
g59
NtRp1228
(dp1229
g62
(dp1230
g82
g83
ssg71
g1224
sg64
(lp1231
g294
asbag57
(g78
g59
NtRp1232
(dp1233
g62
(dp1234
g89
g90
ssg71
g1224
sg64
(lp1235
S':'
asbag57
(g78
g59
NtRp1236
(dp1237
g62
(dp1238
sg71
g1224
sg64
(lp1239
g57
(g58
g59
NtRp1240
(dp1241
g62
(dp1242
g70
I3
ssg71
g1236
sg64
(lp1243
S''
asbasbasbag57
(g73
g59
NtRp1244
(dp1245
g62
(dp1246
sg71
g1220
sg64
(lp1247
g57
(g78
g59
NtRp1248
(dp1249
g62
(dp1250
g82
g83
ssg71
g1244
sg64
(lp1251
g315
asbag57
(g78
g59
NtRp1252
(dp1253
g62
(dp1254
g89
g90
ssg71
g1244
sg64
(lp1255
S':'
asbag57
(g78
g59
NtRp1256
(dp1257
g62
(dp1258
sg71
g1244
sg64
(lp1259
g57
(g58
g59
NtRp1260
(dp1261
g62
(dp1262
g70
I3
ssg71
g1256
sg64
(lp1263
S''
asbasbasbag57
(g73
g59
NtRp1264
(dp1265
g62
(dp1266
sg71
g1220
sg64
(lp1267
g57
(g78
g59
NtRp1268
(dp1269
g62
(dp1270
g82
g83
ssg71
g1264
sg64
(lp1271
g336
asbag57
(g78
g59
NtRp1272
(dp1273
g62
(dp1274
g89
g90
ssg71
g1264
sg64
(lp1275
S':'
asbag57
(g78
g59
NtRp1276
(dp1277
g62
(dp1278
sg71
g1264
sg64
(lp1279
g57
(g58
g59
NtRp1280
(dp1281
g62
(dp1282
g70
I3
ssg71
g1276
sg64
(lp1283
S''
asbasbasbag57
(g73
g59
NtRp1284
(dp1285
g62
(dp1286
sg71
g1220
sg64
(lp1287
g57
(g78
g59
NtRp1288
(dp1289
g62
(dp1290
g82
g83
ssg71
g1284
sg64
(lp1291
g357
asbag57
(g78
g59
NtRp1292
(dp1293
g62
(dp1294
g89
g90
ssg71
g1284
sg64
(lp1295
S':'
asbag57
(g78
g59
NtRp1296
(dp1297
g62
(dp1298
sg71
g1284
sg64
(lp1299
g57
(g58
g59
NtRp1300
(dp1301
g62
(dp1302
g70
I3
ssg71
g1296
sg64
(lp1303
S''
asbasbasbag57
(g73
g59
NtRp1304
(dp1305
g62
(dp1306
sg71
g1220
sg64
(lp1307
g57
(g78
g59
NtRp1308
(dp1309
g62
(dp1310
g82
g83
ssg71
g1304
sg64
(lp1311
g378
asbag57
(g78
g59
NtRp1312
(dp1313
g62
(dp1314
g89
g90
ssg71
g1304
sg64
(lp1315
S':'
asbag57
(g78
g59
NtRp1316
(dp1317
g62
(dp1318
sg71
g1304
sg64
(lp1319
g57
(g58
g59
NtRp1320
(dp1321
g62
(dp1322
g70
I3
ssg71
g1316
sg64
(lp1323
S''
asbasbasbag57
(g73
g59
NtRp1324
(dp1325
g62
(dp1326
sg71
g1220
sg64
(lp1327
g57
(g78
g59
NtRp1328
(dp1329
g62
(dp1330
g82
g83
ssg71
g1324
sg64
(lp1331
g399
asbag57
(g78
g59
NtRp1332
(dp1333
g62
(dp1334
g89
g90
ssg71
g1324
sg64
(lp1335
S':'
asbag57
(g78
g59
NtRp1336
(dp1337
g62
(dp1338
sg71
g1324
sg64
(lp1339
g57
(g58
g59
NtRp1340
(dp1341
g62
(dp1342
g70
I3
ssg71
g1336
sg64
(lp1343
S''
asbasbasbag57
(g73
g59
NtRp1344
(dp1345
g62
(dp1346
sg71
g1220
sg64
(lp1347
g57
(g78
g59
NtRp1348
(dp1349
g62
(dp1350
g82
g83
ssg71
g1344
sg64
(lp1351
g420
asbag57
(g78
g59
NtRp1352
(dp1353
g62
(dp1354
g89
g90
ssg71
g1344
sg64
(lp1355
S':'
asbag57
(g78
g59
NtRp1356
(dp1357
g62
(dp1358
sg71
g1344
sg64
(lp1359
g57
(g58
g59
NtRp1360
(dp1361
g62
(dp1362
g70
I3
ssg71
g1356
sg64
(lp1363
S''
asbasbasbag57
(g73
g59
NtRp1364
(dp1365
g62
(dp1366
sg71
g1220
sg64
(lp1367
g57
(g78
g59
NtRp1368
(dp1369
g62
(dp1370
g82
g83
ssg71
g1364
sg64
(lp1371
g441
asbag57
(g78
g59
NtRp1372
(dp1373
g62
(dp1374
g89
g90
ssg71
g1364
sg64
(lp1375
S':'
asbag57
(g78
g59
NtRp1376
(dp1377
g62
(dp1378
sg71
g1364
sg64
(lp1379
g57
(g58
g59
NtRp1380
(dp1381
g62
(dp1382
g70
I3
ssg71
g1376
sg64
(lp1383
S''
asbasbasbasbasbasbasbasbasbasbasbag57
(g73
g59
NtRp1384
(dp1385
g62
(dp1386
sg71
g67
sg64
(lp1387
g57
(g78
g59
NtRp1388
(dp1389
g62
(dp1390
g82
g83
ssg71
g1384
sg64
(lp1391
S'env'
p1392
asbag57
(g78
g59
NtRp1393
(dp1394
g62
(dp1395
g89
g90
ssg71
g1384
sg64
(lp1396
S':'
asbag57
(g78
g59
NtRp1397
(dp1398
g62
(dp1399
sg71
g1384
sg64
(lp1400
g57
(g58
g59
NtRp1401
(dp1402
g62
(dp1403
g70
I5
ssg71
g1397
sg64
(lp1404
g57
(g66
g59
NtRp1405
(dp1406
g62
(dp1407
g70
I4
ssg71
Nsg64
(lp1408
g57
(g73
g59
NtRp1409
(dp1410
g62
(dp1411
sg71
g1405
sg64
(lp1412
g57
(g78
g59
NtRp1413
(dp1414
g62
(dp1415
g82
g83
ssg71
g1409
sg64
(lp1416
S'app_folders'
p1417
asbag57
(g78
g59
NtRp1418
(dp1419
g62
(dp1420
g89
g90
ssg71
g1409
sg64
(lp1421
S':'
asbag57
(g78
g59
NtRp1422
(dp1423
g62
(dp1424
sg71
g1409
sg64
(lp1425
g57
(g58
g59
NtRp1426
(dp1427
g62
(dp1428
g70
I4
ssg71
g1422
sg64
(lp1429
S"set(['/home/nazrul/web2py/applications/WSD/', '/home/nazrul/web2py/applications/welcome/', '/home/nazrul/web2py/applications/WSD_Tool/', '/home/nazrul/web2py/applications/news/', '/home/nazrul/web2py/applications/admin/'])"
p1430
asbasbasbag57
(g73
g59
NtRp1431
(dp1432
g62
(dp1433
sg71
g1405
sg64
(lp1434
g57
(g78
g59
NtRp1435
(dp1436
g62
(dp1437
g82
g83
ssg71
g1431
sg64
(lp1438
S'applications_parent'
p1439
asbag57
(g78
g59
NtRp1440
(dp1441
g62
(dp1442
g89
g90
ssg71
g1431
sg64
(lp1443
S':'
asbag57
(g78
g59
NtRp1444
(dp1445
g62
(dp1446
sg71
g1431
sg64
(lp1447
g57
(g58
g59
NtRp1448
(dp1449
g62
(dp1450
g70
I4
ssg71
g1444
sg64
(lp1451
S'/home/nazrul/web2py'
p1452
asbasbasbag57
(g73
g59
NtRp1453
(dp1454
g62
(dp1455
sg71
g1405
sg64
(lp1456
g57
(g78
g59
NtRp1457
(dp1458
g62
(dp1459
g82
g83
ssg71
g1453
sg64
(lp1460
S'cmd_args'
p1461
asbag57
(g78
g59
NtRp1462
(dp1463
g62
(dp1464
g89
g90
ssg71
g1453
sg64
(lp1465
S':'
asbag57
(g78
g59
NtRp1466
(dp1467
g62
(dp1468
sg71
g1453
sg64
(lp1469
g57
(g58
g59
NtRp1470
(dp1471
g62
(dp1472
g70
I4
ssg71
g1466
sg64
(lp1473
g57
(g66
g59
NtRp1474
(dp1475
g62
(dp1476
g70
I3
ssg71
Nsg64
(lp1477
sbasbasbasbag57
(g73
g59
NtRp1478
(dp1479
g62
(dp1480
sg71
g1405
sg64
(lp1481
g57
(g78
g59
NtRp1482
(dp1483
g62
(dp1484
g82
g83
ssg71
g1478
sg64
(lp1485
S'cmd_options'
p1486
asbag57
(g78
g59
NtRp1487
(dp1488
g62
(dp1489
g89
g90
ssg71
g1478
sg64
(lp1490
S':'
asbag57
(g78
g59
NtRp1491
(dp1492
g62
(dp1493
sg71
g1478
sg64
(lp1494
g57
(g58
g59
NtRp1495
(dp1496
g62
(dp1497
g70
I4
ssg71
g1491
sg64
(lp1498
S"<Values at 0x8e4a9cc: {'verbose': False, 'ip': '127.0.0.1', 'with_scheduler': False, 'ips': [], 'shutdown_timeout': 5, 'taskbar': False, 'port': 8000, 'maxthreads': None, 'softcron': False, 'server_name': 'nazrul-Compaq-Presario-CQ40-Notebook-PC', 'bpython': False, 'nogui': False, 'pid_filename': 'httpserver.pid', 'extcron': False, 'runcron': False, 'run_system_tests': False, 'test': None, 'folder': '/home/nazrul/web2py', 'config': '', 'import_models': False, 'winservice': '', 'shell': None, 'run': '', 'log_filename': 'httpserver.log', 'debuglevel': 30, 'args': [''], 'socket_timeout': 5, 'ssl_ca_certificate': None, 'scheduler': None, 'profiler_filename': None, 'ssl_private_key': '', 'scheduler_groups': None, 'password': '<ask>', 'request_queue_size': 5, 'ssl_certificate': '', 'cronjob': False, 'numthreads': None, 'quiet': False, 'interfaces': None, 'minthreads': None, 'timeout': 10, 'plain': False, 'nobanner': False}>"
p1499
asbasbasbag57
(g73
g59
NtRp1500
(dp1501
g62
(dp1502
sg71
g1405
sg64
(lp1503
g57
(g78
g59
NtRp1504
(dp1505
g62
(dp1506
g82
g83
ssg71
g1500
sg64
(lp1507
S'content_length'
p1508
asbag57
(g78
g59
NtRp1509
(dp1510
g62
(dp1511
g89
g90
ssg71
g1500
sg64
(lp1512
S':'
asbag57
(g78
g59
NtRp1513
(dp1514
g62
(dp1515
sg71
g1500
sg64
(lp1516
g57
(g58
g59
NtRp1517
(dp1518
g62
(dp1519
g70
I4
ssg71
g1513
sg64
(lp1520
S'672'
p1521
asbasbasbag57
(g73
g59
NtRp1522
(dp1523
g62
(dp1524
sg71
g1405
sg64
(lp1525
g57
(g78
g59
NtRp1526
(dp1527
g62
(dp1528
g82
g83
ssg71
g1522
sg64
(lp1529
S'content_type'
p1530
asbag57
(g78
g59
NtRp1531
(dp1532
g62
(dp1533
g89
g90
ssg71
g1522
sg64
(lp1534
S':'
asbag57
(g78
g59
NtRp1535
(dp1536
g62
(dp1537
sg71
g1522
sg64
(lp1538
g57
(g58
g59
NtRp1539
(dp1540
g62
(dp1541
g70
I4
ssg71
g1535
sg64
(lp1542
S'application/x-www-form-urlencoded'
p1543
asbasbasbag57
(g73
g59
NtRp1544
(dp1545
g62
(dp1546
sg71
g1405
sg64
(lp1547
g57
(g78
g59
NtRp1548
(dp1549
g62
(dp1550
g82
g83
ssg71
g1544
sg64
(lp1551
S'db_sessions'
p1552
asbag57
(g78
g59
NtRp1553
(dp1554
g62
(dp1555
g89
g90
ssg71
g1544
sg64
(lp1556
S':'
asbag57
(g78
g59
NtRp1557
(dp1558
g62
(dp1559
sg71
g1544
sg64
(lp1560
g57
(g58
g59
NtRp1561
(dp1562
g62
(dp1563
g70
I4
ssg71
g1557
sg64
(lp1564
S'set([])'
p1565
asbasbasbag57
(g73
g59
NtRp1566
(dp1567
g62
(dp1568
sg71
g1405
sg64
(lp1569
g57
(g78
g59
NtRp1570
(dp1571
g62
(dp1572
g82
g83
ssg71
g1566
sg64
(lp1573
S'debugging'
p1574
asbag57
(g78
g59
NtRp1575
(dp1576
g62
(dp1577
g89
g90
ssg71
g1566
sg64
(lp1578
S':'
asbag57
(g78
g59
NtRp1579
(dp1580
g62
(dp1581
sg71
g1566
sg64
(lp1582
g57
(g58
g59
NtRp1583
(dp1584
g62
(dp1585
g70
I4
ssg71
g1579
sg64
(lp1586
g100
asbasbasbag57
(g73
g59
NtRp1587
(dp1588
g62
(dp1589
sg71
g1405
sg64
(lp1590
g57
(g78
g59
NtRp1591
(dp1592
g62
(dp1593
g82
g83
ssg71
g1587
sg64
(lp1594
S'gluon_parent'
p1595
asbag57
(g78
g59
NtRp1596
(dp1597
g62
(dp1598
g89
g90
ssg71
g1587
sg64
(lp1599
S':'
asbag57
(g78
g59
NtRp1600
(dp1601
g62
(dp1602
sg71
g1587
sg64
(lp1603
g57
(g58
g59
NtRp1604
(dp1605
g62
(dp1606
g70
I4
ssg71
g1600
sg64
(lp1607
S'/home/nazrul/web2py'
p1608
asbasbasbag57
(g73
g59
NtRp1609
(dp1610
g62
(dp1611
sg71
g1405
sg64
(lp1612
g57
(g78
g59
NtRp1613
(dp1614
g62
(dp1615
g82
g83
ssg71
g1609
sg64
(lp1616
S'http_accept'
p1617
asbag57
(g78
g59
NtRp1618
(dp1619
g62
(dp1620
g89
g90
ssg71
g1609
sg64
(lp1621
S':'
asbag57
(g78
g59
NtRp1622
(dp1623
g62
(dp1624
sg71
g1609
sg64
(lp1625
g57
(g58
g59
NtRp1626
(dp1627
g62
(dp1628
g70
I4
ssg71
g1622
sg64
(lp1629
S'text/html,application/xhtml+xml,application/xml;q=0.9,*/*;q=0.8'
p1630
asbasbasbag57
(g73
g59
NtRp1631
(dp1632
g62
(dp1633
sg71
g1405
sg64
(lp1634
g57
(g78
g59
NtRp1635
(dp1636
g62
(dp1637
g82
g83
ssg71
g1631
sg64
(lp1638
S'http_accept_encoding'
p1639
asbag57
(g78
g59
NtRp1640
(dp1641
g62
(dp1642
g89
g90
ssg71
g1631
sg64
(lp1643
S':'
asbag57
(g78
g59
NtRp1644
(dp1645
g62
(dp1646
sg71
g1631
sg64
(lp1647
g57
(g58
g59
NtRp1648
(dp1649
g62
(dp1650
g70
I4
ssg71
g1644
sg64
(lp1651
S'gzip, deflate'
p1652
asbasbasbag57
(g73
g59
NtRp1653
(dp1654
g62
(dp1655
sg71
g1405
sg64
(lp1656
g57
(g78
g59
NtRp1657
(dp1658
g62
(dp1659
g82
g83
ssg71
g1653
sg64
(lp1660
S'http_accept_language'
p1661
asbag57
(g78
g59
NtRp1662
(dp1663
g62
(dp1664
g89
g90
ssg71
g1653
sg64
(lp1665
S':'
asbag57
(g78
g59
NtRp1666
(dp1667
g62
(dp1668
sg71
g1653
sg64
(lp1669
g57
(g58
g59
NtRp1670
(dp1671
g62
(dp1672
g70
I4
ssg71
g1666
sg64
(lp1673
S'en-US,en;q=0.5'
p1674
asbasbasbag57
(g73
g59
NtRp1675
(dp1676
g62
(dp1677
sg71
g1405
sg64
(lp1678
g57
(g78
g59
NtRp1679
(dp1680
g62
(dp1681
g82
g83
ssg71
g1675
sg64
(lp1682
S'http_connection'
p1683
asbag57
(g78
g59
NtRp1684
(dp1685
g62
(dp1686
g89
g90
ssg71
g1675
sg64
(lp1687
S':'
asbag57
(g78
g59
NtRp1688
(dp1689
g62
(dp1690
sg71
g1675
sg64
(lp1691
g57
(g58
g59
NtRp1692
(dp1693
g62
(dp1694
g70
I4
ssg71
g1688
sg64
(lp1695
S'keep-alive'
p1696
asbasbasbag57
(g73
g59
NtRp1697
(dp1698
g62
(dp1699
sg71
g1405
sg64
(lp1700
g57
(g78
g59
NtRp1701
(dp1702
g62
(dp1703
g82
g83
ssg71
g1697
sg64
(lp1704
S'http_content_length'
p1705
asbag57
(g78
g59
NtRp1706
(dp1707
g62
(dp1708
g89
g90
ssg71
g1697
sg64
(lp1709
S':'
asbag57
(g78
g59
NtRp1710
(dp1711
g62
(dp1712
sg71
g1697
sg64
(lp1713
g57
(g58
g59
NtRp1714
(dp1715
g62
(dp1716
g70
I4
ssg71
g1710
sg64
(lp1717
g1521
asbasbasbag57
(g73
g59
NtRp1718
(dp1719
g62
(dp1720
sg71
g1405
sg64
(lp1721
g57
(g78
g59
NtRp1722
(dp1723
g62
(dp1724
g82
g83
ssg71
g1718
sg64
(lp1725
S'http_content_type'
p1726
asbag57
(g78
g59
NtRp1727
(dp1728
g62
(dp1729
g89
g90
ssg71
g1718
sg64
(lp1730
S':'
asbag57
(g78
g59
NtRp1731
(dp1732
g62
(dp1733
sg71
g1718
sg64
(lp1734
g57
(g58
g59
NtRp1735
(dp1736
g62
(dp1737
g70
I4
ssg71
g1731
sg64
(lp1738
g1543
asbasbasbag57
(g73
g59
NtRp1739
(dp1740
g62
(dp1741
sg71
g1405
sg64
(lp1742
g57
(g78
g59
NtRp1743
(dp1744
g62
(dp1745
g82
g83
ssg71
g1739
sg64
(lp1746
S'http_cookie'
p1747
asbag57
(g78
g59
NtRp1748
(dp1749
g62
(dp1750
g89
g90
ssg71
g1739
sg64
(lp1751
S':'
asbag57
(g78
g59
NtRp1752
(dp1753
g62
(dp1754
sg71
g1739
sg64
(lp1755
g57
(g58
g59
NtRp1756
(dp1757
g62
(dp1758
g70
I4
ssg71
g1752
sg64
(lp1759
S'KBD=0hi-0; session_id_welcome=127.0.0.1-4ab9dacb-7270-459d-aef4-f28bb3d059e1; session_id_admin=127.0.0.1-76a862a2-9a71-40a1-95b6-27d29da4fe5d; session_id_wsd=127.0.0.1-d76d2f66-a702-4d08-8b16-65a16f46815e; session_id_news=127.0.0.1-4eea093e-3431-4797-bd7a-1e49bcb534a8; session_id_wsd_tool=127.0.0.1-371771bb-b080-4b4c-a32f-73741752bafe'
p1760
asbasbasbag57
(g73
g59
NtRp1761
(dp1762
g62
(dp1763
sg71
g1405
sg64
(lp1764
g57
(g78
g59
NtRp1765
(dp1766
g62
(dp1767
g82
g83
ssg71
g1761
sg64
(lp1768
S'http_host'
p1769
asbag57
(g78
g59
NtRp1770
(dp1771
g62
(dp1772
g89
g90
ssg71
g1761
sg64
(lp1773
S':'
asbag57
(g78
g59
NtRp1774
(dp1775
g62
(dp1776
sg71
g1761
sg64
(lp1777
g57
(g58
g59
NtRp1778
(dp1779
g62
(dp1780
g70
I4
ssg71
g1774
sg64
(lp1781
S'127.0.0.1:8000'
p1782
asbasbasbag57
(g73
g59
NtRp1783
(dp1784
g62
(dp1785
sg71
g1405
sg64
(lp1786
g57
(g78
g59
NtRp1787
(dp1788
g62
(dp1789
g82
g83
ssg71
g1783
sg64
(lp1790
S'http_referer'
p1791
asbag57
(g78
g59
NtRp1792
(dp1793
g62
(dp1794
g89
g90
ssg71
g1783
sg64
(lp1795
S':'
asbag57
(g78
g59
NtRp1796
(dp1797
g62
(dp1798
sg71
g1783
sg64
(lp1799
g57
(g58
g59
NtRp1800
(dp1801
g62
(dp1802
g70
I4
ssg71
g1796
sg64
(lp1803
S'http://127.0.0.1:8000/WSD/default/addword'
p1804
asbasbasbag57
(g73
g59
NtRp1805
(dp1806
g62
(dp1807
sg71
g1405
sg64
(lp1808
g57
(g78
g59
NtRp1809
(dp1810
g62
(dp1811
g82
g83
ssg71
g1805
sg64
(lp1812
S'http_user_agent'
p1813
asbag57
(g78
g59
NtRp1814
(dp1815
g62
(dp1816
g89
g90
ssg71
g1805
sg64
(lp1817
S':'
asbag57
(g78
g59
NtRp1818
(dp1819
g62
(dp1820
sg71
g1805
sg64
(lp1821
g57
(g58
g59
NtRp1822
(dp1823
g62
(dp1824
g70
I4
ssg71
g1818
sg64
(lp1825
S'Mozilla/5.0 (X11; Ubuntu; Linux i686; rv:18.0) Gecko/20100101 Firefox/18.0'
p1826
asbasbasbag57
(g73
g59
NtRp1827
(dp1828
g62
(dp1829
sg71
g1405
sg64
(lp1830
g57
(g78
g59
NtRp1831
(dp1832
g62
(dp1833
g82
g83
ssg71
g1827
sg64
(lp1834
S'is_jython'
p1835
asbag57
(g78
g59
NtRp1836
(dp1837
g62
(dp1838
g89
g90
ssg71
g1827
sg64
(lp1839
S':'
asbag57
(g78
g59
NtRp1840
(dp1841
g62
(dp1842
sg71
g1827
sg64
(lp1843
g57
(g58
g59
NtRp1844
(dp1845
g62
(dp1846
g70
I4
ssg71
g1840
sg64
(lp1847
g100
asbasbasbag57
(g73
g59
NtRp1848
(dp1849
g62
(dp1850
sg71
g1405
sg64
(lp1851
g57
(g78
g59
NtRp1852
(dp1853
g62
(dp1854
g82
g83
ssg71
g1848
sg64
(lp1855
S'is_pypy'
p1856
asbag57
(g78
g59
NtRp1857
(dp1858
g62
(dp1859
g89
g90
ssg71
g1848
sg64
(lp1860
S':'
asbag57
(g78
g59
NtRp1861
(dp1862
g62
(dp1863
sg71
g1848
sg64
(lp1864
g57
(g58
g59
NtRp1865
(dp1866
g62
(dp1867
g70
I4
ssg71
g1861
sg64
(lp1868
g100
asbasbasbag57
(g73
g59
NtRp1869
(dp1870
g62
(dp1871
sg71
g1405
sg64
(lp1872
g57
(g78
g59
NtRp1873
(dp1874
g62
(dp1875
g82
g83
ssg71
g1869
sg64
(lp1876
S'local_hosts'
p1877
asbag57
(g78
g59
NtRp1878
(dp1879
g62
(dp1880
g89
g90
ssg71
g1869
sg64
(lp1881
S':'
asbag57
(g78
g59
NtRp1882
(dp1883
g62
(dp1884
sg71
g1869
sg64
(lp1885
g57
(g58
g59
NtRp1886
(dp1887
g62
(dp1888
g70
I4
ssg71
g1882
sg64
(lp1889
g57
(g66
g59
NtRp1890
(dp1891
g62
(dp1892
g70
I3
ssg71
Nsg64
(lp1893
g57
(g73
g59
NtRp1894
(dp1895
g62
(dp1896
sg71
g1890
sg64
(lp1897
g57
(g78
g59
NtRp1898
(dp1899
g62
(dp1900
sg71
g1894
sg64
(lp1901
g57
(g58
g59
NtRp1902
(dp1903
g62
(dp1904
g70
I3
ssg71
g1898
sg64
(lp1905
S'::1'
p1906
asbasbasbag57
(g73
g59
NtRp1907
(dp1908
g62
(dp1909
sg71
g1890
sg64
(lp1910
g57
(g78
g59
NtRp1911
(dp1912
g62
(dp1913
sg71
g1907
sg64
(lp1914
g57
(g58
g59
NtRp1915
(dp1916
g62
(dp1917
g70
I3
ssg71
g1911
sg64
(lp1918
S'127.0.1.1'
p1919
asbasbasbag57
(g73
g59
NtRp1920
(dp1921
g62
(dp1922
sg71
g1890
sg64
(lp1923
g57
(g78
g59
NtRp1924
(dp1925
g62
(dp1926
sg71
g1920
sg64
(lp1927
g57
(g58
g59
NtRp1928
(dp1929
g62
(dp1930
g70
I3
ssg71
g1924
sg64
(lp1931
S'::ffff:127.0.0.1'
p1932
asbasbasbag57
(g73
g59
NtRp1933
(dp1934
g62
(dp1935
sg71
g1890
sg64
(lp1936
g57
(g78
g59
NtRp1937
(dp1938
g62
(dp1939
sg71
g1933
sg64
(lp1940
g57
(g58
g59
NtRp1941
(dp1942
g62
(dp1943
g70
I3
ssg71
g1937
sg64
(lp1944
S'127.0.0.1'
p1945
asbasbasbag57
(g73
g59
NtRp1946
(dp1947
g62
(dp1948
sg71
g1890
sg64
(lp1949
g57
(g78
g59
NtRp1950
(dp1951
g62
(dp1952
sg71
g1946
sg64
(lp1953
g57
(g58
g59
NtRp1954
(dp1955
g62
(dp1956
g70
I3
ssg71
g1950
sg64
(lp1957
S'nazrul-Compaq-Presario-CQ40-Notebook-PC'
p1958
asbasbasbasbasbasbasbag57
(g73
g59
NtRp1959
(dp1960
g62
(dp1961
sg71
g1405
sg64
(lp1962
g57
(g78
g59
NtRp1963
(dp1964
g62
(dp1965
g82
g83
ssg71
g1959
sg64
(lp1966
S'path_info'
p1967
asbag57
(g78
g59
NtRp1968
(dp1969
g62
(dp1970
g89
g90
ssg71
g1959
sg64
(lp1971
S':'
asbag57
(g78
g59
NtRp1972
(dp1973
g62
(dp1974
sg71
g1959
sg64
(lp1975
g57
(g58
g59
NtRp1976
(dp1977
g62
(dp1978
g70
I4
ssg71
g1972
sg64
(lp1979
S'/WSD/default/addword'
p1980
asbasbasbag57
(g73
g59
NtRp1981
(dp1982
g62
(dp1983
sg71
g1405
sg64
(lp1984
g57
(g78
g59
NtRp1985
(dp1986
g62
(dp1987
g82
g83
ssg71
g1981
sg64
(lp1988
S'query_string'
p1989
asbag57
(g78
g59
NtRp1990
(dp1991
g62
(dp1992
g89
g90
ssg71
g1981
sg64
(lp1993
S':'
asbag57
(g78
g59
NtRp1994
(dp1995
g62
(dp1996
sg71
g1981
sg64
(lp1997
g57
(g58
g59
NtRp1998
(dp1999
g62
(dp2000
g70
I4
ssg71
g1994
sg64
(lp2001
S''
asbasbasbag57
(g73
g59
NtRp2002
(dp2003
g62
(dp2004
sg71
g1405
sg64
(lp2005
g57
(g78
g59
NtRp2006
(dp2007
g62
(dp2008
g82
g83
ssg71
g2002
sg64
(lp2009
S'remote_addr'
p2010
asbag57
(g78
g59
NtRp2011
(dp2012
g62
(dp2013
g89
g90
ssg71
g2002
sg64
(lp2014
S':'
asbag57
(g78
g59
NtRp2015
(dp2016
g62
(dp2017
sg71
g2002
sg64
(lp2018
g57
(g58
g59
NtRp2019
(dp2020
g62
(dp2021
g70
I4
ssg71
g2015
sg64
(lp2022
g212
asbasbasbag57
(g73
g59
NtRp2023
(dp2024
g62
(dp2025
sg71
g1405
sg64
(lp2026
g57
(g78
g59
NtRp2027
(dp2028
g62
(dp2029
g82
g83
ssg71
g2023
sg64
(lp2030
S'remote_port'
p2031
asbag57
(g78
g59
NtRp2032
(dp2033
g62
(dp2034
g89
g90
ssg71
g2023
sg64
(lp2035
S':'
asbag57
(g78
g59
NtRp2036
(dp2037
g62
(dp2038
sg71
g2023
sg64
(lp2039
g57
(g58
g59
NtRp2040
(dp2041
g62
(dp2042
g70
I4
ssg71
g2036
sg64
(lp2043
S'47801'
p2044
asbasbasbag57
(g73
g59
NtRp2045
(dp2046
g62
(dp2047
sg71
g1405
sg64
(lp2048
g57
(g78
g59
NtRp2049
(dp2050
g62
(dp2051
g82
g83
ssg71
g2045
sg64
(lp2052
S'request_method'
p2053
asbag57
(g78
g59
NtRp2054
(dp2055
g62
(dp2056
g89
g90
ssg71
g2045
sg64
(lp2057
S':'
asbag57
(g78
g59
NtRp2058
(dp2059
g62
(dp2060
sg71
g2045
sg64
(lp2061
g57
(g58
g59
NtRp2062
(dp2063
g62
(dp2064
g70
I4
ssg71
g2058
sg64
(lp2065
S'POST'
p2066
asbasbasbag57
(g73
g59
NtRp2067
(dp2068
g62
(dp2069
sg71
g1405
sg64
(lp2070
g57
(g78
g59
NtRp2071
(dp2072
g62
(dp2073
g82
g83
ssg71
g2067
sg64
(lp2074
S'request_uri'
p2075
asbag57
(g78
g59
NtRp2076
(dp2077
g62
(dp2078
g89
g90
ssg71
g2067
sg64
(lp2079
S':'
asbag57
(g78
g59
NtRp2080
(dp2081
g62
(dp2082
sg71
g2067
sg64
(lp2083
g57
(g58
g59
NtRp2084
(dp2085
g62
(dp2086
g70
I4
ssg71
g2080
sg64
(lp2087
g1980
asbasbasbag57
(g73
g59
NtRp2088
(dp2089
g62
(dp2090
sg71
g1405
sg64
(lp2091
g57
(g78
g59
NtRp2092
(dp2093
g62
(dp2094
g82
g83
ssg71
g2088
sg64
(lp2095
S'script_name'
p2096
asbag57
(g78
g59
NtRp2097
(dp2098
g62
(dp2099
g89
g90
ssg71
g2088
sg64
(lp2100
S':'
asbag57
(g78
g59
NtRp2101
(dp2102
g62
(dp2103
sg71
g2088
sg64
(lp2104
g57
(g58
g59
NtRp2105
(dp2106
g62
(dp2107
g70
I4
ssg71
g2101
sg64
(lp2108
S''
asbasbasbag57
(g73
g59
NtRp2109
(dp2110
g62
(dp2111
sg71
g1405
sg64
(lp2112
g57
(g78
g59
NtRp2113
(dp2114
g62
(dp2115
g82
g83
ssg71
g2109
sg64
(lp2116
S'server_name'
p2117
asbag57
(g78
g59
NtRp2118
(dp2119
g62
(dp2120
g89
g90
ssg71
g2109
sg64
(lp2121
S':'
asbag57
(g78
g59
NtRp2122
(dp2123
g62
(dp2124
sg71
g2109
sg64
(lp2125
g57
(g58
g59
NtRp2126
(dp2127
g62
(dp2128
g70
I4
ssg71
g2122
sg64
(lp2129
S'nazrul-Compaq-Presario-CQ40-Notebook-PC'
p2130
asbasbasbag57
(g73
g59
NtRp2131
(dp2132
g62
(dp2133
sg71
g1405
sg64
(lp2134
g57
(g78
g59
NtRp2135
(dp2136
g62
(dp2137
g82
g83
ssg71
g2131
sg64
(lp2138
S'server_port'
p2139
asbag57
(g78
g59
NtRp2140
(dp2141
g62
(dp2142
g89
g90
ssg71
g2131
sg64
(lp2143
S':'
asbag57
(g78
g59
NtRp2144
(dp2145
g62
(dp2146
sg71
g2131
sg64
(lp2147
g57
(g58
g59
NtRp2148
(dp2149
g62
(dp2150
g70
I4
ssg71
g2144
sg64
(lp2151
S'8000'
p2152
asbasbasbag57
(g73
g59
NtRp2153
(dp2154
g62
(dp2155
sg71
g1405
sg64
(lp2156
g57
(g78
g59
NtRp2157
(dp2158
g62
(dp2159
g82
g83
ssg71
g2153
sg64
(lp2160
S'server_protocol'
p2161
asbag57
(g78
g59
NtRp2162
(dp2163
g62
(dp2164
g89
g90
ssg71
g2153
sg64
(lp2165
S':'
asbag57
(g78
g59
NtRp2166
(dp2167
g62
(dp2168
sg71
g2153
sg64
(lp2169
g57
(g58
g59
NtRp2170
(dp2171
g62
(dp2172
g70
I4
ssg71
g2166
sg64
(lp2173
S'HTTP/1.1'
p2174
asbasbasbag57
(g73
g59
NtRp2175
(dp2176
g62
(dp2177
sg71
g1405
sg64
(lp2178
g57
(g78
g59
NtRp2179
(dp2180
g62
(dp2181
g82
g83
ssg71
g2175
sg64
(lp2182
S'server_software'
p2183
asbag57
(g78
g59
NtRp2184
(dp2185
g62
(dp2186
g89
g90
ssg71
g2175
sg64
(lp2187
S':'
asbag57
(g78
g59
NtRp2188
(dp2189
g62
(dp2190
sg71
g2175
sg64
(lp2191
g57
(g58
g59
NtRp2192
(dp2193
g62
(dp2194
g70
I4
ssg71
g2188
sg64
(lp2195
S'Rocket 1.2.6'
p2196
asbasbasbag57
(g73
g59
NtRp2197
(dp2198
g62
(dp2199
sg71
g1405
sg64
(lp2200
g57
(g78
g59
NtRp2201
(dp2202
g62
(dp2203
g82
g83
ssg71
g2197
sg64
(lp2204
S'web2py_path'
p2205
asbag57
(g78
g59
NtRp2206
(dp2207
g62
(dp2208
g89
g90
ssg71
g2197
sg64
(lp2209
S':'
asbag57
(g78
g59
NtRp2210
(dp2211
g62
(dp2212
sg71
g2197
sg64
(lp2213
g57
(g58
g59
NtRp2214
(dp2215
g62
(dp2216
g70
I4
ssg71
g2210
sg64
(lp2217
g1452
asbasbasbag57
(g73
g59
NtRp2218
(dp2219
g62
(dp2220
sg71
g1405
sg64
(lp2221
g57
(g78
g59
NtRp2222
(dp2223
g62
(dp2224
g82
g83
ssg71
g2218
sg64
(lp2225
S'web2py_version'
p2226
asbag57
(g78
g59
NtRp2227
(dp2228
g62
(dp2229
g89
g90
ssg71
g2218
sg64
(lp2230
S':'
asbag57
(g78
g59
NtRp2231
(dp2232
g62
(dp2233
sg71
g2218
sg64
(lp2234
g57
(g58
g59
NtRp2235
(dp2236
g62
(dp2237
g70
I4
ssg71
g2231
sg64
(lp2238
g57
(g66
g59
NtRp2239
(dp2240
g62
(dp2241
g70
I3
ssg71
Nsg64
(lp2242
g57
(g73
g59
NtRp2243
(dp2244
g62
(dp2245
sg71
g2239
sg64
(lp2246
g57
(g78
g59
NtRp2247
(dp2248
g62
(dp2249
sg71
g2243
sg64
(lp2250
g57
(g58
g59
NtRp2251
(dp2252
g62
(dp2253
g70
I3
ssg71
g2247
sg64
(lp2254
S'2'
asbasbasbag57
(g73
g59
NtRp2255
(dp2256
g62
(dp2257
sg71
g2239
sg64
(lp2258
g57
(g78
g59
NtRp2259
(dp2260
g62
(dp2261
sg71
g2255
sg64
(lp2262
g57
(g58
g59
NtRp2263
(dp2264
g62
(dp2265
g70
I3
ssg71
g2259
sg64
(lp2266
S'3'
asbasbasbag57
(g73
g59
NtRp2267
(dp2268
g62
(dp2269
sg71
g2239
sg64
(lp2270
g57
(g78
g59
NtRp2271
(dp2272
g62
(dp2273
sg71
g2267
sg64
(lp2274
g57
(g58
g59
NtRp2275
(dp2276
g62
(dp2277
g70
I3
ssg71
g2271
sg64
(lp2278
S'2'
asbasbasbag57
(g73
g59
NtRp2279
(dp2280
g62
(dp2281
sg71
g2239
sg64
(lp2282
g57
(g78
g59
NtRp2283
(dp2284
g62
(dp2285
sg71
g2279
sg64
(lp2286
g57
(g58
g59
NtRp2287
(dp2288
g62
(dp2289
g70
I3
ssg71
g2283
sg64
(lp2290
S'datetime.datetime(2012, 12, 17, 15, 3, 30)'
p2291
asbasbasbag57
(g73
g59
NtRp2292
(dp2293
g62
(dp2294
sg71
g2239
sg64
(lp2295
g57
(g78
g59
NtRp2296
(dp2297
g62
(dp2298
sg71
g2292
sg64
(lp2299
g57
(g58
g59
NtRp2300
(dp2301
g62
(dp2302
g70
I3
ssg71
g2296
sg64
(lp2303
S'stable'
p2304
asbasbasbasbasbasbasbag57
(g73
g59
NtRp2305
(dp2306
g62
(dp2307
sg71
g1405
sg64
(lp2308
g57
(g78
g59
NtRp2309
(dp2310
g62
(dp2311
g82
g83
ssg71
g2305
sg64
(lp2312
S'wsgi_errors'
p2313
asbag57
(g78
g59
NtRp2314
(dp2315
g62
(dp2316
g89
g90
ssg71
g2305
sg64
(lp2317
S':'
asbag57
(g78
g59
NtRp2318
(dp2319
g62
(dp2320
sg71
g2305
sg64
(lp2321
g57
(g58
g59
NtRp2322
(dp2323
g62
(dp2324
g70
I4
ssg71
g2318
sg64
(lp2325
S"<open file '<stderr>', mode 'w' at 0xb72d20d0>"
p2326
asbasbasbag57
(g73
g59
NtRp2327
(dp2328
g62
(dp2329
sg71
g1405
sg64
(lp2330
g57
(g78
g59
NtRp2331
(dp2332
g62
(dp2333
g82
g83
ssg71
g2327
sg64
(lp2334
S'wsgi_file_wrapper'
p2335
asbag57
(g78
g59
NtRp2336
(dp2337
g62
(dp2338
g89
g90
ssg71
g2327
sg64
(lp2339
S':'
asbag57
(g78
g59
NtRp2340
(dp2341
g62
(dp2342
sg71
g2327
sg64
(lp2343
g57
(g58
g59
NtRp2344
(dp2345
g62
(dp2346
g70
I4
ssg71
g2340
sg64
(lp2347
S'<class wsgiref.util.FileWrapper at 0x8e0a47c>'
p2348
asbasbasbag57
(g73
g59
NtRp2349
(dp2350
g62
(dp2351
sg71
g1405
sg64
(lp2352
g57
(g78
g59
NtRp2353
(dp2354
g62
(dp2355
g82
g83
ssg71
g2349
sg64
(lp2356
S'wsgi_input'
p2357
asbag57
(g78
g59
NtRp2358
(dp2359
g62
(dp2360
g89
g90
ssg71
g2349
sg64
(lp2361
S':'
asbag57
(g78
g59
NtRp2362
(dp2363
g62
(dp2364
sg71
g2349
sg64
(lp2365
g57
(g58
g59
NtRp2366
(dp2367
g62
(dp2368
g70
I4
ssg71
g2362
sg64
(lp2369
S'<socket._fileobject object at 0x91209ac>'
p2370
asbasbasbag57
(g73
g59
NtRp2371
(dp2372
g62
(dp2373
sg71
g1405
sg64
(lp2374
g57
(g78
g59
NtRp2375
(dp2376
g62
(dp2377
g82
g83
ssg71
g2371
sg64
(lp2378
S'wsgi_multiprocess'
p2379
asbag57
(g78
g59
NtRp2380
(dp2381
g62
(dp2382
g89
g90
ssg71
g2371
sg64
(lp2383
S':'
asbag57
(g78
g59
NtRp2384
(dp2385
g62
(dp2386
sg71
g2371
sg64
(lp2387
g57
(g58
g59
NtRp2388
(dp2389
g62
(dp2390
g70
I4
ssg71
g2384
sg64
(lp2391
g100
asbasbasbag57
(g73
g59
NtRp2392
(dp2393
g62
(dp2394
sg71
g1405
sg64
(lp2395
g57
(g78
g59
NtRp2396
(dp2397
g62
(dp2398
g82
g83
ssg71
g2392
sg64
(lp2399
S'wsgi_multithread'
p2400
asbag57
(g78
g59
NtRp2401
(dp2402
g62
(dp2403
g89
g90
ssg71
g2392
sg64
(lp2404
S':'
asbag57
(g78
g59
NtRp2405
(dp2406
g62
(dp2407
sg71
g2392
sg64
(lp2408
g57
(g58
g59
NtRp2409
(dp2410
g62
(dp2411
g70
I4
ssg71
g2405
sg64
(lp2412
S'True'
p2413
asbasbasbag57
(g73
g59
NtRp2414
(dp2415
g62
(dp2416
sg71
g1405
sg64
(lp2417
g57
(g78
g59
NtRp2418
(dp2419
g62
(dp2420
g82
g83
ssg71
g2414
sg64
(lp2421
S'wsgi_run_once'
p2422
asbag57
(g78
g59
NtRp2423
(dp2424
g62
(dp2425
g89
g90
ssg71
g2414
sg64
(lp2426
S':'
asbag57
(g78
g59
NtRp2427
(dp2428
g62
(dp2429
sg71
g2414
sg64
(lp2430
g57
(g58
g59
NtRp2431
(dp2432
g62
(dp2433
g70
I4
ssg71
g2427
sg64
(lp2434
g100
asbasbasbag57
(g73
g59
NtRp2435
(dp2436
g62
(dp2437
sg71
g1405
sg64
(lp2438
g57
(g78
g59
NtRp2439
(dp2440
g62
(dp2441
g82
g83
ssg71
g2435
sg64
(lp2442
S'wsgi_url_scheme'
p2443
asbag57
(g78
g59
NtRp2444
(dp2445
g62
(dp2446
g89
g90
ssg71
g2435
sg64
(lp2447
S':'
asbag57
(g78
g59
NtRp2448
(dp2449
g62
(dp2450
sg71
g2435
sg64
(lp2451
g57
(g58
g59
NtRp2452
(dp2453
g62
(dp2454
g70
I4
ssg71
g2448
sg64
(lp2455
S'http'
p2456
asbasbasbag57
(g73
g59
NtRp2457
(dp2458
g62
(dp2459
sg71
g1405
sg64
(lp2460
g57
(g78
g59
NtRp2461
(dp2462
g62
(dp2463
g82
g83
ssg71
g2457
sg64
(lp2464
S'wsgi_version'
p2465
asbag57
(g78
g59
NtRp2466
(dp2467
g62
(dp2468
g89
g90
ssg71
g2457
sg64
(lp2469
S':'
asbag57
(g78
g59
NtRp2470
(dp2471
g62
(dp2472
sg71
g2457
sg64
(lp2473
g57
(g58
g59
NtRp2474
(dp2475
g62
(dp2476
g70
I4
ssg71
g2470
sg64
(lp2477
g57
(g66
g59
NtRp2478
(dp2479
g62
(dp2480
g70
I3
ssg71
Nsg64
(lp2481
g57
(g73
g59
NtRp2482
(dp2483
g62
(dp2484
sg71
g2478
sg64
(lp2485
g57
(g78
g59
NtRp2486
(dp2487
g62
(dp2488
sg71
g2482
sg64
(lp2489
g57
(g58
g59
NtRp2490
(dp2491
g62
(dp2492
g70
I3
ssg71
g2486
sg64
(lp2493
S'1'
asbasbasbag57
(g73
g59
NtRp2494
(dp2495
g62
(dp2496
sg71
g2478
sg64
(lp2497
g57
(g78
g59
NtRp2498
(dp2499
g62
(dp2500
sg71
g2494
sg64
(lp2501
g57
(g58
g59
NtRp2502
(dp2503
g62
(dp2504
g70
I3
ssg71
g2498
sg64
(lp2505
S'0'
asbasbasbasbasbasbasbasbasbasbasbag57
(g73
g59
NtRp2506
(dp2507
g62
(dp2508
sg71
g67
sg64
(lp2509
g57
(g78
g59
NtRp2510
(dp2511
g62
(dp2512
g82
g83
ssg71
g2506
sg64
(lp2513
S'extension'
p2514
asbag57
(g78
g59
NtRp2515
(dp2516
g62
(dp2517
g89
g90
ssg71
g2506
sg64
(lp2518
S':'
asbag57
(g78
g59
NtRp2519
(dp2520
g62
(dp2521
sg71
g2506
sg64
(lp2522
g57
(g58
g59
NtRp2523
(dp2524
g62
(dp2525
g70
I5
ssg71
g2519
sg64
(lp2526
S'html'
p2527
asbasbasbag57
(g73
g59
NtRp2528
(dp2529
g62
(dp2530
sg71
g67
sg64
(lp2531
g57
(g78
g59
NtRp2532
(dp2533
g62
(dp2534
g82
g83
ssg71
g2528
sg64
(lp2535
S'folder'
p2536
asbag57
(g78
g59
NtRp2537
(dp2538
g62
(dp2539
g89
g90
ssg71
g2528
sg64
(lp2540
S':'
asbag57
(g78
g59
NtRp2541
(dp2542
g62
(dp2543
sg71
g2528
sg64
(lp2544
g57
(g58
g59
NtRp2545
(dp2546
g62
(dp2547
g70
I5
ssg71
g2541
sg64
(lp2548
S'/home/nazrul/web2py/applications/WSD/'
p2549
asbasbasbag57
(g73
g59
NtRp2550
(dp2551
g62
(dp2552
sg71
g67
sg64
(lp2553
g57
(g78
g59
NtRp2554
(dp2555
g62
(dp2556
g82
g83
ssg71
g2550
sg64
(lp2557
S'function'
p2558
asbag57
(g78
g59
NtRp2559
(dp2560
g62
(dp2561
g89
g90
ssg71
g2550
sg64
(lp2562
S':'
asbag57
(g78
g59
NtRp2563
(dp2564
g62
(dp2565
sg71
g2550
sg64
(lp2566
g57
(g58
g59
NtRp2567
(dp2568
g62
(dp2569
g70
I5
ssg71
g2563
sg64
(lp2570
S'addword'
p2571
asbasbasbag57
(g73
g59
NtRp2572
(dp2573
g62
(dp2574
sg71
g67
sg64
(lp2575
g57
(g78
g59
NtRp2576
(dp2577
g62
(dp2578
g82
g83
ssg71
g2572
sg64
(lp2579
S'get_vars'
p2580
asbag57
(g78
g59
NtRp2581
(dp2582
g62
(dp2583
g89
g90
ssg71
g2572
sg64
(lp2584
S':'
asbag57
(g78
g59
NtRp2585
(dp2586
g62
(dp2587
sg71
g2572
sg64
(lp2588
g57
(g58
g59
NtRp2589
(dp2590
g62
(dp2591
g70
I5
ssg71
g2585
sg64
(lp2592
g57
(g66
g59
NtRp2593
(dp2594
g62
(dp2595
g70
I4
ssg71
Nsg64
(lp2596
sbasbasbasbag57
(g73
g59
NtRp2597
(dp2598
g62
(dp2599
sg71
g67
sg64
(lp2600
g57
(g78
g59
NtRp2601
(dp2602
g62
(dp2603
g82
g83
ssg71
g2597
sg64
(lp2604
S'global_settings'
p2605
asbag57
(g78
g59
NtRp2606
(dp2607
g62
(dp2608
g89
g90
ssg71
g2597
sg64
(lp2609
S':'
asbag57
(g78
g59
NtRp2610
(dp2611
g62
(dp2612
sg71
g2597
sg64
(lp2613
g57
(g58
g59
NtRp2614
(dp2615
g62
(dp2616
g70
I5
ssg71
g2610
sg64
(lp2617
g57
(g66
g59
NtRp2618
(dp2619
g62
(dp2620
g70
I4
ssg71
Nsg64
(lp2621
g57
(g73
g59
NtRp2622
(dp2623
g62
(dp2624
sg71
g2618
sg64
(lp2625
g57
(g78
g59
NtRp2626
(dp2627
g62
(dp2628
g82
g83
ssg71
g2622
sg64
(lp2629
g1417
asbag57
(g78
g59
NtRp2630
(dp2631
g62
(dp2632
g89
g90
ssg71
g2622
sg64
(lp2633
S':'
asbag57
(g78
g59
NtRp2634
(dp2635
g62
(dp2636
sg71
g2622
sg64
(lp2637
g57
(g58
g59
NtRp2638
(dp2639
g62
(dp2640
g70
I4
ssg71
g2634
sg64
(lp2641
S"set(['/home/nazrul/web2py/applications/WSD/', '/home/nazrul/web2py/applications/welcome/', '/home/nazrul/web2py/applications/WSD_Tool/', '/home/nazrul/web2py/applications/news/', '/home/nazrul/web2py/applications/admin/'])"
p2642
asbasbasbag57
(g73
g59
NtRp2643
(dp2644
g62
(dp2645
sg71
g2618
sg64
(lp2646
g57
(g78
g59
NtRp2647
(dp2648
g62
(dp2649
g82
g83
ssg71
g2643
sg64
(lp2650
g1439
asbag57
(g78
g59
NtRp2651
(dp2652
g62
(dp2653
g89
g90
ssg71
g2643
sg64
(lp2654
S':'
asbag57
(g78
g59
NtRp2655
(dp2656
g62
(dp2657
sg71
g2643
sg64
(lp2658
g57
(g58
g59
NtRp2659
(dp2660
g62
(dp2661
g70
I4
ssg71
g2655
sg64
(lp2662
g1452
asbasbasbag57
(g73
g59
NtRp2663
(dp2664
g62
(dp2665
sg71
g2618
sg64
(lp2666
g57
(g78
g59
NtRp2667
(dp2668
g62
(dp2669
g82
g83
ssg71
g2663
sg64
(lp2670
g1461
asbag57
(g78
g59
NtRp2671
(dp2672
g62
(dp2673
g89
g90
ssg71
g2663
sg64
(lp2674
S':'
asbag57
(g78
g59
NtRp2675
(dp2676
g62
(dp2677
sg71
g2663
sg64
(lp2678
g57
(g58
g59
NtRp2679
(dp2680
g62
(dp2681
g70
I4
ssg71
g2675
sg64
(lp2682
g57
(g66
g59
NtRp2683
(dp2684
g62
(dp2685
g70
I3
ssg71
Nsg64
(lp2686
sbasbasbasbag57
(g73
g59
NtRp2687
(dp2688
g62
(dp2689
sg71
g2618
sg64
(lp2690
g57
(g78
g59
NtRp2691
(dp2692
g62
(dp2693
g82
g83
ssg71
g2687
sg64
(lp2694
g1486
asbag57
(g78
g59
NtRp2695
(dp2696
g62
(dp2697
g89
g90
ssg71
g2687
sg64
(lp2698
S':'
asbag57
(g78
g59
NtRp2699
(dp2700
g62
(dp2701
sg71
g2687
sg64
(lp2702
g57
(g58
g59
NtRp2703
(dp2704
g62
(dp2705
g70
I4
ssg71
g2699
sg64
(lp2706
S"<Values at 0x8e4a9cc: {'verbose': False, 'ip': '127.0.0.1', 'with_scheduler': False, 'ips': [], 'shutdown_timeout': 5, 'taskbar': False, 'port': 8000, 'maxthreads': None, 'softcron': False, 'server_name': 'nazrul-Compaq-Presario-CQ40-Notebook-PC', 'bpython': False, 'nogui': False, 'pid_filename': 'httpserver.pid', 'extcron': False, 'runcron': False, 'run_system_tests': False, 'test': None, 'folder': '/home/nazrul/web2py', 'config': '', 'import_models': False, 'winservice': '', 'shell': None, 'run': '', 'log_filename': 'httpserver.log', 'debuglevel': 30, 'args': [''], 'socket_timeout': 5, 'ssl_ca_certificate': None, 'scheduler': None, 'profiler_filename': None, 'ssl_private_key': '', 'scheduler_groups': None, 'password': '<ask>', 'request_queue_size': 5, 'ssl_certificate': '', 'cronjob': False, 'numthreads': None, 'quiet': False, 'interfaces': None, 'minthreads': None, 'timeout': 10, 'plain': False, 'nobanner': False}>"
p2707
asbasbasbag57
(g73
g59
NtRp2708
(dp2709
g62
(dp2710
sg71
g2618
sg64
(lp2711
g57
(g78
g59
NtRp2712
(dp2713
g62
(dp2714
g82
g83
ssg71
g2708
sg64
(lp2715
g1552
asbag57
(g78
g59
NtRp2716
(dp2717
g62
(dp2718
g89
g90
ssg71
g2708
sg64
(lp2719
S':'
asbag57
(g78
g59
NtRp2720
(dp2721
g62
(dp2722
sg71
g2708
sg64
(lp2723
g57
(g58
g59
NtRp2724
(dp2725
g62
(dp2726
g70
I4
ssg71
g2720
sg64
(lp2727
S'set([])'
p2728
asbasbasbag57
(g73
g59
NtRp2729
(dp2730
g62
(dp2731
sg71
g2618
sg64
(lp2732
g57
(g78
g59
NtRp2733
(dp2734
g62
(dp2735
g82
g83
ssg71
g2729
sg64
(lp2736
g1574
asbag57
(g78
g59
NtRp2737
(dp2738
g62
(dp2739
g89
g90
ssg71
g2729
sg64
(lp2740
S':'
asbag57
(g78
g59
NtRp2741
(dp2742
g62
(dp2743
sg71
g2729
sg64
(lp2744
g57
(g58
g59
NtRp2745
(dp2746
g62
(dp2747
g70
I4
ssg71
g2741
sg64
(lp2748
g100
asbasbasbag57
(g73
g59
NtRp2749
(dp2750
g62
(dp2751
sg71
g2618
sg64
(lp2752
g57
(g78
g59
NtRp2753
(dp2754
g62
(dp2755
g82
g83
ssg71
g2749
sg64
(lp2756
g1595
asbag57
(g78
g59
NtRp2757
(dp2758
g62
(dp2759
g89
g90
ssg71
g2749
sg64
(lp2760
S':'
asbag57
(g78
g59
NtRp2761
(dp2762
g62
(dp2763
sg71
g2749
sg64
(lp2764
g57
(g58
g59
NtRp2765
(dp2766
g62
(dp2767
g70
I4
ssg71
g2761
sg64
(lp2768
g1608
asbasbasbag57
(g73
g59
NtRp2769
(dp2770
g62
(dp2771
sg71
g2618
sg64
(lp2772
g57
(g78
g59
NtRp2773
(dp2774
g62
(dp2775
g82
g83
ssg71
g2769
sg64
(lp2776
g1835
asbag57
(g78
g59
NtRp2777
(dp2778
g62
(dp2779
g89
g90
ssg71
g2769
sg64
(lp2780
S':'
asbag57
(g78
g59
NtRp2781
(dp2782
g62
(dp2783
sg71
g2769
sg64
(lp2784
g57
(g58
g59
NtRp2785
(dp2786
g62
(dp2787
g70
I4
ssg71
g2781
sg64
(lp2788
g100
asbasbasbag57
(g73
g59
NtRp2789
(dp2790
g62
(dp2791
sg71
g2618
sg64
(lp2792
g57
(g78
g59
NtRp2793
(dp2794
g62
(dp2795
g82
g83
ssg71
g2789
sg64
(lp2796
g1856
asbag57
(g78
g59
NtRp2797
(dp2798
g62
(dp2799
g89
g90
ssg71
g2789
sg64
(lp2800
S':'
asbag57
(g78
g59
NtRp2801
(dp2802
g62
(dp2803
sg71
g2789
sg64
(lp2804
g57
(g58
g59
NtRp2805
(dp2806
g62
(dp2807
g70
I4
ssg71
g2801
sg64
(lp2808
g100
asbasbasbag57
(g73
g59
NtRp2809
(dp2810
g62
(dp2811
sg71
g2618
sg64
(lp2812
g57
(g78
g59
NtRp2813
(dp2814
g62
(dp2815
g82
g83
ssg71
g2809
sg64
(lp2816
g1877
asbag57
(g78
g59
NtRp2817
(dp2818
g62
(dp2819
g89
g90
ssg71
g2809
sg64
(lp2820
S':'
asbag57
(g78
g59
NtRp2821
(dp2822
g62
(dp2823
sg71
g2809
sg64
(lp2824
g57
(g58
g59
NtRp2825
(dp2826
g62
(dp2827
g70
I4
ssg71
g2821
sg64
(lp2828
g57
(g66
g59
NtRp2829
(dp2830
g62
(dp2831
g70
I3
ssg71
Nsg64
(lp2832
g57
(g73
g59
NtRp2833
(dp2834
g62
(dp2835
sg71
g2829
sg64
(lp2836
g57
(g78
g59
NtRp2837
(dp2838
g62
(dp2839
sg71
g2833
sg64
(lp2840
g57
(g58
g59
NtRp2841
(dp2842
g62
(dp2843
g70
I3
ssg71
g2837
sg64
(lp2844
g1906
asbasbasbag57
(g73
g59
NtRp2845
(dp2846
g62
(dp2847
sg71
g2829
sg64
(lp2848
g57
(g78
g59
NtRp2849
(dp2850
g62
(dp2851
sg71
g2845
sg64
(lp2852
g57
(g58
g59
NtRp2853
(dp2854
g62
(dp2855
g70
I3
ssg71
g2849
sg64
(lp2856
g1919
asbasbasbag57
(g73
g59
NtRp2857
(dp2858
g62
(dp2859
sg71
g2829
sg64
(lp2860
g57
(g78
g59
NtRp2861
(dp2862
g62
(dp2863
sg71
g2857
sg64
(lp2864
g57
(g58
g59
NtRp2865
(dp2866
g62
(dp2867
g70
I3
ssg71
g2861
sg64
(lp2868
g1932
asbasbasbag57
(g73
g59
NtRp2869
(dp2870
g62
(dp2871
sg71
g2829
sg64
(lp2872
g57
(g78
g59
NtRp2873
(dp2874
g62
(dp2875
sg71
g2869
sg64
(lp2876
g57
(g58
g59
NtRp2877
(dp2878
g62
(dp2879
g70
I3
ssg71
g2873
sg64
(lp2880
g1945
asbasbasbag57
(g73
g59
NtRp2881
(dp2882
g62
(dp2883
sg71
g2829
sg64
(lp2884
g57
(g78
g59
NtRp2885
(dp2886
g62
(dp2887
sg71
g2881
sg64
(lp2888
g57
(g58
g59
NtRp2889
(dp2890
g62
(dp2891
g70
I3
ssg71
g2885
sg64
(lp2892
g1958
asbasbasbasbasbasbasbag57
(g73
g59
NtRp2893
(dp2894
g62
(dp2895
sg71
g2618
sg64
(lp2896
g57
(g78
g59
NtRp2897
(dp2898
g62
(dp2899
g82
g83
ssg71
g2893
sg64
(lp2900
g2226
asbag57
(g78
g59
NtRp2901
(dp2902
g62
(dp2903
g89
g90
ssg71
g2893
sg64
(lp2904
S':'
asbag57
(g78
g59
NtRp2905
(dp2906
g62
(dp2907
sg71
g2893
sg64
(lp2908
g57
(g58
g59
NtRp2909
(dp2910
g62
(dp2911
g70
I4
ssg71
g2905
sg64
(lp2912
g57
(g66
g59
NtRp2913
(dp2914
g62
(dp2915
g70
I3
ssg71
Nsg64
(lp2916
g57
(g73
g59
NtRp2917
(dp2918
g62
(dp2919
sg71
g2913
sg64
(lp2920
g57
(g78
g59
NtRp2921
(dp2922
g62
(dp2923
sg71
g2917
sg64
(lp2924
g57
(g58
g59
NtRp2925
(dp2926
g62
(dp2927
g70
I3
ssg71
g2921
sg64
(lp2928
S'2'
asbasbasbag57
(g73
g59
NtRp2929
(dp2930
g62
(dp2931
sg71
g2913
sg64
(lp2932
g57
(g78
g59
NtRp2933
(dp2934
g62
(dp2935
sg71
g2929
sg64
(lp2936
g57
(g58
g59
NtRp2937
(dp2938
g62
(dp2939
g70
I3
ssg71
g2933
sg64
(lp2940
S'3'
asbasbasbag57
(g73
g59
NtRp2941
(dp2942
g62
(dp2943
sg71
g2913
sg64
(lp2944
g57
(g78
g59
NtRp2945
(dp2946
g62
(dp2947
sg71
g2941
sg64
(lp2948
g57
(g58
g59
NtRp2949
(dp2950
g62
(dp2951
g70
I3
ssg71
g2945
sg64
(lp2952
S'2'
asbasbasbag57
(g73
g59
NtRp2953
(dp2954
g62
(dp2955
sg71
g2913
sg64
(lp2956
g57
(g78
g59
NtRp2957
(dp2958
g62
(dp2959
sg71
g2953
sg64
(lp2960
g57
(g58
g59
NtRp2961
(dp2962
g62
(dp2963
g70
I3
ssg71
g2957
sg64
(lp2964
S'datetime.datetime(2012, 12, 17, 15, 3, 30)'
p2965
asbasbasbag57
(g73
g59
NtRp2966
(dp2967
g62
(dp2968
sg71
g2913
sg64
(lp2969
g57
(g78
g59
NtRp2970
(dp2971
g62
(dp2972
sg71
g2966
sg64
(lp2973
g57
(g58
g59
NtRp2974
(dp2975
g62
(dp2976
g70
I3
ssg71
g2970
sg64
(lp2977
g2304
asbasbasbasbasbasbasbasbasbasbasbag57
(g73
g59
NtRp2978
(dp2979
g62
(dp2980
sg71
g67
sg64
(lp2981
g57
(g78
g59
NtRp2982
(dp2983
g62
(dp2984
g82
g83
ssg71
g2978
sg64
(lp2985
S'is_https'
p2986
asbag57
(g78
g59
NtRp2987
(dp2988
g62
(dp2989
g89
g90
ssg71
g2978
sg64
(lp2990
S':'
asbag57
(g78
g59
NtRp2991
(dp2992
g62
(dp2993
sg71
g2978
sg64
(lp2994
g57
(g58
g59
NtRp2995
(dp2996
g62
(dp2997
g70
I5
ssg71
g2991
sg64
(lp2998
g100
asbasbasbag57
(g73
g59
NtRp2999
(dp3000
g62
(dp3001
sg71
g67
sg64
(lp3002
g57
(g78
g59
NtRp3003
(dp3004
g62
(dp3005
g82
g83
ssg71
g2999
sg64
(lp3006
S'is_local'
p3007
asbag57
(g78
g59
NtRp3008
(dp3009
g62
(dp3010
g89
g90
ssg71
g2999
sg64
(lp3011
S':'
asbag57
(g78
g59
NtRp3012
(dp3013
g62
(dp3014
sg71
g2999
sg64
(lp3015
g57
(g58
g59
NtRp3016
(dp3017
g62
(dp3018
g70
I5
ssg71
g3012
sg64
(lp3019
g2413
asbasbasbag57
(g73
g59
NtRp3020
(dp3021
g62
(dp3022
sg71
g67
sg64
(lp3023
g57
(g78
g59
NtRp3024
(dp3025
g62
(dp3026
g82
g83
ssg71
g3020
sg64
(lp3027
S'is_restful'
p3028
asbag57
(g78
g59
NtRp3029
(dp3030
g62
(dp3031
g89
g90
ssg71
g3020
sg64
(lp3032
S':'
asbag57
(g78
g59
NtRp3033
(dp3034
g62
(dp3035
sg71
g3020
sg64
(lp3036
g57
(g58
g59
NtRp3037
(dp3038
g62
(dp3039
g70
I5
ssg71
g3033
sg64
(lp3040
g100
asbasbasbag57
(g73
g59
NtRp3041
(dp3042
g62
(dp3043
sg71
g67
sg64
(lp3044
g57
(g78
g59
NtRp3045
(dp3046
g62
(dp3047
g82
g83
ssg71
g3041
sg64
(lp3048
S'now'
p3049
asbag57
(g78
g59
NtRp3050
(dp3051
g62
(dp3052
g89
g90
ssg71
g3041
sg64
(lp3053
S':'
asbag57
(g78
g59
NtRp3054
(dp3055
g62
(dp3056
sg71
g3041
sg64
(lp3057
g57
(g58
g59
NtRp3058
(dp3059
g62
(dp3060
g70
I5
ssg71
g3054
sg64
(lp3061
S'datetime.datetime(2013, 11, 19, 16, 33, 30, 581890)'
p3062
asbasbasbag57
(g73
g59
NtRp3063
(dp3064
g62
(dp3065
sg71
g67
sg64
(lp3066
g57
(g78
g59
NtRp3067
(dp3068
g62
(dp3069
g82
g83
ssg71
g3063
sg64
(lp3070
S'post_vars'
p3071
asbag57
(g78
g59
NtRp3072
(dp3073
g62
(dp3074
g89
g90
ssg71
g3063
sg64
(lp3075
S':'
asbag57
(g78
g59
NtRp3076
(dp3077
g62
(dp3078
sg71
g3063
sg64
(lp3079
g57
(g58
g59
NtRp3080
(dp3081
g62
(dp3082
g70
I5
ssg71
g3076
sg64
(lp3083
g57
(g66
g59
NtRp3084
(dp3085
g62
(dp3086
g70
I4
ssg71
Nsg64
(lp3087
g57
(g73
g59
NtRp3088
(dp3089
g62
(dp3090
sg71
g3084
sg64
(lp3091
g57
(g78
g59
NtRp3092
(dp3093
g62
(dp3094
g82
g83
ssg71
g3088
sg64
(lp3095
S'esentence'
p3096
asbag57
(g78
g59
NtRp3097
(dp3098
g62
(dp3099
g89
g90
ssg71
g3088
sg64
(lp3100
S':'
asbag57
(g78
g59
NtRp3101
(dp3102
g62
(dp3103
sg71
g3088
sg64
(lp3104
g57
(g58
g59
NtRp3105
(dp3106
g62
(dp3107
g70
I4
ssg71
g3101
sg64
(lp3108
S'A nickname for measures to stop the market from plunging too far too fast.'
p3109
asbasbasbag57
(g73
g59
NtRp3110
(dp3111
g62
(dp3112
sg71
g3084
sg64
(lp3113
g57
(g78
g59
NtRp3114
(dp3115
g62
(dp3116
g82
g83
ssg71
g3110
sg64
(lp3117
S'hsentence'
p3118
asbag57
(g78
g59
NtRp3119
(dp3120
g62
(dp3121
g89
g90
ssg71
g3110
sg64
(lp3122
S':'
asbag57
(g78
g59
NtRp3123
(dp3124
g62
(dp3125
sg71
g3110
sg64
(lp3126
g57
(g58
g59
NtRp3127
(dp3128
g62
(dp3129
g70
I4
ssg71
g3123
sg64
(lp3130
S'\xe0\xa4\xac\xe0\xa4\xb9\xe0\xa5\x81\xe0\xa4\xa4 \xe0\xa4\xa6\xe0\xa5\x82\xe0\xa4\xb0 \xe0\xa4\xad\xe0\xa5\x80 \xe0\xa4\xa4\xe0\xa5\x87\xe0\xa4\x9c\xe0\xa5\x80 \xe0\xa4\xb8\xe0\xa5\x87 \xe0\xa4\xa1\xe0\xa5\x82\xe0\xa4\xac\xe0\xa4\xa8\xe0\xa5\x87\xe0\xa4\xb5\xe0\xa4\xbe\xe0\xa4\xb2\xe0\xa4\xbe \xe0\xa4\xb8\xe0\xa5\x87 \xe0\xa4\xac\xe0\xa4\xbe\xe0\xa4\x9c\xe0\xa4\xbe\xe0\xa4\xb0 \xe0\xa4\xac\xe0\xa4\x82\xe0\xa4\xa6 \xe0\xa4\x95\xe0\xa4\xb0\xe0\xa4\xa8\xe0\xa5\x87 \xe0\xa4\x95\xe0\xa5\x87 \xe0\xa4\x89\xe0\xa4\xaa\xe0\xa4\xbe\xe0\xa4\xaf\xe0\xa5\x8b\xe0\xa4\x82 \xe0\xa4\x95\xe0\xa5\x87 \xe0\xa4\xb2\xe0\xa4\xbf\xe0\xa4\x8f \xe0\xa4\x8f\xe0\xa4\x95 \xe0\xa4\x89\xe0\xa4\xaa\xe0\xa4\xa8\xe0\xa4\xbe\xe0\xa4\xae.'
p3131
asbasbasbag57
(g73
g59
NtRp3132
(dp3133
g62
(dp3134
sg71
g3084
sg64
(lp3135
g57
(g78
g59
NtRp3136
(dp3137
g62
(dp3138
g82
g83
ssg71
g3132
sg64
(lp3139
S'level'
p3140
asbag57
(g78
g59
NtRp3141
(dp3142
g62
(dp3143
g89
g90
ssg71
g3132
sg64
(lp3144
S':'
asbag57
(g78
g59
NtRp3145
(dp3146
g62
(dp3147
sg71
g3132
sg64
(lp3148
g57
(g58
g59
NtRp3149
(dp3150
g62
(dp3151
g70
I4
ssg71
g3145
sg64
(lp3152
S'1'
asbasbasbag57
(g73
g59
NtRp3153
(dp3154
g62
(dp3155
sg71
g3084
sg64
(lp3156
g57
(g78
g59
NtRp3157
(dp3158
g62
(dp3159
g82
g83
ssg71
g3153
sg64
(lp3160
S'submit'
p3161
asbag57
(g78
g59
NtRp3162
(dp3163
g62
(dp3164
g89
g90
ssg71
g3153
sg64
(lp3165
S':'
asbag57
(g78
g59
NtRp3166
(dp3167
g62
(dp3168
sg71
g3153
sg64
(lp3169
g57
(g58
g59
NtRp3170
(dp3171
g62
(dp3172
g70
I4
ssg71
g3166
sg64
(lp3173
S'Add This Word'
p3174
asbasbasbag57
(g73
g59
NtRp3175
(dp3176
g62
(dp3177
sg71
g3084
sg64
(lp3178
g57
(g78
g59
NtRp3179
(dp3180
g62
(dp3181
g82
g83
ssg71
g3175
sg64
(lp3182
S'word'
p3183
asbag57
(g78
g59
NtRp3184
(dp3185
g62
(dp3186
g89
g90
ssg71
g3175
sg64
(lp3187
S':'
asbag57
(g78
g59
NtRp3188
(dp3189
g62
(dp3190
sg71
g3175
sg64
(lp3191
g57
(g58
g59
NtRp3192
(dp3193
g62
(dp3194
g70
I4
ssg71
g3188
sg64
(lp3195
S'fast'
p3196
asbasbasbasbasbasbasbag57
(g73
g59
NtRp3197
(dp3198
g62
(dp3199
sg71
g67
sg64
(lp3200
g57
(g78
g59
NtRp3201
(dp3202
g62
(dp3203
g82
g83
ssg71
g3197
sg64
(lp3204
S'raw_args'
p3205
asbag57
(g78
g59
NtRp3206
(dp3207
g62
(dp3208
g89
g90
ssg71
g3197
sg64
(lp3209
S':'
asbag57
(g78
g59
NtRp3210
(dp3211
g62
(dp3212
sg71
g3197
sg64
(lp3213
g57
(g58
g59
NtRp3214
(dp3215
g62
(dp3216
g70
I5
ssg71
g3210
sg64
(lp3217
S''
asbasbasbag57
(g73
g59
NtRp3218
(dp3219
g62
(dp3220
sg71
g67
sg64
(lp3221
g57
(g78
g59
NtRp3222
(dp3223
g62
(dp3224
g82
g83
ssg71
g3218
sg64
(lp3225
S'raw_extension'
p3226
asbag57
(g78
g59
NtRp3227
(dp3228
g62
(dp3229
g89
g90
ssg71
g3218
sg64
(lp3230
S':'
asbag57
(g78
g59
NtRp3231
(dp3232
g62
(dp3233
sg71
g3218
sg64
(lp3234
g57
(g58
g59
NtRp3235
(dp3236
g62
(dp3237
g70
I5
ssg71
g3231
sg64
(lp3238
S'None'
p3239
asbasbasbag57
(g73
g59
NtRp3240
(dp3241
g62
(dp3242
sg71
g67
sg64
(lp3243
g57
(g78
g59
NtRp3244
(dp3245
g62
(dp3246
g82
g83
ssg71
g3240
sg64
(lp3247
S'url'
p3248
asbag57
(g78
g59
NtRp3249
(dp3250
g62
(dp3251
g89
g90
ssg71
g3240
sg64
(lp3252
S':'
asbag57
(g78
g59
NtRp3253
(dp3254
g62
(dp3255
sg71
g3240
sg64
(lp3256
g57
(g58
g59
NtRp3257
(dp3258
g62
(dp3259
g70
I5
ssg71
g3253
sg64
(lp3260
g1980
asbasbasbag57
(g73
g59
NtRp3261
(dp3262
g62
(dp3263
sg71
g67
sg64
(lp3264
g57
(g78
g59
NtRp3265
(dp3266
g62
(dp3267
g82
g83
ssg71
g3261
sg64
(lp3268
S'utcnow'
p3269
asbag57
(g78
g59
NtRp3270
(dp3271
g62
(dp3272
g89
g90
ssg71
g3261
sg64
(lp3273
S':'
asbag57
(g78
g59
NtRp3274
(dp3275
g62
(dp3276
sg71
g3261
sg64
(lp3277
g57
(g58
g59
NtRp3278
(dp3279
g62
(dp3280
g70
I5
ssg71
g3274
sg64
(lp3281
S'datetime.datetime(2013, 11, 19, 11, 3, 30, 581927)'
p3282
asbasbasbag57
(g73
g59
NtRp3283
(dp3284
g62
(dp3285
sg71
g67
sg64
(lp3286
g57
(g78
g59
NtRp3287
(dp3288
g62
(dp3289
g82
g83
ssg71
g3283
sg64
(lp3290
S'uuid'
p3291
asbag57
(g78
g59
NtRp3292
(dp3293
g62
(dp3294
g89
g90
ssg71
g3283
sg64
(lp3295
S':'
asbag57
(g78
g59
NtRp3296
(dp3297
g62
(dp3298
sg71
g3283
sg64
(lp3299
g57
(g58
g59
NtRp3300
(dp3301
g62
(dp3302
g70
I5
ssg71
g3296
sg64
(lp3303
S'WSD/127.0.0.1.2013-11-19.16-33-30.f8d8c849-34b6-4c19-875a-e03c974ba694'
p3304
asbasbasbag57
(g73
g59
NtRp3305
(dp3306
g62
(dp3307
sg71
g67
sg64
(lp3308
g57
(g78
g59
NtRp3309
(dp3310
g62
(dp3311
g82
g83
ssg71
g3305
sg64
(lp3312
S'vars'
p3313
asbag57
(g78
g59
NtRp3314
(dp3315
g62
(dp3316
g89
g90
ssg71
g3305
sg64
(lp3317
S':'
asbag57
(g78
g59
NtRp3318
(dp3319
g62
(dp3320
sg71
g3305
sg64
(lp3321
g57
(g58
g59
NtRp3322
(dp3323
g62
(dp3324
g70
I5
ssg71
g3318
sg64
(lp3325
g57
(g66
g59
NtRp3326
(dp3327
g62
(dp3328
g70
I4
ssg71
Nsg64
(lp3329
g57
(g73
g59
NtRp3330
(dp3331
g62
(dp3332
sg71
g3326
sg64
(lp3333
g57
(g78
g59
NtRp3334
(dp3335
g62
(dp3336
g82
g83
ssg71
g3330
sg64
(lp3337
g3096
asbag57
(g78
g59
NtRp3338
(dp3339
g62
(dp3340
g89
g90
ssg71
g3330
sg64
(lp3341
S':'
asbag57
(g78
g59
NtRp3342
(dp3343
g62
(dp3344
sg71
g3330
sg64
(lp3345
g57
(g58
g59
NtRp3346
(dp3347
g62
(dp3348
g70
I4
ssg71
g3342
sg64
(lp3349
g3109
asbasbasbag57
(g73
g59
NtRp3350
(dp3351
g62
(dp3352
sg71
g3326
sg64
(lp3353
g57
(g78
g59
NtRp3354
(dp3355
g62
(dp3356
g82
g83
ssg71
g3350
sg64
(lp3357
g3118
asbag57
(g78
g59
NtRp3358
(dp3359
g62
(dp3360
g89
g90
ssg71
g3350
sg64
(lp3361
S':'
asbag57
(g78
g59
NtRp3362
(dp3363
g62
(dp3364
sg71
g3350
sg64
(lp3365
g57
(g58
g59
NtRp3366
(dp3367
g62
(dp3368
g70
I4
ssg71
g3362
sg64
(lp3369
g3131
asbasbasbag57
(g73
g59
NtRp3370
(dp3371
g62
(dp3372
sg71
g3326
sg64
(lp3373
g57
(g78
g59
NtRp3374
(dp3375
g62
(dp3376
g82
g83
ssg71
g3370
sg64
(lp3377
g3140
asbag57
(g78
g59
NtRp3378
(dp3379
g62
(dp3380
g89
g90
ssg71
g3370
sg64
(lp3381
S':'
asbag57
(g78
g59
NtRp3382
(dp3383
g62
(dp3384
sg71
g3370
sg64
(lp3385
g57
(g58
g59
NtRp3386
(dp3387
g62
(dp3388
g70
I4
ssg71
g3382
sg64
(lp3389
S'1'
asbasbasbag57
(g73
g59
NtRp3390
(dp3391
g62
(dp3392
sg71
g3326
sg64
(lp3393
g57
(g78
g59
NtRp3394
(dp3395
g62
(dp3396
g82
g83
ssg71
g3390
sg64
(lp3397
g3161
asbag57
(g78
g59
NtRp3398
(dp3399
g62
(dp3400
g89
g90
ssg71
g3390
sg64
(lp3401
S':'
asbag57
(g78
g59
NtRp3402
(dp3403
g62
(dp3404
sg71
g3390
sg64
(lp3405
g57
(g58
g59
NtRp3406
(dp3407
g62
(dp3408
g70
I4
ssg71
g3402
sg64
(lp3409
g3174
asbasbasbag57
(g73
g59
NtRp3410
(dp3411
g62
(dp3412
sg71
g3326
sg64
(lp3413
g57
(g78
g59
NtRp3414
(dp3415
g62
(dp3416
g82
g83
ssg71
g3410
sg64
(lp3417
g3183
asbag57
(g78
g59
NtRp3418
(dp3419
g62
(dp3420
g89
g90
ssg71
g3410
sg64
(lp3421
S':'
asbag57
(g78
g59
NtRp3422
(dp3423
g62
(dp3424
sg71
g3410
sg64
(lp3425
g57
(g58
g59
NtRp3426
(dp3427
g62
(dp3428
g70
I4
ssg71
g3422
sg64
(lp3429
g3196
asbasbasbasbasbasbasbag57
(g73
g59
NtRp3430
(dp3431
g62
(dp3432
sg71
g67
sg64
(lp3433
g57
(g78
g59
NtRp3434
(dp3435
g62
(dp3436
g82
g83
ssg71
g3430
sg64
(lp3437
S'wsgi'
p3438
asbag57
(g78
g59
NtRp3439
(dp3440
g62
(dp3441
g89
g90
ssg71
g3430
sg64
(lp3442
S':'
asbag57
(g78
g59
NtRp3443
(dp3444
g62
(dp3445
sg71
g3430
sg64
(lp3446
g57
(g58
g59
NtRp3447
(dp3448
g62
(dp3449
g70
I5
ssg71
g3443
sg64
(lp3450
g57
(g66
g59
NtRp3451
(dp3452
g62
(dp3453
g70
I4
ssg71
Nsg64
(lp3454
g57
(g73
g59
NtRp3455
(dp3456
g62
(dp3457
sg71
g3451
sg64
(lp3458
g57
(g78
g59
NtRp3459
(dp3460
g62
(dp3461
g82
g83
ssg71
g3455
sg64
(lp3462
S'environ'
p3463
asbag57
(g78
g59
NtRp3464
(dp3465
g62
(dp3466
g89
g90
ssg71
g3455
sg64
(lp3467
S':'
asbag57
(g78
g59
NtRp3468
(dp3469
g62
(dp3470
sg71
g3455
sg64
(lp3471
g57
(g58
g59
NtRp3472
(dp3473
g62
(dp3474
g70
I4
ssg71
g3468
sg64
(lp3475
g57
(g66
g59
NtRp3476
(dp3477
g62
(dp3478
g70
I3
ssg71
Nsg64
(lp3479
g57
(g73
g59
NtRp3480
(dp3481
g62
(dp3482
sg71
g3476
sg64
(lp3483
g57
(g78
g59
NtRp3484
(dp3485
g62
(dp3486
g82
g83
ssg71
g3480
sg64
(lp3487
S'CONTENT_LENGTH'
p3488
asbag57
(g78
g59
NtRp3489
(dp3490
g62
(dp3491
g89
g90
ssg71
g3480
sg64
(lp3492
S':'
asbag57
(g78
g59
NtRp3493
(dp3494
g62
(dp3495
sg71
g3480
sg64
(lp3496
g57
(g58
g59
NtRp3497
(dp3498
g62
(dp3499
g70
I3
ssg71
g3493
sg64
(lp3500
g1521
asbasbasbag57
(g73
g59
NtRp3501
(dp3502
g62
(dp3503
sg71
g3476
sg64
(lp3504
g57
(g78
g59
NtRp3505
(dp3506
g62
(dp3507
g82
g83
ssg71
g3501
sg64
(lp3508
S'CONTENT_TYPE'
p3509
asbag57
(g78
g59
NtRp3510
(dp3511
g62
(dp3512
g89
g90
ssg71
g3501
sg64
(lp3513
S':'
asbag57
(g78
g59
NtRp3514
(dp3515
g62
(dp3516
sg71
g3501
sg64
(lp3517
g57
(g58
g59
NtRp3518
(dp3519
g62
(dp3520
g70
I3
ssg71
g3514
sg64
(lp3521
g1543
asbasbasbag57
(g73
g59
NtRp3522
(dp3523
g62
(dp3524
sg71
g3476
sg64
(lp3525
g57
(g78
g59
NtRp3526
(dp3527
g62
(dp3528
g82
g83
ssg71
g3522
sg64
(lp3529
S'HTTP_ACCEPT'
p3530
asbag57
(g78
g59
NtRp3531
(dp3532
g62
(dp3533
g89
g90
ssg71
g3522
sg64
(lp3534
S':'
asbag57
(g78
g59
NtRp3535
(dp3536
g62
(dp3537
sg71
g3522
sg64
(lp3538
g57
(g58
g59
NtRp3539
(dp3540
g62
(dp3541
g70
I3
ssg71
g3535
sg64
(lp3542
g1630
asbasbasbag57
(g73
g59
NtRp3543
(dp3544
g62
(dp3545
sg71
g3476
sg64
(lp3546
g57
(g78
g59
NtRp3547
(dp3548
g62
(dp3549
g82
g83
ssg71
g3543
sg64
(lp3550
S'HTTP_ACCEPT_ENCODING'
p3551
asbag57
(g78
g59
NtRp3552
(dp3553
g62
(dp3554
g89
g90
ssg71
g3543
sg64
(lp3555
S':'
asbag57
(g78
g59
NtRp3556
(dp3557
g62
(dp3558
sg71
g3543
sg64
(lp3559
g57
(g58
g59
NtRp3560
(dp3561
g62
(dp3562
g70
I3
ssg71
g3556
sg64
(lp3563
g1652
asbasbasbag57
(g73
g59
NtRp3564
(dp3565
g62
(dp3566
sg71
g3476
sg64
(lp3567
g57
(g78
g59
NtRp3568
(dp3569
g62
(dp3570
g82
g83
ssg71
g3564
sg64
(lp3571
S'HTTP_ACCEPT_LANGUAGE'
p3572
asbag57
(g78
g59
NtRp3573
(dp3574
g62
(dp3575
g89
g90
ssg71
g3564
sg64
(lp3576
S':'
asbag57
(g78
g59
NtRp3577
(dp3578
g62
(dp3579
sg71
g3564
sg64
(lp3580
g57
(g58
g59
NtRp3581
(dp3582
g62
(dp3583
g70
I3
ssg71
g3577
sg64
(lp3584
g1674
asbasbasbag57
(g73
g59
NtRp3585
(dp3586
g62
(dp3587
sg71
g3476
sg64
(lp3588
g57
(g78
g59
NtRp3589
(dp3590
g62
(dp3591
g82
g83
ssg71
g3585
sg64
(lp3592
S'HTTP_CONNECTION'
p3593
asbag57
(g78
g59
NtRp3594
(dp3595
g62
(dp3596
g89
g90
ssg71
g3585
sg64
(lp3597
S':'
asbag57
(g78
g59
NtRp3598
(dp3599
g62
(dp3600
sg71
g3585
sg64
(lp3601
g57
(g58
g59
NtRp3602
(dp3603
g62
(dp3604
g70
I3
ssg71
g3598
sg64
(lp3605
g1696
asbasbasbag57
(g73
g59
NtRp3606
(dp3607
g62
(dp3608
sg71
g3476
sg64
(lp3609
g57
(g78
g59
NtRp3610
(dp3611
g62
(dp3612
g82
g83
ssg71
g3606
sg64
(lp3613
S'HTTP_CONTENT_LENGTH'
p3614
asbag57
(g78
g59
NtRp3615
(dp3616
g62
(dp3617
g89
g90
ssg71
g3606
sg64
(lp3618
S':'
asbag57
(g78
g59
NtRp3619
(dp3620
g62
(dp3621
sg71
g3606
sg64
(lp3622
g57
(g58
g59
NtRp3623
(dp3624
g62
(dp3625
g70
I3
ssg71
g3619
sg64
(lp3626
g1521
asbasbasbag57
(g73
g59
NtRp3627
(dp3628
g62
(dp3629
sg71
g3476
sg64
(lp3630
g57
(g78
g59
NtRp3631
(dp3632
g62
(dp3633
g82
g83
ssg71
g3627
sg64
(lp3634
S'HTTP_CONTENT_TYPE'
p3635
asbag57
(g78
g59
NtRp3636
(dp3637
g62
(dp3638
g89
g90
ssg71
g3627
sg64
(lp3639
S':'
asbag57
(g78
g59
NtRp3640
(dp3641
g62
(dp3642
sg71
g3627
sg64
(lp3643
g57
(g58
g59
NtRp3644
(dp3645
g62
(dp3646
g70
I3
ssg71
g3640
sg64
(lp3647
g1543
asbasbasbag57
(g73
g59
NtRp3648
(dp3649
g62
(dp3650
sg71
g3476
sg64
(lp3651
g57
(g78
g59
NtRp3652
(dp3653
g62
(dp3654
g82
g83
ssg71
g3648
sg64
(lp3655
S'HTTP_COOKIE'
p3656
asbag57
(g78
g59
NtRp3657
(dp3658
g62
(dp3659
g89
g90
ssg71
g3648
sg64
(lp3660
S':'
asbag57
(g78
g59
NtRp3661
(dp3662
g62
(dp3663
sg71
g3648
sg64
(lp3664
g57
(g58
g59
NtRp3665
(dp3666
g62
(dp3667
g70
I3
ssg71
g3661
sg64
(lp3668
g1760
asbasbasbag57
(g73
g59
NtRp3669
(dp3670
g62
(dp3671
sg71
g3476
sg64
(lp3672
g57
(g78
g59
NtRp3673
(dp3674
g62
(dp3675
g82
g83
ssg71
g3669
sg64
(lp3676
S'HTTP_HOST'
p3677
asbag57
(g78
g59
NtRp3678
(dp3679
g62
(dp3680
g89
g90
ssg71
g3669
sg64
(lp3681
S':'
asbag57
(g78
g59
NtRp3682
(dp3683
g62
(dp3684
sg71
g3669
sg64
(lp3685
g57
(g58
g59
NtRp3686
(dp3687
g62
(dp3688
g70
I3
ssg71
g3682
sg64
(lp3689
g1782
asbasbasbag57
(g73
g59
NtRp3690
(dp3691
g62
(dp3692
sg71
g3476
sg64
(lp3693
g57
(g78
g59
NtRp3694
(dp3695
g62
(dp3696
g82
g83
ssg71
g3690
sg64
(lp3697
S'HTTP_REFERER'
p3698
asbag57
(g78
g59
NtRp3699
(dp3700
g62
(dp3701
g89
g90
ssg71
g3690
sg64
(lp3702
S':'
asbag57
(g78
g59
NtRp3703
(dp3704
g62
(dp3705
sg71
g3690
sg64
(lp3706
g57
(g58
g59
NtRp3707
(dp3708
g62
(dp3709
g70
I3
ssg71
g3703
sg64
(lp3710
g1804
asbasbasbag57
(g73
g59
NtRp3711
(dp3712
g62
(dp3713
sg71
g3476
sg64
(lp3714
g57
(g78
g59
NtRp3715
(dp3716
g62
(dp3717
g82
g83
ssg71
g3711
sg64
(lp3718
S'HTTP_USER_AGENT'
p3719
asbag57
(g78
g59
NtRp3720
(dp3721
g62
(dp3722
g89
g90
ssg71
g3711
sg64
(lp3723
S':'
asbag57
(g78
g59
NtRp3724
(dp3725
g62
(dp3726
sg71
g3711
sg64
(lp3727
g57
(g58
g59
NtRp3728
(dp3729
g62
(dp3730
g70
I3
ssg71
g3724
sg64
(lp3731
g1826
asbasbasbag57
(g73
g59
NtRp3732
(dp3733
g62
(dp3734
sg71
g3476
sg64
(lp3735
g57
(g78
g59
NtRp3736
(dp3737
g62
(dp3738
g82
g83
ssg71
g3732
sg64
(lp3739
S'PATH_INFO'
p3740
asbag57
(g78
g59
NtRp3741
(dp3742
g62
(dp3743
g89
g90
ssg71
g3732
sg64
(lp3744
S':'
asbag57
(g78
g59
NtRp3745
(dp3746
g62
(dp3747
sg71
g3732
sg64
(lp3748
g57
(g58
g59
NtRp3749
(dp3750
g62
(dp3751
g70
I3
ssg71
g3745
sg64
(lp3752
g1980
asbasbasbag57
(g73
g59
NtRp3753
(dp3754
g62
(dp3755
sg71
g3476
sg64
(lp3756
g57
(g78
g59
NtRp3757
(dp3758
g62
(dp3759
g82
g83
ssg71
g3753
sg64
(lp3760
S'QUERY_STRING'
p3761
asbag57
(g78
g59
NtRp3762
(dp3763
g62
(dp3764
g89
g90
ssg71
g3753
sg64
(lp3765
S':'
asbag57
(g78
g59
NtRp3766
(dp3767
g62
(dp3768
sg71
g3753
sg64
(lp3769
g57
(g58
g59
NtRp3770
(dp3771
g62
(dp3772
g70
I3
ssg71
g3766
sg64
(lp3773
S''
asbasbasbag57
(g73
g59
NtRp3774
(dp3775
g62
(dp3776
sg71
g3476
sg64
(lp3777
g57
(g78
g59
NtRp3778
(dp3779
g62
(dp3780
g82
g83
ssg71
g3774
sg64
(lp3781
S'REMOTE_ADDR'
p3782
asbag57
(g78
g59
NtRp3783
(dp3784
g62
(dp3785
g89
g90
ssg71
g3774
sg64
(lp3786
S':'
asbag57
(g78
g59
NtRp3787
(dp3788
g62
(dp3789
sg71
g3774
sg64
(lp3790
g57
(g58
g59
NtRp3791
(dp3792
g62
(dp3793
g70
I3
ssg71
g3787
sg64
(lp3794
g212
asbasbasbag57
(g73
g59
NtRp3795
(dp3796
g62
(dp3797
sg71
g3476
sg64
(lp3798
g57
(g78
g59
NtRp3799
(dp3800
g62
(dp3801
g82
g83
ssg71
g3795
sg64
(lp3802
S'REMOTE_PORT'
p3803
asbag57
(g78
g59
NtRp3804
(dp3805
g62
(dp3806
g89
g90
ssg71
g3795
sg64
(lp3807
S':'
asbag57
(g78
g59
NtRp3808
(dp3809
g62
(dp3810
sg71
g3795
sg64
(lp3811
g57
(g58
g59
NtRp3812
(dp3813
g62
(dp3814
g70
I3
ssg71
g3808
sg64
(lp3815
g2044
asbasbasbag57
(g73
g59
NtRp3816
(dp3817
g62
(dp3818
sg71
g3476
sg64
(lp3819
g57
(g78
g59
NtRp3820
(dp3821
g62
(dp3822
g82
g83
ssg71
g3816
sg64
(lp3823
S'REQUEST_METHOD'
p3824
asbag57
(g78
g59
NtRp3825
(dp3826
g62
(dp3827
g89
g90
ssg71
g3816
sg64
(lp3828
S':'
asbag57
(g78
g59
NtRp3829
(dp3830
g62
(dp3831
sg71
g3816
sg64
(lp3832
g57
(g58
g59
NtRp3833
(dp3834
g62
(dp3835
g70
I3
ssg71
g3829
sg64
(lp3836
g2066
asbasbasbag57
(g73
g59
NtRp3837
(dp3838
g62
(dp3839
sg71
g3476
sg64
(lp3840
g57
(g78
g59
NtRp3841
(dp3842
g62
(dp3843
g82
g83
ssg71
g3837
sg64
(lp3844
S'REQUEST_URI'
p3845
asbag57
(g78
g59
NtRp3846
(dp3847
g62
(dp3848
g89
g90
ssg71
g3837
sg64
(lp3849
S':'
asbag57
(g78
g59
NtRp3850
(dp3851
g62
(dp3852
sg71
g3837
sg64
(lp3853
g57
(g58
g59
NtRp3854
(dp3855
g62
(dp3856
g70
I3
ssg71
g3850
sg64
(lp3857
g1980
asbasbasbag57
(g73
g59
NtRp3858
(dp3859
g62
(dp3860
sg71
g3476
sg64
(lp3861
g57
(g78
g59
NtRp3862
(dp3863
g62
(dp3864
g82
g83
ssg71
g3858
sg64
(lp3865
S'SCRIPT_NAME'
p3866
asbag57
(g78
g59
NtRp3867
(dp3868
g62
(dp3869
g89
g90
ssg71
g3858
sg64
(lp3870
S':'
asbag57
(g78
g59
NtRp3871
(dp3872
g62
(dp3873
sg71
g3858
sg64
(lp3874
g57
(g58
g59
NtRp3875
(dp3876
g62
(dp3877
g70
I3
ssg71
g3871
sg64
(lp3878
S''
asbasbasbag57
(g73
g59
NtRp3879
(dp3880
g62
(dp3881
sg71
g3476
sg64
(lp3882
g57
(g78
g59
NtRp3883
(dp3884
g62
(dp3885
g82
g83
ssg71
g3879
sg64
(lp3886
S'SERVER_NAME'
p3887
asbag57
(g78
g59
NtRp3888
(dp3889
g62
(dp3890
g89
g90
ssg71
g3879
sg64
(lp3891
S':'
asbag57
(g78
g59
NtRp3892
(dp3893
g62
(dp3894
sg71
g3879
sg64
(lp3895
g57
(g58
g59
NtRp3896
(dp3897
g62
(dp3898
g70
I3
ssg71
g3892
sg64
(lp3899
g2130
asbasbasbag57
(g73
g59
NtRp3900
(dp3901
g62
(dp3902
sg71
g3476
sg64
(lp3903
g57
(g78
g59
NtRp3904
(dp3905
g62
(dp3906
g82
g83
ssg71
g3900
sg64
(lp3907
S'SERVER_PORT'
p3908
asbag57
(g78
g59
NtRp3909
(dp3910
g62
(dp3911
g89
g90
ssg71
g3900
sg64
(lp3912
S':'
asbag57
(g78
g59
NtRp3913
(dp3914
g62
(dp3915
sg71
g3900
sg64
(lp3916
g57
(g58
g59
NtRp3917
(dp3918
g62
(dp3919
g70
I3
ssg71
g3913
sg64
(lp3920
g2152
asbasbasbag57
(g73
g59
NtRp3921
(dp3922
g62
(dp3923
sg71
g3476
sg64
(lp3924
g57
(g78
g59
NtRp3925
(dp3926
g62
(dp3927
g82
g83
ssg71
g3921
sg64
(lp3928
S'SERVER_PROTOCOL'
p3929
asbag57
(g78
g59
NtRp3930
(dp3931
g62
(dp3932
g89
g90
ssg71
g3921
sg64
(lp3933
S':'
asbag57
(g78
g59
NtRp3934
(dp3935
g62
(dp3936
sg71
g3921
sg64
(lp3937
g57
(g58
g59
NtRp3938
(dp3939
g62
(dp3940
g70
I3
ssg71
g3934
sg64
(lp3941
g2174
asbasbasbag57
(g73
g59
NtRp3942
(dp3943
g62
(dp3944
sg71
g3476
sg64
(lp3945
g57
(g78
g59
NtRp3946
(dp3947
g62
(dp3948
g82
g83
ssg71
g3942
sg64
(lp3949
S'SERVER_SOFTWARE'
p3950
asbag57
(g78
g59
NtRp3951
(dp3952
g62
(dp3953
g89
g90
ssg71
g3942
sg64
(lp3954
S':'
asbag57
(g78
g59
NtRp3955
(dp3956
g62
(dp3957
sg71
g3942
sg64
(lp3958
g57
(g58
g59
NtRp3959
(dp3960
g62
(dp3961
g70
I3
ssg71
g3955
sg64
(lp3962
g2196
asbasbasbag57
(g73
g59
NtRp3963
(dp3964
g62
(dp3965
sg71
g3476
sg64
(lp3966
g57
(g78
g59
NtRp3967
(dp3968
g62
(dp3969
g82
g83
ssg71
g3963
sg64
(lp3970
S'wsgi.errors'
p3971
asbag57
(g78
g59
NtRp3972
(dp3973
g62
(dp3974
g89
g90
ssg71
g3963
sg64
(lp3975
S':'
asbag57
(g78
g59
NtRp3976
(dp3977
g62
(dp3978
sg71
g3963
sg64
(lp3979
g57
(g58
g59
NtRp3980
(dp3981
g62
(dp3982
g70
I3
ssg71
g3976
sg64
(lp3983
S"<open file '<stderr>', mode 'w' at 0xb72d20d0>"
p3984
asbasbasbag57
(g73
g59
NtRp3985
(dp3986
g62
(dp3987
sg71
g3476
sg64
(lp3988
g57
(g78
g59
NtRp3989
(dp3990
g62
(dp3991
g82
g83
ssg71
g3985
sg64
(lp3992
S'wsgi.file_wrapper'
p3993
asbag57
(g78
g59
NtRp3994
(dp3995
g62
(dp3996
g89
g90
ssg71
g3985
sg64
(lp3997
S':'
asbag57
(g78
g59
NtRp3998
(dp3999
g62
(dp4000
sg71
g3985
sg64
(lp4001
g57
(g58
g59
NtRp4002
(dp4003
g62
(dp4004
g70
I3
ssg71
g3998
sg64
(lp4005
S'<class wsgiref.util.FileWrapper at 0x8e0a47c>'
p4006
asbasbasbag57
(g73
g59
NtRp4007
(dp4008
g62
(dp4009
sg71
g3476
sg64
(lp4010
g57
(g78
g59
NtRp4011
(dp4012
g62
(dp4013
g82
g83
ssg71
g4007
sg64
(lp4014
S'wsgi.input'
p4015
asbag57
(g78
g59
NtRp4016
(dp4017
g62
(dp4018
g89
g90
ssg71
g4007
sg64
(lp4019
S':'
asbag57
(g78
g59
NtRp4020
(dp4021
g62
(dp4022
sg71
g4007
sg64
(lp4023
g57
(g58
g59
NtRp4024
(dp4025
g62
(dp4026
g70
I3
ssg71
g4020
sg64
(lp4027
S"<open file '<fdopen>', mode 'w+b' at 0x92ad230>"
p4028
asbasbasbag57
(g73
g59
NtRp4029
(dp4030
g62
(dp4031
sg71
g3476
sg64
(lp4032
g57
(g78
g59
NtRp4033
(dp4034
g62
(dp4035
g82
g83
ssg71
g4029
sg64
(lp4036
S'wsgi.multiprocess'
p4037
asbag57
(g78
g59
NtRp4038
(dp4039
g62
(dp4040
g89
g90
ssg71
g4029
sg64
(lp4041
S':'
asbag57
(g78
g59
NtRp4042
(dp4043
g62
(dp4044
sg71
g4029
sg64
(lp4045
g57
(g58
g59
NtRp4046
(dp4047
g62
(dp4048
g70
I3
ssg71
g4042
sg64
(lp4049
g100
asbasbasbag57
(g73
g59
NtRp4050
(dp4051
g62
(dp4052
sg71
g3476
sg64
(lp4053
g57
(g78
g59
NtRp4054
(dp4055
g62
(dp4056
g82
g83
ssg71
g4050
sg64
(lp4057
S'wsgi.multithread'
p4058
asbag57
(g78
g59
NtRp4059
(dp4060
g62
(dp4061
g89
g90
ssg71
g4050
sg64
(lp4062
S':'
asbag57
(g78
g59
NtRp4063
(dp4064
g62
(dp4065
sg71
g4050
sg64
(lp4066
g57
(g58
g59
NtRp4067
(dp4068
g62
(dp4069
g70
I3
ssg71
g4063
sg64
(lp4070
g2413
asbasbasbag57
(g73
g59
NtRp4071
(dp4072
g62
(dp4073
sg71
g3476
sg64
(lp4074
g57
(g78
g59
NtRp4075
(dp4076
g62
(dp4077
g82
g83
ssg71
g4071
sg64
(lp4078
S'wsgi.run_once'
p4079
asbag57
(g78
g59
NtRp4080
(dp4081
g62
(dp4082
g89
g90
ssg71
g4071
sg64
(lp4083
S':'
asbag57
(g78
g59
NtRp4084
(dp4085
g62
(dp4086
sg71
g4071
sg64
(lp4087
g57
(g58
g59
NtRp4088
(dp4089
g62
(dp4090
g70
I3
ssg71
g4084
sg64
(lp4091
g100
asbasbasbag57
(g73
g59
NtRp4092
(dp4093
g62
(dp4094
sg71
g3476
sg64
(lp4095
g57
(g78
g59
NtRp4096
(dp4097
g62
(dp4098
g82
g83
ssg71
g4092
sg64
(lp4099
S'wsgi.url_scheme'
p4100
asbag57
(g78
g59
NtRp4101
(dp4102
g62
(dp4103
g89
g90
ssg71
g4092
sg64
(lp4104
S':'
asbag57
(g78
g59
NtRp4105
(dp4106
g62
(dp4107
sg71
g4092
sg64
(lp4108
g57
(g58
g59
NtRp4109
(dp4110
g62
(dp4111
g70
I3
ssg71
g4105
sg64
(lp4112
g2456
asbasbasbag57
(g73
g59
NtRp4113
(dp4114
g62
(dp4115
sg71
g3476
sg64
(lp4116
g57
(g78
g59
NtRp4117
(dp4118
g62
(dp4119
g82
g83
ssg71
g4113
sg64
(lp4120
S'wsgi.version'
p4121
asbag57
(g78
g59
NtRp4122
(dp4123
g62
(dp4124
g89
g90
ssg71
g4113
sg64
(lp4125
S':'
asbag57
(g78
g59
NtRp4126
(dp4127
g62
(dp4128
sg71
g4113
sg64
(lp4129
g57
(g58
g59
NtRp4130
(dp4131
g62
(dp4132
g70
I3
ssg71
g4126
sg64
(lp4133
S'1'
asbasbasbasbasbasbasbasbasbasbasbasbasbsS'frames'
p4134
(lp4135
(dp4136
S'file'
p4137
S'/home/nazrul/web2py/gluon/restricted.py'
p4138
sS'dump'
p4139
(dp4140
S'environment'
p4141
S"{'A': <class 'gluon.html.A'>, 'Auth': <class 'gluon.tools.Auth'>, 'B': <class 'gluon.html.B'>, 'BEAUTIFY': <class 'gluon.html.BEAUTIFY'>, 'BODY': <class 'gluon.html.BODY'>, 'BR': <class 'gluon.html.BR'>, 'BUTTON': <class 'gluon.html.BUTTON'>, 'CAT': <class 'gluon.html.CAT'>, 'CENTER': <class 'gluon.html.CENTER'>, 'CLEANUP': <class 'gluon.validators.CLEANUP'>, ...}"
p4142
sS'ccode'
p4143
S'<code object <module> at 0xacdb94a0, file "/home...pplications/WSD/controllers/default.py", line 11>'
p4144
ssS'lnum'
p4145
I212
sS'lines'
p4146
(dp4147
I207
S'    try:'
p4148
sI208
S'        if isinstance(code, types.CodeType):'
p4149
sI209
S'            ccode = code'
p4150
sI210
S'        else:'
p4151
sI211
S'            ccode = compile2(code, layer)'
p4152
sI212
S'        exec ccode in environment'
p4153
sI213
S'    except HTTP:'
p4154
sI214
S'        raise'
p4155
sI215
S'    except RestrictedError:'
p4156
sI216
S'        # do not encapsulate (obfuscate) the original RestrictedError'
p4157
ssS'call'
p4158
S"(code='# -*- coding: utf-8 -*-\\n# this file is released ...email)\\n\\nresponse._vars=response._caller(addword)\\n', environment={'A': <class 'gluon.html.A'>, 'Auth': <class 'gluon.tools.Auth'>, 'B': <class 'gluon.html.B'>, 'BEAUTIFY': <class 'gluon.html.BEAUTIFY'>, 'BODY': <class 'gluon.html.BODY'>, 'BR': <class 'gluon.html.BR'>, 'BUTTON': <class 'gluon.html.BUTTON'>, 'CAT': <class 'gluon.html.CAT'>, 'CENTER': <class 'gluon.html.CENTER'>, 'CLEANUP': <class 'gluon.validators.CLEANUP'>, ...}, layer='/home/nazrul/web2py/applications/WSD/controllers/default.py')"
p4159
sS'func'
p4160
S'restricted'
p4161
sa(dp4162
g4137
S'/home/nazrul/web2py/applications/WSD/controllers/default.py'
p4163
sg4139
(dp4164
sg4145
I427
sg4146
(dp4165
I416
S"    form=SQLFORM.factory(Field('user',requires=IS_IN_SET(l)))"
p4166
sI417
S'    if form.accepts(request.vars,session):'
p4167
sI418
S"            redirect(URL('disp_adv',vars=dict(uid=d[form.vars.user])))"
p4168
sI419
S'    return dict(form=form)'
p4169
sI420
S'def disp_adv():'
p4170
sI421
S'    u=request.vars.uid'
p4171
sI422
S'    email=db(db.auth_user.id==u).select(db.auth_user.email)'
p4172
sI423
S'    email=email[0].email'
p4173
sI424
S'    l=db(db.rules.userid==u).select()'
p4174
sI425
S'    return dict(l=l,email=email)'
p4175
ssg4158
S'()'
p4176
sg4160
S'<module>'
p4177
sa(dp4178
g4137
S'/home/nazrul/web2py/gluon/globals.py'
p4179
sg4139
(dp4180
S'self'
p4181
S'undefined'
p4182
sS'f'
S'<function addword>'
p4183
ssg4145
I193
sg4146
(dp4184
I192
S'        self._vars = None'
p4185
sI193
S'        self._caller = lambda f: f()'
p4186
sI194
S'        self._view_environment = None'
p4187
sI195
S'        self._custom_commit = None'
p4188
sI196
S'        self._custom_rollback = None'
p4189
sI197
S''
sI188
S'        self.menu = []             # used by the default view layout'
p4190
sI189
S'        self.files = []            # used by web2py_ajax.html'
p4191
sI190
S'        self.generic_patterns = []  # patterns to allow generic views'
p4192
sI191
S"        self.delimiters = ('{{', '}}')"
p4193
ssg4158
S'(f=<function addword>)'
p4194
sg4160
S'<lambda>'
p4195
sa(dp4196
g4137
S'/home/nazrul/web2py/gluon/tools.py'
p4197
sg4139
(dp4198
S'action'
p4199
S'<function addword>'
p4200
sS'a'
S'()'
p4201
sS'b'
g45
ssg4145
I2929
sg4146
(dp4202
I2924
S'                    flag = condition'
p4203
sI2925
S'                if not flag:'
p4204
sI2926
S'                    current.session.flash = self.messages.access_denied'
p4205
sI2927
S'                    return call_or_redirect('
p4206
sI2928
S'                        self.settings.on_failed_authorization)'
p4207
sI2929
S'                return action(*a, **b)'
p4208
sI2930
S'            f.__doc__ = action.__doc__'
p4209
sI2931
S'            f.__name__ = action.__name__'
p4210
sI2932
S'            f.__dict__.update(action.__dict__)'
p4211
sI2933
S'            return f'
p4212
ssg4158
S'(*a=(), **b={})'
p4213
sg4160
S'f'
sa(dp4214
g4137
S'/home/nazrul/web2py/applications/WSD/controllers/default.py'
p4215
sg4139
(dp4216
S'word'
p4217
S"'fast'"
p4218
sS'd'
S"{'1': ' fast', '2': 'nickname', '3': 'for', '4': 'measures', '5': 'to', '6': 'stop', '7': 'the', '8': 'market', '9': 'from'}"
p4219
sS'].strip'
p4220
S'<built-in method strip of str object>'
p4221
sS'i'
S"'(kriyA-kriyA_viSeRaNa  10 14)'"
p4222
sS'builtinstr'
p4223
S"<type 'str'>"
p4224
sS'l2'
p4225
S'[]'
p4226
sS'l2.append'
p4227
S'<built-in method append of list object>'
p4228
sS'anu_id'
p4229
S"'4'"
p4230
ssg4145
I306
sg4146
(dp4231
I301
S'       for i in f:'
p4232
sI302
S'           i=i.strip()'
p4233
sI303
S'           if i[-4]==str(anu_id):'
p4234
sI304
S'               l1.append(i[:-4].strip()+\')\'+\' \'+\' \'+str(anu_id)+\',\'+\'\\"\'+str(word)+\'\\"\'+\' \'+i[-2]+\',\'+\'\\"\'+d[i[-2]]+\'\\"\')'
p4235
sI305
S'           elif i[-2]==str(anu_id):'
p4236
sI306
S'               l2.append(i[:-4].strip()+\')\'+\' \'+\' \'+i[-2]+\',\'+\'\\"\'+d[i[-4]]+\'\\"\'+\' \'+str(anu_id)+\',\'+\'\\"\'+str(word)+\'\\"\')'
p4237
sI307
S'       l=l1+l2'
p4238
sI308
S'       f.close()'
p4239
sI309
S'       for r in l:'
p4240
sI310
S'           db.rel_all.insert(wid=w[0].id,sid=s[0].id,relation=r)'
p4241
ssg4158
S'()'
p4242
sg4160
S'addword'
p4243
sasS'pyver'
p4244
S'Python 2.7.3: /usr/bin/python'
p4245
sS'session'
p4246
g57
(g58
g59
NtRp4247
(dp4248
g62
(dp4249
sg64
(lp4250
g57
(g66
g59
NtRp4251
(dp4252
g62
(dp4253
g70
I5
ssg71
Nsg64
(lp4254
g57
(g73
g59
NtRp4255
(dp4256
g62
(dp4257
sg71
g4251
sg64
(lp4258
g57
(g78
g59
NtRp4259
(dp4260
g62
(dp4261
g82
g83
ssg71
g4255
sg64
(lp4262
S'auth'
p4263
asbag57
(g78
g59
NtRp4264
(dp4265
g62
(dp4266
g89
g90
ssg71
g4255
sg64
(lp4267
S':'
asbag57
(g78
g59
NtRp4268
(dp4269
g62
(dp4270
sg71
g4255
sg64
(lp4271
g57
(g58
g59
NtRp4272
(dp4273
g62
(dp4274
g70
I5
ssg71
g4268
sg64
(lp4275
g57
(g66
g59
NtRp4276
(dp4277
g62
(dp4278
g70
I4
ssg71
Nsg64
(lp4279
g57
(g73
g59
NtRp4280
(dp4281
g62
(dp4282
sg71
g4276
sg64
(lp4283
g57
(g78
g59
NtRp4284
(dp4285
g62
(dp4286
g82
g83
ssg71
g4280
sg64
(lp4287
S'expiration'
p4288
asbag57
(g78
g59
NtRp4289
(dp4290
g62
(dp4291
g89
g90
ssg71
g4280
sg64
(lp4292
S':'
asbag57
(g78
g59
NtRp4293
(dp4294
g62
(dp4295
sg71
g4280
sg64
(lp4296
g57
(g58
g59
NtRp4297
(dp4298
g62
(dp4299
g70
I4
ssg71
g4293
sg64
(lp4300
S'3600'
p4301
asbasbasbag57
(g73
g59
NtRp4302
(dp4303
g62
(dp4304
sg71
g4276
sg64
(lp4305
g57
(g78
g59
NtRp4306
(dp4307
g62
(dp4308
g82
g83
ssg71
g4302
sg64
(lp4309
S'hmac_key'
p4310
asbag57
(g78
g59
NtRp4311
(dp4312
g62
(dp4313
g89
g90
ssg71
g4302
sg64
(lp4314
S':'
asbag57
(g78
g59
NtRp4315
(dp4316
g62
(dp4317
sg71
g4302
sg64
(lp4318
g57
(g58
g59
NtRp4319
(dp4320
g62
(dp4321
g70
I4
ssg71
g4315
sg64
(lp4322
S'e7086539-8b54-453b-a217-5b1661b54ebf'
p4323
asbasbasbag57
(g73
g59
NtRp4324
(dp4325
g62
(dp4326
sg71
g4276
sg64
(lp4327
g57
(g78
g59
NtRp4328
(dp4329
g62
(dp4330
g82
g83
ssg71
g4324
sg64
(lp4331
S'last_visit'
p4332
asbag57
(g78
g59
NtRp4333
(dp4334
g62
(dp4335
g89
g90
ssg71
g4324
sg64
(lp4336
S':'
asbag57
(g78
g59
NtRp4337
(dp4338
g62
(dp4339
sg71
g4324
sg64
(lp4340
g57
(g58
g59
NtRp4341
(dp4342
g62
(dp4343
g70
I4
ssg71
g4337
sg64
(lp4344
S'datetime.datetime(2013, 11, 19, 16, 33, 30, 581890)'
p4345
asbasbasbag57
(g73
g59
NtRp4346
(dp4347
g62
(dp4348
sg71
g4276
sg64
(lp4349
g57
(g78
g59
NtRp4350
(dp4351
g62
(dp4352
g82
g83
ssg71
g4346
sg64
(lp4353
S'remember'
p4354
asbag57
(g78
g59
NtRp4355
(dp4356
g62
(dp4357
g89
g90
ssg71
g4346
sg64
(lp4358
S':'
asbag57
(g78
g59
NtRp4359
(dp4360
g62
(dp4361
sg71
g4346
sg64
(lp4362
g57
(g58
g59
NtRp4363
(dp4364
g62
(dp4365
g70
I4
ssg71
g4359
sg64
(lp4366
g100
asbasbasbag57
(g73
g59
NtRp4367
(dp4368
g62
(dp4369
sg71
g4276
sg64
(lp4370
g57
(g78
g59
NtRp4371
(dp4372
g62
(dp4373
g82
g83
ssg71
g4367
sg64
(lp4374
S'user'
p4375
asbag57
(g78
g59
NtRp4376
(dp4377
g62
(dp4378
g89
g90
ssg71
g4367
sg64
(lp4379
S':'
asbag57
(g78
g59
NtRp4380
(dp4381
g62
(dp4382
sg71
g4367
sg64
(lp4383
g57
(g58
g59
NtRp4384
(dp4385
g62
(dp4386
g70
I4
ssg71
g4380
sg64
(lp4387
g57
(g66
g59
NtRp4388
(dp4389
g62
(dp4390
g70
I3
ssg71
Nsg64
(lp4391
g57
(g73
g59
NtRp4392
(dp4393
g62
(dp4394
sg71
g4388
sg64
(lp4395
g57
(g78
g59
NtRp4396
(dp4397
g62
(dp4398
g82
g83
ssg71
g4392
sg64
(lp4399
S'email'
p4400
asbag57
(g78
g59
NtRp4401
(dp4402
g62
(dp4403
g89
g90
ssg71
g4392
sg64
(lp4404
S':'
asbag57
(g78
g59
NtRp4405
(dp4406
g62
(dp4407
sg71
g4392
sg64
(lp4408
g57
(g58
g59
NtRp4409
(dp4410
g62
(dp4411
g70
I3
ssg71
g4405
sg64
(lp4412
S'root@sys.com'
p4413
asbasbasbag57
(g73
g59
NtRp4414
(dp4415
g62
(dp4416
sg71
g4388
sg64
(lp4417
g57
(g78
g59
NtRp4418
(dp4419
g62
(dp4420
g82
g83
ssg71
g4414
sg64
(lp4421
S'first_name'
p4422
asbag57
(g78
g59
NtRp4423
(dp4424
g62
(dp4425
g89
g90
ssg71
g4414
sg64
(lp4426
S':'
asbag57
(g78
g59
NtRp4427
(dp4428
g62
(dp4429
sg71
g4414
sg64
(lp4430
g57
(g58
g59
NtRp4431
(dp4432
g62
(dp4433
g70
I3
ssg71
g4427
sg64
(lp4434
S'root'
p4435
asbasbasbag57
(g73
g59
NtRp4436
(dp4437
g62
(dp4438
sg71
g4388
sg64
(lp4439
g57
(g78
g59
NtRp4440
(dp4441
g62
(dp4442
g82
g83
ssg71
g4436
sg64
(lp4443
S'id'
p4444
asbag57
(g78
g59
NtRp4445
(dp4446
g62
(dp4447
g89
g90
ssg71
g4436
sg64
(lp4448
S':'
asbag57
(g78
g59
NtRp4449
(dp4450
g62
(dp4451
sg71
g4436
sg64
(lp4452
g57
(g58
g59
NtRp4453
(dp4454
g62
(dp4455
g70
I3
ssg71
g4449
sg64
(lp4456
S'4'
asbasbasbag57
(g73
g59
NtRp4457
(dp4458
g62
(dp4459
sg71
g4388
sg64
(lp4460
g57
(g78
g59
NtRp4461
(dp4462
g62
(dp4463
g82
g83
ssg71
g4457
sg64
(lp4464
S'last_name'
p4465
asbag57
(g78
g59
NtRp4466
(dp4467
g62
(dp4468
g89
g90
ssg71
g4457
sg64
(lp4469
S':'
asbag57
(g78
g59
NtRp4470
(dp4471
g62
(dp4472
sg71
g4457
sg64
(lp4473
g57
(g58
g59
NtRp4474
(dp4475
g62
(dp4476
g70
I3
ssg71
g4470
sg64
(lp4477
S'root'
p4478
asbasbasbag57
(g73
g59
NtRp4479
(dp4480
g62
(dp4481
sg71
g4388
sg64
(lp4482
g57
(g78
g59
NtRp4483
(dp4484
g62
(dp4485
g82
g83
ssg71
g4479
sg64
(lp4486
S'registration_id'
p4487
asbag57
(g78
g59
NtRp4488
(dp4489
g62
(dp4490
g89
g90
ssg71
g4479
sg64
(lp4491
S':'
asbag57
(g78
g59
NtRp4492
(dp4493
g62
(dp4494
sg71
g4479
sg64
(lp4495
g57
(g58
g59
NtRp4496
(dp4497
g62
(dp4498
g70
I3
ssg71
g4492
sg64
(lp4499
S''
asbasbasbag57
(g73
g59
NtRp4500
(dp4501
g62
(dp4502
sg71
g4388
sg64
(lp4503
g57
(g78
g59
NtRp4504
(dp4505
g62
(dp4506
g82
g83
ssg71
g4500
sg64
(lp4507
S'registration_key'
p4508
asbag57
(g78
g59
NtRp4509
(dp4510
g62
(dp4511
g89
g90
ssg71
g4500
sg64
(lp4512
S':'
asbag57
(g78
g59
NtRp4513
(dp4514
g62
(dp4515
sg71
g4500
sg64
(lp4516
g57
(g58
g59
NtRp4517
(dp4518
g62
(dp4519
g70
I3
ssg71
g4513
sg64
(lp4520
S''
asbasbasbag57
(g73
g59
NtRp4521
(dp4522
g62
(dp4523
sg71
g4388
sg64
(lp4524
g57
(g78
g59
NtRp4525
(dp4526
g62
(dp4527
g82
g83
ssg71
g4521
sg64
(lp4528
S'reset_password_key'
p4529
asbag57
(g78
g59
NtRp4530
(dp4531
g62
(dp4532
g89
g90
ssg71
g4521
sg64
(lp4533
S':'
asbag57
(g78
g59
NtRp4534
(dp4535
g62
(dp4536
sg71
g4521
sg64
(lp4537
g57
(g58
g59
NtRp4538
(dp4539
g62
(dp4540
g70
I3
ssg71
g4534
sg64
(lp4541
S''
asbasbasbasbasbasbasbag57
(g73
g59
NtRp4542
(dp4543
g62
(dp4544
sg71
g4276
sg64
(lp4545
g57
(g78
g59
NtRp4546
(dp4547
g62
(dp4548
g82
g83
ssg71
g4542
sg64
(lp4549
S'user_groups'
p4550
asbag57
(g78
g59
NtRp4551
(dp4552
g62
(dp4553
g89
g90
ssg71
g4542
sg64
(lp4554
S':'
asbag57
(g78
g59
NtRp4555
(dp4556
g62
(dp4557
sg71
g4542
sg64
(lp4558
g57
(g58
g59
NtRp4559
(dp4560
g62
(dp4561
g70
I4
ssg71
g4555
sg64
(lp4562
g57
(g66
g59
NtRp4563
(dp4564
g62
(dp4565
g70
I3
ssg71
Nsg64
(lp4566
sbasbasbasbasbasbasbasbag57
(g73
g59
NtRp4567
(dp4568
g62
(dp4569
sg71
g4251
sg64
(lp4570
g57
(g78
g59
NtRp4571
(dp4572
g62
(dp4573
g82
g83
ssg71
g4567
sg64
(lp4574
S'f'
asbag57
(g78
g59
NtRp4575
(dp4576
g62
(dp4577
g89
g90
ssg71
g4567
sg64
(lp4578
S':'
asbag57
(g78
g59
NtRp4579
(dp4580
g62
(dp4581
sg71
g4567
sg64
(lp4582
g57
(g58
g59
NtRp4583
(dp4584
g62
(dp4585
g70
I5
ssg71
g4579
sg64
(lp4586
S'0'
asbasbasbag57
(g73
g59
NtRp4587
(dp4588
g62
(dp4589
sg71
g4251
sg64
(lp4590
g57
(g78
g59
NtRp4591
(dp4592
g62
(dp4593
g82
g83
ssg71
g4587
sg64
(lp4594
S'flash'
p4595
asbag57
(g78
g59
NtRp4596
(dp4597
g62
(dp4598
g89
g90
ssg71
g4587
sg64
(lp4599
S':'
asbag57
(g78
g59
NtRp4600
(dp4601
g62
(dp4602
sg71
g4587
sg64
(lp4603
g57
(g58
g59
NtRp4604
(dp4605
g62
(dp4606
g70
I5
ssg71
g4600
sg64
(lp4607
S'None'
p4608
asbasbasbag57
(g73
g59
NtRp4609
(dp4610
g62
(dp4611
sg71
g4251
sg64
(lp4612
g57
(g78
g59
NtRp4613
(dp4614
g62
(dp4615
g82
g83
ssg71
g4609
sg64
(lp4616
S'ide'
p4617
asbag57
(g78
g59
NtRp4618
(dp4619
g62
(dp4620
g89
g90
ssg71
g4609
sg64
(lp4621
S':'
asbag57
(g78
g59
NtRp4622
(dp4623
g62
(dp4624
sg71
g4609
sg64
(lp4625
g57
(g58
g59
NtRp4626
(dp4627
g62
(dp4628
g70
I5
ssg71
g4622
sg64
(lp4629
S'39'
p4630
asbasbasbag57
(g73
g59
NtRp4631
(dp4632
g62
(dp4633
sg71
g4251
sg64
(lp4634
g57
(g78
g59
NtRp4635
(dp4636
g62
(dp4637
g82
g83
ssg71
g4631
sg64
(lp4638
S'last_orderby'
p4639
asbag57
(g78
g59
NtRp4640
(dp4641
g62
(dp4642
g89
g90
ssg71
g4631
sg64
(lp4643
S':'
asbag57
(g78
g59
NtRp4644
(dp4645
g62
(dp4646
sg71
g4631
sg64
(lp4647
g57
(g58
g59
NtRp4648
(dp4649
g62
(dp4650
g70
I5
ssg71
g4644
sg64
(lp4651
S'None'
p4652
asbasbasbag57
(g73
g59
NtRp4653
(dp4654
g62
(dp4655
sg71
g4251
sg64
(lp4656
g57
(g78
g59
NtRp4657
(dp4658
g62
(dp4659
g82
g83
ssg71
g4653
sg64
(lp4660
S'last_query'
p4661
asbag57
(g78
g59
NtRp4662
(dp4663
g62
(dp4664
g89
g90
ssg71
g4653
sg64
(lp4665
S':'
asbag57
(g78
g59
NtRp4666
(dp4667
g62
(dp4668
sg71
g4653
sg64
(lp4669
g57
(g58
g59
NtRp4670
(dp4671
g62
(dp4672
g70
I5
ssg71
g4666
sg64
(lp4673
S'db.rules.id>0'
p4674
asbasbasbag57
(g73
g59
NtRp4675
(dp4676
g62
(dp4677
sg71
g4251
sg64
(lp4678
g57
(g78
g59
NtRp4679
(dp4680
g62
(dp4681
g82
g83
ssg71
g4675
sg64
(lp4682
S'level'
p4683
asbag57
(g78
g59
NtRp4684
(dp4685
g62
(dp4686
g89
g90
ssg71
g4675
sg64
(lp4687
S':'
asbag57
(g78
g59
NtRp4688
(dp4689
g62
(dp4690
sg71
g4675
sg64
(lp4691
g57
(g58
g59
NtRp4692
(dp4693
g62
(dp4694
g70
I5
ssg71
g4688
sg64
(lp4695
S'1'
asbasbasbag57
(g73
g59
NtRp4696
(dp4697
g62
(dp4698
sg71
g4251
sg64
(lp4699
g57
(g78
g59
NtRp4700
(dp4701
g62
(dp4702
g82
g83
ssg71
g4696
sg64
(lp4703
S'psp'
p4704
asbag57
(g78
g59
NtRp4705
(dp4706
g62
(dp4707
g89
g90
ssg71
g4696
sg64
(lp4708
S':'
asbag57
(g78
g59
NtRp4709
(dp4710
g62
(dp4711
sg71
g4696
sg64
(lp4712
g57
(g58
g59
NtRp4713
(dp4714
g62
(dp4715
g70
I5
ssg71
g4709
sg64
(lp4716
S'verb'
p4717
asbasbasbag57
(g73
g59
NtRp4718
(dp4719
g62
(dp4720
sg71
g4251
sg64
(lp4721
g57
(g78
g59
NtRp4722
(dp4723
g62
(dp4724
g82
g83
ssg71
g4718
sg64
(lp4725
S'sid'
p4726
asbag57
(g78
g59
NtRp4727
(dp4728
g62
(dp4729
g89
g90
ssg71
g4718
sg64
(lp4730
S':'
asbag57
(g78
g59
NtRp4731
(dp4732
g62
(dp4733
sg71
g4718
sg64
(lp4734
g57
(g58
g59
NtRp4735
(dp4736
g62
(dp4737
g70
I5
ssg71
g4731
sg64
(lp4738
S'40'
p4739
asbasbasbag57
(g73
g59
NtRp4740
(dp4741
g62
(dp4742
sg71
g4251
sg64
(lp4743
g57
(g78
g59
NtRp4744
(dp4745
g62
(dp4746
g82
g83
ssg71
g4740
sg64
(lp4747
S'word'
p4748
asbag57
(g78
g59
NtRp4749
(dp4750
g62
(dp4751
g89
g90
ssg71
g4740
sg64
(lp4752
S':'
asbag57
(g78
g59
NtRp4753
(dp4754
g62
(dp4755
sg71
g4740
sg64
(lp4756
g57
(g58
g59
NtRp4757
(dp4758
g62
(dp4759
g70
I5
ssg71
g4753
sg64
(lp4760
S'give'
p4761
asbasbasbasbasbsS'etype'
p4762
S"<type 'exceptions.KeyError'>"
p4763
sS'date'
p4764
S'Tue Nov 19 16:33:54 2013'
p4765
sS'response'
p4766
g57
(g58
g59
NtRp4767
(dp4768
g62
(dp4769
sg64
(lp4770
g57
(g66
g59
NtRp4771
(dp4772
g62
(dp4773
g70
I5
ssg71
Nsg64
(lp4774
g57
(g73
g59
NtRp4775
(dp4776
g62
(dp4777
sg71
g4771
sg64
(lp4778
g57
(g78
g59
NtRp4779
(dp4780
g62
(dp4781
g82
g83
ssg71
g4775
sg64
(lp4782
g155
asbag57
(g78
g59
NtRp4783
(dp4784
g62
(dp4785
g89
g90
ssg71
g4775
sg64
(lp4786
S':'
asbag57
(g78
g59
NtRp4787
(dp4788
g62
(dp4789
sg71
g4775
sg64
(lp4790
g57
(g58
g59
NtRp4791
(dp4792
g62
(dp4793
g70
I5
ssg71
g4787
sg64
(lp4794
S'<cStringIO.StringO object at 0xae16f6e0>'
p4795
asbasbasbag57
(g73
g59
NtRp4796
(dp4797
g62
(dp4798
sg71
g4771
sg64
(lp4799
g57
(g78
g59
NtRp4800
(dp4801
g62
(dp4802
g82
g83
ssg71
g4796
sg64
(lp4803
g243
asbag57
(g78
g59
NtRp4804
(dp4805
g62
(dp4806
g89
g90
ssg71
g4796
sg64
(lp4807
S':'
asbag57
(g78
g59
NtRp4808
(dp4809
g62
(dp4810
sg71
g4796
sg64
(lp4811
g57
(g58
g59
NtRp4812
(dp4813
g62
(dp4814
g70
I5
ssg71
g4808
sg64
(lp4815
g57
(g66
g59
NtRp4816
(dp4817
g62
(dp4818
g70
I4
ssg71
Nsg64
(lp4819
g57
(g73
g59
NtRp4820
(dp4821
g62
(dp4822
sg71
g4816
sg64
(lp4823
g57
(g78
g59
NtRp4824
(dp4825
g62
(dp4826
g82
g83
ssg71
g4820
sg64
(lp4827
S'session_id_wsd'
p4828
asbag57
(g78
g59
NtRp4829
(dp4830
g62
(dp4831
g89
g90
ssg71
g4820
sg64
(lp4832
S':'
asbag57
(g78
g59
NtRp4833
(dp4834
g62
(dp4835
sg71
g4820
sg64
(lp4836
g57
(g58
g59
NtRp4837
(dp4838
g62
(dp4839
g70
I4
ssg71
g4833
sg64
(lp4840
g1033
ag57
(g66
g59
NtRp4841
(dp4842
g62
(dp4843
g70
I3
ssg71
Nsg64
(lp4844
g57
(g73
g59
NtRp4845
(dp4846
g62
(dp4847
sg71
g4841
sg64
(lp4848
g57
(g78
g59
NtRp4849
(dp4850
g62
(dp4851
g82
g83
ssg71
g4845
sg64
(lp4852
g294
asbag57
(g78
g59
NtRp4853
(dp4854
g62
(dp4855
g89
g90
ssg71
g4845
sg64
(lp4856
S':'
asbag57
(g78
g59
NtRp4857
(dp4858
g62
(dp4859
sg71
g4845
sg64
(lp4860
g57
(g58
g59
NtRp4861
(dp4862
g62
(dp4863
g70
I3
ssg71
g4857
sg64
(lp4864
S''
asbasbasbag57
(g73
g59
NtRp4865
(dp4866
g62
(dp4867
sg71
g4841
sg64
(lp4868
g57
(g78
g59
NtRp4869
(dp4870
g62
(dp4871
g82
g83
ssg71
g4865
sg64
(lp4872
g315
asbag57
(g78
g59
NtRp4873
(dp4874
g62
(dp4875
g89
g90
ssg71
g4865
sg64
(lp4876
S':'
asbag57
(g78
g59
NtRp4877
(dp4878
g62
(dp4879
sg71
g4865
sg64
(lp4880
g57
(g58
g59
NtRp4881
(dp4882
g62
(dp4883
g70
I3
ssg71
g4877
sg64
(lp4884
S''
asbasbasbag57
(g73
g59
NtRp4885
(dp4886
g62
(dp4887
sg71
g4841
sg64
(lp4888
g57
(g78
g59
NtRp4889
(dp4890
g62
(dp4891
g82
g83
ssg71
g4885
sg64
(lp4892
g336
asbag57
(g78
g59
NtRp4893
(dp4894
g62
(dp4895
g89
g90
ssg71
g4885
sg64
(lp4896
S':'
asbag57
(g78
g59
NtRp4897
(dp4898
g62
(dp4899
sg71
g4885
sg64
(lp4900
g57
(g58
g59
NtRp4901
(dp4902
g62
(dp4903
g70
I3
ssg71
g4897
sg64
(lp4904
S''
asbasbasbag57
(g73
g59
NtRp4905
(dp4906
g62
(dp4907
sg71
g4841
sg64
(lp4908
g57
(g78
g59
NtRp4909
(dp4910
g62
(dp4911
g82
g83
ssg71
g4905
sg64
(lp4912
g357
asbag57
(g78
g59
NtRp4913
(dp4914
g62
(dp4915
g89
g90
ssg71
g4905
sg64
(lp4916
S':'
asbag57
(g78
g59
NtRp4917
(dp4918
g62
(dp4919
sg71
g4905
sg64
(lp4920
g57
(g58
g59
NtRp4921
(dp4922
g62
(dp4923
g70
I3
ssg71
g4917
sg64
(lp4924
S''
asbasbasbag57
(g73
g59
NtRp4925
(dp4926
g62
(dp4927
sg71
g4841
sg64
(lp4928
g57
(g78
g59
NtRp4929
(dp4930
g62
(dp4931
g82
g83
ssg71
g4925
sg64
(lp4932
g378
asbag57
(g78
g59
NtRp4933
(dp4934
g62
(dp4935
g89
g90
ssg71
g4925
sg64
(lp4936
S':'
asbag57
(g78
g59
NtRp4937
(dp4938
g62
(dp4939
sg71
g4925
sg64
(lp4940
g57
(g58
g59
NtRp4941
(dp4942
g62
(dp4943
g70
I3
ssg71
g4937
sg64
(lp4944
S''
asbasbasbag57
(g73
g59
NtRp4945
(dp4946
g62
(dp4947
sg71
g4841
sg64
(lp4948
g57
(g78
g59
NtRp4949
(dp4950
g62
(dp4951
g82
g83
ssg71
g4945
sg64
(lp4952
g399
asbag57
(g78
g59
NtRp4953
(dp4954
g62
(dp4955
g89
g90
ssg71
g4945
sg64
(lp4956
S':'
asbag57
(g78
g59
NtRp4957
(dp4958
g62
(dp4959
sg71
g4945
sg64
(lp4960
g57
(g58
g59
NtRp4961
(dp4962
g62
(dp4963
g70
I3
ssg71
g4957
sg64
(lp4964
S'/'
asbasbasbag57
(g73
g59
NtRp4965
(dp4966
g62
(dp4967
sg71
g4841
sg64
(lp4968
g57
(g78
g59
NtRp4969
(dp4970
g62
(dp4971
g82
g83
ssg71
g4965
sg64
(lp4972
g420
asbag57
(g78
g59
NtRp4973
(dp4974
g62
(dp4975
g89
g90
ssg71
g4965
sg64
(lp4976
S':'
asbag57
(g78
g59
NtRp4977
(dp4978
g62
(dp4979
sg71
g4965
sg64
(lp4980
g57
(g58
g59
NtRp4981
(dp4982
g62
(dp4983
g70
I3
ssg71
g4977
sg64
(lp4984
S''
asbasbasbag57
(g73
g59
NtRp4985
(dp4986
g62
(dp4987
sg71
g4841
sg64
(lp4988
g57
(g78
g59
NtRp4989
(dp4990
g62
(dp4991
g82
g83
ssg71
g4985
sg64
(lp4992
g441
asbag57
(g78
g59
NtRp4993
(dp4994
g62
(dp4995
g89
g90
ssg71
g4985
sg64
(lp4996
S':'
asbag57
(g78
g59
NtRp4997
(dp4998
g62
(dp4999
sg71
g4985
sg64
(lp5000
g57
(g58
g59
NtRp5001
(dp5002
g62
(dp5003
g70
I3
ssg71
g4997
sg64
(lp5004
S''
asbasbasbasbasbasbasbasbasbasbasbag57
(g73
g59
NtRp5005
(dp5006
g62
(dp5007
sg71
g4771
sg64
(lp5008
g57
(g78
g59
NtRp5009
(dp5010
g62
(dp5011
g82
g83
ssg71
g5005
sg64
(lp5012
S'delimiters'
p5013
asbag57
(g78
g59
NtRp5014
(dp5015
g62
(dp5016
g89
g90
ssg71
g5005
sg64
(lp5017
S':'
asbag57
(g78
g59
NtRp5018
(dp5019
g62
(dp5020
sg71
g5005
sg64
(lp5021
g57
(g58
g59
NtRp5022
(dp5023
g62
(dp5024
g70
I5
ssg71
g5018
sg64
(lp5025
g57
(g66
g59
NtRp5026
(dp5027
g62
(dp5028
g70
I4
ssg71
Nsg64
(lp5029
g57
(g73
g59
NtRp5030
(dp5031
g62
(dp5032
sg71
g5026
sg64
(lp5033
g57
(g78
g59
NtRp5034
(dp5035
g62
(dp5036
sg71
g5030
sg64
(lp5037
g57
(g58
g59
NtRp5038
(dp5039
g62
(dp5040
g70
I4
ssg71
g5034
sg64
(lp5041
S'{{'
p5042
asbasbasbag57
(g73
g59
NtRp5043
(dp5044
g62
(dp5045
sg71
g5026
sg64
(lp5046
g57
(g78
g59
NtRp5047
(dp5048
g62
(dp5049
sg71
g5043
sg64
(lp5050
g57
(g58
g59
NtRp5051
(dp5052
g62
(dp5053
g70
I4
ssg71
g5047
sg64
(lp5054
S'}}'
p5055
asbasbasbasbasbasbasbag57
(g73
g59
NtRp5056
(dp5057
g62
(dp5058
sg71
g4771
sg64
(lp5059
g57
(g78
g59
NtRp5060
(dp5061
g62
(dp5062
g82
g83
ssg71
g5056
sg64
(lp5063
S'files'
p5064
asbag57
(g78
g59
NtRp5065
(dp5066
g62
(dp5067
g89
g90
ssg71
g5056
sg64
(lp5068
S':'
asbag57
(g78
g59
NtRp5069
(dp5070
g62
(dp5071
sg71
g5056
sg64
(lp5072
g57
(g58
g59
NtRp5073
(dp5074
g62
(dp5075
g70
I5
ssg71
g5069
sg64
(lp5076
g57
(g66
g59
NtRp5077
(dp5078
g62
(dp5079
g70
I4
ssg71
Nsg64
(lp5080
sbasbasbasbag57
(g73
g59
NtRp5081
(dp5082
g62
(dp5083
sg71
g4771
sg64
(lp5084
g57
(g78
g59
NtRp5085
(dp5086
g62
(dp5087
g82
g83
ssg71
g5081
sg64
(lp5088
S'flash'
p5089
asbag57
(g78
g59
NtRp5090
(dp5091
g62
(dp5092
g89
g90
ssg71
g5081
sg64
(lp5093
S':'
asbag57
(g78
g59
NtRp5094
(dp5095
g62
(dp5096
sg71
g5081
sg64
(lp5097
g57
(g58
g59
NtRp5098
(dp5099
g62
(dp5100
g70
I5
ssg71
g5094
sg64
(lp5101
S''
asbasbasbag57
(g73
g59
NtRp5102
(dp5103
g62
(dp5104
sg71
g4771
sg64
(lp5105
g57
(g78
g59
NtRp5106
(dp5107
g62
(dp5108
g82
g83
ssg71
g5102
sg64
(lp5109
S'generic_patterns'
p5110
asbag57
(g78
g59
NtRp5111
(dp5112
g62
(dp5113
g89
g90
ssg71
g5102
sg64
(lp5114
S':'
asbag57
(g78
g59
NtRp5115
(dp5116
g62
(dp5117
sg71
g5102
sg64
(lp5118
g57
(g58
g59
NtRp5119
(dp5120
g62
(dp5121
g70
I5
ssg71
g5115
sg64
(lp5122
g57
(g66
g59
NtRp5123
(dp5124
g62
(dp5125
g70
I4
ssg71
Nsg64
(lp5126
g57
(g73
g59
NtRp5127
(dp5128
g62
(dp5129
sg71
g5123
sg64
(lp5130
g57
(g78
g59
NtRp5131
(dp5132
g62
(dp5133
sg71
g5127
sg64
(lp5134
g57
(g58
g59
NtRp5135
(dp5136
g62
(dp5137
g70
I4
ssg71
g5131
sg64
(lp5138
S'*'
asbasbasbasbasbasbasbag57
(g73
g59
NtRp5139
(dp5140
g62
(dp5141
sg71
g4771
sg64
(lp5142
g57
(g78
g59
NtRp5143
(dp5144
g62
(dp5145
g82
g83
ssg71
g5139
sg64
(lp5146
S'google_analytics_id'
p5147
asbag57
(g78
g59
NtRp5148
(dp5149
g62
(dp5150
g89
g90
ssg71
g5139
sg64
(lp5151
S':'
asbag57
(g78
g59
NtRp5152
(dp5153
g62
(dp5154
sg71
g5139
sg64
(lp5155
g57
(g58
g59
NtRp5156
(dp5157
g62
(dp5158
g70
I5
ssg71
g5152
sg64
(lp5159
S'None'
p5160
asbasbasbag57
(g73
g59
NtRp5161
(dp5162
g62
(dp5163
sg71
g4771
sg64
(lp5164
g57
(g78
g59
NtRp5165
(dp5166
g62
(dp5167
g82
g83
ssg71
g5161
sg64
(lp5168
S'headers'
p5169
asbag57
(g78
g59
NtRp5170
(dp5171
g62
(dp5172
g89
g90
ssg71
g5161
sg64
(lp5173
S':'
asbag57
(g78
g59
NtRp5174
(dp5175
g62
(dp5176
sg71
g5161
sg64
(lp5177
g57
(g58
g59
NtRp5178
(dp5179
g62
(dp5180
g70
I5
ssg71
g5174
sg64
(lp5181
g57
(g66
g59
NtRp5182
(dp5183
g62
(dp5184
g70
I4
ssg71
Nsg64
(lp5185
g57
(g73
g59
NtRp5186
(dp5187
g62
(dp5188
sg71
g5182
sg64
(lp5189
g57
(g78
g59
NtRp5190
(dp5191
g62
(dp5192
g82
g83
ssg71
g5186
sg64
(lp5193
S'X-Powered-By'
p5194
asbag57
(g78
g59
NtRp5195
(dp5196
g62
(dp5197
g89
g90
ssg71
g5186
sg64
(lp5198
S':'
asbag57
(g78
g59
NtRp5199
(dp5200
g62
(dp5201
sg71
g5186
sg64
(lp5202
g57
(g58
g59
NtRp5203
(dp5204
g62
(dp5205
g70
I4
ssg71
g5199
sg64
(lp5206
S'web2py'
p5207
asbasbasbasbasbasbasbag57
(g73
g59
NtRp5208
(dp5209
g62
(dp5210
sg71
g4771
sg64
(lp5211
g57
(g78
g59
NtRp5212
(dp5213
g62
(dp5214
g82
g83
ssg71
g5208
sg64
(lp5215
S'menu'
p5216
asbag57
(g78
g59
NtRp5217
(dp5218
g62
(dp5219
g89
g90
ssg71
g5208
sg64
(lp5220
S':'
asbag57
(g78
g59
NtRp5221
(dp5222
g62
(dp5223
sg71
g5208
sg64
(lp5224
g57
(g58
g59
NtRp5225
(dp5226
g62
(dp5227
g70
I5
ssg71
g5221
sg64
(lp5228
g57
(g66
g59
NtRp5229
(dp5230
g62
(dp5231
g70
I4
ssg71
Nsg64
(lp5232
g57
(g73
g59
NtRp5233
(dp5234
g62
(dp5235
sg71
g5229
sg64
(lp5236
g57
(g78
g59
NtRp5237
(dp5238
g62
(dp5239
sg71
g5233
sg64
(lp5240
g57
(g58
g59
NtRp5241
(dp5242
g62
(dp5243
g70
I4
ssg71
g5237
sg64
(lp5244
g57
(g66
g59
NtRp5245
(dp5246
g62
(dp5247
g70
I3
ssg71
Nsg64
(lp5248
g57
(g73
g59
NtRp5249
(dp5250
g62
(dp5251
sg71
g5245
sg64
(lp5252
g57
(g78
g59
NtRp5253
(dp5254
g62
(dp5255
sg71
g5249
sg64
(lp5256
g57
(g58
g59
NtRp5257
(dp5258
g62
(dp5259
g70
I3
ssg71
g5253
sg64
(lp5260
cgluon.languages
lazyT_unpickle
p5261
(S't\x04\x00\x00\x00Home'
tRp5262
asbasbasbag57
(g73
g59
NtRp5263
(dp5264
g62
(dp5265
sg71
g5245
sg64
(lp5266
g57
(g78
g59
NtRp5267
(dp5268
g62
(dp5269
sg71
g5263
sg64
(lp5270
g57
(g58
g59
NtRp5271
(dp5272
g62
(dp5273
g70
I3
ssg71
g5267
sg64
(lp5274
g100
asbasbasbag57
(g73
g59
NtRp5275
(dp5276
g62
(dp5277
sg71
g5245
sg64
(lp5278
g57
(g78
g59
NtRp5279
(dp5280
g62
(dp5281
sg71
g5275
sg64
(lp5282
g57
(g58
g59
NtRp5283
(dp5284
g62
(dp5285
g70
I3
ssg71
g5279
sg64
(lp5286
S'/WSD/default/index'
p5287
asbasbasbag57
(g73
g59
NtRp5288
(dp5289
g62
(dp5290
sg71
g5245
sg64
(lp5291
g57
(g78
g59
NtRp5292
(dp5293
g62
(dp5294
sg71
g5288
sg64
(lp5295
g57
(g58
g59
NtRp5296
(dp5297
g62
(dp5298
g70
I3
ssg71
g5292
sg64
(lp5299
g57
(g66
g59
NtRp5300
(dp5301
g62
(dp5302
g70
I2
ssg71
Nsg64
(lp5303
sbasbasbasbasbasbasbasbag57
(g73
g59
NtRp5304
(dp5305
g62
(dp5306
sg71
g5229
sg64
(lp5307
g57
(g78
g59
NtRp5308
(dp5309
g62
(dp5310
sg71
g5304
sg64
(lp5311
g57
(g58
g59
NtRp5312
(dp5313
g62
(dp5314
g70
I4
ssg71
g5308
sg64
(lp5315
g57
(g66
g59
NtRp5316
(dp5317
g62
(dp5318
g70
I3
ssg71
Nsg64
(lp5319
g57
(g73
g59
NtRp5320
(dp5321
g62
(dp5322
sg71
g5316
sg64
(lp5323
g57
(g78
g59
NtRp5324
(dp5325
g62
(dp5326
sg71
g5320
sg64
(lp5327
g57
(g58
g59
NtRp5328
(dp5329
g62
(dp5330
g70
I3
ssg71
g5324
sg64
(lp5331
g57
(cgluon.html
SPAN
p5332
g59
NtRp5333
(dp5334
g62
(dp5335
g82
S'color:yellow'
p5336
ssg71
Nsg64
(lp5337
g5207
asbasbasbasbag57
(g73
g59
NtRp5338
(dp5339
g62
(dp5340
sg71
g5316
sg64
(lp5341
g57
(g78
g59
NtRp5342
(dp5343
g62
(dp5344
sg71
g5338
sg64
(lp5345
g57
(g58
g59
NtRp5346
(dp5347
g62
(dp5348
g70
I3
ssg71
g5342
sg64
(lp5349
g100
asbasbasbag57
(g73
g59
NtRp5350
(dp5351
g62
(dp5352
sg71
g5316
sg64
(lp5353
g57
(g78
g59
NtRp5354
(dp5355
g62
(dp5356
sg71
g5350
sg64
(lp5357
g57
(g58
g59
NtRp5358
(dp5359
g62
(dp5360
g70
I3
ssg71
g5354
sg64
(lp5361
S'None'
p5362
asbasbasbag57
(g73
g59
NtRp5363
(dp5364
g62
(dp5365
sg71
g5316
sg64
(lp5366
g57
(g78
g59
NtRp5367
(dp5368
g62
(dp5369
sg71
g5363
sg64
(lp5370
g57
(g58
g59
NtRp5371
(dp5372
g62
(dp5373
g70
I3
ssg71
g5367
sg64
(lp5374
g57
(g66
g59
NtRp5375
(dp5376
g62
(dp5377
g70
I2
ssg71
Nsg64
(lp5378
g57
(g73
g59
NtRp5379
(dp5380
g62
(dp5381
sg71
g5375
sg64
(lp5382
g57
(g78
g59
NtRp5383
(dp5384
g62
(dp5385
sg71
g5379
sg64
(lp5386
g57
(g58
g59
NtRp5387
(dp5388
g62
(dp5389
g70
I2
ssg71
g5383
sg64
(lp5390
g57
(g66
g59
NtRp5391
(dp5392
g62
(dp5393
g70
I1
ssg71
Nsg64
(lp5394
g57
(g73
g59
NtRp5395
(dp5396
g62
(dp5397
sg71
g5391
sg64
(lp5398
g57
(g78
g59
NtRp5399
(dp5400
g62
(dp5401
sg71
g5395
sg64
(lp5402
g57
(g58
g59
NtRp5403
(dp5404
g62
(dp5405
g70
I1
ssg71
g5399
sg64
(lp5406
g5261
(S's\x08\x00\x00\x00My Sites'
tRp5407
asbasbasbag57
(g73
g59
NtRp5408
(dp5409
g62
(dp5410
sg71
g5391
sg64
(lp5411
g57
(g78
g59
NtRp5412
(dp5413
g62
(dp5414
sg71
g5408
sg64
(lp5415
g57
(g58
g59
NtRp5416
(dp5417
g62
(dp5418
g70
I1
ssg71
g5412
sg64
(lp5419
I00
asbasbasbag57
(g73
g59
NtRp5420
(dp5421
g62
(dp5422
sg71
g5391
sg64
(lp5423
g57
(g78
g59
NtRp5424
(dp5425
g62
(dp5426
sg71
g5420
sg64
(lp5427
g57
(g58
g59
NtRp5428
(dp5429
g62
(dp5430
g70
I1
ssg71
g5424
sg64
(lp5431
S'/admin/default/site'
p5432
asbasbasbasbasbasbasbag57
(g73
g59
NtRp5433
(dp5434
g62
(dp5435
sg71
g5375
sg64
(lp5436
g57
(g78
g59
NtRp5437
(dp5438
g62
(dp5439
sg71
g5433
sg64
(lp5440
g57
(g58
g59
NtRp5441
(dp5442
g62
(dp5443
g70
I2
ssg71
g5437
sg64
(lp5444
g57
(g66
g59
NtRp5445
(dp5446
g62
(dp5447
g70
I1
ssg71
Nsg64
(lp5448
g57
(g73
g59
NtRp5449
(dp5450
g62
(dp5451
sg71
g5445
sg64
(lp5452
g57
(g78
g59
NtRp5453
(dp5454
g62
(dp5455
sg71
g5449
sg64
(lp5456
g57
(g58
g59
NtRp5457
(dp5458
g62
(dp5459
g70
I1
ssg71
g5453
sg64
(lp5460
g5261
(S's\x08\x00\x00\x00This App'
tRp5461
asbasbasbag57
(g73
g59
NtRp5462
(dp5463
g62
(dp5464
sg71
g5445
sg64
(lp5465
g57
(g78
g59
NtRp5466
(dp5467
g62
(dp5468
sg71
g5462
sg64
(lp5469
g57
(g58
g59
NtRp5470
(dp5471
g62
(dp5472
g70
I1
ssg71
g5466
sg64
(lp5473
I00
asbasbasbag57
(g73
g59
NtRp5474
(dp5475
g62
(dp5476
sg71
g5445
sg64
(lp5477
g57
(g78
g59
NtRp5478
(dp5479
g62
(dp5480
sg71
g5474
sg64
(lp5481
g57
(g58
g59
NtRp5482
(dp5483
g62
(dp5484
g70
I1
ssg71
g5478
sg64
(lp5485
S'/admin/default/design/WSD'
p5486
asbasbasbag57
(g73
g59
NtRp5487
(dp5488
g62
(dp5489
sg71
g5445
sg64
(lp5490
g57
(g78
g59
NtRp5491
(dp5492
g62
(dp5493
sg71
g5487
sg64
(lp5494
g57
(g58
g59
NtRp5495
(dp5496
g62
(dp5497
g70
I1
ssg71
g5491
sg64
(lp5498
(lp5499
(g5261
(S't\n\x00\x00\x00Controller'
tRp5500
I00
S'/admin/default/edit/WSD/controllers/default.py'
tp5501
a(g5261
(S't\x04\x00\x00\x00View'
tRp5502
I00
S'/admin/default/edit/WSD/views/default/addword.html'
tp5503
a(g5261
(S't\x06\x00\x00\x00Layout'
tRp5504
I00
S'/admin/default/edit/WSD/views/layout.html'
tp5505
a(g5261
(S't\n\x00\x00\x00Stylesheet'
tRp5506
I00
S'/admin/default/edit/WSD/static/css/web2py.css'
tp5507
a(g5261
(S's\x08\x00\x00\x00DB Model'
tRp5508
I00
S'/admin/default/edit/WSD/models/db.py'
tp5509
a(g5261
(S's\n\x00\x00\x00Menu Model'
tRp5510
I00
S'/admin/default/edit/WSD/models/menu.py'
tp5511
a(g5261
(S't\x08\x00\x00\x00Database'
tRp5512
I00
S'/WSD/appadmin/index'
tp5513
a(g5261
(S't\x06\x00\x00\x00Errors'
tRp5514
I00
S'/admin/default/errors/WSD'
tp5515
a(g5261
(S't\x05\x00\x00\x00About'
tRp5516
I00
S'/admin/default/about/WSD'
tp5517
aasbasbasbasbasbasbasbag57
(g73
g59
NtRp5518
(dp5519
g62
(dp5520
sg71
g5375
sg64
(lp5521
g57
(g78
g59
NtRp5522
(dp5523
g62
(dp5524
sg71
g5518
sg64
(lp5525
g57
(g58
g59
NtRp5526
(dp5527
g62
(dp5528
g70
I2
ssg71
g5522
sg64
(lp5529
g57
(g66
g59
NtRp5530
(dp5531
g62
(dp5532
g70
I1
ssg71
Nsg64
(lp5533
g57
(g73
g59
NtRp5534
(dp5535
g62
(dp5536
sg71
g5530
sg64
(lp5537
g57
(g78
g59
NtRp5538
(dp5539
g62
(dp5540
sg71
g5534
sg64
(lp5541
g57
(g58
g59
NtRp5542
(dp5543
g62
(dp5544
g70
I1
ssg71
g5538
sg64
(lp5545
S'web2py.com'
p5546
asbasbasbag57
(g73
g59
NtRp5547
(dp5548
g62
(dp5549
sg71
g5530
sg64
(lp5550
g57
(g78
g59
NtRp5551
(dp5552
g62
(dp5553
sg71
g5547
sg64
(lp5554
g57
(g58
g59
NtRp5555
(dp5556
g62
(dp5557
g70
I1
ssg71
g5551
sg64
(lp5558
I00
asbasbasbag57
(g73
g59
NtRp5559
(dp5560
g62
(dp5561
sg71
g5530
sg64
(lp5562
g57
(g78
g59
NtRp5563
(dp5564
g62
(dp5565
sg71
g5559
sg64
(lp5566
g57
(g58
g59
NtRp5567
(dp5568
g62
(dp5569
g70
I1
ssg71
g5563
sg64
(lp5570
S'http://www.web2py.com'
p5571
asbasbasbag57
(g73
g59
NtRp5572
(dp5573
g62
(dp5574
sg71
g5530
sg64
(lp5575
g57
(g78
g59
NtRp5576
(dp5577
g62
(dp5578
sg71
g5572
sg64
(lp5579
g57
(g58
g59
NtRp5580
(dp5581
g62
(dp5582
g70
I1
ssg71
g5576
sg64
(lp5583
(lp5584
(g5261
(S't\x08\x00\x00\x00Download'
tRp5585
I00
S'http://www.web2py.com/examples/default/download'
p5586
tp5587
a(g5261
(S't\x07\x00\x00\x00Support'
tRp5588
I00
S'http://www.web2py.com/examples/default/support'
p5589
tp5590
a(g5261
(S't\x04\x00\x00\x00Demo'
tRp5591
I00
S'http://web2py.com/demo_admin'
p5592
tp5593
a(g5261
(S's\x0e\x00\x00\x00Quick Examples'
tRp5594
I00
S'http://web2py.com/examples/default/examples'
p5595
tp5596
a(g5261
(S't\x03\x00\x00\x00FAQ'
tRp5597
I00
S'http://web2py.com/AlterEgo'
p5598
tp5599
a(g5261
(S't\x06\x00\x00\x00Videos'
tRp5600
I00
S'http://www.web2py.com/examples/default/videos/'
p5601
tp5602
a(g5261
(S's\x11\x00\x00\x00Free Applications'
tRp5603
I00
S'http://web2py.com/appliances'
p5604
tp5605
a(g5261
(S't\x07\x00\x00\x00Plugins'
tRp5606
I00
S'http://web2py.com/plugins'
p5607
tp5608
a(g5261
(S't\x07\x00\x00\x00Layouts'
tRp5609
I00
S'http://web2py.com/layouts'
p5610
tp5611
a(g5261
(S't\x07\x00\x00\x00Recipes'
tRp5612
I00
S'http://web2pyslices.com/'
p5613
tp5614
a(g5261
(S't\x08\x00\x00\x00Semantic'
tRp5615
I00
S'http://web2py.com/semantic'
p5616
tp5617
aasbasbasbasbasbasbasbag57
(g73
g59
NtRp5618
(dp5619
g62
(dp5620
sg71
g5375
sg64
(lp5621
g57
(g78
g59
NtRp5622
(dp5623
g62
(dp5624
sg71
g5618
sg64
(lp5625
g57
(g58
g59
NtRp5626
(dp5627
g62
(dp5628
g70
I2
ssg71
g5622
sg64
(lp5629
g57
(g66
g59
NtRp5630
(dp5631
g62
(dp5632
g70
I1
ssg71
Nsg64
(lp5633
g57
(g73
g59
NtRp5634
(dp5635
g62
(dp5636
sg71
g5630
sg64
(lp5637
g57
(g78
g59
NtRp5638
(dp5639
g62
(dp5640
sg71
g5634
sg64
(lp5641
g57
(g58
g59
NtRp5642
(dp5643
g62
(dp5644
g70
I1
ssg71
g5638
sg64
(lp5645
g5261
(S't\r\x00\x00\x00Documentation'
tRp5646
asbasbasbag57
(g73
g59
NtRp5647
(dp5648
g62
(dp5649
sg71
g5630
sg64
(lp5650
g57
(g78
g59
NtRp5651
(dp5652
g62
(dp5653
sg71
g5647
sg64
(lp5654
g57
(g58
g59
NtRp5655
(dp5656
g62
(dp5657
g70
I1
ssg71
g5651
sg64
(lp5658
I00
asbasbasbag57
(g73
g59
NtRp5659
(dp5660
g62
(dp5661
sg71
g5630
sg64
(lp5662
g57
(g78
g59
NtRp5663
(dp5664
g62
(dp5665
sg71
g5659
sg64
(lp5666
g57
(g58
g59
NtRp5667
(dp5668
g62
(dp5669
g70
I1
ssg71
g5663
sg64
(lp5670
S'http://www.web2py.com/book'
p5671
asbasbasbag57
(g73
g59
NtRp5672
(dp5673
g62
(dp5674
sg71
g5630
sg64
(lp5675
g57
(g78
g59
NtRp5676
(dp5677
g62
(dp5678
sg71
g5672
sg64
(lp5679
g57
(g58
g59
NtRp5680
(dp5681
g62
(dp5682
g70
I1
ssg71
g5676
sg64
(lp5683
(lp5684
(g5261
(S't\x07\x00\x00\x00Preface'
tRp5685
I00
S'http://www.web2py.com/book/default/chapter/00'
p5686
tp5687
a(g5261
(S't\x0c\x00\x00\x00Introduction'
tRp5688
I00
S'http://www.web2py.com/book/default/chapter/01'
p5689
tp5690
a(g5261
(S't\x06\x00\x00\x00Python'
tRp5691
I00
S'http://www.web2py.com/book/default/chapter/02'
p5692
tp5693
a(g5261
(S't\x08\x00\x00\x00Overview'
tRp5694
I00
S'http://www.web2py.com/book/default/chapter/03'
p5695
tp5696
a(g5261
(S's\x08\x00\x00\x00The Core'
tRp5697
I00
S'http://www.web2py.com/book/default/chapter/04'
p5698
tp5699
a(g5261
(S's\t\x00\x00\x00The Views'
tRp5700
I00
S'http://www.web2py.com/book/default/chapter/05'
p5701
tp5702
a(g5261
(S't\x08\x00\x00\x00Database'
tRp5703
I00
S'http://www.web2py.com/book/default/chapter/06'
p5704
tp5705
a(g5261
(S's\x14\x00\x00\x00Forms and Validators'
tRp5706
I00
S'http://www.web2py.com/book/default/chapter/07'
p5707
tp5708
a(g5261
(S's\r\x00\x00\x00Email and SMS'
tRp5709
I00
S'http://www.web2py.com/book/default/chapter/08'
p5710
tp5711
a(g5261
(S's\x0e\x00\x00\x00Access Control'
tRp5712
I00
S'http://www.web2py.com/book/default/chapter/09'
p5713
tp5714
a(g5261
(S't\x08\x00\x00\x00Services'
tRp5715
I00
S'http://www.web2py.com/book/default/chapter/10'
p5716
tp5717
a(g5261
(S's\x0c\x00\x00\x00Ajax Recipes'
tRp5718
I00
S'http://www.web2py.com/book/default/chapter/11'
p5719
tp5720
a(g5261
(S's\x16\x00\x00\x00Components and Plugins'
tRp5721
I00
S'http://www.web2py.com/book/default/chapter/12'
p5722
tp5723
a(g5261
(S's\x12\x00\x00\x00Deployment Recipes'
tRp5724
I00
S'http://www.web2py.com/book/default/chapter/13'
p5725
tp5726
a(g5261
(S's\r\x00\x00\x00Other Recipes'
tRp5727
I00
S'http://www.web2py.com/book/default/chapter/14'
p5728
tp5729
a(g5261
(S's\r\x00\x00\x00Buy this book'
tRp5730
I00
S'http://stores.lulu.com/web2py'
p5731
tp5732
aasbasbasbasbasbasbasbag57
(g73
g59
NtRp5733
(dp5734
g62
(dp5735
sg71
g5375
sg64
(lp5736
g57
(g78
g59
NtRp5737
(dp5738
g62
(dp5739
sg71
g5733
sg64
(lp5740
g57
(g58
g59
NtRp5741
(dp5742
g62
(dp5743
g70
I2
ssg71
g5737
sg64
(lp5744
g57
(g66
g59
NtRp5745
(dp5746
g62
(dp5747
g70
I1
ssg71
Nsg64
(lp5748
g57
(g73
g59
NtRp5749
(dp5750
g62
(dp5751
sg71
g5745
sg64
(lp5752
g57
(g78
g59
NtRp5753
(dp5754
g62
(dp5755
sg71
g5749
sg64
(lp5756
g57
(g58
g59
NtRp5757
(dp5758
g62
(dp5759
g70
I1
ssg71
g5753
sg64
(lp5760
g5261
(S't\t\x00\x00\x00Community'
tRp5761
asbasbasbag57
(g73
g59
NtRp5762
(dp5763
g62
(dp5764
sg71
g5745
sg64
(lp5765
g57
(g78
g59
NtRp5766
(dp5767
g62
(dp5768
sg71
g5762
sg64
(lp5769
g57
(g58
g59
NtRp5770
(dp5771
g62
(dp5772
g70
I1
ssg71
g5766
sg64
(lp5773
I00
asbasbasbag57
(g73
g59
NtRp5774
(dp5775
g62
(dp5776
sg71
g5745
sg64
(lp5777
g57
(g78
g59
NtRp5778
(dp5779
g62
(dp5780
sg71
g5774
sg64
(lp5781
g57
(g58
g59
NtRp5782
(dp5783
g62
(dp5784
g70
I1
ssg71
g5778
sg64
(lp5785
Nasbasbasbag57
(g73
g59
NtRp5786
(dp5787
g62
(dp5788
sg71
g5745
sg64
(lp5789
g57
(g78
g59
NtRp5790
(dp5791
g62
(dp5792
sg71
g5786
sg64
(lp5793
g57
(g58
g59
NtRp5794
(dp5795
g62
(dp5796
g70
I1
ssg71
g5790
sg64
(lp5797
(lp5798
(g5261
(S't\x06\x00\x00\x00Groups'
tRp5799
I00
S'http://www.web2py.com/examples/default/usergroups'
p5800
tp5801
a(g5261
(S't\x07\x00\x00\x00Twitter'
tRp5802
I00
S'http://twitter.com/web2py'
p5803
tp5804
a(g5261
(S's\t\x00\x00\x00Live Chat'
tRp5805
I00
S'http://webchat.freenode.net/?channels=web2py'
p5806
tp5807
aasbasbasbasbasbasbasbag57
(g73
g59
NtRp5808
(dp5809
g62
(dp5810
sg71
g5375
sg64
(lp5811
g57
(g78
g59
NtRp5812
(dp5813
g62
(dp5814
sg71
g5808
sg64
(lp5815
g57
(g58
g59
NtRp5816
(dp5817
g62
(dp5818
g70
I2
ssg71
g5812
sg64
(lp5819
g57
(g66
g59
NtRp5820
(dp5821
g62
(dp5822
g70
I1
ssg71
Nsg64
(lp5823
g57
(g73
g59
NtRp5824
(dp5825
g62
(dp5826
sg71
g5820
sg64
(lp5827
g57
(g78
g59
NtRp5828
(dp5829
g62
(dp5830
sg71
g5824
sg64
(lp5831
g57
(g58
g59
NtRp5832
(dp5833
g62
(dp5834
g70
I1
ssg71
g5828
sg64
(lp5835
g5261
(S't\x07\x00\x00\x00Plugins'
tRp5836
asbasbasbag57
(g73
g59
NtRp5837
(dp5838
g62
(dp5839
sg71
g5820
sg64
(lp5840
g57
(g78
g59
NtRp5841
(dp5842
g62
(dp5843
sg71
g5837
sg64
(lp5844
g57
(g58
g59
NtRp5845
(dp5846
g62
(dp5847
g70
I1
ssg71
g5841
sg64
(lp5848
I00
asbasbasbag57
(g73
g59
NtRp5849
(dp5850
g62
(dp5851
sg71
g5820
sg64
(lp5852
g57
(g78
g59
NtRp5853
(dp5854
g62
(dp5855
sg71
g5849
sg64
(lp5856
g57
(g58
g59
NtRp5857
(dp5858
g62
(dp5859
g70
I1
ssg71
g5853
sg64
(lp5860
Nasbasbasbag57
(g73
g59
NtRp5861
(dp5862
g62
(dp5863
sg71
g5820
sg64
(lp5864
g57
(g78
g59
NtRp5865
(dp5866
g62
(dp5867
sg71
g5861
sg64
(lp5868
g57
(g58
g59
NtRp5869
(dp5870
g62
(dp5871
g70
I1
ssg71
g5865
sg64
(lp5872
(lp5873
(S'plugin_wiki'
p5874
I00
S'http://web2py.com/examples/default/download'
p5875
tp5876
a(g5261
(S's\r\x00\x00\x00Other Plugins'
tRp5877
I00
g5607
tp5878
a(g5261
(S's\x0e\x00\x00\x00Layout Plugins'
tRp5879
I00
g5610
tp5880
aasbasbasbasbasbasbasbasbasbasbasbasbasbasbasbasbasbasbasbag57
(g73
g59
NtRp5881
(dp5882
g62
(dp5883
sg71
g4771
sg64
(lp5884
g57
(g78
g59
NtRp5885
(dp5886
g62
(dp5887
g82
g83
ssg71
g5881
sg64
(lp5888
S'meta'
p5889
asbag57
(g78
g59
NtRp5890
(dp5891
g62
(dp5892
g89
g90
ssg71
g5881
sg64
(lp5893
S':'
asbag57
(g78
g59
NtRp5894
(dp5895
g62
(dp5896
sg71
g5881
sg64
(lp5897
g57
(g58
g59
NtRp5898
(dp5899
g62
(dp5900
g70
I5
ssg71
g5894
sg64
(lp5901
g57
(g66
g59
NtRp5902
(dp5903
g62
(dp5904
g70
I4
ssg71
Nsg64
(lp5905
g57
(g73
g59
NtRp5906
(dp5907
g62
(dp5908
sg71
g5902
sg64
(lp5909
g57
(g78
g59
NtRp5910
(dp5911
g62
(dp5912
g82
g83
ssg71
g5906
sg64
(lp5913
S'author'
p5914
asbag57
(g78
g59
NtRp5915
(dp5916
g62
(dp5917
g89
g90
ssg71
g5906
sg64
(lp5918
S':'
asbag57
(g78
g59
NtRp5919
(dp5920
g62
(dp5921
sg71
g5906
sg64
(lp5922
g57
(g58
g59
NtRp5923
(dp5924
g62
(dp5925
g70
I4
ssg71
g5919
sg64
(lp5926
S'Your Name <you@example.com>'
p5927
asbasbasbag57
(g73
g59
NtRp5928
(dp5929
g62
(dp5930
sg71
g5902
sg64
(lp5931
g57
(g78
g59
NtRp5932
(dp5933
g62
(dp5934
g82
g83
ssg71
g5928
sg64
(lp5935
S'copyright'
p5936
asbag57
(g78
g59
NtRp5937
(dp5938
g62
(dp5939
g89
g90
ssg71
g5928
sg64
(lp5940
S':'
asbag57
(g78
g59
NtRp5941
(dp5942
g62
(dp5943
sg71
g5928
sg64
(lp5944
g57
(g58
g59
NtRp5945
(dp5946
g62
(dp5947
g70
I4
ssg71
g5941
sg64
(lp5948
S'Copyright 2011'
p5949
asbasbasbag57
(g73
g59
NtRp5950
(dp5951
g62
(dp5952
sg71
g5902
sg64
(lp5953
g57
(g78
g59
NtRp5954
(dp5955
g62
(dp5956
g82
g83
ssg71
g5950
sg64
(lp5957
S'description'
p5958
asbag57
(g78
g59
NtRp5959
(dp5960
g62
(dp5961
g89
g90
ssg71
g5950
sg64
(lp5962
S':'
asbag57
(g78
g59
NtRp5963
(dp5964
g62
(dp5965
sg71
g5950
sg64
(lp5966
g57
(g58
g59
NtRp5967
(dp5968
g62
(dp5969
g70
I4
ssg71
g5963
sg64
(lp5970
S'a cool new app'
p5971
asbasbasbag57
(g73
g59
NtRp5972
(dp5973
g62
(dp5974
sg71
g5902
sg64
(lp5975
g57
(g78
g59
NtRp5976
(dp5977
g62
(dp5978
g82
g83
ssg71
g5972
sg64
(lp5979
S'generator'
p5980
asbag57
(g78
g59
NtRp5981
(dp5982
g62
(dp5983
g89
g90
ssg71
g5972
sg64
(lp5984
S':'
asbag57
(g78
g59
NtRp5985
(dp5986
g62
(dp5987
sg71
g5972
sg64
(lp5988
g57
(g58
g59
NtRp5989
(dp5990
g62
(dp5991
g70
I4
ssg71
g5985
sg64
(lp5992
S'Web2py Web Framework'
p5993
asbasbasbag57
(g73
g59
NtRp5994
(dp5995
g62
(dp5996
sg71
g5902
sg64
(lp5997
g57
(g78
g59
NtRp5998
(dp5999
g62
(dp6000
g82
g83
ssg71
g5994
sg64
(lp6001
S'keywords'
p6002
asbag57
(g78
g59
NtRp6003
(dp6004
g62
(dp6005
g89
g90
ssg71
g5994
sg64
(lp6006
S':'
asbag57
(g78
g59
NtRp6007
(dp6008
g62
(dp6009
sg71
g5994
sg64
(lp6010
g57
(g58
g59
NtRp6011
(dp6012
g62
(dp6013
g70
I4
ssg71
g6007
sg64
(lp6014
S'web2py, python, framework'
p6015
asbasbasbasbasbasbasbag57
(g73
g59
NtRp6016
(dp6017
g62
(dp6018
sg71
g4771
sg64
(lp6019
g57
(g78
g59
NtRp6020
(dp6021
g62
(dp6022
g82
g83
ssg71
g6016
sg64
(lp6023
S'models_to_run'
p6024
asbag57
(g78
g59
NtRp6025
(dp6026
g62
(dp6027
g89
g90
ssg71
g6016
sg64
(lp6028
S':'
asbag57
(g78
g59
NtRp6029
(dp6030
g62
(dp6031
sg71
g6016
sg64
(lp6032
g57
(g58
g59
NtRp6033
(dp6034
g62
(dp6035
g70
I5
ssg71
g6029
sg64
(lp6036
g57
(g66
g59
NtRp6037
(dp6038
g62
(dp6039
g70
I4
ssg71
Nsg64
(lp6040
g57
(g73
g59
NtRp6041
(dp6042
g62
(dp6043
sg71
g6037
sg64
(lp6044
g57
(g78
g59
NtRp6045
(dp6046
g62
(dp6047
sg71
g6041
sg64
(lp6048
g57
(g58
g59
NtRp6049
(dp6050
g62
(dp6051
g70
I4
ssg71
g6045
sg64
(lp6052
S'^\\w+\\.py$'
p6053
asbasbasbag57
(g73
g59
NtRp6054
(dp6055
g62
(dp6056
sg71
g6037
sg64
(lp6057
g57
(g78
g59
NtRp6058
(dp6059
g62
(dp6060
sg71
g6054
sg64
(lp6061
g57
(g58
g59
NtRp6062
(dp6063
g62
(dp6064
g70
I4
ssg71
g6058
sg64
(lp6065
S'^default/\\w+\\.py$'
p6066
asbasbasbag57
(g73
g59
NtRp6067
(dp6068
g62
(dp6069
sg71
g6037
sg64
(lp6070
g57
(g78
g59
NtRp6071
(dp6072
g62
(dp6073
sg71
g6067
sg64
(lp6074
g57
(g58
g59
NtRp6075
(dp6076
g62
(dp6077
g70
I4
ssg71
g6071
sg64
(lp6078
S'^default/addword/\\w+\\.py$'
p6079
asbasbasbasbasbasbasbag57
(g73
g59
NtRp6080
(dp6081
g62
(dp6082
sg71
g4771
sg64
(lp6083
g57
(g78
g59
NtRp6084
(dp6085
g62
(dp6086
g82
g83
ssg71
g6080
sg64
(lp6087
S'postprocessing'
p6088
asbag57
(g78
g59
NtRp6089
(dp6090
g62
(dp6091
g89
g90
ssg71
g6080
sg64
(lp6092
S':'
asbag57
(g78
g59
NtRp6093
(dp6094
g62
(dp6095
sg71
g6080
sg64
(lp6096
g57
(g58
g59
NtRp6097
(dp6098
g62
(dp6099
g70
I5
ssg71
g6093
sg64
(lp6100
g57
(g66
g59
NtRp6101
(dp6102
g62
(dp6103
g70
I4
ssg71
Nsg64
(lp6104
sbasbasbasbag57
(g73
g59
NtRp6105
(dp6106
g62
(dp6107
sg71
g4771
sg64
(lp6108
g57
(g78
g59
NtRp6109
(dp6110
g62
(dp6111
g82
g83
ssg71
g6105
sg64
(lp6112
S'session_cookie_expires'
p6113
asbag57
(g78
g59
NtRp6114
(dp6115
g62
(dp6116
g89
g90
ssg71
g6105
sg64
(lp6117
S':'
asbag57
(g78
g59
NtRp6118
(dp6119
g62
(dp6120
sg71
g6105
sg64
(lp6121
g57
(g58
g59
NtRp6122
(dp6123
g62
(dp6124
g70
I5
ssg71
g6118
sg64
(lp6125
S'None'
p6126
asbasbasbag57
(g73
g59
NtRp6127
(dp6128
g62
(dp6129
sg71
g4771
sg64
(lp6130
g57
(g78
g59
NtRp6131
(dp6132
g62
(dp6133
g82
g83
ssg71
g6127
sg64
(lp6134
S'session_data_name'
p6135
asbag57
(g78
g59
NtRp6136
(dp6137
g62
(dp6138
g89
g90
ssg71
g6127
sg64
(lp6139
S':'
asbag57
(g78
g59
NtRp6140
(dp6141
g62
(dp6142
sg71
g6127
sg64
(lp6143
g57
(g58
g59
NtRp6144
(dp6145
g62
(dp6146
g70
I5
ssg71
g6140
sg64
(lp6147
S'session_data_wsd'
p6148
asbasbasbag57
(g73
g59
NtRp6149
(dp6150
g62
(dp6151
sg71
g4771
sg64
(lp6152
g57
(g78
g59
NtRp6153
(dp6154
g62
(dp6155
g82
g83
ssg71
g6149
sg64
(lp6156
S'session_file'
p6157
asbag57
(g78
g59
NtRp6158
(dp6159
g62
(dp6160
g89
g90
ssg71
g6149
sg64
(lp6161
S':'
asbag57
(g78
g59
NtRp6162
(dp6163
g62
(dp6164
sg71
g6149
sg64
(lp6165
g57
(g58
g59
NtRp6166
(dp6167
g62
(dp6168
g70
I5
ssg71
g6162
sg64
(lp6169
S"<open file '/home/nazrul/web2py/applications/WSD/sessions/127.0.0.1-d76d2f66-a702-4d08-8b16-65a16f46815e', mode 'rb+' at 0xada1ecd8>"
p6170
asbasbasbag57
(g73
g59
NtRp6171
(dp6172
g62
(dp6173
sg71
g4771
sg64
(lp6174
g57
(g78
g59
NtRp6175
(dp6176
g62
(dp6177
g82
g83
ssg71
g6171
sg64
(lp6178
S'session_filename'
p6179
asbag57
(g78
g59
NtRp6180
(dp6181
g62
(dp6182
g89
g90
ssg71
g6171
sg64
(lp6183
S':'
asbag57
(g78
g59
NtRp6184
(dp6185
g62
(dp6186
sg71
g6171
sg64
(lp6187
g57
(g58
g59
NtRp6188
(dp6189
g62
(dp6190
g70
I5
ssg71
g6184
sg64
(lp6191
S'/home/nazrul/web2py/applications/WSD/sessions/127.0.0.1-d76d2f66-a702-4d08-8b16-65a16f46815e'
p6192
asbasbasbag57
(g73
g59
NtRp6193
(dp6194
g62
(dp6195
sg71
g4771
sg64
(lp6196
g57
(g78
g59
NtRp6197
(dp6198
g62
(dp6199
g82
g83
ssg71
g6193
sg64
(lp6200
S'session_id'
p6201
asbag57
(g78
g59
NtRp6202
(dp6203
g62
(dp6204
g89
g90
ssg71
g6193
sg64
(lp6205
S':'
asbag57
(g78
g59
NtRp6206
(dp6207
g62
(dp6208
sg71
g6193
sg64
(lp6209
g57
(g58
g59
NtRp6210
(dp6211
g62
(dp6212
g70
I5
ssg71
g6206
sg64
(lp6213
g1033
asbasbasbag57
(g73
g59
NtRp6214
(dp6215
g62
(dp6216
sg71
g4771
sg64
(lp6217
g57
(g78
g59
NtRp6218
(dp6219
g62
(dp6220
g82
g83
ssg71
g6214
sg64
(lp6221
S'session_id_name'
p6222
asbag57
(g78
g59
NtRp6223
(dp6224
g62
(dp6225
g89
g90
ssg71
g6214
sg64
(lp6226
S':'
asbag57
(g78
g59
NtRp6227
(dp6228
g62
(dp6229
sg71
g6214
sg64
(lp6230
g57
(g58
g59
NtRp6231
(dp6232
g62
(dp6233
g70
I5
ssg71
g6227
sg64
(lp6234
g4828
asbasbasbag57
(g73
g59
NtRp6235
(dp6236
g62
(dp6237
sg71
g4771
sg64
(lp6238
g57
(g78
g59
NtRp6239
(dp6240
g62
(dp6241
g82
g83
ssg71
g6235
sg64
(lp6242
S'session_locked'
p6243
asbag57
(g78
g59
NtRp6244
(dp6245
g62
(dp6246
g89
g90
ssg71
g6235
sg64
(lp6247
S':'
asbag57
(g78
g59
NtRp6248
(dp6249
g62
(dp6250
sg71
g6235
sg64
(lp6251
g57
(g58
g59
NtRp6252
(dp6253
g62
(dp6254
g70
I5
ssg71
g6248
sg64
(lp6255
g2413
asbasbasbag57
(g73
g59
NtRp6256
(dp6257
g62
(dp6258
sg71
g4771
sg64
(lp6259
g57
(g78
g59
NtRp6260
(dp6261
g62
(dp6262
g82
g83
ssg71
g6256
sg64
(lp6263
S'session_new'
p6264
asbag57
(g78
g59
NtRp6265
(dp6266
g62
(dp6267
g89
g90
ssg71
g6256
sg64
(lp6268
S':'
asbag57
(g78
g59
NtRp6269
(dp6270
g62
(dp6271
sg71
g6256
sg64
(lp6272
g57
(g58
g59
NtRp6273
(dp6274
g62
(dp6275
g70
I5
ssg71
g6269
sg64
(lp6276
g100
asbasbasbag57
(g73
g59
NtRp6277
(dp6278
g62
(dp6279
sg71
g4771
sg64
(lp6280
g57
(g78
g59
NtRp6281
(dp6282
g62
(dp6283
g82
g83
ssg71
g6277
sg64
(lp6284
S'session_storage_type'
p6285
asbag57
(g78
g59
NtRp6286
(dp6287
g62
(dp6288
g89
g90
ssg71
g6277
sg64
(lp6289
S':'
asbag57
(g78
g59
NtRp6290
(dp6291
g62
(dp6292
sg71
g6277
sg64
(lp6293
g57
(g58
g59
NtRp6294
(dp6295
g62
(dp6296
g70
I5
ssg71
g6290
sg64
(lp6297
g4137
asbasbasbag57
(g73
g59
NtRp6298
(dp6299
g62
(dp6300
sg71
g4771
sg64
(lp6301
g57
(g78
g59
NtRp6302
(dp6303
g62
(dp6304
g82
g83
ssg71
g6298
sg64
(lp6305
S'status'
p6306
asbag57
(g78
g59
NtRp6307
(dp6308
g62
(dp6309
g89
g90
ssg71
g6298
sg64
(lp6310
S':'
asbag57
(g78
g59
NtRp6311
(dp6312
g62
(dp6313
sg71
g6298
sg64
(lp6314
g57
(g58
g59
NtRp6315
(dp6316
g62
(dp6317
g70
I5
ssg71
g6311
sg64
(lp6318
S'200'
p6319
asbasbasbag57
(g73
g59
NtRp6320
(dp6321
g62
(dp6322
sg71
g4771
sg64
(lp6323
g57
(g78
g59
NtRp6324
(dp6325
g62
(dp6326
g82
g83
ssg71
g6320
sg64
(lp6327
S'subtitle'
p6328
asbag57
(g78
g59
NtRp6329
(dp6330
g62
(dp6331
g89
g90
ssg71
g6320
sg64
(lp6332
S':'
asbag57
(g78
g59
NtRp6333
(dp6334
g62
(dp6335
sg71
g6320
sg64
(lp6336
g57
(g58
g59
NtRp6337
(dp6338
g62
(dp6339
g70
I5
ssg71
g6333
sg64
(lp6340
g5261
(S's\r\x00\x00\x00customize me!'
tRp6341
asbasbasbag57
(g73
g59
NtRp6342
(dp6343
g62
(dp6344
sg71
g4771
sg64
(lp6345
g57
(g78
g59
NtRp6346
(dp6347
g62
(dp6348
g82
g83
ssg71
g6342
sg64
(lp6349
S'title'
p6350
asbag57
(g78
g59
NtRp6351
(dp6352
g62
(dp6353
g89
g90
ssg71
g6342
sg64
(lp6354
S':'
asbag57
(g78
g59
NtRp6355
(dp6356
g62
(dp6357
sg71
g6342
sg64
(lp6358
g57
(g58
g59
NtRp6359
(dp6360
g62
(dp6361
g70
I5
ssg71
g6355
sg64
(lp6362
S'Wsd'
p6363
asbasbasbag57
(g73
g59
NtRp6364
(dp6365
g62
(dp6366
sg71
g4771
sg64
(lp6367
g57
(g78
g59
NtRp6368
(dp6369
g62
(dp6370
g82
g83
ssg71
g6364
sg64
(lp6371
S'view'
p6372
asbag57
(g78
g59
NtRp6373
(dp6374
g62
(dp6375
g89
g90
ssg71
g6364
sg64
(lp6376
S':'
asbag57
(g78
g59
NtRp6377
(dp6378
g62
(dp6379
sg71
g6364
sg64
(lp6380
g57
(g58
g59
NtRp6381
(dp6382
g62
(dp6383
g70
I5
ssg71
g6377
sg64
(lp6384
S'default/addword.html'
p6385
asbasbasbasbasbsS'locals'
p6386
(dp6387
S'word'
p6388
S"'fast'"
p6389
sS'd'
S"{'1': ' fast', '2': 'nickname', '3': 'for', '4': 'measures', '5': 'to', '6': 'stop', '7': 'the', '8': 'market', '9': 'from'}"
p6390
sS'f'
S"<open file '/home/nazrul/Dropbox/iiit/sem3/ssad/..._dir/tmp/sample_tmp/2.1/relations.dat', mode 'r'>"
p6391
sS'i'
S"'(kriyA-kriyA_viSeRaNa  10 14)'"
p6392
sS'anu_id'
p6393
S"'4'"
p6394
sS'j'
S"<Row {'id': 42}>"
p6395
sS'l'
S'[]'
p6396
sS'st'
p6397
S"'\\n<TITLE> test. </TITLE>\\n<p>\\nA nickname for measu... the market from plunging too far too fast.\\n</p>\\n'"
p6398
sS's'
S'<Rows (1)>'
p6399
sS'l2'
p6400
S'[]'
p6401
sS'w'
S'<Rows (1)>'
p6402
sS'l1'
p6403
S'[]'
p6404
sS'ind'
p6405
S'1'
sS'end'
p6406
S'6'
sS'psp'
p6407
S"'noun'"
p6408
sS'line'
p6409
S"'\\n)nuon 4 esraoc_tac-di('"
p6410
sS'sen'
p6411
S"'A nickname for measures to stop the market from plunging too far too fast.'"
p6412
sssS'traceback'
p6413
S'Traceback (most recent call last):\n  File "/home/nazrul/web2py/gluon/restricted.py", line 212, in restricted\n    exec ccode in environment\n  File "/home/nazrul/web2py/applications/WSD/controllers/default.py", line 427, in <module>\n  File "/home/nazrul/web2py/gluon/globals.py", line 193, in <lambda>\n    self._caller = lambda f: f()\n  File "/home/nazrul/web2py/gluon/tools.py", line 2929, in f\n    return action(*a, **b)\n  File "/home/nazrul/web2py/applications/WSD/controllers/default.py", line 306, in addword\n    l2.append(i[:-4].strip()+\')\'+\' \'+\' \'+i[-2]+\',\'+\'\\"\'+d[i[-4]]+\'\\"\'+\' \'+str(anu_id)+\',\'+\'\\"\'+str(word)+\'\\"\')\nKeyError: \' \'\n'
p6414
s.