(dp1
S'output'
p2
S"<type 'exceptions.IOError'> [Errno 2] No such file or directory: '$HOME_anu_tmp/tmp/sample_tmp/2.1/word.dat'"
p3
sS'layer'
p4
S'/home/nazrul/web2py/applications/WSD_Tool/controllers/default.py'
p5
sS'code'
p6
S'# -*- coding: utf-8 -*-\n# this file is released under public domain and you can use without limitations\n\n#########################################################################\n## This is a samples controller\n## - index is the default action of any application\n## - user is required for authentication and authorization\n## - download is for downloading files uploaded in the db (does streaming)\n## - call exposes all registered services (none by default)\n#########################################################################\nimport os,subprocess\ndef index():\n    redirect(\'home\')\n    """\n    example action using the internationalization operator T and flash\n    rendered by views/default/index.html or views/generic.html\n    """\n    response.flash = "Welcome to web2py!"\n    return dict(message=T(\'Hello World\'))\n\ndef user():\n    """\n    exposes:\n    http://..../[app]/default/user/login\n    http://..../[app]/default/user/logout\n    http://..../[app]/default/user/register\n    http://..../[app]/default/user/profile\n    http://..../[app]/default/user/retrieve_password\n    http://..../[app]/default/user/change_password\n    use @auth.requires_login()\n        @auth.requires_membership(\'group name\')\n        @auth.requires_permission(\'read\',\'table name\',record_id)\n    to decorate functions that need access control\n    """\n    return dict(form=auth())\n\n\ndef download():\n    """\n    allows downloading of uploaded files\n    http://..../[app]/default/download/[filename]\n    """\n    return response.download(request,db)\n\n\ndef call():\n    """\n    exposes services. for example:\n    http://..../[app]/default/call/jsonrpc\n    decorate with @services.jsonrpc the functions to expose\n    supports xml, json, xmlrpc, jsonrpc, amfrpc, rss, csv\n    """\n    return service()\n\n\n@auth.requires_signature()\ndef data():\n    """\n    http://..../[app]/default/data/tables\n    http://..../[app]/default/data/create/[table]\n    http://..../[app]/default/data/read/[table]/[id]\n    http://..../[app]/default/data/update/[table]/[id]\n    http://..../[app]/default/data/delete/[table]/[id]\n    http://..../[app]/default/data/select/[table]\n    http://..../[app]/default/data/search/[table]\n    but URLs must be signed, i.e. linked with\n      A(\'table\',_href=URL(\'data/tables\',user_signature=True))\n    or with the signed load operator\n      LOAD(\'default\',\'data.load\',args=\'tables\',ajax=True,user_signature=True)\n    """\n    return dict(form=crud())\n\n\n\n\n@auth.requires_login()\ndef home():\n    t = auth.user.id\n    h = db(db.rules.userid==t).select()\n    g = []\n    for i in h:\n        g.append(db(db.words.id==i.wid).select(db.words.word))\n    h=[]\n    for i in g:\n        for j in i:\n            h.append(j.word) \n    h=list(set(h))\n    return dict(t=t,h=h)\n\n@auth.requires_login()\ndef word_select():\n    if not request.vars.check:\n        redirect(\'home\')\n    else:\n        check=0\n    if request.vars.submit:\n        w = request.vars.word\n        t = db(db.words).select()\n        for i in t:\n            if i.word==w:\n                session.word = w\n                session.ide = i.id\n                break\n        redirect(\'sentence_select\')\n    return dict()\n\n\n@auth.requires_login()\ndef word_selectc():\n    if not request.vars.check:\n        redirect(\'home\')\n    else:\n        check=0\n    if request.vars.submit:\n        w = request.vars.word\n        t = db(db.words).select()\n        for i in t:\n            if i.word==w:\n                session.word = w\n                session.ide = i.id\n                break\n        redirect(URL(\'sentence_selectc\',vars=dict(second=request.vars.second)))\n    return dict()\n    \n    \n    \n\n\n\n#@auth.requires_login()\n#def reason():\n#    t=session.senid\n#    pre=db((db.rules.wid==session.ide)&(db.rules.sid==session.sid)).select()\n#    c=0\n#    for i in pre:\n#        c+=1\n#    if request.vars.hindit:\n#        db.rules.insert(name=session.word+str(c),userid=auth.user.id,wid=session.ide,sid=session.sid,translation=hindit)\n#        redirect(URL(\'rel\'))\n#    return dict()\n    \n    \n@auth.requires_login()\ndef sentence_select():\n    f = \'\'\n    x = 0\n    if request.vars.submit and (request.vars.hindit):\n        t = request.vars.sentence\n        r = db(db.sentences.esentence==t).select(db.sentences.id)\n        for i in r:\n          session.sid=i.id\n          break\n        pre=db((db.rules.wid==session.ide)&(db.rules.userid==auth.user.id)).select()\n        c=0\n        f=0\n        for i in pre:\n            c+=1\n            if str(session.sid)==i.sid:\n                f=1\n                break\n        if f==0:\n            db.rules.insert(name=session.word+str(c),userid=auth.user.id,wid=session.ide,sid=session.sid,translation=request.vars.hindit)\n        redirect(URL(\'rel\'))\n    return dict(w=session.word,d=session.ide,f=f)\n\n\n@auth.requires_login()\ndef sentence_selectc():\n    f = \'\'\n    x = 0\n    if request.vars.submit:\n        t = request.vars.sentence\n        r = db(db.sentences.esentence==t).select(db.sentences.id)\n        for i in r:\n          hindit=i.id\n          session.sid=i.id\n          break\n        redirect(URL(\'reasonc\',vars=dict(hindit=hindit)))\n    return dict(w=session.word,d=session.ide,f=f)\n\n\n@auth.requires_login()\ndef reasonc():\n    t=session.sid\n    r = db(db.sentences.id==t).select(db.sentences.hsentence)\n    if request.vars.submit:\n        pre=db((db.rules.wid==session.ide)&(db.rules.userid==auth.user.id)).select()\n        c=0\n        f=0\n        for i in pre:\n            c+=1\n            print session.sid,i.sid\n            if i.sid==str(session.sid):\n                f=1\n                break\n        if f==0:\n            db.rules.insert(name=session.word+str(c),userid=auth.user.id,wid=session.ide,sid=session.sid)\n        redirect(URL(\'rel\'))\n    return dict(r=r)\n\n@auth.requires_login()\ndef delaccount():\n    if request.vars.submit:\n        db(db.auth_user.email==request.vars.email).delete()\n        redirect("home")\n    return dict()\n\n@auth.requires_login()\ndef addword():\n    if request.vars.submit:\n        db.words.insert(word=request.vars.word)\n        db.sentences.insert(esentence=request.vars.esentence,hsentence=request.vars.hsentence)\n        w = db(db.words.word==request.vars.word).select(db.words.id)\n        s = db(db.sentences.esentence==request.vars.esentence).select(db.sentences.id)\n        for i in w:\n            for j in s:\n                db.links.insert(wid=i.id,sid=j.id)\n                break\n            break\n        session.flash="Word Added"\n        redirect(\'home\')\n    return dict()\n@auth.requires_login()\ndef delword():\n    if request.vars.submit:\n        g = db(db.words.word==request.vars.word).select(db.words.id)\n        for i in g:\n            db(db.words.id==i.id).delete()\n            db(db.rules.wid==i.id).delete()\n            y = db(db.links.wid==i.id).select(db.links.sid)\n            db(db.links.wid==i.id).delete()\n            for j in y:\n                db(db.sentences.id==j.sid).delete()\n                break\n            break\n            session.flash="Word Deleted "\n        redirect(\'home\')\n    return dict()\ndef rel():\n       s=db(db.sentences.id==session.sid).select(db.sentences.esentence)\n       s=s[0].esentence\n       #f=open(\'sample\',\'w\')\n       #st="<TITLE> test. </TITLE> \\n <p> " + s + " </p>\\n"\n       #f.write(st)\n       #from subprocess import Popen, PIPE, STDOUT\n       #shell_command = \'Anusaaraka_stanford.sh  sample 0 True\'\n       #event = Popen(shell_command, shell=True, stdin=PIPE, stdout=PIPE, stderr=STDOUT)\n       #event.communicate()\n       os.system("Anusaaraka_stanford.sh  sample 0 True")\n       #f.close()\n       f=open(\'$HOME_anu_tmp/tmp/sample_tmp/2.1/word.dat\',\'r\')\n       a=f.read()\n       f.close()\n       return dict(a=a) \n        \ndef testt():\n    v=db(db.auth_user).select()\n    return dict(v=v)\n\nresponse._vars=response._caller(rel)\n'
p7
sS'snapshot'
p8
(dp9
S'exception'
p10
(dp11
S'__getslice__'
p12
S"<method-wrapper '__getslice__' of exceptions.IOError object>"
p13
sS'__str__'
p14
S"<method-wrapper '__str__' of exceptions.IOError object>"
p15
sS'__reduce__'
p16
S'<built-in method __reduce__ of exceptions.IOError object>'
p17
sS'__dict__'
p18
S'{}'
p19
sS'__sizeof__'
p20
S'<built-in method __sizeof__ of exceptions.IOError object>'
p21
sS'__init__'
p22
S"<method-wrapper '__init__' of exceptions.IOError object>"
p23
sS'__setattr__'
p24
S"<method-wrapper '__setattr__' of exceptions.IOError object>"
p25
sS'__reduce_ex__'
p26
S'<built-in method __reduce_ex__ of exceptions.IOError object>'
p27
sS'__new__'
p28
S'<built-in method __new__ of type object>'
p29
sS'errno'
p30
S'2'
sS'__format__'
p31
S'<built-in method __format__ of exceptions.IOError object>'
p32
sS'__class__'
p33
S"<type 'exceptions.IOError'>"
p34
sS'filename'
p35
S"'$HOME_anu_tmp/tmp/sample_tmp/2.1/word.dat'"
p36
sS'__doc__'
p37
S"'I/O operation failed.'"
p38
sS'__getitem__'
p39
S"<method-wrapper '__getitem__' of exceptions.IOError object>"
p40
sS'__setstate__'
p41
S'<built-in method __setstate__ of exceptions.IOError object>'
p42
sS'__getattribute__'
p43
S"<method-wrapper '__getattribute__' of exceptions.IOError object>"
p44
sS'args'
p45
S"(2, 'No such file or directory')"
p46
sS'__subclasshook__'
p47
S'<built-in method __subclasshook__ of type object>'
p48
sS'__unicode__'
p49
S'<built-in method __unicode__ of exceptions.IOError object>'
p50
sS'strerror'
p51
S"'No such file or directory'"
p52
sS'__delattr__'
p53
S"<method-wrapper '__delattr__' of exceptions.IOError object>"
p54
sS'__repr__'
p55
S"<method-wrapper '__repr__' of exceptions.IOError object>"
p56
sS'__hash__'
p57
S"<method-wrapper '__hash__' of exceptions.IOError object>"
p58
ssS'evalue'
p59
S"[Errno 2] No such file or directory: '$HOME_anu_tmp/tmp/sample_tmp/2.1/word.dat'"
p60
sS'request'
p61
ccopy_reg
_reconstructor
p62
(cgluon.html
BEAUTIFY
p63
c__builtin__
object
p64
NtRp65
(dp66
S'attributes'
p67
(dp68
sS'components'
p69
(lp70
g62
(cgluon.html
TABLE
p71
g64
NtRp72
(dp73
g67
(dp74
S'level'
p75
I5
ssS'parent'
p76
Nsg69
(lp77
g62
(cgluon.html
TR
p78
g64
NtRp79
(dp80
g67
(dp81
sg76
g72
sg69
(lp82
g62
(cgluon.html
TD
p83
g64
NtRp84
(dp85
g67
(dp86
S'_style'
p87
S'font-weight:bold;vertical-align:top'
p88
ssg76
g79
sg69
(lp89
S'ajax'
p90
asbag62
(g83
g64
NtRp91
(dp92
g67
(dp93
S'_valign'
p94
S'top'
p95
ssg76
g79
sg69
(lp96
S':'
asbag62
(g83
g64
NtRp97
(dp98
g67
(dp99
sg76
g79
sg69
(lp100
g62
(g63
g64
NtRp101
(dp102
g67
(dp103
g75
I5
ssg76
g97
sg69
(lp104
S'False'
p105
asbasbasbag62
(g78
g64
NtRp106
(dp107
g67
(dp108
sg76
g72
sg69
(lp109
g62
(g83
g64
NtRp110
(dp111
g67
(dp112
g87
g88
ssg76
g106
sg69
(lp113
S'application'
p114
asbag62
(g83
g64
NtRp115
(dp116
g67
(dp117
g94
g95
ssg76
g106
sg69
(lp118
S':'
asbag62
(g83
g64
NtRp119
(dp120
g67
(dp121
sg76
g106
sg69
(lp122
g62
(g63
g64
NtRp123
(dp124
g67
(dp125
g75
I5
ssg76
g119
sg69
(lp126
S'WSD_Tool'
p127
asbasbasbag62
(g78
g64
NtRp128
(dp129
g67
(dp130
sg76
g72
sg69
(lp131
g62
(g83
g64
NtRp132
(dp133
g67
(dp134
g87
g88
ssg76
g128
sg69
(lp135
g45
asbag62
(g83
g64
NtRp136
(dp137
g67
(dp138
g94
g95
ssg76
g128
sg69
(lp139
S':'
asbag62
(g83
g64
NtRp140
(dp141
g67
(dp142
sg76
g128
sg69
(lp143
g62
(g63
g64
NtRp144
(dp145
g67
(dp146
g75
I5
ssg76
g140
sg69
(lp147
g62
(g71
g64
NtRp148
(dp149
g67
(dp150
g75
I4
ssg76
Nsg69
(lp151
sbasbasbasbag62
(g78
g64
NtRp152
(dp153
g67
(dp154
sg76
g72
sg69
(lp155
g62
(g83
g64
NtRp156
(dp157
g67
(dp158
g87
g88
ssg76
g152
sg69
(lp159
S'body'
p160
asbag62
(g83
g64
NtRp161
(dp162
g67
(dp163
g94
g95
ssg76
g152
sg69
(lp164
S':'
asbag62
(g83
g64
NtRp165
(dp166
g67
(dp167
sg76
g152
sg69
(lp168
g62
(g63
g64
NtRp169
(dp170
g67
(dp171
g75
I5
ssg76
g165
sg69
(lp172
S'<cStringIO.StringO object at 0xacdb4a0>'
p173
asbasbasbag62
(g78
g64
NtRp174
(dp175
g67
(dp176
sg76
g72
sg69
(lp177
g62
(g83
g64
NtRp178
(dp179
g67
(dp180
g87
g88
ssg76
g174
sg69
(lp181
S'cid'
p182
asbag62
(g83
g64
NtRp183
(dp184
g67
(dp185
g94
g95
ssg76
g174
sg69
(lp186
S':'
asbag62
(g83
g64
NtRp187
(dp188
g67
(dp189
sg76
g174
sg69
(lp190
g62
(g63
g64
NtRp191
(dp192
g67
(dp193
g75
I5
ssg76
g187
sg69
(lp194
S'None'
p195
asbasbasbag62
(g78
g64
NtRp196
(dp197
g67
(dp198
sg76
g72
sg69
(lp199
g62
(g83
g64
NtRp200
(dp201
g67
(dp202
g87
g88
ssg76
g196
sg69
(lp203
S'client'
p204
asbag62
(g83
g64
NtRp205
(dp206
g67
(dp207
g94
g95
ssg76
g196
sg69
(lp208
S':'
asbag62
(g83
g64
NtRp209
(dp210
g67
(dp211
sg76
g196
sg69
(lp212
g62
(g63
g64
NtRp213
(dp214
g67
(dp215
g75
I5
ssg76
g209
sg69
(lp216
S'127.0.0.1'
p217
asbasbasbag62
(g78
g64
NtRp218
(dp219
g67
(dp220
sg76
g72
sg69
(lp221
g62
(g83
g64
NtRp222
(dp223
g67
(dp224
g87
g88
ssg76
g218
sg69
(lp225
S'controller'
p226
asbag62
(g83
g64
NtRp227
(dp228
g67
(dp229
g94
g95
ssg76
g218
sg69
(lp230
S':'
asbag62
(g83
g64
NtRp231
(dp232
g67
(dp233
sg76
g218
sg69
(lp234
g62
(g63
g64
NtRp235
(dp236
g67
(dp237
g75
I5
ssg76
g231
sg69
(lp238
S'default'
p239
asbasbasbag62
(g78
g64
NtRp240
(dp241
g67
(dp242
sg76
g72
sg69
(lp243
g62
(g83
g64
NtRp244
(dp245
g67
(dp246
g87
g88
ssg76
g240
sg69
(lp247
S'cookies'
p248
asbag62
(g83
g64
NtRp249
(dp250
g67
(dp251
g94
g95
ssg76
g240
sg69
(lp252
S':'
asbag62
(g83
g64
NtRp253
(dp254
g67
(dp255
sg76
g240
sg69
(lp256
g62
(g63
g64
NtRp257
(dp258
g67
(dp259
g75
I5
ssg76
g253
sg69
(lp260
g62
(g71
g64
NtRp261
(dp262
g67
(dp263
g75
I4
ssg76
Nsg69
(lp264
g62
(g78
g64
NtRp265
(dp266
g67
(dp267
sg76
g261
sg69
(lp268
g62
(g83
g64
NtRp269
(dp270
g67
(dp271
g87
g88
ssg76
g265
sg69
(lp272
S'KBD'
p273
asbag62
(g83
g64
NtRp274
(dp275
g67
(dp276
g94
g95
ssg76
g265
sg69
(lp277
S':'
asbag62
(g83
g64
NtRp278
(dp279
g67
(dp280
sg76
g265
sg69
(lp281
g62
(g63
g64
NtRp282
(dp283
g67
(dp284
g75
I4
ssg76
g278
sg69
(lp285
S'0hi-0'
p286
ag62
(g71
g64
NtRp287
(dp288
g67
(dp289
g75
I3
ssg76
Nsg69
(lp290
g62
(g78
g64
NtRp291
(dp292
g67
(dp293
sg76
g287
sg69
(lp294
g62
(g83
g64
NtRp295
(dp296
g67
(dp297
g87
g88
ssg76
g291
sg69
(lp298
S'comment'
p299
asbag62
(g83
g64
NtRp300
(dp301
g67
(dp302
g94
g95
ssg76
g291
sg69
(lp303
S':'
asbag62
(g83
g64
NtRp304
(dp305
g67
(dp306
sg76
g291
sg69
(lp307
g62
(g63
g64
NtRp308
(dp309
g67
(dp310
g75
I3
ssg76
g304
sg69
(lp311
S''
asbasbasbag62
(g78
g64
NtRp312
(dp313
g67
(dp314
sg76
g287
sg69
(lp315
g62
(g83
g64
NtRp316
(dp317
g67
(dp318
g87
g88
ssg76
g312
sg69
(lp319
S'domain'
p320
asbag62
(g83
g64
NtRp321
(dp322
g67
(dp323
g94
g95
ssg76
g312
sg69
(lp324
S':'
asbag62
(g83
g64
NtRp325
(dp326
g67
(dp327
sg76
g312
sg69
(lp328
g62
(g63
g64
NtRp329
(dp330
g67
(dp331
g75
I3
ssg76
g325
sg69
(lp332
S''
asbasbasbag62
(g78
g64
NtRp333
(dp334
g67
(dp335
sg76
g287
sg69
(lp336
g62
(g83
g64
NtRp337
(dp338
g67
(dp339
g87
g88
ssg76
g333
sg69
(lp340
S'expires'
p341
asbag62
(g83
g64
NtRp342
(dp343
g67
(dp344
g94
g95
ssg76
g333
sg69
(lp345
S':'
asbag62
(g83
g64
NtRp346
(dp347
g67
(dp348
sg76
g333
sg69
(lp349
g62
(g63
g64
NtRp350
(dp351
g67
(dp352
g75
I3
ssg76
g346
sg69
(lp353
S''
asbasbasbag62
(g78
g64
NtRp354
(dp355
g67
(dp356
sg76
g287
sg69
(lp357
g62
(g83
g64
NtRp358
(dp359
g67
(dp360
g87
g88
ssg76
g354
sg69
(lp361
S'httponly'
p362
asbag62
(g83
g64
NtRp363
(dp364
g67
(dp365
g94
g95
ssg76
g354
sg69
(lp366
S':'
asbag62
(g83
g64
NtRp367
(dp368
g67
(dp369
sg76
g354
sg69
(lp370
g62
(g63
g64
NtRp371
(dp372
g67
(dp373
g75
I3
ssg76
g367
sg69
(lp374
S''
asbasbasbag62
(g78
g64
NtRp375
(dp376
g67
(dp377
sg76
g287
sg69
(lp378
g62
(g83
g64
NtRp379
(dp380
g67
(dp381
g87
g88
ssg76
g375
sg69
(lp382
S'max-age'
p383
asbag62
(g83
g64
NtRp384
(dp385
g67
(dp386
g94
g95
ssg76
g375
sg69
(lp387
S':'
asbag62
(g83
g64
NtRp388
(dp389
g67
(dp390
sg76
g375
sg69
(lp391
g62
(g63
g64
NtRp392
(dp393
g67
(dp394
g75
I3
ssg76
g388
sg69
(lp395
S''
asbasbasbag62
(g78
g64
NtRp396
(dp397
g67
(dp398
sg76
g287
sg69
(lp399
g62
(g83
g64
NtRp400
(dp401
g67
(dp402
g87
g88
ssg76
g396
sg69
(lp403
S'path'
p404
asbag62
(g83
g64
NtRp405
(dp406
g67
(dp407
g94
g95
ssg76
g396
sg69
(lp408
S':'
asbag62
(g83
g64
NtRp409
(dp410
g67
(dp411
sg76
g396
sg69
(lp412
g62
(g63
g64
NtRp413
(dp414
g67
(dp415
g75
I3
ssg76
g409
sg69
(lp416
S''
asbasbasbag62
(g78
g64
NtRp417
(dp418
g67
(dp419
sg76
g287
sg69
(lp420
g62
(g83
g64
NtRp421
(dp422
g67
(dp423
g87
g88
ssg76
g417
sg69
(lp424
S'secure'
p425
asbag62
(g83
g64
NtRp426
(dp427
g67
(dp428
g94
g95
ssg76
g417
sg69
(lp429
S':'
asbag62
(g83
g64
NtRp430
(dp431
g67
(dp432
sg76
g417
sg69
(lp433
g62
(g63
g64
NtRp434
(dp435
g67
(dp436
g75
I3
ssg76
g430
sg69
(lp437
S''
asbasbasbag62
(g78
g64
NtRp438
(dp439
g67
(dp440
sg76
g287
sg69
(lp441
g62
(g83
g64
NtRp442
(dp443
g67
(dp444
g87
g88
ssg76
g438
sg69
(lp445
S'version'
p446
asbag62
(g83
g64
NtRp447
(dp448
g67
(dp449
g94
g95
ssg76
g438
sg69
(lp450
S':'
asbag62
(g83
g64
NtRp451
(dp452
g67
(dp453
sg76
g438
sg69
(lp454
g62
(g63
g64
NtRp455
(dp456
g67
(dp457
g75
I3
ssg76
g451
sg69
(lp458
S''
asbasbasbasbasbasbasbag62
(g78
g64
NtRp459
(dp460
g67
(dp461
sg76
g261
sg69
(lp462
g62
(g83
g64
NtRp463
(dp464
g67
(dp465
g87
g88
ssg76
g459
sg69
(lp466
S'session_id_admin'
p467
asbag62
(g83
g64
NtRp468
(dp469
g67
(dp470
g94
g95
ssg76
g459
sg69
(lp471
S':'
asbag62
(g83
g64
NtRp472
(dp473
g67
(dp474
sg76
g459
sg69
(lp475
g62
(g63
g64
NtRp476
(dp477
g67
(dp478
g75
I4
ssg76
g472
sg69
(lp479
S'127.0.0.1-634e911d-1fde-455e-a6e2-97efd4213cb7'
p480
ag62
(g71
g64
NtRp481
(dp482
g67
(dp483
g75
I3
ssg76
Nsg69
(lp484
g62
(g78
g64
NtRp485
(dp486
g67
(dp487
sg76
g481
sg69
(lp488
g62
(g83
g64
NtRp489
(dp490
g67
(dp491
g87
g88
ssg76
g485
sg69
(lp492
g299
asbag62
(g83
g64
NtRp493
(dp494
g67
(dp495
g94
g95
ssg76
g485
sg69
(lp496
S':'
asbag62
(g83
g64
NtRp497
(dp498
g67
(dp499
sg76
g485
sg69
(lp500
g62
(g63
g64
NtRp501
(dp502
g67
(dp503
g75
I3
ssg76
g497
sg69
(lp504
S''
asbasbasbag62
(g78
g64
NtRp505
(dp506
g67
(dp507
sg76
g481
sg69
(lp508
g62
(g83
g64
NtRp509
(dp510
g67
(dp511
g87
g88
ssg76
g505
sg69
(lp512
g320
asbag62
(g83
g64
NtRp513
(dp514
g67
(dp515
g94
g95
ssg76
g505
sg69
(lp516
S':'
asbag62
(g83
g64
NtRp517
(dp518
g67
(dp519
sg76
g505
sg69
(lp520
g62
(g63
g64
NtRp521
(dp522
g67
(dp523
g75
I3
ssg76
g517
sg69
(lp524
S''
asbasbasbag62
(g78
g64
NtRp525
(dp526
g67
(dp527
sg76
g481
sg69
(lp528
g62
(g83
g64
NtRp529
(dp530
g67
(dp531
g87
g88
ssg76
g525
sg69
(lp532
g341
asbag62
(g83
g64
NtRp533
(dp534
g67
(dp535
g94
g95
ssg76
g525
sg69
(lp536
S':'
asbag62
(g83
g64
NtRp537
(dp538
g67
(dp539
sg76
g525
sg69
(lp540
g62
(g63
g64
NtRp541
(dp542
g67
(dp543
g75
I3
ssg76
g537
sg69
(lp544
S''
asbasbasbag62
(g78
g64
NtRp545
(dp546
g67
(dp547
sg76
g481
sg69
(lp548
g62
(g83
g64
NtRp549
(dp550
g67
(dp551
g87
g88
ssg76
g545
sg69
(lp552
g362
asbag62
(g83
g64
NtRp553
(dp554
g67
(dp555
g94
g95
ssg76
g545
sg69
(lp556
S':'
asbag62
(g83
g64
NtRp557
(dp558
g67
(dp559
sg76
g545
sg69
(lp560
g62
(g63
g64
NtRp561
(dp562
g67
(dp563
g75
I3
ssg76
g557
sg69
(lp564
S''
asbasbasbag62
(g78
g64
NtRp565
(dp566
g67
(dp567
sg76
g481
sg69
(lp568
g62
(g83
g64
NtRp569
(dp570
g67
(dp571
g87
g88
ssg76
g565
sg69
(lp572
g383
asbag62
(g83
g64
NtRp573
(dp574
g67
(dp575
g94
g95
ssg76
g565
sg69
(lp576
S':'
asbag62
(g83
g64
NtRp577
(dp578
g67
(dp579
sg76
g565
sg69
(lp580
g62
(g63
g64
NtRp581
(dp582
g67
(dp583
g75
I3
ssg76
g577
sg69
(lp584
S''
asbasbasbag62
(g78
g64
NtRp585
(dp586
g67
(dp587
sg76
g481
sg69
(lp588
g62
(g83
g64
NtRp589
(dp590
g67
(dp591
g87
g88
ssg76
g585
sg69
(lp592
g404
asbag62
(g83
g64
NtRp593
(dp594
g67
(dp595
g94
g95
ssg76
g585
sg69
(lp596
S':'
asbag62
(g83
g64
NtRp597
(dp598
g67
(dp599
sg76
g585
sg69
(lp600
g62
(g63
g64
NtRp601
(dp602
g67
(dp603
g75
I3
ssg76
g597
sg69
(lp604
S''
asbasbasbag62
(g78
g64
NtRp605
(dp606
g67
(dp607
sg76
g481
sg69
(lp608
g62
(g83
g64
NtRp609
(dp610
g67
(dp611
g87
g88
ssg76
g605
sg69
(lp612
g425
asbag62
(g83
g64
NtRp613
(dp614
g67
(dp615
g94
g95
ssg76
g605
sg69
(lp616
S':'
asbag62
(g83
g64
NtRp617
(dp618
g67
(dp619
sg76
g605
sg69
(lp620
g62
(g63
g64
NtRp621
(dp622
g67
(dp623
g75
I3
ssg76
g617
sg69
(lp624
S''
asbasbasbag62
(g78
g64
NtRp625
(dp626
g67
(dp627
sg76
g481
sg69
(lp628
g62
(g83
g64
NtRp629
(dp630
g67
(dp631
g87
g88
ssg76
g625
sg69
(lp632
g446
asbag62
(g83
g64
NtRp633
(dp634
g67
(dp635
g94
g95
ssg76
g625
sg69
(lp636
S':'
asbag62
(g83
g64
NtRp637
(dp638
g67
(dp639
sg76
g625
sg69
(lp640
g62
(g63
g64
NtRp641
(dp642
g67
(dp643
g75
I3
ssg76
g637
sg69
(lp644
S''
asbasbasbasbasbasbasbag62
(g78
g64
NtRp645
(dp646
g67
(dp647
sg76
g261
sg69
(lp648
g62
(g83
g64
NtRp649
(dp650
g67
(dp651
g87
g88
ssg76
g645
sg69
(lp652
S'session_id_welcome'
p653
asbag62
(g83
g64
NtRp654
(dp655
g67
(dp656
g94
g95
ssg76
g645
sg69
(lp657
S':'
asbag62
(g83
g64
NtRp658
(dp659
g67
(dp660
sg76
g645
sg69
(lp661
g62
(g63
g64
NtRp662
(dp663
g67
(dp664
g75
I4
ssg76
g658
sg69
(lp665
S'127.0.0.1-fcddb8ed-ee0c-4d28-bfa6-6fd1606b92e1'
p666
ag62
(g71
g64
NtRp667
(dp668
g67
(dp669
g75
I3
ssg76
Nsg69
(lp670
g62
(g78
g64
NtRp671
(dp672
g67
(dp673
sg76
g667
sg69
(lp674
g62
(g83
g64
NtRp675
(dp676
g67
(dp677
g87
g88
ssg76
g671
sg69
(lp678
g299
asbag62
(g83
g64
NtRp679
(dp680
g67
(dp681
g94
g95
ssg76
g671
sg69
(lp682
S':'
asbag62
(g83
g64
NtRp683
(dp684
g67
(dp685
sg76
g671
sg69
(lp686
g62
(g63
g64
NtRp687
(dp688
g67
(dp689
g75
I3
ssg76
g683
sg69
(lp690
S''
asbasbasbag62
(g78
g64
NtRp691
(dp692
g67
(dp693
sg76
g667
sg69
(lp694
g62
(g83
g64
NtRp695
(dp696
g67
(dp697
g87
g88
ssg76
g691
sg69
(lp698
g320
asbag62
(g83
g64
NtRp699
(dp700
g67
(dp701
g94
g95
ssg76
g691
sg69
(lp702
S':'
asbag62
(g83
g64
NtRp703
(dp704
g67
(dp705
sg76
g691
sg69
(lp706
g62
(g63
g64
NtRp707
(dp708
g67
(dp709
g75
I3
ssg76
g703
sg69
(lp710
S''
asbasbasbag62
(g78
g64
NtRp711
(dp712
g67
(dp713
sg76
g667
sg69
(lp714
g62
(g83
g64
NtRp715
(dp716
g67
(dp717
g87
g88
ssg76
g711
sg69
(lp718
g341
asbag62
(g83
g64
NtRp719
(dp720
g67
(dp721
g94
g95
ssg76
g711
sg69
(lp722
S':'
asbag62
(g83
g64
NtRp723
(dp724
g67
(dp725
sg76
g711
sg69
(lp726
g62
(g63
g64
NtRp727
(dp728
g67
(dp729
g75
I3
ssg76
g723
sg69
(lp730
S''
asbasbasbag62
(g78
g64
NtRp731
(dp732
g67
(dp733
sg76
g667
sg69
(lp734
g62
(g83
g64
NtRp735
(dp736
g67
(dp737
g87
g88
ssg76
g731
sg69
(lp738
g362
asbag62
(g83
g64
NtRp739
(dp740
g67
(dp741
g94
g95
ssg76
g731
sg69
(lp742
S':'
asbag62
(g83
g64
NtRp743
(dp744
g67
(dp745
sg76
g731
sg69
(lp746
g62
(g63
g64
NtRp747
(dp748
g67
(dp749
g75
I3
ssg76
g743
sg69
(lp750
S''
asbasbasbag62
(g78
g64
NtRp751
(dp752
g67
(dp753
sg76
g667
sg69
(lp754
g62
(g83
g64
NtRp755
(dp756
g67
(dp757
g87
g88
ssg76
g751
sg69
(lp758
g383
asbag62
(g83
g64
NtRp759
(dp760
g67
(dp761
g94
g95
ssg76
g751
sg69
(lp762
S':'
asbag62
(g83
g64
NtRp763
(dp764
g67
(dp765
sg76
g751
sg69
(lp766
g62
(g63
g64
NtRp767
(dp768
g67
(dp769
g75
I3
ssg76
g763
sg69
(lp770
S''
asbasbasbag62
(g78
g64
NtRp771
(dp772
g67
(dp773
sg76
g667
sg69
(lp774
g62
(g83
g64
NtRp775
(dp776
g67
(dp777
g87
g88
ssg76
g771
sg69
(lp778
g404
asbag62
(g83
g64
NtRp779
(dp780
g67
(dp781
g94
g95
ssg76
g771
sg69
(lp782
S':'
asbag62
(g83
g64
NtRp783
(dp784
g67
(dp785
sg76
g771
sg69
(lp786
g62
(g63
g64
NtRp787
(dp788
g67
(dp789
g75
I3
ssg76
g783
sg69
(lp790
S''
asbasbasbag62
(g78
g64
NtRp791
(dp792
g67
(dp793
sg76
g667
sg69
(lp794
g62
(g83
g64
NtRp795
(dp796
g67
(dp797
g87
g88
ssg76
g791
sg69
(lp798
g425
asbag62
(g83
g64
NtRp799
(dp800
g67
(dp801
g94
g95
ssg76
g791
sg69
(lp802
S':'
asbag62
(g83
g64
NtRp803
(dp804
g67
(dp805
sg76
g791
sg69
(lp806
g62
(g63
g64
NtRp807
(dp808
g67
(dp809
g75
I3
ssg76
g803
sg69
(lp810
S''
asbasbasbag62
(g78
g64
NtRp811
(dp812
g67
(dp813
sg76
g667
sg69
(lp814
g62
(g83
g64
NtRp815
(dp816
g67
(dp817
g87
g88
ssg76
g811
sg69
(lp818
g446
asbag62
(g83
g64
NtRp819
(dp820
g67
(dp821
g94
g95
ssg76
g811
sg69
(lp822
S':'
asbag62
(g83
g64
NtRp823
(dp824
g67
(dp825
sg76
g811
sg69
(lp826
g62
(g63
g64
NtRp827
(dp828
g67
(dp829
g75
I3
ssg76
g823
sg69
(lp830
S''
asbasbasbasbasbasbasbag62
(g78
g64
NtRp831
(dp832
g67
(dp833
sg76
g261
sg69
(lp834
g62
(g83
g64
NtRp835
(dp836
g67
(dp837
g87
g88
ssg76
g831
sg69
(lp838
S'session_id_wsd_tool'
p839
asbag62
(g83
g64
NtRp840
(dp841
g67
(dp842
g94
g95
ssg76
g831
sg69
(lp843
S':'
asbag62
(g83
g64
NtRp844
(dp845
g67
(dp846
sg76
g831
sg69
(lp847
g62
(g63
g64
NtRp848
(dp849
g67
(dp850
g75
I4
ssg76
g844
sg69
(lp851
S'127.0.0.1-1b9513ff-7a4a-46e3-9d60-f0b6086e5c03'
p852
ag62
(g71
g64
NtRp853
(dp854
g67
(dp855
g75
I3
ssg76
Nsg69
(lp856
g62
(g78
g64
NtRp857
(dp858
g67
(dp859
sg76
g853
sg69
(lp860
g62
(g83
g64
NtRp861
(dp862
g67
(dp863
g87
g88
ssg76
g857
sg69
(lp864
g299
asbag62
(g83
g64
NtRp865
(dp866
g67
(dp867
g94
g95
ssg76
g857
sg69
(lp868
S':'
asbag62
(g83
g64
NtRp869
(dp870
g67
(dp871
sg76
g857
sg69
(lp872
g62
(g63
g64
NtRp873
(dp874
g67
(dp875
g75
I3
ssg76
g869
sg69
(lp876
S''
asbasbasbag62
(g78
g64
NtRp877
(dp878
g67
(dp879
sg76
g853
sg69
(lp880
g62
(g83
g64
NtRp881
(dp882
g67
(dp883
g87
g88
ssg76
g877
sg69
(lp884
g320
asbag62
(g83
g64
NtRp885
(dp886
g67
(dp887
g94
g95
ssg76
g877
sg69
(lp888
S':'
asbag62
(g83
g64
NtRp889
(dp890
g67
(dp891
sg76
g877
sg69
(lp892
g62
(g63
g64
NtRp893
(dp894
g67
(dp895
g75
I3
ssg76
g889
sg69
(lp896
S''
asbasbasbag62
(g78
g64
NtRp897
(dp898
g67
(dp899
sg76
g853
sg69
(lp900
g62
(g83
g64
NtRp901
(dp902
g67
(dp903
g87
g88
ssg76
g897
sg69
(lp904
g341
asbag62
(g83
g64
NtRp905
(dp906
g67
(dp907
g94
g95
ssg76
g897
sg69
(lp908
S':'
asbag62
(g83
g64
NtRp909
(dp910
g67
(dp911
sg76
g897
sg69
(lp912
g62
(g63
g64
NtRp913
(dp914
g67
(dp915
g75
I3
ssg76
g909
sg69
(lp916
S''
asbasbasbag62
(g78
g64
NtRp917
(dp918
g67
(dp919
sg76
g853
sg69
(lp920
g62
(g83
g64
NtRp921
(dp922
g67
(dp923
g87
g88
ssg76
g917
sg69
(lp924
g362
asbag62
(g83
g64
NtRp925
(dp926
g67
(dp927
g94
g95
ssg76
g917
sg69
(lp928
S':'
asbag62
(g83
g64
NtRp929
(dp930
g67
(dp931
sg76
g917
sg69
(lp932
g62
(g63
g64
NtRp933
(dp934
g67
(dp935
g75
I3
ssg76
g929
sg69
(lp936
S''
asbasbasbag62
(g78
g64
NtRp937
(dp938
g67
(dp939
sg76
g853
sg69
(lp940
g62
(g83
g64
NtRp941
(dp942
g67
(dp943
g87
g88
ssg76
g937
sg69
(lp944
g383
asbag62
(g83
g64
NtRp945
(dp946
g67
(dp947
g94
g95
ssg76
g937
sg69
(lp948
S':'
asbag62
(g83
g64
NtRp949
(dp950
g67
(dp951
sg76
g937
sg69
(lp952
g62
(g63
g64
NtRp953
(dp954
g67
(dp955
g75
I3
ssg76
g949
sg69
(lp956
S''
asbasbasbag62
(g78
g64
NtRp957
(dp958
g67
(dp959
sg76
g853
sg69
(lp960
g62
(g83
g64
NtRp961
(dp962
g67
(dp963
g87
g88
ssg76
g957
sg69
(lp964
g404
asbag62
(g83
g64
NtRp965
(dp966
g67
(dp967
g94
g95
ssg76
g957
sg69
(lp968
S':'
asbag62
(g83
g64
NtRp969
(dp970
g67
(dp971
sg76
g957
sg69
(lp972
g62
(g63
g64
NtRp973
(dp974
g67
(dp975
g75
I3
ssg76
g969
sg69
(lp976
S''
asbasbasbag62
(g78
g64
NtRp977
(dp978
g67
(dp979
sg76
g853
sg69
(lp980
g62
(g83
g64
NtRp981
(dp982
g67
(dp983
g87
g88
ssg76
g977
sg69
(lp984
g425
asbag62
(g83
g64
NtRp985
(dp986
g67
(dp987
g94
g95
ssg76
g977
sg69
(lp988
S':'
asbag62
(g83
g64
NtRp989
(dp990
g67
(dp991
sg76
g977
sg69
(lp992
g62
(g63
g64
NtRp993
(dp994
g67
(dp995
g75
I3
ssg76
g989
sg69
(lp996
S''
asbasbasbag62
(g78
g64
NtRp997
(dp998
g67
(dp999
sg76
g853
sg69
(lp1000
g62
(g83
g64
NtRp1001
(dp1002
g67
(dp1003
g87
g88
ssg76
g997
sg69
(lp1004
g446
asbag62
(g83
g64
NtRp1005
(dp1006
g67
(dp1007
g94
g95
ssg76
g997
sg69
(lp1008
S':'
asbag62
(g83
g64
NtRp1009
(dp1010
g67
(dp1011
sg76
g997
sg69
(lp1012
g62
(g63
g64
NtRp1013
(dp1014
g67
(dp1015
g75
I3
ssg76
g1009
sg69
(lp1016
S''
asbasbasbasbasbasbasbasbasbasbasbag62
(g78
g64
NtRp1017
(dp1018
g67
(dp1019
sg76
g72
sg69
(lp1020
g62
(g83
g64
NtRp1021
(dp1022
g67
(dp1023
g87
g88
ssg76
g1017
sg69
(lp1024
S'env'
p1025
asbag62
(g83
g64
NtRp1026
(dp1027
g67
(dp1028
g94
g95
ssg76
g1017
sg69
(lp1029
S':'
asbag62
(g83
g64
NtRp1030
(dp1031
g67
(dp1032
sg76
g1017
sg69
(lp1033
g62
(g63
g64
NtRp1034
(dp1035
g67
(dp1036
g75
I5
ssg76
g1030
sg69
(lp1037
g62
(g71
g64
NtRp1038
(dp1039
g67
(dp1040
g75
I4
ssg76
Nsg69
(lp1041
g62
(g78
g64
NtRp1042
(dp1043
g67
(dp1044
sg76
g1038
sg69
(lp1045
g62
(g83
g64
NtRp1046
(dp1047
g67
(dp1048
g87
g88
ssg76
g1042
sg69
(lp1049
S'app_folders'
p1050
asbag62
(g83
g64
NtRp1051
(dp1052
g67
(dp1053
g94
g95
ssg76
g1042
sg69
(lp1054
S':'
asbag62
(g83
g64
NtRp1055
(dp1056
g67
(dp1057
sg76
g1042
sg69
(lp1058
g62
(g63
g64
NtRp1059
(dp1060
g67
(dp1061
g75
I4
ssg76
g1055
sg69
(lp1062
S"set(['/home/nazrul/web2py/applications/welcome/', '/home/nazrul/web2py/applications/WSD_Tool/', '/home/nazrul/web2py/applications/admin/'])"
p1063
asbasbasbag62
(g78
g64
NtRp1064
(dp1065
g67
(dp1066
sg76
g1038
sg69
(lp1067
g62
(g83
g64
NtRp1068
(dp1069
g67
(dp1070
g87
g88
ssg76
g1064
sg69
(lp1071
S'applications_parent'
p1072
asbag62
(g83
g64
NtRp1073
(dp1074
g67
(dp1075
g94
g95
ssg76
g1064
sg69
(lp1076
S':'
asbag62
(g83
g64
NtRp1077
(dp1078
g67
(dp1079
sg76
g1064
sg69
(lp1080
g62
(g63
g64
NtRp1081
(dp1082
g67
(dp1083
g75
I4
ssg76
g1077
sg69
(lp1084
S'/home/nazrul/web2py'
p1085
asbasbasbag62
(g78
g64
NtRp1086
(dp1087
g67
(dp1088
sg76
g1038
sg69
(lp1089
g62
(g83
g64
NtRp1090
(dp1091
g67
(dp1092
g87
g88
ssg76
g1086
sg69
(lp1093
S'cmd_args'
p1094
asbag62
(g83
g64
NtRp1095
(dp1096
g67
(dp1097
g94
g95
ssg76
g1086
sg69
(lp1098
S':'
asbag62
(g83
g64
NtRp1099
(dp1100
g67
(dp1101
sg76
g1086
sg69
(lp1102
g62
(g63
g64
NtRp1103
(dp1104
g67
(dp1105
g75
I4
ssg76
g1099
sg69
(lp1106
g62
(g71
g64
NtRp1107
(dp1108
g67
(dp1109
g75
I3
ssg76
Nsg69
(lp1110
sbasbasbasbag62
(g78
g64
NtRp1111
(dp1112
g67
(dp1113
sg76
g1038
sg69
(lp1114
g62
(g83
g64
NtRp1115
(dp1116
g67
(dp1117
g87
g88
ssg76
g1111
sg69
(lp1118
S'cmd_options'
p1119
asbag62
(g83
g64
NtRp1120
(dp1121
g67
(dp1122
g94
g95
ssg76
g1111
sg69
(lp1123
S':'
asbag62
(g83
g64
NtRp1124
(dp1125
g67
(dp1126
sg76
g1111
sg69
(lp1127
g62
(g63
g64
NtRp1128
(dp1129
g67
(dp1130
g75
I4
ssg76
g1124
sg69
(lp1131
S"<Values at 0xa44192c: {'verbose': False, 'ip': '127.0.0.1', 'with_scheduler': False, 'ips': [], 'shutdown_timeout': 5, 'taskbar': False, 'port': 8000, 'maxthreads': None, 'softcron': False, 'server_name': 'nazrul-Compaq-Presario-CQ40-Notebook-PC', 'bpython': False, 'nogui': False, 'pid_filename': 'httpserver.pid', 'extcron': False, 'runcron': False, 'run_system_tests': False, 'test': None, 'folder': '/home/nazrul/web2py', 'config': '', 'import_models': False, 'winservice': '', 'shell': None, 'run': '', 'log_filename': 'httpserver.log', 'debuglevel': 30, 'args': [''], 'socket_timeout': 5, 'ssl_ca_certificate': None, 'scheduler': None, 'profiler_filename': None, 'ssl_private_key': '', 'scheduler_groups': None, 'password': '<ask>', 'request_queue_size': 5, 'ssl_certificate': '', 'cronjob': False, 'numthreads': None, 'quiet': False, 'interfaces': None, 'minthreads': None, 'timeout': 10, 'plain': False, 'nobanner': False}>"
p1132
asbasbasbag62
(g78
g64
NtRp1133
(dp1134
g67
(dp1135
sg76
g1038
sg69
(lp1136
g62
(g83
g64
NtRp1137
(dp1138
g67
(dp1139
g87
g88
ssg76
g1133
sg69
(lp1140
S'db_sessions'
p1141
asbag62
(g83
g64
NtRp1142
(dp1143
g67
(dp1144
g94
g95
ssg76
g1133
sg69
(lp1145
S':'
asbag62
(g83
g64
NtRp1146
(dp1147
g67
(dp1148
sg76
g1133
sg69
(lp1149
g62
(g63
g64
NtRp1150
(dp1151
g67
(dp1152
g75
I4
ssg76
g1146
sg69
(lp1153
S'set([])'
p1154
asbasbasbag62
(g78
g64
NtRp1155
(dp1156
g67
(dp1157
sg76
g1038
sg69
(lp1158
g62
(g83
g64
NtRp1159
(dp1160
g67
(dp1161
g87
g88
ssg76
g1155
sg69
(lp1162
S'debugging'
p1163
asbag62
(g83
g64
NtRp1164
(dp1165
g67
(dp1166
g94
g95
ssg76
g1155
sg69
(lp1167
S':'
asbag62
(g83
g64
NtRp1168
(dp1169
g67
(dp1170
sg76
g1155
sg69
(lp1171
g62
(g63
g64
NtRp1172
(dp1173
g67
(dp1174
g75
I4
ssg76
g1168
sg69
(lp1175
g105
asbasbasbag62
(g78
g64
NtRp1176
(dp1177
g67
(dp1178
sg76
g1038
sg69
(lp1179
g62
(g83
g64
NtRp1180
(dp1181
g67
(dp1182
g87
g88
ssg76
g1176
sg69
(lp1183
S'gluon_parent'
p1184
asbag62
(g83
g64
NtRp1185
(dp1186
g67
(dp1187
g94
g95
ssg76
g1176
sg69
(lp1188
S':'
asbag62
(g83
g64
NtRp1189
(dp1190
g67
(dp1191
sg76
g1176
sg69
(lp1192
g62
(g63
g64
NtRp1193
(dp1194
g67
(dp1195
g75
I4
ssg76
g1189
sg69
(lp1196
S'/home/nazrul/web2py'
p1197
asbasbasbag62
(g78
g64
NtRp1198
(dp1199
g67
(dp1200
sg76
g1038
sg69
(lp1201
g62
(g83
g64
NtRp1202
(dp1203
g67
(dp1204
g87
g88
ssg76
g1198
sg69
(lp1205
S'http_accept'
p1206
asbag62
(g83
g64
NtRp1207
(dp1208
g67
(dp1209
g94
g95
ssg76
g1198
sg69
(lp1210
S':'
asbag62
(g83
g64
NtRp1211
(dp1212
g67
(dp1213
sg76
g1198
sg69
(lp1214
g62
(g63
g64
NtRp1215
(dp1216
g67
(dp1217
g75
I4
ssg76
g1211
sg69
(lp1218
S'text/html,application/xhtml+xml,application/xml;q=0.9,*/*;q=0.8'
p1219
asbasbasbag62
(g78
g64
NtRp1220
(dp1221
g67
(dp1222
sg76
g1038
sg69
(lp1223
g62
(g83
g64
NtRp1224
(dp1225
g67
(dp1226
g87
g88
ssg76
g1220
sg69
(lp1227
S'http_accept_encoding'
p1228
asbag62
(g83
g64
NtRp1229
(dp1230
g67
(dp1231
g94
g95
ssg76
g1220
sg69
(lp1232
S':'
asbag62
(g83
g64
NtRp1233
(dp1234
g67
(dp1235
sg76
g1220
sg69
(lp1236
g62
(g63
g64
NtRp1237
(dp1238
g67
(dp1239
g75
I4
ssg76
g1233
sg69
(lp1240
S'gzip, deflate'
p1241
asbasbasbag62
(g78
g64
NtRp1242
(dp1243
g67
(dp1244
sg76
g1038
sg69
(lp1245
g62
(g83
g64
NtRp1246
(dp1247
g67
(dp1248
g87
g88
ssg76
g1242
sg69
(lp1249
S'http_accept_language'
p1250
asbag62
(g83
g64
NtRp1251
(dp1252
g67
(dp1253
g94
g95
ssg76
g1242
sg69
(lp1254
S':'
asbag62
(g83
g64
NtRp1255
(dp1256
g67
(dp1257
sg76
g1242
sg69
(lp1258
g62
(g63
g64
NtRp1259
(dp1260
g67
(dp1261
g75
I4
ssg76
g1255
sg69
(lp1262
S'en-US,en;q=0.5'
p1263
asbasbasbag62
(g78
g64
NtRp1264
(dp1265
g67
(dp1266
sg76
g1038
sg69
(lp1267
g62
(g83
g64
NtRp1268
(dp1269
g67
(dp1270
g87
g88
ssg76
g1264
sg69
(lp1271
S'http_connection'
p1272
asbag62
(g83
g64
NtRp1273
(dp1274
g67
(dp1275
g94
g95
ssg76
g1264
sg69
(lp1276
S':'
asbag62
(g83
g64
NtRp1277
(dp1278
g67
(dp1279
sg76
g1264
sg69
(lp1280
g62
(g63
g64
NtRp1281
(dp1282
g67
(dp1283
g75
I4
ssg76
g1277
sg69
(lp1284
S'keep-alive'
p1285
asbasbasbag62
(g78
g64
NtRp1286
(dp1287
g67
(dp1288
sg76
g1038
sg69
(lp1289
g62
(g83
g64
NtRp1290
(dp1291
g67
(dp1292
g87
g88
ssg76
g1286
sg69
(lp1293
S'http_cookie'
p1294
asbag62
(g83
g64
NtRp1295
(dp1296
g67
(dp1297
g94
g95
ssg76
g1286
sg69
(lp1298
S':'
asbag62
(g83
g64
NtRp1299
(dp1300
g67
(dp1301
sg76
g1286
sg69
(lp1302
g62
(g63
g64
NtRp1303
(dp1304
g67
(dp1305
g75
I4
ssg76
g1299
sg69
(lp1306
S'KBD=0hi-0; session_id_welcome=127.0.0.1-fcddb8ed-ee0c-4d28-bfa6-6fd1606b92e1; session_id_admin=127.0.0.1-634e911d-1fde-455e-a6e2-97efd4213cb7; session_id_wsd_tool=127.0.0.1-1b9513ff-7a4a-46e3-9d60-f0b6086e5c03'
p1307
asbasbasbag62
(g78
g64
NtRp1308
(dp1309
g67
(dp1310
sg76
g1038
sg69
(lp1311
g62
(g83
g64
NtRp1312
(dp1313
g67
(dp1314
g87
g88
ssg76
g1308
sg69
(lp1315
S'http_host'
p1316
asbag62
(g83
g64
NtRp1317
(dp1318
g67
(dp1319
g94
g95
ssg76
g1308
sg69
(lp1320
S':'
asbag62
(g83
g64
NtRp1321
(dp1322
g67
(dp1323
sg76
g1308
sg69
(lp1324
g62
(g63
g64
NtRp1325
(dp1326
g67
(dp1327
g75
I4
ssg76
g1321
sg69
(lp1328
S'127.0.0.1:8000'
p1329
asbasbasbag62
(g78
g64
NtRp1330
(dp1331
g67
(dp1332
sg76
g1038
sg69
(lp1333
g62
(g83
g64
NtRp1334
(dp1335
g67
(dp1336
g87
g88
ssg76
g1330
sg69
(lp1337
S'http_referer'
p1338
asbag62
(g83
g64
NtRp1339
(dp1340
g67
(dp1341
g94
g95
ssg76
g1330
sg69
(lp1342
S':'
asbag62
(g83
g64
NtRp1343
(dp1344
g67
(dp1345
sg76
g1330
sg69
(lp1346
g62
(g63
g64
NtRp1347
(dp1348
g67
(dp1349
g75
I4
ssg76
g1343
sg69
(lp1350
S'http://127.0.0.1:8000/WSD_Tool/default/reasonc?hindit=11'
p1351
asbasbasbag62
(g78
g64
NtRp1352
(dp1353
g67
(dp1354
sg76
g1038
sg69
(lp1355
g62
(g83
g64
NtRp1356
(dp1357
g67
(dp1358
g87
g88
ssg76
g1352
sg69
(lp1359
S'http_user_agent'
p1360
asbag62
(g83
g64
NtRp1361
(dp1362
g67
(dp1363
g94
g95
ssg76
g1352
sg69
(lp1364
S':'
asbag62
(g83
g64
NtRp1365
(dp1366
g67
(dp1367
sg76
g1352
sg69
(lp1368
g62
(g63
g64
NtRp1369
(dp1370
g67
(dp1371
g75
I4
ssg76
g1365
sg69
(lp1372
S'Mozilla/5.0 (X11; Ubuntu; Linux i686; rv:18.0) Gecko/20100101 Firefox/18.0'
p1373
asbasbasbag62
(g78
g64
NtRp1374
(dp1375
g67
(dp1376
sg76
g1038
sg69
(lp1377
g62
(g83
g64
NtRp1378
(dp1379
g67
(dp1380
g87
g88
ssg76
g1374
sg69
(lp1381
S'is_jython'
p1382
asbag62
(g83
g64
NtRp1383
(dp1384
g67
(dp1385
g94
g95
ssg76
g1374
sg69
(lp1386
S':'
asbag62
(g83
g64
NtRp1387
(dp1388
g67
(dp1389
sg76
g1374
sg69
(lp1390
g62
(g63
g64
NtRp1391
(dp1392
g67
(dp1393
g75
I4
ssg76
g1387
sg69
(lp1394
g105
asbasbasbag62
(g78
g64
NtRp1395
(dp1396
g67
(dp1397
sg76
g1038
sg69
(lp1398
g62
(g83
g64
NtRp1399
(dp1400
g67
(dp1401
g87
g88
ssg76
g1395
sg69
(lp1402
S'is_pypy'
p1403
asbag62
(g83
g64
NtRp1404
(dp1405
g67
(dp1406
g94
g95
ssg76
g1395
sg69
(lp1407
S':'
asbag62
(g83
g64
NtRp1408
(dp1409
g67
(dp1410
sg76
g1395
sg69
(lp1411
g62
(g63
g64
NtRp1412
(dp1413
g67
(dp1414
g75
I4
ssg76
g1408
sg69
(lp1415
g105
asbasbasbag62
(g78
g64
NtRp1416
(dp1417
g67
(dp1418
sg76
g1038
sg69
(lp1419
g62
(g83
g64
NtRp1420
(dp1421
g67
(dp1422
g87
g88
ssg76
g1416
sg69
(lp1423
S'local_hosts'
p1424
asbag62
(g83
g64
NtRp1425
(dp1426
g67
(dp1427
g94
g95
ssg76
g1416
sg69
(lp1428
S':'
asbag62
(g83
g64
NtRp1429
(dp1430
g67
(dp1431
sg76
g1416
sg69
(lp1432
g62
(g63
g64
NtRp1433
(dp1434
g67
(dp1435
g75
I4
ssg76
g1429
sg69
(lp1436
g62
(g71
g64
NtRp1437
(dp1438
g67
(dp1439
g75
I3
ssg76
Nsg69
(lp1440
g62
(g78
g64
NtRp1441
(dp1442
g67
(dp1443
sg76
g1437
sg69
(lp1444
g62
(g83
g64
NtRp1445
(dp1446
g67
(dp1447
sg76
g1441
sg69
(lp1448
g62
(g63
g64
NtRp1449
(dp1450
g67
(dp1451
g75
I3
ssg76
g1445
sg69
(lp1452
S'::1'
p1453
asbasbasbag62
(g78
g64
NtRp1454
(dp1455
g67
(dp1456
sg76
g1437
sg69
(lp1457
g62
(g83
g64
NtRp1458
(dp1459
g67
(dp1460
sg76
g1454
sg69
(lp1461
g62
(g63
g64
NtRp1462
(dp1463
g67
(dp1464
g75
I3
ssg76
g1458
sg69
(lp1465
S'127.0.1.1'
p1466
asbasbasbag62
(g78
g64
NtRp1467
(dp1468
g67
(dp1469
sg76
g1437
sg69
(lp1470
g62
(g83
g64
NtRp1471
(dp1472
g67
(dp1473
sg76
g1467
sg69
(lp1474
g62
(g63
g64
NtRp1475
(dp1476
g67
(dp1477
g75
I3
ssg76
g1471
sg69
(lp1478
S'::ffff:127.0.0.1'
p1479
asbasbasbag62
(g78
g64
NtRp1480
(dp1481
g67
(dp1482
sg76
g1437
sg69
(lp1483
g62
(g83
g64
NtRp1484
(dp1485
g67
(dp1486
sg76
g1480
sg69
(lp1487
g62
(g63
g64
NtRp1488
(dp1489
g67
(dp1490
g75
I3
ssg76
g1484
sg69
(lp1491
S'127.0.0.1'
p1492
asbasbasbag62
(g78
g64
NtRp1493
(dp1494
g67
(dp1495
sg76
g1437
sg69
(lp1496
g62
(g83
g64
NtRp1497
(dp1498
g67
(dp1499
sg76
g1493
sg69
(lp1500
g62
(g63
g64
NtRp1501
(dp1502
g67
(dp1503
g75
I3
ssg76
g1497
sg69
(lp1504
S'nazrul-Compaq-Presario-CQ40-Notebook-PC'
p1505
asbasbasbasbasbasbasbag62
(g78
g64
NtRp1506
(dp1507
g67
(dp1508
sg76
g1038
sg69
(lp1509
g62
(g83
g64
NtRp1510
(dp1511
g67
(dp1512
g87
g88
ssg76
g1506
sg69
(lp1513
S'path_info'
p1514
asbag62
(g83
g64
NtRp1515
(dp1516
g67
(dp1517
g94
g95
ssg76
g1506
sg69
(lp1518
S':'
asbag62
(g83
g64
NtRp1519
(dp1520
g67
(dp1521
sg76
g1506
sg69
(lp1522
g62
(g63
g64
NtRp1523
(dp1524
g67
(dp1525
g75
I4
ssg76
g1519
sg69
(lp1526
S'/WSD_Tool/default/rel'
p1527
asbasbasbag62
(g78
g64
NtRp1528
(dp1529
g67
(dp1530
sg76
g1038
sg69
(lp1531
g62
(g83
g64
NtRp1532
(dp1533
g67
(dp1534
g87
g88
ssg76
g1528
sg69
(lp1535
S'query_string'
p1536
asbag62
(g83
g64
NtRp1537
(dp1538
g67
(dp1539
g94
g95
ssg76
g1528
sg69
(lp1540
S':'
asbag62
(g83
g64
NtRp1541
(dp1542
g67
(dp1543
sg76
g1528
sg69
(lp1544
g62
(g63
g64
NtRp1545
(dp1546
g67
(dp1547
g75
I4
ssg76
g1541
sg69
(lp1548
S''
asbasbasbag62
(g78
g64
NtRp1549
(dp1550
g67
(dp1551
sg76
g1038
sg69
(lp1552
g62
(g83
g64
NtRp1553
(dp1554
g67
(dp1555
g87
g88
ssg76
g1549
sg69
(lp1556
S'remote_addr'
p1557
asbag62
(g83
g64
NtRp1558
(dp1559
g67
(dp1560
g94
g95
ssg76
g1549
sg69
(lp1561
S':'
asbag62
(g83
g64
NtRp1562
(dp1563
g67
(dp1564
sg76
g1549
sg69
(lp1565
g62
(g63
g64
NtRp1566
(dp1567
g67
(dp1568
g75
I4
ssg76
g1562
sg69
(lp1569
g217
asbasbasbag62
(g78
g64
NtRp1570
(dp1571
g67
(dp1572
sg76
g1038
sg69
(lp1573
g62
(g83
g64
NtRp1574
(dp1575
g67
(dp1576
g87
g88
ssg76
g1570
sg69
(lp1577
S'remote_port'
p1578
asbag62
(g83
g64
NtRp1579
(dp1580
g67
(dp1581
g94
g95
ssg76
g1570
sg69
(lp1582
S':'
asbag62
(g83
g64
NtRp1583
(dp1584
g67
(dp1585
sg76
g1570
sg69
(lp1586
g62
(g63
g64
NtRp1587
(dp1588
g67
(dp1589
g75
I4
ssg76
g1583
sg69
(lp1590
S'54793'
p1591
asbasbasbag62
(g78
g64
NtRp1592
(dp1593
g67
(dp1594
sg76
g1038
sg69
(lp1595
g62
(g83
g64
NtRp1596
(dp1597
g67
(dp1598
g87
g88
ssg76
g1592
sg69
(lp1599
S'request_method'
p1600
asbag62
(g83
g64
NtRp1601
(dp1602
g67
(dp1603
g94
g95
ssg76
g1592
sg69
(lp1604
S':'
asbag62
(g83
g64
NtRp1605
(dp1606
g67
(dp1607
sg76
g1592
sg69
(lp1608
g62
(g63
g64
NtRp1609
(dp1610
g67
(dp1611
g75
I4
ssg76
g1605
sg69
(lp1612
S'GET'
p1613
asbasbasbag62
(g78
g64
NtRp1614
(dp1615
g67
(dp1616
sg76
g1038
sg69
(lp1617
g62
(g83
g64
NtRp1618
(dp1619
g67
(dp1620
g87
g88
ssg76
g1614
sg69
(lp1621
S'request_uri'
p1622
asbag62
(g83
g64
NtRp1623
(dp1624
g67
(dp1625
g94
g95
ssg76
g1614
sg69
(lp1626
S':'
asbag62
(g83
g64
NtRp1627
(dp1628
g67
(dp1629
sg76
g1614
sg69
(lp1630
g62
(g63
g64
NtRp1631
(dp1632
g67
(dp1633
g75
I4
ssg76
g1627
sg69
(lp1634
g1527
asbasbasbag62
(g78
g64
NtRp1635
(dp1636
g67
(dp1637
sg76
g1038
sg69
(lp1638
g62
(g83
g64
NtRp1639
(dp1640
g67
(dp1641
g87
g88
ssg76
g1635
sg69
(lp1642
S'script_name'
p1643
asbag62
(g83
g64
NtRp1644
(dp1645
g67
(dp1646
g94
g95
ssg76
g1635
sg69
(lp1647
S':'
asbag62
(g83
g64
NtRp1648
(dp1649
g67
(dp1650
sg76
g1635
sg69
(lp1651
g62
(g63
g64
NtRp1652
(dp1653
g67
(dp1654
g75
I4
ssg76
g1648
sg69
(lp1655
S''
asbasbasbag62
(g78
g64
NtRp1656
(dp1657
g67
(dp1658
sg76
g1038
sg69
(lp1659
g62
(g83
g64
NtRp1660
(dp1661
g67
(dp1662
g87
g88
ssg76
g1656
sg69
(lp1663
S'server_name'
p1664
asbag62
(g83
g64
NtRp1665
(dp1666
g67
(dp1667
g94
g95
ssg76
g1656
sg69
(lp1668
S':'
asbag62
(g83
g64
NtRp1669
(dp1670
g67
(dp1671
sg76
g1656
sg69
(lp1672
g62
(g63
g64
NtRp1673
(dp1674
g67
(dp1675
g75
I4
ssg76
g1669
sg69
(lp1676
S'nazrul-Compaq-Presario-CQ40-Notebook-PC'
p1677
asbasbasbag62
(g78
g64
NtRp1678
(dp1679
g67
(dp1680
sg76
g1038
sg69
(lp1681
g62
(g83
g64
NtRp1682
(dp1683
g67
(dp1684
g87
g88
ssg76
g1678
sg69
(lp1685
S'server_port'
p1686
asbag62
(g83
g64
NtRp1687
(dp1688
g67
(dp1689
g94
g95
ssg76
g1678
sg69
(lp1690
S':'
asbag62
(g83
g64
NtRp1691
(dp1692
g67
(dp1693
sg76
g1678
sg69
(lp1694
g62
(g63
g64
NtRp1695
(dp1696
g67
(dp1697
g75
I4
ssg76
g1691
sg69
(lp1698
S'8000'
p1699
asbasbasbag62
(g78
g64
NtRp1700
(dp1701
g67
(dp1702
sg76
g1038
sg69
(lp1703
g62
(g83
g64
NtRp1704
(dp1705
g67
(dp1706
g87
g88
ssg76
g1700
sg69
(lp1707
S'server_protocol'
p1708
asbag62
(g83
g64
NtRp1709
(dp1710
g67
(dp1711
g94
g95
ssg76
g1700
sg69
(lp1712
S':'
asbag62
(g83
g64
NtRp1713
(dp1714
g67
(dp1715
sg76
g1700
sg69
(lp1716
g62
(g63
g64
NtRp1717
(dp1718
g67
(dp1719
g75
I4
ssg76
g1713
sg69
(lp1720
S'HTTP/1.1'
p1721
asbasbasbag62
(g78
g64
NtRp1722
(dp1723
g67
(dp1724
sg76
g1038
sg69
(lp1725
g62
(g83
g64
NtRp1726
(dp1727
g67
(dp1728
g87
g88
ssg76
g1722
sg69
(lp1729
S'server_software'
p1730
asbag62
(g83
g64
NtRp1731
(dp1732
g67
(dp1733
g94
g95
ssg76
g1722
sg69
(lp1734
S':'
asbag62
(g83
g64
NtRp1735
(dp1736
g67
(dp1737
sg76
g1722
sg69
(lp1738
g62
(g63
g64
NtRp1739
(dp1740
g67
(dp1741
g75
I4
ssg76
g1735
sg69
(lp1742
S'Rocket 1.2.6'
p1743
asbasbasbag62
(g78
g64
NtRp1744
(dp1745
g67
(dp1746
sg76
g1038
sg69
(lp1747
g62
(g83
g64
NtRp1748
(dp1749
g67
(dp1750
g87
g88
ssg76
g1744
sg69
(lp1751
S'web2py_path'
p1752
asbag62
(g83
g64
NtRp1753
(dp1754
g67
(dp1755
g94
g95
ssg76
g1744
sg69
(lp1756
S':'
asbag62
(g83
g64
NtRp1757
(dp1758
g67
(dp1759
sg76
g1744
sg69
(lp1760
g62
(g63
g64
NtRp1761
(dp1762
g67
(dp1763
g75
I4
ssg76
g1757
sg69
(lp1764
g1085
asbasbasbag62
(g78
g64
NtRp1765
(dp1766
g67
(dp1767
sg76
g1038
sg69
(lp1768
g62
(g83
g64
NtRp1769
(dp1770
g67
(dp1771
g87
g88
ssg76
g1765
sg69
(lp1772
S'web2py_version'
p1773
asbag62
(g83
g64
NtRp1774
(dp1775
g67
(dp1776
g94
g95
ssg76
g1765
sg69
(lp1777
S':'
asbag62
(g83
g64
NtRp1778
(dp1779
g67
(dp1780
sg76
g1765
sg69
(lp1781
g62
(g63
g64
NtRp1782
(dp1783
g67
(dp1784
g75
I4
ssg76
g1778
sg69
(lp1785
g62
(g71
g64
NtRp1786
(dp1787
g67
(dp1788
g75
I3
ssg76
Nsg69
(lp1789
g62
(g78
g64
NtRp1790
(dp1791
g67
(dp1792
sg76
g1786
sg69
(lp1793
g62
(g83
g64
NtRp1794
(dp1795
g67
(dp1796
sg76
g1790
sg69
(lp1797
g62
(g63
g64
NtRp1798
(dp1799
g67
(dp1800
g75
I3
ssg76
g1794
sg69
(lp1801
S'2'
asbasbasbag62
(g78
g64
NtRp1802
(dp1803
g67
(dp1804
sg76
g1786
sg69
(lp1805
g62
(g83
g64
NtRp1806
(dp1807
g67
(dp1808
sg76
g1802
sg69
(lp1809
g62
(g63
g64
NtRp1810
(dp1811
g67
(dp1812
g75
I3
ssg76
g1806
sg69
(lp1813
S'3'
asbasbasbag62
(g78
g64
NtRp1814
(dp1815
g67
(dp1816
sg76
g1786
sg69
(lp1817
g62
(g83
g64
NtRp1818
(dp1819
g67
(dp1820
sg76
g1814
sg69
(lp1821
g62
(g63
g64
NtRp1822
(dp1823
g67
(dp1824
g75
I3
ssg76
g1818
sg69
(lp1825
S'2'
asbasbasbag62
(g78
g64
NtRp1826
(dp1827
g67
(dp1828
sg76
g1786
sg69
(lp1829
g62
(g83
g64
NtRp1830
(dp1831
g67
(dp1832
sg76
g1826
sg69
(lp1833
g62
(g63
g64
NtRp1834
(dp1835
g67
(dp1836
g75
I3
ssg76
g1830
sg69
(lp1837
S'datetime.datetime(2012, 12, 17, 15, 3, 30)'
p1838
asbasbasbag62
(g78
g64
NtRp1839
(dp1840
g67
(dp1841
sg76
g1786
sg69
(lp1842
g62
(g83
g64
NtRp1843
(dp1844
g67
(dp1845
sg76
g1839
sg69
(lp1846
g62
(g63
g64
NtRp1847
(dp1848
g67
(dp1849
g75
I3
ssg76
g1843
sg69
(lp1850
S'stable'
p1851
asbasbasbasbasbasbasbag62
(g78
g64
NtRp1852
(dp1853
g67
(dp1854
sg76
g1038
sg69
(lp1855
g62
(g83
g64
NtRp1856
(dp1857
g67
(dp1858
g87
g88
ssg76
g1852
sg69
(lp1859
S'wsgi_errors'
p1860
asbag62
(g83
g64
NtRp1861
(dp1862
g67
(dp1863
g94
g95
ssg76
g1852
sg69
(lp1864
S':'
asbag62
(g83
g64
NtRp1865
(dp1866
g67
(dp1867
sg76
g1852
sg69
(lp1868
g62
(g63
g64
NtRp1869
(dp1870
g67
(dp1871
g75
I4
ssg76
g1865
sg69
(lp1872
S"<open file '<stderr>', mode 'w' at 0xb72a80d0>"
p1873
asbasbasbag62
(g78
g64
NtRp1874
(dp1875
g67
(dp1876
sg76
g1038
sg69
(lp1877
g62
(g83
g64
NtRp1878
(dp1879
g67
(dp1880
g87
g88
ssg76
g1874
sg69
(lp1881
S'wsgi_file_wrapper'
p1882
asbag62
(g83
g64
NtRp1883
(dp1884
g67
(dp1885
g94
g95
ssg76
g1874
sg69
(lp1886
S':'
asbag62
(g83
g64
NtRp1887
(dp1888
g67
(dp1889
sg76
g1874
sg69
(lp1890
g62
(g63
g64
NtRp1891
(dp1892
g67
(dp1893
g75
I4
ssg76
g1887
sg69
(lp1894
S'<class wsgiref.util.FileWrapper at 0xa40147c>'
p1895
asbasbasbag62
(g78
g64
NtRp1896
(dp1897
g67
(dp1898
sg76
g1038
sg69
(lp1899
g62
(g83
g64
NtRp1900
(dp1901
g67
(dp1902
g87
g88
ssg76
g1896
sg69
(lp1903
S'wsgi_input'
p1904
asbag62
(g83
g64
NtRp1905
(dp1906
g67
(dp1907
g94
g95
ssg76
g1896
sg69
(lp1908
S':'
asbag62
(g83
g64
NtRp1909
(dp1910
g67
(dp1911
sg76
g1896
sg69
(lp1912
g62
(g63
g64
NtRp1913
(dp1914
g67
(dp1915
g75
I4
ssg76
g1909
sg69
(lp1916
S'<socket._fileobject object at 0xada960ac>'
p1917
asbasbasbag62
(g78
g64
NtRp1918
(dp1919
g67
(dp1920
sg76
g1038
sg69
(lp1921
g62
(g83
g64
NtRp1922
(dp1923
g67
(dp1924
g87
g88
ssg76
g1918
sg69
(lp1925
S'wsgi_multiprocess'
p1926
asbag62
(g83
g64
NtRp1927
(dp1928
g67
(dp1929
g94
g95
ssg76
g1918
sg69
(lp1930
S':'
asbag62
(g83
g64
NtRp1931
(dp1932
g67
(dp1933
sg76
g1918
sg69
(lp1934
g62
(g63
g64
NtRp1935
(dp1936
g67
(dp1937
g75
I4
ssg76
g1931
sg69
(lp1938
g105
asbasbasbag62
(g78
g64
NtRp1939
(dp1940
g67
(dp1941
sg76
g1038
sg69
(lp1942
g62
(g83
g64
NtRp1943
(dp1944
g67
(dp1945
g87
g88
ssg76
g1939
sg69
(lp1946
S'wsgi_multithread'
p1947
asbag62
(g83
g64
NtRp1948
(dp1949
g67
(dp1950
g94
g95
ssg76
g1939
sg69
(lp1951
S':'
asbag62
(g83
g64
NtRp1952
(dp1953
g67
(dp1954
sg76
g1939
sg69
(lp1955
g62
(g63
g64
NtRp1956
(dp1957
g67
(dp1958
g75
I4
ssg76
g1952
sg69
(lp1959
S'True'
p1960
asbasbasbag62
(g78
g64
NtRp1961
(dp1962
g67
(dp1963
sg76
g1038
sg69
(lp1964
g62
(g83
g64
NtRp1965
(dp1966
g67
(dp1967
g87
g88
ssg76
g1961
sg69
(lp1968
S'wsgi_run_once'
p1969
asbag62
(g83
g64
NtRp1970
(dp1971
g67
(dp1972
g94
g95
ssg76
g1961
sg69
(lp1973
S':'
asbag62
(g83
g64
NtRp1974
(dp1975
g67
(dp1976
sg76
g1961
sg69
(lp1977
g62
(g63
g64
NtRp1978
(dp1979
g67
(dp1980
g75
I4
ssg76
g1974
sg69
(lp1981
g105
asbasbasbag62
(g78
g64
NtRp1982
(dp1983
g67
(dp1984
sg76
g1038
sg69
(lp1985
g62
(g83
g64
NtRp1986
(dp1987
g67
(dp1988
g87
g88
ssg76
g1982
sg69
(lp1989
S'wsgi_url_scheme'
p1990
asbag62
(g83
g64
NtRp1991
(dp1992
g67
(dp1993
g94
g95
ssg76
g1982
sg69
(lp1994
S':'
asbag62
(g83
g64
NtRp1995
(dp1996
g67
(dp1997
sg76
g1982
sg69
(lp1998
g62
(g63
g64
NtRp1999
(dp2000
g67
(dp2001
g75
I4
ssg76
g1995
sg69
(lp2002
S'http'
p2003
asbasbasbag62
(g78
g64
NtRp2004
(dp2005
g67
(dp2006
sg76
g1038
sg69
(lp2007
g62
(g83
g64
NtRp2008
(dp2009
g67
(dp2010
g87
g88
ssg76
g2004
sg69
(lp2011
S'wsgi_version'
p2012
asbag62
(g83
g64
NtRp2013
(dp2014
g67
(dp2015
g94
g95
ssg76
g2004
sg69
(lp2016
S':'
asbag62
(g83
g64
NtRp2017
(dp2018
g67
(dp2019
sg76
g2004
sg69
(lp2020
g62
(g63
g64
NtRp2021
(dp2022
g67
(dp2023
g75
I4
ssg76
g2017
sg69
(lp2024
g62
(g71
g64
NtRp2025
(dp2026
g67
(dp2027
g75
I3
ssg76
Nsg69
(lp2028
g62
(g78
g64
NtRp2029
(dp2030
g67
(dp2031
sg76
g2025
sg69
(lp2032
g62
(g83
g64
NtRp2033
(dp2034
g67
(dp2035
sg76
g2029
sg69
(lp2036
g62
(g63
g64
NtRp2037
(dp2038
g67
(dp2039
g75
I3
ssg76
g2033
sg69
(lp2040
S'1'
asbasbasbag62
(g78
g64
NtRp2041
(dp2042
g67
(dp2043
sg76
g2025
sg69
(lp2044
g62
(g83
g64
NtRp2045
(dp2046
g67
(dp2047
sg76
g2041
sg69
(lp2048
g62
(g63
g64
NtRp2049
(dp2050
g67
(dp2051
g75
I3
ssg76
g2045
sg69
(lp2052
S'0'
asbasbasbasbasbasbasbasbasbasbasbag62
(g78
g64
NtRp2053
(dp2054
g67
(dp2055
sg76
g72
sg69
(lp2056
g62
(g83
g64
NtRp2057
(dp2058
g67
(dp2059
g87
g88
ssg76
g2053
sg69
(lp2060
S'extension'
p2061
asbag62
(g83
g64
NtRp2062
(dp2063
g67
(dp2064
g94
g95
ssg76
g2053
sg69
(lp2065
S':'
asbag62
(g83
g64
NtRp2066
(dp2067
g67
(dp2068
sg76
g2053
sg69
(lp2069
g62
(g63
g64
NtRp2070
(dp2071
g67
(dp2072
g75
I5
ssg76
g2066
sg69
(lp2073
S'html'
p2074
asbasbasbag62
(g78
g64
NtRp2075
(dp2076
g67
(dp2077
sg76
g72
sg69
(lp2078
g62
(g83
g64
NtRp2079
(dp2080
g67
(dp2081
g87
g88
ssg76
g2075
sg69
(lp2082
S'folder'
p2083
asbag62
(g83
g64
NtRp2084
(dp2085
g67
(dp2086
g94
g95
ssg76
g2075
sg69
(lp2087
S':'
asbag62
(g83
g64
NtRp2088
(dp2089
g67
(dp2090
sg76
g2075
sg69
(lp2091
g62
(g63
g64
NtRp2092
(dp2093
g67
(dp2094
g75
I5
ssg76
g2088
sg69
(lp2095
S'/home/nazrul/web2py/applications/WSD_Tool/'
p2096
asbasbasbag62
(g78
g64
NtRp2097
(dp2098
g67
(dp2099
sg76
g72
sg69
(lp2100
g62
(g83
g64
NtRp2101
(dp2102
g67
(dp2103
g87
g88
ssg76
g2097
sg69
(lp2104
S'function'
p2105
asbag62
(g83
g64
NtRp2106
(dp2107
g67
(dp2108
g94
g95
ssg76
g2097
sg69
(lp2109
S':'
asbag62
(g83
g64
NtRp2110
(dp2111
g67
(dp2112
sg76
g2097
sg69
(lp2113
g62
(g63
g64
NtRp2114
(dp2115
g67
(dp2116
g75
I5
ssg76
g2110
sg69
(lp2117
S'rel'
p2118
asbasbasbag62
(g78
g64
NtRp2119
(dp2120
g67
(dp2121
sg76
g72
sg69
(lp2122
g62
(g83
g64
NtRp2123
(dp2124
g67
(dp2125
g87
g88
ssg76
g2119
sg69
(lp2126
S'get_vars'
p2127
asbag62
(g83
g64
NtRp2128
(dp2129
g67
(dp2130
g94
g95
ssg76
g2119
sg69
(lp2131
S':'
asbag62
(g83
g64
NtRp2132
(dp2133
g67
(dp2134
sg76
g2119
sg69
(lp2135
g62
(g63
g64
NtRp2136
(dp2137
g67
(dp2138
g75
I5
ssg76
g2132
sg69
(lp2139
g62
(g71
g64
NtRp2140
(dp2141
g67
(dp2142
g75
I4
ssg76
Nsg69
(lp2143
sbasbasbasbag62
(g78
g64
NtRp2144
(dp2145
g67
(dp2146
sg76
g72
sg69
(lp2147
g62
(g83
g64
NtRp2148
(dp2149
g67
(dp2150
g87
g88
ssg76
g2144
sg69
(lp2151
S'global_settings'
p2152
asbag62
(g83
g64
NtRp2153
(dp2154
g67
(dp2155
g94
g95
ssg76
g2144
sg69
(lp2156
S':'
asbag62
(g83
g64
NtRp2157
(dp2158
g67
(dp2159
sg76
g2144
sg69
(lp2160
g62
(g63
g64
NtRp2161
(dp2162
g67
(dp2163
g75
I5
ssg76
g2157
sg69
(lp2164
g62
(g71
g64
NtRp2165
(dp2166
g67
(dp2167
g75
I4
ssg76
Nsg69
(lp2168
g62
(g78
g64
NtRp2169
(dp2170
g67
(dp2171
sg76
g2165
sg69
(lp2172
g62
(g83
g64
NtRp2173
(dp2174
g67
(dp2175
g87
g88
ssg76
g2169
sg69
(lp2176
g1050
asbag62
(g83
g64
NtRp2177
(dp2178
g67
(dp2179
g94
g95
ssg76
g2169
sg69
(lp2180
S':'
asbag62
(g83
g64
NtRp2181
(dp2182
g67
(dp2183
sg76
g2169
sg69
(lp2184
g62
(g63
g64
NtRp2185
(dp2186
g67
(dp2187
g75
I4
ssg76
g2181
sg69
(lp2188
S"set(['/home/nazrul/web2py/applications/welcome/', '/home/nazrul/web2py/applications/WSD_Tool/', '/home/nazrul/web2py/applications/admin/'])"
p2189
asbasbasbag62
(g78
g64
NtRp2190
(dp2191
g67
(dp2192
sg76
g2165
sg69
(lp2193
g62
(g83
g64
NtRp2194
(dp2195
g67
(dp2196
g87
g88
ssg76
g2190
sg69
(lp2197
g1072
asbag62
(g83
g64
NtRp2198
(dp2199
g67
(dp2200
g94
g95
ssg76
g2190
sg69
(lp2201
S':'
asbag62
(g83
g64
NtRp2202
(dp2203
g67
(dp2204
sg76
g2190
sg69
(lp2205
g62
(g63
g64
NtRp2206
(dp2207
g67
(dp2208
g75
I4
ssg76
g2202
sg69
(lp2209
g1085
asbasbasbag62
(g78
g64
NtRp2210
(dp2211
g67
(dp2212
sg76
g2165
sg69
(lp2213
g62
(g83
g64
NtRp2214
(dp2215
g67
(dp2216
g87
g88
ssg76
g2210
sg69
(lp2217
g1094
asbag62
(g83
g64
NtRp2218
(dp2219
g67
(dp2220
g94
g95
ssg76
g2210
sg69
(lp2221
S':'
asbag62
(g83
g64
NtRp2222
(dp2223
g67
(dp2224
sg76
g2210
sg69
(lp2225
g62
(g63
g64
NtRp2226
(dp2227
g67
(dp2228
g75
I4
ssg76
g2222
sg69
(lp2229
g62
(g71
g64
NtRp2230
(dp2231
g67
(dp2232
g75
I3
ssg76
Nsg69
(lp2233
sbasbasbasbag62
(g78
g64
NtRp2234
(dp2235
g67
(dp2236
sg76
g2165
sg69
(lp2237
g62
(g83
g64
NtRp2238
(dp2239
g67
(dp2240
g87
g88
ssg76
g2234
sg69
(lp2241
g1119
asbag62
(g83
g64
NtRp2242
(dp2243
g67
(dp2244
g94
g95
ssg76
g2234
sg69
(lp2245
S':'
asbag62
(g83
g64
NtRp2246
(dp2247
g67
(dp2248
sg76
g2234
sg69
(lp2249
g62
(g63
g64
NtRp2250
(dp2251
g67
(dp2252
g75
I4
ssg76
g2246
sg69
(lp2253
S"<Values at 0xa44192c: {'verbose': False, 'ip': '127.0.0.1', 'with_scheduler': False, 'ips': [], 'shutdown_timeout': 5, 'taskbar': False, 'port': 8000, 'maxthreads': None, 'softcron': False, 'server_name': 'nazrul-Compaq-Presario-CQ40-Notebook-PC', 'bpython': False, 'nogui': False, 'pid_filename': 'httpserver.pid', 'extcron': False, 'runcron': False, 'run_system_tests': False, 'test': None, 'folder': '/home/nazrul/web2py', 'config': '', 'import_models': False, 'winservice': '', 'shell': None, 'run': '', 'log_filename': 'httpserver.log', 'debuglevel': 30, 'args': [''], 'socket_timeout': 5, 'ssl_ca_certificate': None, 'scheduler': None, 'profiler_filename': None, 'ssl_private_key': '', 'scheduler_groups': None, 'password': '<ask>', 'request_queue_size': 5, 'ssl_certificate': '', 'cronjob': False, 'numthreads': None, 'quiet': False, 'interfaces': None, 'minthreads': None, 'timeout': 10, 'plain': False, 'nobanner': False}>"
p2254
asbasbasbag62
(g78
g64
NtRp2255
(dp2256
g67
(dp2257
sg76
g2165
sg69
(lp2258
g62
(g83
g64
NtRp2259
(dp2260
g67
(dp2261
g87
g88
ssg76
g2255
sg69
(lp2262
g1141
asbag62
(g83
g64
NtRp2263
(dp2264
g67
(dp2265
g94
g95
ssg76
g2255
sg69
(lp2266
S':'
asbag62
(g83
g64
NtRp2267
(dp2268
g67
(dp2269
sg76
g2255
sg69
(lp2270
g62
(g63
g64
NtRp2271
(dp2272
g67
(dp2273
g75
I4
ssg76
g2267
sg69
(lp2274
S'set([])'
p2275
asbasbasbag62
(g78
g64
NtRp2276
(dp2277
g67
(dp2278
sg76
g2165
sg69
(lp2279
g62
(g83
g64
NtRp2280
(dp2281
g67
(dp2282
g87
g88
ssg76
g2276
sg69
(lp2283
g1163
asbag62
(g83
g64
NtRp2284
(dp2285
g67
(dp2286
g94
g95
ssg76
g2276
sg69
(lp2287
S':'
asbag62
(g83
g64
NtRp2288
(dp2289
g67
(dp2290
sg76
g2276
sg69
(lp2291
g62
(g63
g64
NtRp2292
(dp2293
g67
(dp2294
g75
I4
ssg76
g2288
sg69
(lp2295
g105
asbasbasbag62
(g78
g64
NtRp2296
(dp2297
g67
(dp2298
sg76
g2165
sg69
(lp2299
g62
(g83
g64
NtRp2300
(dp2301
g67
(dp2302
g87
g88
ssg76
g2296
sg69
(lp2303
g1184
asbag62
(g83
g64
NtRp2304
(dp2305
g67
(dp2306
g94
g95
ssg76
g2296
sg69
(lp2307
S':'
asbag62
(g83
g64
NtRp2308
(dp2309
g67
(dp2310
sg76
g2296
sg69
(lp2311
g62
(g63
g64
NtRp2312
(dp2313
g67
(dp2314
g75
I4
ssg76
g2308
sg69
(lp2315
g1197
asbasbasbag62
(g78
g64
NtRp2316
(dp2317
g67
(dp2318
sg76
g2165
sg69
(lp2319
g62
(g83
g64
NtRp2320
(dp2321
g67
(dp2322
g87
g88
ssg76
g2316
sg69
(lp2323
g1382
asbag62
(g83
g64
NtRp2324
(dp2325
g67
(dp2326
g94
g95
ssg76
g2316
sg69
(lp2327
S':'
asbag62
(g83
g64
NtRp2328
(dp2329
g67
(dp2330
sg76
g2316
sg69
(lp2331
g62
(g63
g64
NtRp2332
(dp2333
g67
(dp2334
g75
I4
ssg76
g2328
sg69
(lp2335
g105
asbasbasbag62
(g78
g64
NtRp2336
(dp2337
g67
(dp2338
sg76
g2165
sg69
(lp2339
g62
(g83
g64
NtRp2340
(dp2341
g67
(dp2342
g87
g88
ssg76
g2336
sg69
(lp2343
g1403
asbag62
(g83
g64
NtRp2344
(dp2345
g67
(dp2346
g94
g95
ssg76
g2336
sg69
(lp2347
S':'
asbag62
(g83
g64
NtRp2348
(dp2349
g67
(dp2350
sg76
g2336
sg69
(lp2351
g62
(g63
g64
NtRp2352
(dp2353
g67
(dp2354
g75
I4
ssg76
g2348
sg69
(lp2355
g105
asbasbasbag62
(g78
g64
NtRp2356
(dp2357
g67
(dp2358
sg76
g2165
sg69
(lp2359
g62
(g83
g64
NtRp2360
(dp2361
g67
(dp2362
g87
g88
ssg76
g2356
sg69
(lp2363
g1424
asbag62
(g83
g64
NtRp2364
(dp2365
g67
(dp2366
g94
g95
ssg76
g2356
sg69
(lp2367
S':'
asbag62
(g83
g64
NtRp2368
(dp2369
g67
(dp2370
sg76
g2356
sg69
(lp2371
g62
(g63
g64
NtRp2372
(dp2373
g67
(dp2374
g75
I4
ssg76
g2368
sg69
(lp2375
g62
(g71
g64
NtRp2376
(dp2377
g67
(dp2378
g75
I3
ssg76
Nsg69
(lp2379
g62
(g78
g64
NtRp2380
(dp2381
g67
(dp2382
sg76
g2376
sg69
(lp2383
g62
(g83
g64
NtRp2384
(dp2385
g67
(dp2386
sg76
g2380
sg69
(lp2387
g62
(g63
g64
NtRp2388
(dp2389
g67
(dp2390
g75
I3
ssg76
g2384
sg69
(lp2391
g1453
asbasbasbag62
(g78
g64
NtRp2392
(dp2393
g67
(dp2394
sg76
g2376
sg69
(lp2395
g62
(g83
g64
NtRp2396
(dp2397
g67
(dp2398
sg76
g2392
sg69
(lp2399
g62
(g63
g64
NtRp2400
(dp2401
g67
(dp2402
g75
I3
ssg76
g2396
sg69
(lp2403
g1466
asbasbasbag62
(g78
g64
NtRp2404
(dp2405
g67
(dp2406
sg76
g2376
sg69
(lp2407
g62
(g83
g64
NtRp2408
(dp2409
g67
(dp2410
sg76
g2404
sg69
(lp2411
g62
(g63
g64
NtRp2412
(dp2413
g67
(dp2414
g75
I3
ssg76
g2408
sg69
(lp2415
g1479
asbasbasbag62
(g78
g64
NtRp2416
(dp2417
g67
(dp2418
sg76
g2376
sg69
(lp2419
g62
(g83
g64
NtRp2420
(dp2421
g67
(dp2422
sg76
g2416
sg69
(lp2423
g62
(g63
g64
NtRp2424
(dp2425
g67
(dp2426
g75
I3
ssg76
g2420
sg69
(lp2427
g1492
asbasbasbag62
(g78
g64
NtRp2428
(dp2429
g67
(dp2430
sg76
g2376
sg69
(lp2431
g62
(g83
g64
NtRp2432
(dp2433
g67
(dp2434
sg76
g2428
sg69
(lp2435
g62
(g63
g64
NtRp2436
(dp2437
g67
(dp2438
g75
I3
ssg76
g2432
sg69
(lp2439
g1505
asbasbasbasbasbasbasbag62
(g78
g64
NtRp2440
(dp2441
g67
(dp2442
sg76
g2165
sg69
(lp2443
g62
(g83
g64
NtRp2444
(dp2445
g67
(dp2446
g87
g88
ssg76
g2440
sg69
(lp2447
g1773
asbag62
(g83
g64
NtRp2448
(dp2449
g67
(dp2450
g94
g95
ssg76
g2440
sg69
(lp2451
S':'
asbag62
(g83
g64
NtRp2452
(dp2453
g67
(dp2454
sg76
g2440
sg69
(lp2455
g62
(g63
g64
NtRp2456
(dp2457
g67
(dp2458
g75
I4
ssg76
g2452
sg69
(lp2459
g62
(g71
g64
NtRp2460
(dp2461
g67
(dp2462
g75
I3
ssg76
Nsg69
(lp2463
g62
(g78
g64
NtRp2464
(dp2465
g67
(dp2466
sg76
g2460
sg69
(lp2467
g62
(g83
g64
NtRp2468
(dp2469
g67
(dp2470
sg76
g2464
sg69
(lp2471
g62
(g63
g64
NtRp2472
(dp2473
g67
(dp2474
g75
I3
ssg76
g2468
sg69
(lp2475
S'2'
asbasbasbag62
(g78
g64
NtRp2476
(dp2477
g67
(dp2478
sg76
g2460
sg69
(lp2479
g62
(g83
g64
NtRp2480
(dp2481
g67
(dp2482
sg76
g2476
sg69
(lp2483
g62
(g63
g64
NtRp2484
(dp2485
g67
(dp2486
g75
I3
ssg76
g2480
sg69
(lp2487
S'3'
asbasbasbag62
(g78
g64
NtRp2488
(dp2489
g67
(dp2490
sg76
g2460
sg69
(lp2491
g62
(g83
g64
NtRp2492
(dp2493
g67
(dp2494
sg76
g2488
sg69
(lp2495
g62
(g63
g64
NtRp2496
(dp2497
g67
(dp2498
g75
I3
ssg76
g2492
sg69
(lp2499
S'2'
asbasbasbag62
(g78
g64
NtRp2500
(dp2501
g67
(dp2502
sg76
g2460
sg69
(lp2503
g62
(g83
g64
NtRp2504
(dp2505
g67
(dp2506
sg76
g2500
sg69
(lp2507
g62
(g63
g64
NtRp2508
(dp2509
g67
(dp2510
g75
I3
ssg76
g2504
sg69
(lp2511
S'datetime.datetime(2012, 12, 17, 15, 3, 30)'
p2512
asbasbasbag62
(g78
g64
NtRp2513
(dp2514
g67
(dp2515
sg76
g2460
sg69
(lp2516
g62
(g83
g64
NtRp2517
(dp2518
g67
(dp2519
sg76
g2513
sg69
(lp2520
g62
(g63
g64
NtRp2521
(dp2522
g67
(dp2523
g75
I3
ssg76
g2517
sg69
(lp2524
g1851
asbasbasbasbasbasbasbasbasbasbasbag62
(g78
g64
NtRp2525
(dp2526
g67
(dp2527
sg76
g72
sg69
(lp2528
g62
(g83
g64
NtRp2529
(dp2530
g67
(dp2531
g87
g88
ssg76
g2525
sg69
(lp2532
S'is_https'
p2533
asbag62
(g83
g64
NtRp2534
(dp2535
g67
(dp2536
g94
g95
ssg76
g2525
sg69
(lp2537
S':'
asbag62
(g83
g64
NtRp2538
(dp2539
g67
(dp2540
sg76
g2525
sg69
(lp2541
g62
(g63
g64
NtRp2542
(dp2543
g67
(dp2544
g75
I5
ssg76
g2538
sg69
(lp2545
g105
asbasbasbag62
(g78
g64
NtRp2546
(dp2547
g67
(dp2548
sg76
g72
sg69
(lp2549
g62
(g83
g64
NtRp2550
(dp2551
g67
(dp2552
g87
g88
ssg76
g2546
sg69
(lp2553
S'is_local'
p2554
asbag62
(g83
g64
NtRp2555
(dp2556
g67
(dp2557
g94
g95
ssg76
g2546
sg69
(lp2558
S':'
asbag62
(g83
g64
NtRp2559
(dp2560
g67
(dp2561
sg76
g2546
sg69
(lp2562
g62
(g63
g64
NtRp2563
(dp2564
g67
(dp2565
g75
I5
ssg76
g2559
sg69
(lp2566
g1960
asbasbasbag62
(g78
g64
NtRp2567
(dp2568
g67
(dp2569
sg76
g72
sg69
(lp2570
g62
(g83
g64
NtRp2571
(dp2572
g67
(dp2573
g87
g88
ssg76
g2567
sg69
(lp2574
S'is_restful'
p2575
asbag62
(g83
g64
NtRp2576
(dp2577
g67
(dp2578
g94
g95
ssg76
g2567
sg69
(lp2579
S':'
asbag62
(g83
g64
NtRp2580
(dp2581
g67
(dp2582
sg76
g2567
sg69
(lp2583
g62
(g63
g64
NtRp2584
(dp2585
g67
(dp2586
g75
I5
ssg76
g2580
sg69
(lp2587
g105
asbasbasbag62
(g78
g64
NtRp2588
(dp2589
g67
(dp2590
sg76
g72
sg69
(lp2591
g62
(g83
g64
NtRp2592
(dp2593
g67
(dp2594
g87
g88
ssg76
g2588
sg69
(lp2595
S'now'
p2596
asbag62
(g83
g64
NtRp2597
(dp2598
g67
(dp2599
g94
g95
ssg76
g2588
sg69
(lp2600
S':'
asbag62
(g83
g64
NtRp2601
(dp2602
g67
(dp2603
sg76
g2588
sg69
(lp2604
g62
(g63
g64
NtRp2605
(dp2606
g67
(dp2607
g75
I5
ssg76
g2601
sg69
(lp2608
S'datetime.datetime(2013, 11, 9, 16, 50, 0, 576368)'
p2609
asbasbasbag62
(g78
g64
NtRp2610
(dp2611
g67
(dp2612
sg76
g72
sg69
(lp2613
g62
(g83
g64
NtRp2614
(dp2615
g67
(dp2616
g87
g88
ssg76
g2610
sg69
(lp2617
S'post_vars'
p2618
asbag62
(g83
g64
NtRp2619
(dp2620
g67
(dp2621
g94
g95
ssg76
g2610
sg69
(lp2622
S':'
asbag62
(g83
g64
NtRp2623
(dp2624
g67
(dp2625
sg76
g2610
sg69
(lp2626
g62
(g63
g64
NtRp2627
(dp2628
g67
(dp2629
g75
I5
ssg76
g2623
sg69
(lp2630
g62
(g71
g64
NtRp2631
(dp2632
g67
(dp2633
g75
I4
ssg76
Nsg69
(lp2634
sbasbasbasbag62
(g78
g64
NtRp2635
(dp2636
g67
(dp2637
sg76
g72
sg69
(lp2638
g62
(g83
g64
NtRp2639
(dp2640
g67
(dp2641
g87
g88
ssg76
g2635
sg69
(lp2642
S'raw_args'
p2643
asbag62
(g83
g64
NtRp2644
(dp2645
g67
(dp2646
g94
g95
ssg76
g2635
sg69
(lp2647
S':'
asbag62
(g83
g64
NtRp2648
(dp2649
g67
(dp2650
sg76
g2635
sg69
(lp2651
g62
(g63
g64
NtRp2652
(dp2653
g67
(dp2654
g75
I5
ssg76
g2648
sg69
(lp2655
S''
asbasbasbag62
(g78
g64
NtRp2656
(dp2657
g67
(dp2658
sg76
g72
sg69
(lp2659
g62
(g83
g64
NtRp2660
(dp2661
g67
(dp2662
g87
g88
ssg76
g2656
sg69
(lp2663
S'raw_extension'
p2664
asbag62
(g83
g64
NtRp2665
(dp2666
g67
(dp2667
g94
g95
ssg76
g2656
sg69
(lp2668
S':'
asbag62
(g83
g64
NtRp2669
(dp2670
g67
(dp2671
sg76
g2656
sg69
(lp2672
g62
(g63
g64
NtRp2673
(dp2674
g67
(dp2675
g75
I5
ssg76
g2669
sg69
(lp2676
S'None'
p2677
asbasbasbag62
(g78
g64
NtRp2678
(dp2679
g67
(dp2680
sg76
g72
sg69
(lp2681
g62
(g83
g64
NtRp2682
(dp2683
g67
(dp2684
g87
g88
ssg76
g2678
sg69
(lp2685
S'url'
p2686
asbag62
(g83
g64
NtRp2687
(dp2688
g67
(dp2689
g94
g95
ssg76
g2678
sg69
(lp2690
S':'
asbag62
(g83
g64
NtRp2691
(dp2692
g67
(dp2693
sg76
g2678
sg69
(lp2694
g62
(g63
g64
NtRp2695
(dp2696
g67
(dp2697
g75
I5
ssg76
g2691
sg69
(lp2698
g1527
asbasbasbag62
(g78
g64
NtRp2699
(dp2700
g67
(dp2701
sg76
g72
sg69
(lp2702
g62
(g83
g64
NtRp2703
(dp2704
g67
(dp2705
g87
g88
ssg76
g2699
sg69
(lp2706
S'utcnow'
p2707
asbag62
(g83
g64
NtRp2708
(dp2709
g67
(dp2710
g94
g95
ssg76
g2699
sg69
(lp2711
S':'
asbag62
(g83
g64
NtRp2712
(dp2713
g67
(dp2714
sg76
g2699
sg69
(lp2715
g62
(g63
g64
NtRp2716
(dp2717
g67
(dp2718
g75
I5
ssg76
g2712
sg69
(lp2719
S'datetime.datetime(2013, 11, 9, 11, 20, 0, 576406)'
p2720
asbasbasbag62
(g78
g64
NtRp2721
(dp2722
g67
(dp2723
sg76
g72
sg69
(lp2724
g62
(g83
g64
NtRp2725
(dp2726
g67
(dp2727
g87
g88
ssg76
g2721
sg69
(lp2728
S'uuid'
p2729
asbag62
(g83
g64
NtRp2730
(dp2731
g67
(dp2732
g94
g95
ssg76
g2721
sg69
(lp2733
S':'
asbag62
(g83
g64
NtRp2734
(dp2735
g67
(dp2736
sg76
g2721
sg69
(lp2737
g62
(g63
g64
NtRp2738
(dp2739
g67
(dp2740
g75
I5
ssg76
g2734
sg69
(lp2741
S'WSD_Tool/127.0.0.1.2013-11-09.16-50-00.040932e5-3d40-4e64-8153-0383b6b5f855'
p2742
asbasbasbag62
(g78
g64
NtRp2743
(dp2744
g67
(dp2745
sg76
g72
sg69
(lp2746
g62
(g83
g64
NtRp2747
(dp2748
g67
(dp2749
g87
g88
ssg76
g2743
sg69
(lp2750
S'vars'
p2751
asbag62
(g83
g64
NtRp2752
(dp2753
g67
(dp2754
g94
g95
ssg76
g2743
sg69
(lp2755
S':'
asbag62
(g83
g64
NtRp2756
(dp2757
g67
(dp2758
sg76
g2743
sg69
(lp2759
g62
(g63
g64
NtRp2760
(dp2761
g67
(dp2762
g75
I5
ssg76
g2756
sg69
(lp2763
g62
(g71
g64
NtRp2764
(dp2765
g67
(dp2766
g75
I4
ssg76
Nsg69
(lp2767
sbasbasbasbag62
(g78
g64
NtRp2768
(dp2769
g67
(dp2770
sg76
g72
sg69
(lp2771
g62
(g83
g64
NtRp2772
(dp2773
g67
(dp2774
g87
g88
ssg76
g2768
sg69
(lp2775
S'wsgi'
p2776
asbag62
(g83
g64
NtRp2777
(dp2778
g67
(dp2779
g94
g95
ssg76
g2768
sg69
(lp2780
S':'
asbag62
(g83
g64
NtRp2781
(dp2782
g67
(dp2783
sg76
g2768
sg69
(lp2784
g62
(g63
g64
NtRp2785
(dp2786
g67
(dp2787
g75
I5
ssg76
g2781
sg69
(lp2788
g62
(g71
g64
NtRp2789
(dp2790
g67
(dp2791
g75
I4
ssg76
Nsg69
(lp2792
g62
(g78
g64
NtRp2793
(dp2794
g67
(dp2795
sg76
g2789
sg69
(lp2796
g62
(g83
g64
NtRp2797
(dp2798
g67
(dp2799
g87
g88
ssg76
g2793
sg69
(lp2800
S'environ'
p2801
asbag62
(g83
g64
NtRp2802
(dp2803
g67
(dp2804
g94
g95
ssg76
g2793
sg69
(lp2805
S':'
asbag62
(g83
g64
NtRp2806
(dp2807
g67
(dp2808
sg76
g2793
sg69
(lp2809
g62
(g63
g64
NtRp2810
(dp2811
g67
(dp2812
g75
I4
ssg76
g2806
sg69
(lp2813
g62
(g71
g64
NtRp2814
(dp2815
g67
(dp2816
g75
I3
ssg76
Nsg69
(lp2817
g62
(g78
g64
NtRp2818
(dp2819
g67
(dp2820
sg76
g2814
sg69
(lp2821
g62
(g83
g64
NtRp2822
(dp2823
g67
(dp2824
g87
g88
ssg76
g2818
sg69
(lp2825
S'HTTP_ACCEPT'
p2826
asbag62
(g83
g64
NtRp2827
(dp2828
g67
(dp2829
g94
g95
ssg76
g2818
sg69
(lp2830
S':'
asbag62
(g83
g64
NtRp2831
(dp2832
g67
(dp2833
sg76
g2818
sg69
(lp2834
g62
(g63
g64
NtRp2835
(dp2836
g67
(dp2837
g75
I3
ssg76
g2831
sg69
(lp2838
g1219
asbasbasbag62
(g78
g64
NtRp2839
(dp2840
g67
(dp2841
sg76
g2814
sg69
(lp2842
g62
(g83
g64
NtRp2843
(dp2844
g67
(dp2845
g87
g88
ssg76
g2839
sg69
(lp2846
S'HTTP_ACCEPT_ENCODING'
p2847
asbag62
(g83
g64
NtRp2848
(dp2849
g67
(dp2850
g94
g95
ssg76
g2839
sg69
(lp2851
S':'
asbag62
(g83
g64
NtRp2852
(dp2853
g67
(dp2854
sg76
g2839
sg69
(lp2855
g62
(g63
g64
NtRp2856
(dp2857
g67
(dp2858
g75
I3
ssg76
g2852
sg69
(lp2859
g1241
asbasbasbag62
(g78
g64
NtRp2860
(dp2861
g67
(dp2862
sg76
g2814
sg69
(lp2863
g62
(g83
g64
NtRp2864
(dp2865
g67
(dp2866
g87
g88
ssg76
g2860
sg69
(lp2867
S'HTTP_ACCEPT_LANGUAGE'
p2868
asbag62
(g83
g64
NtRp2869
(dp2870
g67
(dp2871
g94
g95
ssg76
g2860
sg69
(lp2872
S':'
asbag62
(g83
g64
NtRp2873
(dp2874
g67
(dp2875
sg76
g2860
sg69
(lp2876
g62
(g63
g64
NtRp2877
(dp2878
g67
(dp2879
g75
I3
ssg76
g2873
sg69
(lp2880
g1263
asbasbasbag62
(g78
g64
NtRp2881
(dp2882
g67
(dp2883
sg76
g2814
sg69
(lp2884
g62
(g83
g64
NtRp2885
(dp2886
g67
(dp2887
g87
g88
ssg76
g2881
sg69
(lp2888
S'HTTP_CONNECTION'
p2889
asbag62
(g83
g64
NtRp2890
(dp2891
g67
(dp2892
g94
g95
ssg76
g2881
sg69
(lp2893
S':'
asbag62
(g83
g64
NtRp2894
(dp2895
g67
(dp2896
sg76
g2881
sg69
(lp2897
g62
(g63
g64
NtRp2898
(dp2899
g67
(dp2900
g75
I3
ssg76
g2894
sg69
(lp2901
g1285
asbasbasbag62
(g78
g64
NtRp2902
(dp2903
g67
(dp2904
sg76
g2814
sg69
(lp2905
g62
(g83
g64
NtRp2906
(dp2907
g67
(dp2908
g87
g88
ssg76
g2902
sg69
(lp2909
S'HTTP_COOKIE'
p2910
asbag62
(g83
g64
NtRp2911
(dp2912
g67
(dp2913
g94
g95
ssg76
g2902
sg69
(lp2914
S':'
asbag62
(g83
g64
NtRp2915
(dp2916
g67
(dp2917
sg76
g2902
sg69
(lp2918
g62
(g63
g64
NtRp2919
(dp2920
g67
(dp2921
g75
I3
ssg76
g2915
sg69
(lp2922
g1307
asbasbasbag62
(g78
g64
NtRp2923
(dp2924
g67
(dp2925
sg76
g2814
sg69
(lp2926
g62
(g83
g64
NtRp2927
(dp2928
g67
(dp2929
g87
g88
ssg76
g2923
sg69
(lp2930
S'HTTP_HOST'
p2931
asbag62
(g83
g64
NtRp2932
(dp2933
g67
(dp2934
g94
g95
ssg76
g2923
sg69
(lp2935
S':'
asbag62
(g83
g64
NtRp2936
(dp2937
g67
(dp2938
sg76
g2923
sg69
(lp2939
g62
(g63
g64
NtRp2940
(dp2941
g67
(dp2942
g75
I3
ssg76
g2936
sg69
(lp2943
g1329
asbasbasbag62
(g78
g64
NtRp2944
(dp2945
g67
(dp2946
sg76
g2814
sg69
(lp2947
g62
(g83
g64
NtRp2948
(dp2949
g67
(dp2950
g87
g88
ssg76
g2944
sg69
(lp2951
S'HTTP_REFERER'
p2952
asbag62
(g83
g64
NtRp2953
(dp2954
g67
(dp2955
g94
g95
ssg76
g2944
sg69
(lp2956
S':'
asbag62
(g83
g64
NtRp2957
(dp2958
g67
(dp2959
sg76
g2944
sg69
(lp2960
g62
(g63
g64
NtRp2961
(dp2962
g67
(dp2963
g75
I3
ssg76
g2957
sg69
(lp2964
g1351
asbasbasbag62
(g78
g64
NtRp2965
(dp2966
g67
(dp2967
sg76
g2814
sg69
(lp2968
g62
(g83
g64
NtRp2969
(dp2970
g67
(dp2971
g87
g88
ssg76
g2965
sg69
(lp2972
S'HTTP_USER_AGENT'
p2973
asbag62
(g83
g64
NtRp2974
(dp2975
g67
(dp2976
g94
g95
ssg76
g2965
sg69
(lp2977
S':'
asbag62
(g83
g64
NtRp2978
(dp2979
g67
(dp2980
sg76
g2965
sg69
(lp2981
g62
(g63
g64
NtRp2982
(dp2983
g67
(dp2984
g75
I3
ssg76
g2978
sg69
(lp2985
g1373
asbasbasbag62
(g78
g64
NtRp2986
(dp2987
g67
(dp2988
sg76
g2814
sg69
(lp2989
g62
(g83
g64
NtRp2990
(dp2991
g67
(dp2992
g87
g88
ssg76
g2986
sg69
(lp2993
S'PATH_INFO'
p2994
asbag62
(g83
g64
NtRp2995
(dp2996
g67
(dp2997
g94
g95
ssg76
g2986
sg69
(lp2998
S':'
asbag62
(g83
g64
NtRp2999
(dp3000
g67
(dp3001
sg76
g2986
sg69
(lp3002
g62
(g63
g64
NtRp3003
(dp3004
g67
(dp3005
g75
I3
ssg76
g2999
sg69
(lp3006
g1527
asbasbasbag62
(g78
g64
NtRp3007
(dp3008
g67
(dp3009
sg76
g2814
sg69
(lp3010
g62
(g83
g64
NtRp3011
(dp3012
g67
(dp3013
g87
g88
ssg76
g3007
sg69
(lp3014
S'QUERY_STRING'
p3015
asbag62
(g83
g64
NtRp3016
(dp3017
g67
(dp3018
g94
g95
ssg76
g3007
sg69
(lp3019
S':'
asbag62
(g83
g64
NtRp3020
(dp3021
g67
(dp3022
sg76
g3007
sg69
(lp3023
g62
(g63
g64
NtRp3024
(dp3025
g67
(dp3026
g75
I3
ssg76
g3020
sg69
(lp3027
S''
asbasbasbag62
(g78
g64
NtRp3028
(dp3029
g67
(dp3030
sg76
g2814
sg69
(lp3031
g62
(g83
g64
NtRp3032
(dp3033
g67
(dp3034
g87
g88
ssg76
g3028
sg69
(lp3035
S'REMOTE_ADDR'
p3036
asbag62
(g83
g64
NtRp3037
(dp3038
g67
(dp3039
g94
g95
ssg76
g3028
sg69
(lp3040
S':'
asbag62
(g83
g64
NtRp3041
(dp3042
g67
(dp3043
sg76
g3028
sg69
(lp3044
g62
(g63
g64
NtRp3045
(dp3046
g67
(dp3047
g75
I3
ssg76
g3041
sg69
(lp3048
g217
asbasbasbag62
(g78
g64
NtRp3049
(dp3050
g67
(dp3051
sg76
g2814
sg69
(lp3052
g62
(g83
g64
NtRp3053
(dp3054
g67
(dp3055
g87
g88
ssg76
g3049
sg69
(lp3056
S'REMOTE_PORT'
p3057
asbag62
(g83
g64
NtRp3058
(dp3059
g67
(dp3060
g94
g95
ssg76
g3049
sg69
(lp3061
S':'
asbag62
(g83
g64
NtRp3062
(dp3063
g67
(dp3064
sg76
g3049
sg69
(lp3065
g62
(g63
g64
NtRp3066
(dp3067
g67
(dp3068
g75
I3
ssg76
g3062
sg69
(lp3069
g1591
asbasbasbag62
(g78
g64
NtRp3070
(dp3071
g67
(dp3072
sg76
g2814
sg69
(lp3073
g62
(g83
g64
NtRp3074
(dp3075
g67
(dp3076
g87
g88
ssg76
g3070
sg69
(lp3077
S'REQUEST_METHOD'
p3078
asbag62
(g83
g64
NtRp3079
(dp3080
g67
(dp3081
g94
g95
ssg76
g3070
sg69
(lp3082
S':'
asbag62
(g83
g64
NtRp3083
(dp3084
g67
(dp3085
sg76
g3070
sg69
(lp3086
g62
(g63
g64
NtRp3087
(dp3088
g67
(dp3089
g75
I3
ssg76
g3083
sg69
(lp3090
g1613
asbasbasbag62
(g78
g64
NtRp3091
(dp3092
g67
(dp3093
sg76
g2814
sg69
(lp3094
g62
(g83
g64
NtRp3095
(dp3096
g67
(dp3097
g87
g88
ssg76
g3091
sg69
(lp3098
S'REQUEST_URI'
p3099
asbag62
(g83
g64
NtRp3100
(dp3101
g67
(dp3102
g94
g95
ssg76
g3091
sg69
(lp3103
S':'
asbag62
(g83
g64
NtRp3104
(dp3105
g67
(dp3106
sg76
g3091
sg69
(lp3107
g62
(g63
g64
NtRp3108
(dp3109
g67
(dp3110
g75
I3
ssg76
g3104
sg69
(lp3111
g1527
asbasbasbag62
(g78
g64
NtRp3112
(dp3113
g67
(dp3114
sg76
g2814
sg69
(lp3115
g62
(g83
g64
NtRp3116
(dp3117
g67
(dp3118
g87
g88
ssg76
g3112
sg69
(lp3119
S'SCRIPT_NAME'
p3120
asbag62
(g83
g64
NtRp3121
(dp3122
g67
(dp3123
g94
g95
ssg76
g3112
sg69
(lp3124
S':'
asbag62
(g83
g64
NtRp3125
(dp3126
g67
(dp3127
sg76
g3112
sg69
(lp3128
g62
(g63
g64
NtRp3129
(dp3130
g67
(dp3131
g75
I3
ssg76
g3125
sg69
(lp3132
S''
asbasbasbag62
(g78
g64
NtRp3133
(dp3134
g67
(dp3135
sg76
g2814
sg69
(lp3136
g62
(g83
g64
NtRp3137
(dp3138
g67
(dp3139
g87
g88
ssg76
g3133
sg69
(lp3140
S'SERVER_NAME'
p3141
asbag62
(g83
g64
NtRp3142
(dp3143
g67
(dp3144
g94
g95
ssg76
g3133
sg69
(lp3145
S':'
asbag62
(g83
g64
NtRp3146
(dp3147
g67
(dp3148
sg76
g3133
sg69
(lp3149
g62
(g63
g64
NtRp3150
(dp3151
g67
(dp3152
g75
I3
ssg76
g3146
sg69
(lp3153
g1677
asbasbasbag62
(g78
g64
NtRp3154
(dp3155
g67
(dp3156
sg76
g2814
sg69
(lp3157
g62
(g83
g64
NtRp3158
(dp3159
g67
(dp3160
g87
g88
ssg76
g3154
sg69
(lp3161
S'SERVER_PORT'
p3162
asbag62
(g83
g64
NtRp3163
(dp3164
g67
(dp3165
g94
g95
ssg76
g3154
sg69
(lp3166
S':'
asbag62
(g83
g64
NtRp3167
(dp3168
g67
(dp3169
sg76
g3154
sg69
(lp3170
g62
(g63
g64
NtRp3171
(dp3172
g67
(dp3173
g75
I3
ssg76
g3167
sg69
(lp3174
g1699
asbasbasbag62
(g78
g64
NtRp3175
(dp3176
g67
(dp3177
sg76
g2814
sg69
(lp3178
g62
(g83
g64
NtRp3179
(dp3180
g67
(dp3181
g87
g88
ssg76
g3175
sg69
(lp3182
S'SERVER_PROTOCOL'
p3183
asbag62
(g83
g64
NtRp3184
(dp3185
g67
(dp3186
g94
g95
ssg76
g3175
sg69
(lp3187
S':'
asbag62
(g83
g64
NtRp3188
(dp3189
g67
(dp3190
sg76
g3175
sg69
(lp3191
g62
(g63
g64
NtRp3192
(dp3193
g67
(dp3194
g75
I3
ssg76
g3188
sg69
(lp3195
g1721
asbasbasbag62
(g78
g64
NtRp3196
(dp3197
g67
(dp3198
sg76
g2814
sg69
(lp3199
g62
(g83
g64
NtRp3200
(dp3201
g67
(dp3202
g87
g88
ssg76
g3196
sg69
(lp3203
S'SERVER_SOFTWARE'
p3204
asbag62
(g83
g64
NtRp3205
(dp3206
g67
(dp3207
g94
g95
ssg76
g3196
sg69
(lp3208
S':'
asbag62
(g83
g64
NtRp3209
(dp3210
g67
(dp3211
sg76
g3196
sg69
(lp3212
g62
(g63
g64
NtRp3213
(dp3214
g67
(dp3215
g75
I3
ssg76
g3209
sg69
(lp3216
g1743
asbasbasbag62
(g78
g64
NtRp3217
(dp3218
g67
(dp3219
sg76
g2814
sg69
(lp3220
g62
(g83
g64
NtRp3221
(dp3222
g67
(dp3223
g87
g88
ssg76
g3217
sg69
(lp3224
S'wsgi.errors'
p3225
asbag62
(g83
g64
NtRp3226
(dp3227
g67
(dp3228
g94
g95
ssg76
g3217
sg69
(lp3229
S':'
asbag62
(g83
g64
NtRp3230
(dp3231
g67
(dp3232
sg76
g3217
sg69
(lp3233
g62
(g63
g64
NtRp3234
(dp3235
g67
(dp3236
g75
I3
ssg76
g3230
sg69
(lp3237
S"<open file '<stderr>', mode 'w' at 0xb72a80d0>"
p3238
asbasbasbag62
(g78
g64
NtRp3239
(dp3240
g67
(dp3241
sg76
g2814
sg69
(lp3242
g62
(g83
g64
NtRp3243
(dp3244
g67
(dp3245
g87
g88
ssg76
g3239
sg69
(lp3246
S'wsgi.file_wrapper'
p3247
asbag62
(g83
g64
NtRp3248
(dp3249
g67
(dp3250
g94
g95
ssg76
g3239
sg69
(lp3251
S':'
asbag62
(g83
g64
NtRp3252
(dp3253
g67
(dp3254
sg76
g3239
sg69
(lp3255
g62
(g63
g64
NtRp3256
(dp3257
g67
(dp3258
g75
I3
ssg76
g3252
sg69
(lp3259
S'<class wsgiref.util.FileWrapper at 0xa40147c>'
p3260
asbasbasbag62
(g78
g64
NtRp3261
(dp3262
g67
(dp3263
sg76
g2814
sg69
(lp3264
g62
(g83
g64
NtRp3265
(dp3266
g67
(dp3267
g87
g88
ssg76
g3261
sg69
(lp3268
S'wsgi.input'
p3269
asbag62
(g83
g64
NtRp3270
(dp3271
g67
(dp3272
g94
g95
ssg76
g3261
sg69
(lp3273
S':'
asbag62
(g83
g64
NtRp3274
(dp3275
g67
(dp3276
sg76
g3261
sg69
(lp3277
g62
(g63
g64
NtRp3278
(dp3279
g67
(dp3280
g75
I3
ssg76
g3274
sg69
(lp3281
S'<cStringIO.StringO object at 0xacdb4a0>'
p3282
asbasbasbag62
(g78
g64
NtRp3283
(dp3284
g67
(dp3285
sg76
g2814
sg69
(lp3286
g62
(g83
g64
NtRp3287
(dp3288
g67
(dp3289
g87
g88
ssg76
g3283
sg69
(lp3290
S'wsgi.multiprocess'
p3291
asbag62
(g83
g64
NtRp3292
(dp3293
g67
(dp3294
g94
g95
ssg76
g3283
sg69
(lp3295
S':'
asbag62
(g83
g64
NtRp3296
(dp3297
g67
(dp3298
sg76
g3283
sg69
(lp3299
g62
(g63
g64
NtRp3300
(dp3301
g67
(dp3302
g75
I3
ssg76
g3296
sg69
(lp3303
g105
asbasbasbag62
(g78
g64
NtRp3304
(dp3305
g67
(dp3306
sg76
g2814
sg69
(lp3307
g62
(g83
g64
NtRp3308
(dp3309
g67
(dp3310
g87
g88
ssg76
g3304
sg69
(lp3311
S'wsgi.multithread'
p3312
asbag62
(g83
g64
NtRp3313
(dp3314
g67
(dp3315
g94
g95
ssg76
g3304
sg69
(lp3316
S':'
asbag62
(g83
g64
NtRp3317
(dp3318
g67
(dp3319
sg76
g3304
sg69
(lp3320
g62
(g63
g64
NtRp3321
(dp3322
g67
(dp3323
g75
I3
ssg76
g3317
sg69
(lp3324
g1960
asbasbasbag62
(g78
g64
NtRp3325
(dp3326
g67
(dp3327
sg76
g2814
sg69
(lp3328
g62
(g83
g64
NtRp3329
(dp3330
g67
(dp3331
g87
g88
ssg76
g3325
sg69
(lp3332
S'wsgi.run_once'
p3333
asbag62
(g83
g64
NtRp3334
(dp3335
g67
(dp3336
g94
g95
ssg76
g3325
sg69
(lp3337
S':'
asbag62
(g83
g64
NtRp3338
(dp3339
g67
(dp3340
sg76
g3325
sg69
(lp3341
g62
(g63
g64
NtRp3342
(dp3343
g67
(dp3344
g75
I3
ssg76
g3338
sg69
(lp3345
g105
asbasbasbag62
(g78
g64
NtRp3346
(dp3347
g67
(dp3348
sg76
g2814
sg69
(lp3349
g62
(g83
g64
NtRp3350
(dp3351
g67
(dp3352
g87
g88
ssg76
g3346
sg69
(lp3353
S'wsgi.url_scheme'
p3354
asbag62
(g83
g64
NtRp3355
(dp3356
g67
(dp3357
g94
g95
ssg76
g3346
sg69
(lp3358
S':'
asbag62
(g83
g64
NtRp3359
(dp3360
g67
(dp3361
sg76
g3346
sg69
(lp3362
g62
(g63
g64
NtRp3363
(dp3364
g67
(dp3365
g75
I3
ssg76
g3359
sg69
(lp3366
g2003
asbasbasbag62
(g78
g64
NtRp3367
(dp3368
g67
(dp3369
sg76
g2814
sg69
(lp3370
g62
(g83
g64
NtRp3371
(dp3372
g67
(dp3373
g87
g88
ssg76
g3367
sg69
(lp3374
S'wsgi.version'
p3375
asbag62
(g83
g64
NtRp3376
(dp3377
g67
(dp3378
g94
g95
ssg76
g3367
sg69
(lp3379
S':'
asbag62
(g83
g64
NtRp3380
(dp3381
g67
(dp3382
sg76
g3367
sg69
(lp3383
g62
(g63
g64
NtRp3384
(dp3385
g67
(dp3386
g75
I3
ssg76
g3380
sg69
(lp3387
S'1'
asbasbasbasbasbasbasbasbasbasbasbasbasbsS'frames'
p3388
(lp3389
(dp3390
S'file'
p3391
S'/home/nazrul/web2py/gluon/restricted.py'
p3392
sS'dump'
p3393
(dp3394
S'environment'
p3395
S"{'A': <class 'gluon.html.A'>, 'Auth': <class 'gluon.tools.Auth'>, 'B': <class 'gluon.html.B'>, 'BEAUTIFY': <class 'gluon.html.BEAUTIFY'>, 'BODY': <class 'gluon.html.BODY'>, 'BR': <class 'gluon.html.BR'>, 'BUTTON': <class 'gluon.html.BUTTON'>, 'CAT': <class 'gluon.html.CAT'>, 'CENTER': <class 'gluon.html.CENTER'>, 'CLEANUP': <class 'gluon.validators.CLEANUP'>, ...}"
p3396
sS'ccode'
p3397
S'<code object <module> at 0xa9e5a88, file "/home/...ations/WSD_Tool/controllers/default.py", line 11>'
p3398
ssS'lnum'
p3399
I212
sS'lines'
p3400
(dp3401
I207
S'    try:'
p3402
sI208
S'        if isinstance(code, types.CodeType):'
p3403
sI209
S'            ccode = code'
p3404
sI210
S'        else:'
p3405
sI211
S'            ccode = compile2(code, layer)'
p3406
sI212
S'        exec ccode in environment'
p3407
sI213
S'    except HTTP:'
p3408
sI214
S'        raise'
p3409
sI215
S'    except RestrictedError:'
p3410
sI216
S'        # do not encapsulate (obfuscate) the original RestrictedError'
p3411
ssS'call'
p3412
S"(code='# -*- coding: utf-8 -*-\\n# this file is released ... dict(v=v)\\n\\nresponse._vars=response._caller(rel)\\n', environment={'A': <class 'gluon.html.A'>, 'Auth': <class 'gluon.tools.Auth'>, 'B': <class 'gluon.html.B'>, 'BEAUTIFY': <class 'gluon.html.BEAUTIFY'>, 'BODY': <class 'gluon.html.BODY'>, 'BR': <class 'gluon.html.BR'>, 'BUTTON': <class 'gluon.html.BUTTON'>, 'CAT': <class 'gluon.html.CAT'>, 'CENTER': <class 'gluon.html.CENTER'>, 'CLEANUP': <class 'gluon.validators.CLEANUP'>, ...}, layer='/home/nazrul/web2py/applications/WSD_Tool/controllers/default.py')"
p3413
sS'func'
p3414
S'restricted'
p3415
sa(dp3416
g3391
S'/home/nazrul/web2py/applications/WSD_Tool/controllers/default.py'
p3417
sg3393
(dp3418
sg3399
I260
sg3400
(dp3419
I256
S'def testt():'
p3420
sI257
S'    v=db(db.auth_user).select()'
p3421
sI258
S'    return dict(v=v)'
p3422
sI249
S'       os.system("Anusaaraka_stanford.sh  sample 0 True")'
p3423
sI250
S'       #f.close()'
p3424
sI251
S"       f=open('$HOME_anu_tmp/tmp/sample_tmp/2.1/word.dat','r')"
p3425
sI252
S'       a=f.read()'
p3426
sI253
S'       f.close()'
p3427
sI254
S'       return dict(a=a)'
p3428
sI255
S''
ssg3412
S'()'
p3429
sg3414
S'<module>'
p3430
sa(dp3431
g3391
S'/home/nazrul/web2py/gluon/globals.py'
p3432
sg3393
(dp3433
S'self'
p3434
S'undefined'
p3435
sS'f'
S'<function rel>'
p3436
ssg3399
I193
sg3400
(dp3437
I192
S'        self._vars = None'
p3438
sI193
S'        self._caller = lambda f: f()'
p3439
sI194
S'        self._view_environment = None'
p3440
sI195
S'        self._custom_commit = None'
p3441
sI196
S'        self._custom_rollback = None'
p3442
sI197
S''
sI188
S'        self.menu = []             # used by the default view layout'
p3443
sI189
S'        self.files = []            # used by web2py_ajax.html'
p3444
sI190
S'        self.generic_patterns = []  # patterns to allow generic views'
p3445
sI191
S"        self.delimiters = ('{{', '}}')"
p3446
ssg3412
S'(f=<function rel>)'
p3447
sg3414
S'<lambda>'
p3448
sa(dp3449
g3391
S'/home/nazrul/web2py/applications/WSD_Tool/controllers/default.py'
p3450
sg3393
(dp3451
S'builtinopen'
p3452
S'<built-in function open>'
p3453
sS'f'
g3435
ssg3399
I251
sg3400
(dp3454
I246
S"       #shell_command = 'Anusaaraka_stanford.sh  sample 0 True'"
p3455
sI247
S'       #event = Popen(shell_command, shell=True, stdin=PIPE, stdout=PIPE, stderr=STDOUT)'
p3456
sI248
S'       #event.communicate()'
p3457
sI249
S'       os.system("Anusaaraka_stanford.sh  sample 0 True")'
p3458
sI250
S'       #f.close()'
p3459
sI251
S"       f=open('$HOME_anu_tmp/tmp/sample_tmp/2.1/word.dat','r')"
p3460
sI252
S'       a=f.read()'
p3461
sI253
S'       f.close()'
p3462
sI254
S'       return dict(a=a)'
p3463
sI255
S''
ssg3412
S'()'
p3464
sg3414
S'rel'
p3465
sasS'pyver'
p3466
S'Python 2.7.3: /usr/bin/python'
p3467
sS'session'
p3468
g62
(g63
g64
NtRp3469
(dp3470
g67
(dp3471
sg69
(lp3472
g62
(g71
g64
NtRp3473
(dp3474
g67
(dp3475
g75
I5
ssg76
Nsg69
(lp3476
g62
(g78
g64
NtRp3477
(dp3478
g67
(dp3479
sg76
g3473
sg69
(lp3480
g62
(g83
g64
NtRp3481
(dp3482
g67
(dp3483
g87
g88
ssg76
g3477
sg69
(lp3484
S'auth'
p3485
asbag62
(g83
g64
NtRp3486
(dp3487
g67
(dp3488
g94
g95
ssg76
g3477
sg69
(lp3489
S':'
asbag62
(g83
g64
NtRp3490
(dp3491
g67
(dp3492
sg76
g3477
sg69
(lp3493
g62
(g63
g64
NtRp3494
(dp3495
g67
(dp3496
g75
I5
ssg76
g3490
sg69
(lp3497
g62
(g71
g64
NtRp3498
(dp3499
g67
(dp3500
g75
I4
ssg76
Nsg69
(lp3501
g62
(g78
g64
NtRp3502
(dp3503
g67
(dp3504
sg76
g3498
sg69
(lp3505
g62
(g83
g64
NtRp3506
(dp3507
g67
(dp3508
g87
g88
ssg76
g3502
sg69
(lp3509
S'expiration'
p3510
asbag62
(g83
g64
NtRp3511
(dp3512
g67
(dp3513
g94
g95
ssg76
g3502
sg69
(lp3514
S':'
asbag62
(g83
g64
NtRp3515
(dp3516
g67
(dp3517
sg76
g3502
sg69
(lp3518
g62
(g63
g64
NtRp3519
(dp3520
g67
(dp3521
g75
I4
ssg76
g3515
sg69
(lp3522
S'3600'
p3523
asbasbasbag62
(g78
g64
NtRp3524
(dp3525
g67
(dp3526
sg76
g3498
sg69
(lp3527
g62
(g83
g64
NtRp3528
(dp3529
g67
(dp3530
g87
g88
ssg76
g3524
sg69
(lp3531
S'hmac_key'
p3532
asbag62
(g83
g64
NtRp3533
(dp3534
g67
(dp3535
g94
g95
ssg76
g3524
sg69
(lp3536
S':'
asbag62
(g83
g64
NtRp3537
(dp3538
g67
(dp3539
sg76
g3524
sg69
(lp3540
g62
(g63
g64
NtRp3541
(dp3542
g67
(dp3543
g75
I4
ssg76
g3537
sg69
(lp3544
S'8602439a-0584-4b9c-bb16-2c64975f2cc4'
p3545
asbasbasbag62
(g78
g64
NtRp3546
(dp3547
g67
(dp3548
sg76
g3498
sg69
(lp3549
g62
(g83
g64
NtRp3550
(dp3551
g67
(dp3552
g87
g88
ssg76
g3546
sg69
(lp3553
S'last_visit'
p3554
asbag62
(g83
g64
NtRp3555
(dp3556
g67
(dp3557
g94
g95
ssg76
g3546
sg69
(lp3558
S':'
asbag62
(g83
g64
NtRp3559
(dp3560
g67
(dp3561
sg76
g3546
sg69
(lp3562
g62
(g63
g64
NtRp3563
(dp3564
g67
(dp3565
g75
I4
ssg76
g3559
sg69
(lp3566
S'datetime.datetime(2013, 11, 9, 16, 48, 52, 865670)'
p3567
asbasbasbag62
(g78
g64
NtRp3568
(dp3569
g67
(dp3570
sg76
g3498
sg69
(lp3571
g62
(g83
g64
NtRp3572
(dp3573
g67
(dp3574
g87
g88
ssg76
g3568
sg69
(lp3575
S'remember'
p3576
asbag62
(g83
g64
NtRp3577
(dp3578
g67
(dp3579
g94
g95
ssg76
g3568
sg69
(lp3580
S':'
asbag62
(g83
g64
NtRp3581
(dp3582
g67
(dp3583
sg76
g3568
sg69
(lp3584
g62
(g63
g64
NtRp3585
(dp3586
g67
(dp3587
g75
I4
ssg76
g3581
sg69
(lp3588
g105
asbasbasbag62
(g78
g64
NtRp3589
(dp3590
g67
(dp3591
sg76
g3498
sg69
(lp3592
g62
(g83
g64
NtRp3593
(dp3594
g67
(dp3595
g87
g88
ssg76
g3589
sg69
(lp3596
S'user'
p3597
asbag62
(g83
g64
NtRp3598
(dp3599
g67
(dp3600
g94
g95
ssg76
g3589
sg69
(lp3601
S':'
asbag62
(g83
g64
NtRp3602
(dp3603
g67
(dp3604
sg76
g3589
sg69
(lp3605
g62
(g63
g64
NtRp3606
(dp3607
g67
(dp3608
g75
I4
ssg76
g3602
sg69
(lp3609
g62
(g71
g64
NtRp3610
(dp3611
g67
(dp3612
g75
I3
ssg76
Nsg69
(lp3613
g62
(g78
g64
NtRp3614
(dp3615
g67
(dp3616
sg76
g3610
sg69
(lp3617
g62
(g83
g64
NtRp3618
(dp3619
g67
(dp3620
g87
g88
ssg76
g3614
sg69
(lp3621
S'email'
p3622
asbag62
(g83
g64
NtRp3623
(dp3624
g67
(dp3625
g94
g95
ssg76
g3614
sg69
(lp3626
S':'
asbag62
(g83
g64
NtRp3627
(dp3628
g67
(dp3629
sg76
g3614
sg69
(lp3630
g62
(g63
g64
NtRp3631
(dp3632
g67
(dp3633
g75
I3
ssg76
g3627
sg69
(lp3634
S'user@sys.com'
p3635
asbasbasbag62
(g78
g64
NtRp3636
(dp3637
g67
(dp3638
sg76
g3610
sg69
(lp3639
g62
(g83
g64
NtRp3640
(dp3641
g67
(dp3642
g87
g88
ssg76
g3636
sg69
(lp3643
S'first_name'
p3644
asbag62
(g83
g64
NtRp3645
(dp3646
g67
(dp3647
g94
g95
ssg76
g3636
sg69
(lp3648
S':'
asbag62
(g83
g64
NtRp3649
(dp3650
g67
(dp3651
sg76
g3636
sg69
(lp3652
g62
(g63
g64
NtRp3653
(dp3654
g67
(dp3655
g75
I3
ssg76
g3649
sg69
(lp3656
S'user'
p3657
asbasbasbag62
(g78
g64
NtRp3658
(dp3659
g67
(dp3660
sg76
g3610
sg69
(lp3661
g62
(g83
g64
NtRp3662
(dp3663
g67
(dp3664
g87
g88
ssg76
g3658
sg69
(lp3665
S'id'
p3666
asbag62
(g83
g64
NtRp3667
(dp3668
g67
(dp3669
g94
g95
ssg76
g3658
sg69
(lp3670
S':'
asbag62
(g83
g64
NtRp3671
(dp3672
g67
(dp3673
sg76
g3658
sg69
(lp3674
g62
(g63
g64
NtRp3675
(dp3676
g67
(dp3677
g75
I3
ssg76
g3671
sg69
(lp3678
S'7'
asbasbasbag62
(g78
g64
NtRp3679
(dp3680
g67
(dp3681
sg76
g3610
sg69
(lp3682
g62
(g83
g64
NtRp3683
(dp3684
g67
(dp3685
g87
g88
ssg76
g3679
sg69
(lp3686
S'last_name'
p3687
asbag62
(g83
g64
NtRp3688
(dp3689
g67
(dp3690
g94
g95
ssg76
g3679
sg69
(lp3691
S':'
asbag62
(g83
g64
NtRp3692
(dp3693
g67
(dp3694
sg76
g3679
sg69
(lp3695
g62
(g63
g64
NtRp3696
(dp3697
g67
(dp3698
g75
I3
ssg76
g3692
sg69
(lp3699
S'user'
p3700
asbasbasbag62
(g78
g64
NtRp3701
(dp3702
g67
(dp3703
sg76
g3610
sg69
(lp3704
g62
(g83
g64
NtRp3705
(dp3706
g67
(dp3707
g87
g88
ssg76
g3701
sg69
(lp3708
S'registration_id'
p3709
asbag62
(g83
g64
NtRp3710
(dp3711
g67
(dp3712
g94
g95
ssg76
g3701
sg69
(lp3713
S':'
asbag62
(g83
g64
NtRp3714
(dp3715
g67
(dp3716
sg76
g3701
sg69
(lp3717
g62
(g63
g64
NtRp3718
(dp3719
g67
(dp3720
g75
I3
ssg76
g3714
sg69
(lp3721
S''
asbasbasbag62
(g78
g64
NtRp3722
(dp3723
g67
(dp3724
sg76
g3610
sg69
(lp3725
g62
(g83
g64
NtRp3726
(dp3727
g67
(dp3728
g87
g88
ssg76
g3722
sg69
(lp3729
S'registration_key'
p3730
asbag62
(g83
g64
NtRp3731
(dp3732
g67
(dp3733
g94
g95
ssg76
g3722
sg69
(lp3734
S':'
asbag62
(g83
g64
NtRp3735
(dp3736
g67
(dp3737
sg76
g3722
sg69
(lp3738
g62
(g63
g64
NtRp3739
(dp3740
g67
(dp3741
g75
I3
ssg76
g3735
sg69
(lp3742
S''
asbasbasbag62
(g78
g64
NtRp3743
(dp3744
g67
(dp3745
sg76
g3610
sg69
(lp3746
g62
(g83
g64
NtRp3747
(dp3748
g67
(dp3749
g87
g88
ssg76
g3743
sg69
(lp3750
S'reset_password_key'
p3751
asbag62
(g83
g64
NtRp3752
(dp3753
g67
(dp3754
g94
g95
ssg76
g3743
sg69
(lp3755
S':'
asbag62
(g83
g64
NtRp3756
(dp3757
g67
(dp3758
sg76
g3743
sg69
(lp3759
g62
(g63
g64
NtRp3760
(dp3761
g67
(dp3762
g75
I3
ssg76
g3756
sg69
(lp3763
S''
asbasbasbasbasbasbasbag62
(g78
g64
NtRp3764
(dp3765
g67
(dp3766
sg76
g3498
sg69
(lp3767
g62
(g83
g64
NtRp3768
(dp3769
g67
(dp3770
g87
g88
ssg76
g3764
sg69
(lp3771
S'user_groups'
p3772
asbag62
(g83
g64
NtRp3773
(dp3774
g67
(dp3775
g94
g95
ssg76
g3764
sg69
(lp3776
S':'
asbag62
(g83
g64
NtRp3777
(dp3778
g67
(dp3779
sg76
g3764
sg69
(lp3780
g62
(g63
g64
NtRp3781
(dp3782
g67
(dp3783
g75
I4
ssg76
g3777
sg69
(lp3784
g62
(g71
g64
NtRp3785
(dp3786
g67
(dp3787
g75
I3
ssg76
Nsg69
(lp3788
sbasbasbasbasbasbasbasbag62
(g78
g64
NtRp3789
(dp3790
g67
(dp3791
sg76
g3473
sg69
(lp3792
g62
(g83
g64
NtRp3793
(dp3794
g67
(dp3795
g87
g88
ssg76
g3789
sg69
(lp3796
S'flash'
p3797
asbag62
(g83
g64
NtRp3798
(dp3799
g67
(dp3800
g94
g95
ssg76
g3789
sg69
(lp3801
S':'
asbag62
(g83
g64
NtRp3802
(dp3803
g67
(dp3804
sg76
g3789
sg69
(lp3805
g62
(g63
g64
NtRp3806
(dp3807
g67
(dp3808
g75
I5
ssg76
g3802
sg69
(lp3809
S'None'
p3810
asbasbasbag62
(g78
g64
NtRp3811
(dp3812
g67
(dp3813
sg76
g3473
sg69
(lp3814
g62
(g83
g64
NtRp3815
(dp3816
g67
(dp3817
g87
g88
ssg76
g3811
sg69
(lp3818
S'ide'
p3819
asbag62
(g83
g64
NtRp3820
(dp3821
g67
(dp3822
g94
g95
ssg76
g3811
sg69
(lp3823
S':'
asbag62
(g83
g64
NtRp3824
(dp3825
g67
(dp3826
sg76
g3811
sg69
(lp3827
g62
(g63
g64
NtRp3828
(dp3829
g67
(dp3830
g75
I5
ssg76
g3824
sg69
(lp3831
S'10'
p3832
asbasbasbag62
(g78
g64
NtRp3833
(dp3834
g67
(dp3835
sg76
g3473
sg69
(lp3836
g62
(g83
g64
NtRp3837
(dp3838
g67
(dp3839
g87
g88
ssg76
g3833
sg69
(lp3840
S'last_orderby'
p3841
asbag62
(g83
g64
NtRp3842
(dp3843
g67
(dp3844
g94
g95
ssg76
g3833
sg69
(lp3845
S':'
asbag62
(g83
g64
NtRp3846
(dp3847
g67
(dp3848
sg76
g3833
sg69
(lp3849
g62
(g63
g64
NtRp3850
(dp3851
g67
(dp3852
g75
I5
ssg76
g3846
sg69
(lp3853
S'None'
p3854
asbasbasbag62
(g78
g64
NtRp3855
(dp3856
g67
(dp3857
sg76
g3473
sg69
(lp3858
g62
(g83
g64
NtRp3859
(dp3860
g67
(dp3861
g87
g88
ssg76
g3855
sg69
(lp3862
S'last_query'
p3863
asbag62
(g83
g64
NtRp3864
(dp3865
g67
(dp3866
g94
g95
ssg76
g3855
sg69
(lp3867
S':'
asbag62
(g83
g64
NtRp3868
(dp3869
g67
(dp3870
sg76
g3855
sg69
(lp3871
g62
(g63
g64
NtRp3872
(dp3873
g67
(dp3874
g75
I5
ssg76
g3868
sg69
(lp3875
S'db.rules.id>0'
p3876
asbasbasbag62
(g78
g64
NtRp3877
(dp3878
g67
(dp3879
sg76
g3473
sg69
(lp3880
g62
(g83
g64
NtRp3881
(dp3882
g67
(dp3883
g87
g88
ssg76
g3877
sg69
(lp3884
S'sid'
p3885
asbag62
(g83
g64
NtRp3886
(dp3887
g67
(dp3888
g94
g95
ssg76
g3877
sg69
(lp3889
S':'
asbag62
(g83
g64
NtRp3890
(dp3891
g67
(dp3892
sg76
g3877
sg69
(lp3893
g62
(g63
g64
NtRp3894
(dp3895
g67
(dp3896
g75
I5
ssg76
g3890
sg69
(lp3897
S'11'
p3898
asbasbasbag62
(g78
g64
NtRp3899
(dp3900
g67
(dp3901
sg76
g3473
sg69
(lp3902
g62
(g83
g64
NtRp3903
(dp3904
g67
(dp3905
g87
g88
ssg76
g3899
sg69
(lp3906
S'word'
p3907
asbag62
(g83
g64
NtRp3908
(dp3909
g67
(dp3910
g94
g95
ssg76
g3899
sg69
(lp3911
S':'
asbag62
(g83
g64
NtRp3912
(dp3913
g67
(dp3914
sg76
g3899
sg69
(lp3915
g62
(g63
g64
NtRp3916
(dp3917
g67
(dp3918
g75
I5
ssg76
g3912
sg69
(lp3919
S'product'
p3920
asbasbasbasbasbsS'etype'
p3921
S"<type 'exceptions.IOError'>"
p3922
sS'date'
p3923
S'Sat Nov  9 16:50:25 2013'
p3924
sS'response'
p3925
g62
(g63
g64
NtRp3926
(dp3927
g67
(dp3928
sg69
(lp3929
g62
(g71
g64
NtRp3930
(dp3931
g67
(dp3932
g75
I5
ssg76
Nsg69
(lp3933
g62
(g78
g64
NtRp3934
(dp3935
g67
(dp3936
sg76
g3930
sg69
(lp3937
g62
(g83
g64
NtRp3938
(dp3939
g67
(dp3940
g87
g88
ssg76
g3934
sg69
(lp3941
g160
asbag62
(g83
g64
NtRp3942
(dp3943
g67
(dp3944
g94
g95
ssg76
g3934
sg69
(lp3945
S':'
asbag62
(g83
g64
NtRp3946
(dp3947
g67
(dp3948
sg76
g3934
sg69
(lp3949
g62
(g63
g64
NtRp3950
(dp3951
g67
(dp3952
g75
I5
ssg76
g3946
sg69
(lp3953
S'<cStringIO.StringO object at 0xaf29700>'
p3954
asbasbasbag62
(g78
g64
NtRp3955
(dp3956
g67
(dp3957
sg76
g3930
sg69
(lp3958
g62
(g83
g64
NtRp3959
(dp3960
g67
(dp3961
g87
g88
ssg76
g3955
sg69
(lp3962
g248
asbag62
(g83
g64
NtRp3963
(dp3964
g67
(dp3965
g94
g95
ssg76
g3955
sg69
(lp3966
S':'
asbag62
(g83
g64
NtRp3967
(dp3968
g67
(dp3969
sg76
g3955
sg69
(lp3970
g62
(g63
g64
NtRp3971
(dp3972
g67
(dp3973
g75
I5
ssg76
g3967
sg69
(lp3974
g62
(g71
g64
NtRp3975
(dp3976
g67
(dp3977
g75
I4
ssg76
Nsg69
(lp3978
g62
(g78
g64
NtRp3979
(dp3980
g67
(dp3981
sg76
g3975
sg69
(lp3982
g62
(g83
g64
NtRp3983
(dp3984
g67
(dp3985
g87
g88
ssg76
g3979
sg69
(lp3986
S'session_id_wsd_tool'
p3987
asbag62
(g83
g64
NtRp3988
(dp3989
g67
(dp3990
g94
g95
ssg76
g3979
sg69
(lp3991
S':'
asbag62
(g83
g64
NtRp3992
(dp3993
g67
(dp3994
sg76
g3979
sg69
(lp3995
g62
(g63
g64
NtRp3996
(dp3997
g67
(dp3998
g75
I4
ssg76
g3992
sg69
(lp3999
g852
ag62
(g71
g64
NtRp4000
(dp4001
g67
(dp4002
g75
I3
ssg76
Nsg69
(lp4003
g62
(g78
g64
NtRp4004
(dp4005
g67
(dp4006
sg76
g4000
sg69
(lp4007
g62
(g83
g64
NtRp4008
(dp4009
g67
(dp4010
g87
g88
ssg76
g4004
sg69
(lp4011
g299
asbag62
(g83
g64
NtRp4012
(dp4013
g67
(dp4014
g94
g95
ssg76
g4004
sg69
(lp4015
S':'
asbag62
(g83
g64
NtRp4016
(dp4017
g67
(dp4018
sg76
g4004
sg69
(lp4019
g62
(g63
g64
NtRp4020
(dp4021
g67
(dp4022
g75
I3
ssg76
g4016
sg69
(lp4023
S''
asbasbasbag62
(g78
g64
NtRp4024
(dp4025
g67
(dp4026
sg76
g4000
sg69
(lp4027
g62
(g83
g64
NtRp4028
(dp4029
g67
(dp4030
g87
g88
ssg76
g4024
sg69
(lp4031
g320
asbag62
(g83
g64
NtRp4032
(dp4033
g67
(dp4034
g94
g95
ssg76
g4024
sg69
(lp4035
S':'
asbag62
(g83
g64
NtRp4036
(dp4037
g67
(dp4038
sg76
g4024
sg69
(lp4039
g62
(g63
g64
NtRp4040
(dp4041
g67
(dp4042
g75
I3
ssg76
g4036
sg69
(lp4043
S''
asbasbasbag62
(g78
g64
NtRp4044
(dp4045
g67
(dp4046
sg76
g4000
sg69
(lp4047
g62
(g83
g64
NtRp4048
(dp4049
g67
(dp4050
g87
g88
ssg76
g4044
sg69
(lp4051
g341
asbag62
(g83
g64
NtRp4052
(dp4053
g67
(dp4054
g94
g95
ssg76
g4044
sg69
(lp4055
S':'
asbag62
(g83
g64
NtRp4056
(dp4057
g67
(dp4058
sg76
g4044
sg69
(lp4059
g62
(g63
g64
NtRp4060
(dp4061
g67
(dp4062
g75
I3
ssg76
g4056
sg69
(lp4063
S''
asbasbasbag62
(g78
g64
NtRp4064
(dp4065
g67
(dp4066
sg76
g4000
sg69
(lp4067
g62
(g83
g64
NtRp4068
(dp4069
g67
(dp4070
g87
g88
ssg76
g4064
sg69
(lp4071
g362
asbag62
(g83
g64
NtRp4072
(dp4073
g67
(dp4074
g94
g95
ssg76
g4064
sg69
(lp4075
S':'
asbag62
(g83
g64
NtRp4076
(dp4077
g67
(dp4078
sg76
g4064
sg69
(lp4079
g62
(g63
g64
NtRp4080
(dp4081
g67
(dp4082
g75
I3
ssg76
g4076
sg69
(lp4083
S''
asbasbasbag62
(g78
g64
NtRp4084
(dp4085
g67
(dp4086
sg76
g4000
sg69
(lp4087
g62
(g83
g64
NtRp4088
(dp4089
g67
(dp4090
g87
g88
ssg76
g4084
sg69
(lp4091
g383
asbag62
(g83
g64
NtRp4092
(dp4093
g67
(dp4094
g94
g95
ssg76
g4084
sg69
(lp4095
S':'
asbag62
(g83
g64
NtRp4096
(dp4097
g67
(dp4098
sg76
g4084
sg69
(lp4099
g62
(g63
g64
NtRp4100
(dp4101
g67
(dp4102
g75
I3
ssg76
g4096
sg69
(lp4103
S''
asbasbasbag62
(g78
g64
NtRp4104
(dp4105
g67
(dp4106
sg76
g4000
sg69
(lp4107
g62
(g83
g64
NtRp4108
(dp4109
g67
(dp4110
g87
g88
ssg76
g4104
sg69
(lp4111
g404
asbag62
(g83
g64
NtRp4112
(dp4113
g67
(dp4114
g94
g95
ssg76
g4104
sg69
(lp4115
S':'
asbag62
(g83
g64
NtRp4116
(dp4117
g67
(dp4118
sg76
g4104
sg69
(lp4119
g62
(g63
g64
NtRp4120
(dp4121
g67
(dp4122
g75
I3
ssg76
g4116
sg69
(lp4123
S'/'
asbasbasbag62
(g78
g64
NtRp4124
(dp4125
g67
(dp4126
sg76
g4000
sg69
(lp4127
g62
(g83
g64
NtRp4128
(dp4129
g67
(dp4130
g87
g88
ssg76
g4124
sg69
(lp4131
g425
asbag62
(g83
g64
NtRp4132
(dp4133
g67
(dp4134
g94
g95
ssg76
g4124
sg69
(lp4135
S':'
asbag62
(g83
g64
NtRp4136
(dp4137
g67
(dp4138
sg76
g4124
sg69
(lp4139
g62
(g63
g64
NtRp4140
(dp4141
g67
(dp4142
g75
I3
ssg76
g4136
sg69
(lp4143
S''
asbasbasbag62
(g78
g64
NtRp4144
(dp4145
g67
(dp4146
sg76
g4000
sg69
(lp4147
g62
(g83
g64
NtRp4148
(dp4149
g67
(dp4150
g87
g88
ssg76
g4144
sg69
(lp4151
g446
asbag62
(g83
g64
NtRp4152
(dp4153
g67
(dp4154
g94
g95
ssg76
g4144
sg69
(lp4155
S':'
asbag62
(g83
g64
NtRp4156
(dp4157
g67
(dp4158
sg76
g4144
sg69
(lp4159
g62
(g63
g64
NtRp4160
(dp4161
g67
(dp4162
g75
I3
ssg76
g4156
sg69
(lp4163
S''
asbasbasbasbasbasbasbasbasbasbasbag62
(g78
g64
NtRp4164
(dp4165
g67
(dp4166
sg76
g3930
sg69
(lp4167
g62
(g83
g64
NtRp4168
(dp4169
g67
(dp4170
g87
g88
ssg76
g4164
sg69
(lp4171
S'delimiters'
p4172
asbag62
(g83
g64
NtRp4173
(dp4174
g67
(dp4175
g94
g95
ssg76
g4164
sg69
(lp4176
S':'
asbag62
(g83
g64
NtRp4177
(dp4178
g67
(dp4179
sg76
g4164
sg69
(lp4180
g62
(g63
g64
NtRp4181
(dp4182
g67
(dp4183
g75
I5
ssg76
g4177
sg69
(lp4184
g62
(g71
g64
NtRp4185
(dp4186
g67
(dp4187
g75
I4
ssg76
Nsg69
(lp4188
g62
(g78
g64
NtRp4189
(dp4190
g67
(dp4191
sg76
g4185
sg69
(lp4192
g62
(g83
g64
NtRp4193
(dp4194
g67
(dp4195
sg76
g4189
sg69
(lp4196
g62
(g63
g64
NtRp4197
(dp4198
g67
(dp4199
g75
I4
ssg76
g4193
sg69
(lp4200
S'{{'
p4201
asbasbasbag62
(g78
g64
NtRp4202
(dp4203
g67
(dp4204
sg76
g4185
sg69
(lp4205
g62
(g83
g64
NtRp4206
(dp4207
g67
(dp4208
sg76
g4202
sg69
(lp4209
g62
(g63
g64
NtRp4210
(dp4211
g67
(dp4212
g75
I4
ssg76
g4206
sg69
(lp4213
S'}}'
p4214
asbasbasbasbasbasbasbag62
(g78
g64
NtRp4215
(dp4216
g67
(dp4217
sg76
g3930
sg69
(lp4218
g62
(g83
g64
NtRp4219
(dp4220
g67
(dp4221
g87
g88
ssg76
g4215
sg69
(lp4222
S'files'
p4223
asbag62
(g83
g64
NtRp4224
(dp4225
g67
(dp4226
g94
g95
ssg76
g4215
sg69
(lp4227
S':'
asbag62
(g83
g64
NtRp4228
(dp4229
g67
(dp4230
sg76
g4215
sg69
(lp4231
g62
(g63
g64
NtRp4232
(dp4233
g67
(dp4234
g75
I5
ssg76
g4228
sg69
(lp4235
g62
(g71
g64
NtRp4236
(dp4237
g67
(dp4238
g75
I4
ssg76
Nsg69
(lp4239
sbasbasbasbag62
(g78
g64
NtRp4240
(dp4241
g67
(dp4242
sg76
g3930
sg69
(lp4243
g62
(g83
g64
NtRp4244
(dp4245
g67
(dp4246
g87
g88
ssg76
g4240
sg69
(lp4247
S'flash'
p4248
asbag62
(g83
g64
NtRp4249
(dp4250
g67
(dp4251
g94
g95
ssg76
g4240
sg69
(lp4252
S':'
asbag62
(g83
g64
NtRp4253
(dp4254
g67
(dp4255
sg76
g4240
sg69
(lp4256
g62
(g63
g64
NtRp4257
(dp4258
g67
(dp4259
g75
I5
ssg76
g4253
sg69
(lp4260
S''
asbasbasbag62
(g78
g64
NtRp4261
(dp4262
g67
(dp4263
sg76
g3930
sg69
(lp4264
g62
(g83
g64
NtRp4265
(dp4266
g67
(dp4267
g87
g88
ssg76
g4261
sg69
(lp4268
S'generic_patterns'
p4269
asbag62
(g83
g64
NtRp4270
(dp4271
g67
(dp4272
g94
g95
ssg76
g4261
sg69
(lp4273
S':'
asbag62
(g83
g64
NtRp4274
(dp4275
g67
(dp4276
sg76
g4261
sg69
(lp4277
g62
(g63
g64
NtRp4278
(dp4279
g67
(dp4280
g75
I5
ssg76
g4274
sg69
(lp4281
g62
(g71
g64
NtRp4282
(dp4283
g67
(dp4284
g75
I4
ssg76
Nsg69
(lp4285
g62
(g78
g64
NtRp4286
(dp4287
g67
(dp4288
sg76
g4282
sg69
(lp4289
g62
(g83
g64
NtRp4290
(dp4291
g67
(dp4292
sg76
g4286
sg69
(lp4293
g62
(g63
g64
NtRp4294
(dp4295
g67
(dp4296
g75
I4
ssg76
g4290
sg69
(lp4297
S'*'
asbasbasbasbasbasbasbag62
(g78
g64
NtRp4298
(dp4299
g67
(dp4300
sg76
g3930
sg69
(lp4301
g62
(g83
g64
NtRp4302
(dp4303
g67
(dp4304
g87
g88
ssg76
g4298
sg69
(lp4305
S'google_analytics_id'
p4306
asbag62
(g83
g64
NtRp4307
(dp4308
g67
(dp4309
g94
g95
ssg76
g4298
sg69
(lp4310
S':'
asbag62
(g83
g64
NtRp4311
(dp4312
g67
(dp4313
sg76
g4298
sg69
(lp4314
g62
(g63
g64
NtRp4315
(dp4316
g67
(dp4317
g75
I5
ssg76
g4311
sg69
(lp4318
S'None'
p4319
asbasbasbag62
(g78
g64
NtRp4320
(dp4321
g67
(dp4322
sg76
g3930
sg69
(lp4323
g62
(g83
g64
NtRp4324
(dp4325
g67
(dp4326
g87
g88
ssg76
g4320
sg69
(lp4327
S'headers'
p4328
asbag62
(g83
g64
NtRp4329
(dp4330
g67
(dp4331
g94
g95
ssg76
g4320
sg69
(lp4332
S':'
asbag62
(g83
g64
NtRp4333
(dp4334
g67
(dp4335
sg76
g4320
sg69
(lp4336
g62
(g63
g64
NtRp4337
(dp4338
g67
(dp4339
g75
I5
ssg76
g4333
sg69
(lp4340
g62
(g71
g64
NtRp4341
(dp4342
g67
(dp4343
g75
I4
ssg76
Nsg69
(lp4344
g62
(g78
g64
NtRp4345
(dp4346
g67
(dp4347
sg76
g4341
sg69
(lp4348
g62
(g83
g64
NtRp4349
(dp4350
g67
(dp4351
g87
g88
ssg76
g4345
sg69
(lp4352
S'X-Powered-By'
p4353
asbag62
(g83
g64
NtRp4354
(dp4355
g67
(dp4356
g94
g95
ssg76
g4345
sg69
(lp4357
S':'
asbag62
(g83
g64
NtRp4358
(dp4359
g67
(dp4360
sg76
g4345
sg69
(lp4361
g62
(g63
g64
NtRp4362
(dp4363
g67
(dp4364
g75
I4
ssg76
g4358
sg69
(lp4365
S'web2py'
p4366
asbasbasbasbasbasbasbag62
(g78
g64
NtRp4367
(dp4368
g67
(dp4369
sg76
g3930
sg69
(lp4370
g62
(g83
g64
NtRp4371
(dp4372
g67
(dp4373
g87
g88
ssg76
g4367
sg69
(lp4374
S'menu'
p4375
asbag62
(g83
g64
NtRp4376
(dp4377
g67
(dp4378
g94
g95
ssg76
g4367
sg69
(lp4379
S':'
asbag62
(g83
g64
NtRp4380
(dp4381
g67
(dp4382
sg76
g4367
sg69
(lp4383
g62
(g63
g64
NtRp4384
(dp4385
g67
(dp4386
g75
I5
ssg76
g4380
sg69
(lp4387
g62
(g71
g64
NtRp4388
(dp4389
g67
(dp4390
g75
I4
ssg76
Nsg69
(lp4391
g62
(g78
g64
NtRp4392
(dp4393
g67
(dp4394
sg76
g4388
sg69
(lp4395
g62
(g83
g64
NtRp4396
(dp4397
g67
(dp4398
sg76
g4392
sg69
(lp4399
g62
(g63
g64
NtRp4400
(dp4401
g67
(dp4402
g75
I4
ssg76
g4396
sg69
(lp4403
g62
(g71
g64
NtRp4404
(dp4405
g67
(dp4406
g75
I3
ssg76
Nsg69
(lp4407
g62
(g78
g64
NtRp4408
(dp4409
g67
(dp4410
sg76
g4404
sg69
(lp4411
g62
(g83
g64
NtRp4412
(dp4413
g67
(dp4414
sg76
g4408
sg69
(lp4415
g62
(g63
g64
NtRp4416
(dp4417
g67
(dp4418
g75
I3
ssg76
g4412
sg69
(lp4419
cgluon.languages
lazyT_unpickle
p4420
(S't\x04\x00\x00\x00Home'
tRp4421
asbasbasbag62
(g78
g64
NtRp4422
(dp4423
g67
(dp4424
sg76
g4404
sg69
(lp4425
g62
(g83
g64
NtRp4426
(dp4427
g67
(dp4428
sg76
g4422
sg69
(lp4429
g62
(g63
g64
NtRp4430
(dp4431
g67
(dp4432
g75
I3
ssg76
g4426
sg69
(lp4433
g105
asbasbasbag62
(g78
g64
NtRp4434
(dp4435
g67
(dp4436
sg76
g4404
sg69
(lp4437
g62
(g83
g64
NtRp4438
(dp4439
g67
(dp4440
sg76
g4434
sg69
(lp4441
g62
(g63
g64
NtRp4442
(dp4443
g67
(dp4444
g75
I3
ssg76
g4438
sg69
(lp4445
S'/WSD_Tool/default/index'
p4446
asbasbasbag62
(g78
g64
NtRp4447
(dp4448
g67
(dp4449
sg76
g4404
sg69
(lp4450
g62
(g83
g64
NtRp4451
(dp4452
g67
(dp4453
sg76
g4447
sg69
(lp4454
g62
(g63
g64
NtRp4455
(dp4456
g67
(dp4457
g75
I3
ssg76
g4451
sg69
(lp4458
g62
(g71
g64
NtRp4459
(dp4460
g67
(dp4461
g75
I2
ssg76
Nsg69
(lp4462
sbasbasbasbasbasbasbasbag62
(g78
g64
NtRp4463
(dp4464
g67
(dp4465
sg76
g4388
sg69
(lp4466
g62
(g83
g64
NtRp4467
(dp4468
g67
(dp4469
sg76
g4463
sg69
(lp4470
g62
(g63
g64
NtRp4471
(dp4472
g67
(dp4473
g75
I4
ssg76
g4467
sg69
(lp4474
g62
(g71
g64
NtRp4475
(dp4476
g67
(dp4477
g75
I3
ssg76
Nsg69
(lp4478
g62
(g78
g64
NtRp4479
(dp4480
g67
(dp4481
sg76
g4475
sg69
(lp4482
g62
(g83
g64
NtRp4483
(dp4484
g67
(dp4485
sg76
g4479
sg69
(lp4486
g62
(g63
g64
NtRp4487
(dp4488
g67
(dp4489
g75
I3
ssg76
g4483
sg69
(lp4490
g62
(cgluon.html
SPAN
p4491
g64
NtRp4492
(dp4493
g67
(dp4494
g87
S'color:yellow'
p4495
ssg76
Nsg69
(lp4496
g4366
asbasbasbasbag62
(g78
g64
NtRp4497
(dp4498
g67
(dp4499
sg76
g4475
sg69
(lp4500
g62
(g83
g64
NtRp4501
(dp4502
g67
(dp4503
sg76
g4497
sg69
(lp4504
g62
(g63
g64
NtRp4505
(dp4506
g67
(dp4507
g75
I3
ssg76
g4501
sg69
(lp4508
g105
asbasbasbag62
(g78
g64
NtRp4509
(dp4510
g67
(dp4511
sg76
g4475
sg69
(lp4512
g62
(g83
g64
NtRp4513
(dp4514
g67
(dp4515
sg76
g4509
sg69
(lp4516
g62
(g63
g64
NtRp4517
(dp4518
g67
(dp4519
g75
I3
ssg76
g4513
sg69
(lp4520
S'None'
p4521
asbasbasbag62
(g78
g64
NtRp4522
(dp4523
g67
(dp4524
sg76
g4475
sg69
(lp4525
g62
(g83
g64
NtRp4526
(dp4527
g67
(dp4528
sg76
g4522
sg69
(lp4529
g62
(g63
g64
NtRp4530
(dp4531
g67
(dp4532
g75
I3
ssg76
g4526
sg69
(lp4533
g62
(g71
g64
NtRp4534
(dp4535
g67
(dp4536
g75
I2
ssg76
Nsg69
(lp4537
g62
(g78
g64
NtRp4538
(dp4539
g67
(dp4540
sg76
g4534
sg69
(lp4541
g62
(g83
g64
NtRp4542
(dp4543
g67
(dp4544
sg76
g4538
sg69
(lp4545
g62
(g63
g64
NtRp4546
(dp4547
g67
(dp4548
g75
I2
ssg76
g4542
sg69
(lp4549
g62
(g71
g64
NtRp4550
(dp4551
g67
(dp4552
g75
I1
ssg76
Nsg69
(lp4553
g62
(g78
g64
NtRp4554
(dp4555
g67
(dp4556
sg76
g4550
sg69
(lp4557
g62
(g83
g64
NtRp4558
(dp4559
g67
(dp4560
sg76
g4554
sg69
(lp4561
g62
(g63
g64
NtRp4562
(dp4563
g67
(dp4564
g75
I1
ssg76
g4558
sg69
(lp4565
g4420
(S's\x08\x00\x00\x00My Sites'
tRp4566
asbasbasbag62
(g78
g64
NtRp4567
(dp4568
g67
(dp4569
sg76
g4550
sg69
(lp4570
g62
(g83
g64
NtRp4571
(dp4572
g67
(dp4573
sg76
g4567
sg69
(lp4574
g62
(g63
g64
NtRp4575
(dp4576
g67
(dp4577
g75
I1
ssg76
g4571
sg69
(lp4578
I00
asbasbasbag62
(g78
g64
NtRp4579
(dp4580
g67
(dp4581
sg76
g4550
sg69
(lp4582
g62
(g83
g64
NtRp4583
(dp4584
g67
(dp4585
sg76
g4579
sg69
(lp4586
g62
(g63
g64
NtRp4587
(dp4588
g67
(dp4589
g75
I1
ssg76
g4583
sg69
(lp4590
S'/admin/default/site'
p4591
asbasbasbasbasbasbasbag62
(g78
g64
NtRp4592
(dp4593
g67
(dp4594
sg76
g4534
sg69
(lp4595
g62
(g83
g64
NtRp4596
(dp4597
g67
(dp4598
sg76
g4592
sg69
(lp4599
g62
(g63
g64
NtRp4600
(dp4601
g67
(dp4602
g75
I2
ssg76
g4596
sg69
(lp4603
g62
(g71
g64
NtRp4604
(dp4605
g67
(dp4606
g75
I1
ssg76
Nsg69
(lp4607
g62
(g78
g64
NtRp4608
(dp4609
g67
(dp4610
sg76
g4604
sg69
(lp4611
g62
(g83
g64
NtRp4612
(dp4613
g67
(dp4614
sg76
g4608
sg69
(lp4615
g62
(g63
g64
NtRp4616
(dp4617
g67
(dp4618
g75
I1
ssg76
g4612
sg69
(lp4619
g4420
(S's\x08\x00\x00\x00This App'
tRp4620
asbasbasbag62
(g78
g64
NtRp4621
(dp4622
g67
(dp4623
sg76
g4604
sg69
(lp4624
g62
(g83
g64
NtRp4625
(dp4626
g67
(dp4627
sg76
g4621
sg69
(lp4628
g62
(g63
g64
NtRp4629
(dp4630
g67
(dp4631
g75
I1
ssg76
g4625
sg69
(lp4632
I00
asbasbasbag62
(g78
g64
NtRp4633
(dp4634
g67
(dp4635
sg76
g4604
sg69
(lp4636
g62
(g83
g64
NtRp4637
(dp4638
g67
(dp4639
sg76
g4633
sg69
(lp4640
g62
(g63
g64
NtRp4641
(dp4642
g67
(dp4643
g75
I1
ssg76
g4637
sg69
(lp4644
S'/admin/default/design/WSD_Tool'
p4645
asbasbasbag62
(g78
g64
NtRp4646
(dp4647
g67
(dp4648
sg76
g4604
sg69
(lp4649
g62
(g83
g64
NtRp4650
(dp4651
g67
(dp4652
sg76
g4646
sg69
(lp4653
g62
(g63
g64
NtRp4654
(dp4655
g67
(dp4656
g75
I1
ssg76
g4650
sg69
(lp4657
(lp4658
(g4420
(S't\n\x00\x00\x00Controller'
tRp4659
I00
S'/admin/default/edit/WSD_Tool/controllers/default.py'
tp4660
a(g4420
(S't\x04\x00\x00\x00View'
tRp4661
I00
S'/admin/default/edit/WSD_Tool/views/default/rel.html'
tp4662
a(g4420
(S't\x06\x00\x00\x00Layout'
tRp4663
I00
S'/admin/default/edit/WSD_Tool/views/layout.html'
tp4664
a(g4420
(S't\n\x00\x00\x00Stylesheet'
tRp4665
I00
S'/admin/default/edit/WSD_Tool/static/css/web2py.css'
tp4666
a(g4420
(S's\x08\x00\x00\x00DB Model'
tRp4667
I00
S'/admin/default/edit/WSD_Tool/models/db.py'
tp4668
a(g4420
(S's\n\x00\x00\x00Menu Model'
tRp4669
I00
S'/admin/default/edit/WSD_Tool/models/menu.py'
tp4670
a(g4420
(S't\x08\x00\x00\x00Database'
tRp4671
I00
S'/WSD_Tool/appadmin/index'
tp4672
a(g4420
(S't\x06\x00\x00\x00Errors'
tRp4673
I00
S'/admin/default/errors/WSD_Tool'
tp4674
a(g4420
(S't\x05\x00\x00\x00About'
tRp4675
I00
S'/admin/default/about/WSD_Tool'
tp4676
aasbasbasbasbasbasbasbag62
(g78
g64
NtRp4677
(dp4678
g67
(dp4679
sg76
g4534
sg69
(lp4680
g62
(g83
g64
NtRp4681
(dp4682
g67
(dp4683
sg76
g4677
sg69
(lp4684
g62
(g63
g64
NtRp4685
(dp4686
g67
(dp4687
g75
I2
ssg76
g4681
sg69
(lp4688
g62
(g71
g64
NtRp4689
(dp4690
g67
(dp4691
g75
I1
ssg76
Nsg69
(lp4692
g62
(g78
g64
NtRp4693
(dp4694
g67
(dp4695
sg76
g4689
sg69
(lp4696
g62
(g83
g64
NtRp4697
(dp4698
g67
(dp4699
sg76
g4693
sg69
(lp4700
g62
(g63
g64
NtRp4701
(dp4702
g67
(dp4703
g75
I1
ssg76
g4697
sg69
(lp4704
S'web2py.com'
p4705
asbasbasbag62
(g78
g64
NtRp4706
(dp4707
g67
(dp4708
sg76
g4689
sg69
(lp4709
g62
(g83
g64
NtRp4710
(dp4711
g67
(dp4712
sg76
g4706
sg69
(lp4713
g62
(g63
g64
NtRp4714
(dp4715
g67
(dp4716
g75
I1
ssg76
g4710
sg69
(lp4717
I00
asbasbasbag62
(g78
g64
NtRp4718
(dp4719
g67
(dp4720
sg76
g4689
sg69
(lp4721
g62
(g83
g64
NtRp4722
(dp4723
g67
(dp4724
sg76
g4718
sg69
(lp4725
g62
(g63
g64
NtRp4726
(dp4727
g67
(dp4728
g75
I1
ssg76
g4722
sg69
(lp4729
S'http://www.web2py.com'
p4730
asbasbasbag62
(g78
g64
NtRp4731
(dp4732
g67
(dp4733
sg76
g4689
sg69
(lp4734
g62
(g83
g64
NtRp4735
(dp4736
g67
(dp4737
sg76
g4731
sg69
(lp4738
g62
(g63
g64
NtRp4739
(dp4740
g67
(dp4741
g75
I1
ssg76
g4735
sg69
(lp4742
(lp4743
(g4420
(S't\x08\x00\x00\x00Download'
tRp4744
I00
S'http://www.web2py.com/examples/default/download'
p4745
tp4746
a(g4420
(S't\x07\x00\x00\x00Support'
tRp4747
I00
S'http://www.web2py.com/examples/default/support'
p4748
tp4749
a(g4420
(S't\x04\x00\x00\x00Demo'
tRp4750
I00
S'http://web2py.com/demo_admin'
p4751
tp4752
a(g4420
(S's\x0e\x00\x00\x00Quick Examples'
tRp4753
I00
S'http://web2py.com/examples/default/examples'
p4754
tp4755
a(g4420
(S't\x03\x00\x00\x00FAQ'
tRp4756
I00
S'http://web2py.com/AlterEgo'
p4757
tp4758
a(g4420
(S't\x06\x00\x00\x00Videos'
tRp4759
I00
S'http://www.web2py.com/examples/default/videos/'
p4760
tp4761
a(g4420
(S's\x11\x00\x00\x00Free Applications'
tRp4762
I00
S'http://web2py.com/appliances'
p4763
tp4764
a(g4420
(S't\x07\x00\x00\x00Plugins'
tRp4765
I00
S'http://web2py.com/plugins'
p4766
tp4767
a(g4420
(S't\x07\x00\x00\x00Layouts'
tRp4768
I00
S'http://web2py.com/layouts'
p4769
tp4770
a(g4420
(S't\x07\x00\x00\x00Recipes'
tRp4771
I00
S'http://web2pyslices.com/'
p4772
tp4773
a(g4420
(S't\x08\x00\x00\x00Semantic'
tRp4774
I00
S'http://web2py.com/semantic'
p4775
tp4776
aasbasbasbasbasbasbasbag62
(g78
g64
NtRp4777
(dp4778
g67
(dp4779
sg76
g4534
sg69
(lp4780
g62
(g83
g64
NtRp4781
(dp4782
g67
(dp4783
sg76
g4777
sg69
(lp4784
g62
(g63
g64
NtRp4785
(dp4786
g67
(dp4787
g75
I2
ssg76
g4781
sg69
(lp4788
g62
(g71
g64
NtRp4789
(dp4790
g67
(dp4791
g75
I1
ssg76
Nsg69
(lp4792
g62
(g78
g64
NtRp4793
(dp4794
g67
(dp4795
sg76
g4789
sg69
(lp4796
g62
(g83
g64
NtRp4797
(dp4798
g67
(dp4799
sg76
g4793
sg69
(lp4800
g62
(g63
g64
NtRp4801
(dp4802
g67
(dp4803
g75
I1
ssg76
g4797
sg69
(lp4804
g4420
(S't\r\x00\x00\x00Documentation'
tRp4805
asbasbasbag62
(g78
g64
NtRp4806
(dp4807
g67
(dp4808
sg76
g4789
sg69
(lp4809
g62
(g83
g64
NtRp4810
(dp4811
g67
(dp4812
sg76
g4806
sg69
(lp4813
g62
(g63
g64
NtRp4814
(dp4815
g67
(dp4816
g75
I1
ssg76
g4810
sg69
(lp4817
I00
asbasbasbag62
(g78
g64
NtRp4818
(dp4819
g67
(dp4820
sg76
g4789
sg69
(lp4821
g62
(g83
g64
NtRp4822
(dp4823
g67
(dp4824
sg76
g4818
sg69
(lp4825
g62
(g63
g64
NtRp4826
(dp4827
g67
(dp4828
g75
I1
ssg76
g4822
sg69
(lp4829
S'http://www.web2py.com/book'
p4830
asbasbasbag62
(g78
g64
NtRp4831
(dp4832
g67
(dp4833
sg76
g4789
sg69
(lp4834
g62
(g83
g64
NtRp4835
(dp4836
g67
(dp4837
sg76
g4831
sg69
(lp4838
g62
(g63
g64
NtRp4839
(dp4840
g67
(dp4841
g75
I1
ssg76
g4835
sg69
(lp4842
(lp4843
(g4420
(S't\x07\x00\x00\x00Preface'
tRp4844
I00
S'http://www.web2py.com/book/default/chapter/00'
p4845
tp4846
a(g4420
(S't\x0c\x00\x00\x00Introduction'
tRp4847
I00
S'http://www.web2py.com/book/default/chapter/01'
p4848
tp4849
a(g4420
(S't\x06\x00\x00\x00Python'
tRp4850
I00
S'http://www.web2py.com/book/default/chapter/02'
p4851
tp4852
a(g4420
(S't\x08\x00\x00\x00Overview'
tRp4853
I00
S'http://www.web2py.com/book/default/chapter/03'
p4854
tp4855
a(g4420
(S's\x08\x00\x00\x00The Core'
tRp4856
I00
S'http://www.web2py.com/book/default/chapter/04'
p4857
tp4858
a(g4420
(S's\t\x00\x00\x00The Views'
tRp4859
I00
S'http://www.web2py.com/book/default/chapter/05'
p4860
tp4861
a(g4420
(S't\x08\x00\x00\x00Database'
tRp4862
I00
S'http://www.web2py.com/book/default/chapter/06'
p4863
tp4864
a(g4420
(S's\x14\x00\x00\x00Forms and Validators'
tRp4865
I00
S'http://www.web2py.com/book/default/chapter/07'
p4866
tp4867
a(g4420
(S's\r\x00\x00\x00Email and SMS'
tRp4868
I00
S'http://www.web2py.com/book/default/chapter/08'
p4869
tp4870
a(g4420
(S's\x0e\x00\x00\x00Access Control'
tRp4871
I00
S'http://www.web2py.com/book/default/chapter/09'
p4872
tp4873
a(g4420
(S't\x08\x00\x00\x00Services'
tRp4874
I00
S'http://www.web2py.com/book/default/chapter/10'
p4875
tp4876
a(g4420
(S's\x0c\x00\x00\x00Ajax Recipes'
tRp4877
I00
S'http://www.web2py.com/book/default/chapter/11'
p4878
tp4879
a(g4420
(S's\x16\x00\x00\x00Components and Plugins'
tRp4880
I00
S'http://www.web2py.com/book/default/chapter/12'
p4881
tp4882
a(g4420
(S's\x12\x00\x00\x00Deployment Recipes'
tRp4883
I00
S'http://www.web2py.com/book/default/chapter/13'
p4884
tp4885
a(g4420
(S's\r\x00\x00\x00Other Recipes'
tRp4886
I00
S'http://www.web2py.com/book/default/chapter/14'
p4887
tp4888
a(g4420
(S's\r\x00\x00\x00Buy this book'
tRp4889
I00
S'http://stores.lulu.com/web2py'
p4890
tp4891
aasbasbasbasbasbasbasbag62
(g78
g64
NtRp4892
(dp4893
g67
(dp4894
sg76
g4534
sg69
(lp4895
g62
(g83
g64
NtRp4896
(dp4897
g67
(dp4898
sg76
g4892
sg69
(lp4899
g62
(g63
g64
NtRp4900
(dp4901
g67
(dp4902
g75
I2
ssg76
g4896
sg69
(lp4903
g62
(g71
g64
NtRp4904
(dp4905
g67
(dp4906
g75
I1
ssg76
Nsg69
(lp4907
g62
(g78
g64
NtRp4908
(dp4909
g67
(dp4910
sg76
g4904
sg69
(lp4911
g62
(g83
g64
NtRp4912
(dp4913
g67
(dp4914
sg76
g4908
sg69
(lp4915
g62
(g63
g64
NtRp4916
(dp4917
g67
(dp4918
g75
I1
ssg76
g4912
sg69
(lp4919
g4420
(S't\t\x00\x00\x00Community'
tRp4920
asbasbasbag62
(g78
g64
NtRp4921
(dp4922
g67
(dp4923
sg76
g4904
sg69
(lp4924
g62
(g83
g64
NtRp4925
(dp4926
g67
(dp4927
sg76
g4921
sg69
(lp4928
g62
(g63
g64
NtRp4929
(dp4930
g67
(dp4931
g75
I1
ssg76
g4925
sg69
(lp4932
I00
asbasbasbag62
(g78
g64
NtRp4933
(dp4934
g67
(dp4935
sg76
g4904
sg69
(lp4936
g62
(g83
g64
NtRp4937
(dp4938
g67
(dp4939
sg76
g4933
sg69
(lp4940
g62
(g63
g64
NtRp4941
(dp4942
g67
(dp4943
g75
I1
ssg76
g4937
sg69
(lp4944
Nasbasbasbag62
(g78
g64
NtRp4945
(dp4946
g67
(dp4947
sg76
g4904
sg69
(lp4948
g62
(g83
g64
NtRp4949
(dp4950
g67
(dp4951
sg76
g4945
sg69
(lp4952
g62
(g63
g64
NtRp4953
(dp4954
g67
(dp4955
g75
I1
ssg76
g4949
sg69
(lp4956
(lp4957
(g4420
(S't\x06\x00\x00\x00Groups'
tRp4958
I00
S'http://www.web2py.com/examples/default/usergroups'
p4959
tp4960
a(g4420
(S't\x07\x00\x00\x00Twitter'
tRp4961
I00
S'http://twitter.com/web2py'
p4962
tp4963
a(g4420
(S's\t\x00\x00\x00Live Chat'
tRp4964
I00
S'http://webchat.freenode.net/?channels=web2py'
p4965
tp4966
aasbasbasbasbasbasbasbag62
(g78
g64
NtRp4967
(dp4968
g67
(dp4969
sg76
g4534
sg69
(lp4970
g62
(g83
g64
NtRp4971
(dp4972
g67
(dp4973
sg76
g4967
sg69
(lp4974
g62
(g63
g64
NtRp4975
(dp4976
g67
(dp4977
g75
I2
ssg76
g4971
sg69
(lp4978
g62
(g71
g64
NtRp4979
(dp4980
g67
(dp4981
g75
I1
ssg76
Nsg69
(lp4982
g62
(g78
g64
NtRp4983
(dp4984
g67
(dp4985
sg76
g4979
sg69
(lp4986
g62
(g83
g64
NtRp4987
(dp4988
g67
(dp4989
sg76
g4983
sg69
(lp4990
g62
(g63
g64
NtRp4991
(dp4992
g67
(dp4993
g75
I1
ssg76
g4987
sg69
(lp4994
g4420
(S't\x07\x00\x00\x00Plugins'
tRp4995
asbasbasbag62
(g78
g64
NtRp4996
(dp4997
g67
(dp4998
sg76
g4979
sg69
(lp4999
g62
(g83
g64
NtRp5000
(dp5001
g67
(dp5002
sg76
g4996
sg69
(lp5003
g62
(g63
g64
NtRp5004
(dp5005
g67
(dp5006
g75
I1
ssg76
g5000
sg69
(lp5007
I00
asbasbasbag62
(g78
g64
NtRp5008
(dp5009
g67
(dp5010
sg76
g4979
sg69
(lp5011
g62
(g83
g64
NtRp5012
(dp5013
g67
(dp5014
sg76
g5008
sg69
(lp5015
g62
(g63
g64
NtRp5016
(dp5017
g67
(dp5018
g75
I1
ssg76
g5012
sg69
(lp5019
Nasbasbasbag62
(g78
g64
NtRp5020
(dp5021
g67
(dp5022
sg76
g4979
sg69
(lp5023
g62
(g83
g64
NtRp5024
(dp5025
g67
(dp5026
sg76
g5020
sg69
(lp5027
g62
(g63
g64
NtRp5028
(dp5029
g67
(dp5030
g75
I1
ssg76
g5024
sg69
(lp5031
(lp5032
(S'plugin_wiki'
p5033
I00
S'http://web2py.com/examples/default/download'
p5034
tp5035
a(g4420
(S's\r\x00\x00\x00Other Plugins'
tRp5036
I00
g4766
tp5037
a(g4420
(S's\x0e\x00\x00\x00Layout Plugins'
tRp5038
I00
g4769
tp5039
aasbasbasbasbasbasbasbasbasbasbasbasbasbasbasbasbasbasbasbag62
(g78
g64
NtRp5040
(dp5041
g67
(dp5042
sg76
g3930
sg69
(lp5043
g62
(g83
g64
NtRp5044
(dp5045
g67
(dp5046
g87
g88
ssg76
g5040
sg69
(lp5047
S'meta'
p5048
asbag62
(g83
g64
NtRp5049
(dp5050
g67
(dp5051
g94
g95
ssg76
g5040
sg69
(lp5052
S':'
asbag62
(g83
g64
NtRp5053
(dp5054
g67
(dp5055
sg76
g5040
sg69
(lp5056
g62
(g63
g64
NtRp5057
(dp5058
g67
(dp5059
g75
I5
ssg76
g5053
sg69
(lp5060
g62
(g71
g64
NtRp5061
(dp5062
g67
(dp5063
g75
I4
ssg76
Nsg69
(lp5064
g62
(g78
g64
NtRp5065
(dp5066
g67
(dp5067
sg76
g5061
sg69
(lp5068
g62
(g83
g64
NtRp5069
(dp5070
g67
(dp5071
g87
g88
ssg76
g5065
sg69
(lp5072
S'author'
p5073
asbag62
(g83
g64
NtRp5074
(dp5075
g67
(dp5076
g94
g95
ssg76
g5065
sg69
(lp5077
S':'
asbag62
(g83
g64
NtRp5078
(dp5079
g67
(dp5080
sg76
g5065
sg69
(lp5081
g62
(g63
g64
NtRp5082
(dp5083
g67
(dp5084
g75
I4
ssg76
g5078
sg69
(lp5085
S'Your Name <you@example.com>'
p5086
asbasbasbag62
(g78
g64
NtRp5087
(dp5088
g67
(dp5089
sg76
g5061
sg69
(lp5090
g62
(g83
g64
NtRp5091
(dp5092
g67
(dp5093
g87
g88
ssg76
g5087
sg69
(lp5094
S'copyright'
p5095
asbag62
(g83
g64
NtRp5096
(dp5097
g67
(dp5098
g94
g95
ssg76
g5087
sg69
(lp5099
S':'
asbag62
(g83
g64
NtRp5100
(dp5101
g67
(dp5102
sg76
g5087
sg69
(lp5103
g62
(g63
g64
NtRp5104
(dp5105
g67
(dp5106
g75
I4
ssg76
g5100
sg69
(lp5107
S'Copyright 2011'
p5108
asbasbasbag62
(g78
g64
NtRp5109
(dp5110
g67
(dp5111
sg76
g5061
sg69
(lp5112
g62
(g83
g64
NtRp5113
(dp5114
g67
(dp5115
g87
g88
ssg76
g5109
sg69
(lp5116
S'description'
p5117
asbag62
(g83
g64
NtRp5118
(dp5119
g67
(dp5120
g94
g95
ssg76
g5109
sg69
(lp5121
S':'
asbag62
(g83
g64
NtRp5122
(dp5123
g67
(dp5124
sg76
g5109
sg69
(lp5125
g62
(g63
g64
NtRp5126
(dp5127
g67
(dp5128
g75
I4
ssg76
g5122
sg69
(lp5129
S'a cool new app'
p5130
asbasbasbag62
(g78
g64
NtRp5131
(dp5132
g67
(dp5133
sg76
g5061
sg69
(lp5134
g62
(g83
g64
NtRp5135
(dp5136
g67
(dp5137
g87
g88
ssg76
g5131
sg69
(lp5138
S'generator'
p5139
asbag62
(g83
g64
NtRp5140
(dp5141
g67
(dp5142
g94
g95
ssg76
g5131
sg69
(lp5143
S':'
asbag62
(g83
g64
NtRp5144
(dp5145
g67
(dp5146
sg76
g5131
sg69
(lp5147
g62
(g63
g64
NtRp5148
(dp5149
g67
(dp5150
g75
I4
ssg76
g5144
sg69
(lp5151
S'Web2py Web Framework'
p5152
asbasbasbag62
(g78
g64
NtRp5153
(dp5154
g67
(dp5155
sg76
g5061
sg69
(lp5156
g62
(g83
g64
NtRp5157
(dp5158
g67
(dp5159
g87
g88
ssg76
g5153
sg69
(lp5160
S'keywords'
p5161
asbag62
(g83
g64
NtRp5162
(dp5163
g67
(dp5164
g94
g95
ssg76
g5153
sg69
(lp5165
S':'
asbag62
(g83
g64
NtRp5166
(dp5167
g67
(dp5168
sg76
g5153
sg69
(lp5169
g62
(g63
g64
NtRp5170
(dp5171
g67
(dp5172
g75
I4
ssg76
g5166
sg69
(lp5173
S'web2py, python, framework'
p5174
asbasbasbasbasbasbasbag62
(g78
g64
NtRp5175
(dp5176
g67
(dp5177
sg76
g3930
sg69
(lp5178
g62
(g83
g64
NtRp5179
(dp5180
g67
(dp5181
g87
g88
ssg76
g5175
sg69
(lp5182
S'models_to_run'
p5183
asbag62
(g83
g64
NtRp5184
(dp5185
g67
(dp5186
g94
g95
ssg76
g5175
sg69
(lp5187
S':'
asbag62
(g83
g64
NtRp5188
(dp5189
g67
(dp5190
sg76
g5175
sg69
(lp5191
g62
(g63
g64
NtRp5192
(dp5193
g67
(dp5194
g75
I5
ssg76
g5188
sg69
(lp5195
g62
(g71
g64
NtRp5196
(dp5197
g67
(dp5198
g75
I4
ssg76
Nsg69
(lp5199
g62
(g78
g64
NtRp5200
(dp5201
g67
(dp5202
sg76
g5196
sg69
(lp5203
g62
(g83
g64
NtRp5204
(dp5205
g67
(dp5206
sg76
g5200
sg69
(lp5207
g62
(g63
g64
NtRp5208
(dp5209
g67
(dp5210
g75
I4
ssg76
g5204
sg69
(lp5211
S'^\\w+\\.py$'
p5212
asbasbasbag62
(g78
g64
NtRp5213
(dp5214
g67
(dp5215
sg76
g5196
sg69
(lp5216
g62
(g83
g64
NtRp5217
(dp5218
g67
(dp5219
sg76
g5213
sg69
(lp5220
g62
(g63
g64
NtRp5221
(dp5222
g67
(dp5223
g75
I4
ssg76
g5217
sg69
(lp5224
S'^default/\\w+\\.py$'
p5225
asbasbasbag62
(g78
g64
NtRp5226
(dp5227
g67
(dp5228
sg76
g5196
sg69
(lp5229
g62
(g83
g64
NtRp5230
(dp5231
g67
(dp5232
sg76
g5226
sg69
(lp5233
g62
(g63
g64
NtRp5234
(dp5235
g67
(dp5236
g75
I4
ssg76
g5230
sg69
(lp5237
S'^default/rel/\\w+\\.py$'
p5238
asbasbasbasbasbasbasbag62
(g78
g64
NtRp5239
(dp5240
g67
(dp5241
sg76
g3930
sg69
(lp5242
g62
(g83
g64
NtRp5243
(dp5244
g67
(dp5245
g87
g88
ssg76
g5239
sg69
(lp5246
S'postprocessing'
p5247
asbag62
(g83
g64
NtRp5248
(dp5249
g67
(dp5250
g94
g95
ssg76
g5239
sg69
(lp5251
S':'
asbag62
(g83
g64
NtRp5252
(dp5253
g67
(dp5254
sg76
g5239
sg69
(lp5255
g62
(g63
g64
NtRp5256
(dp5257
g67
(dp5258
g75
I5
ssg76
g5252
sg69
(lp5259
g62
(g71
g64
NtRp5260
(dp5261
g67
(dp5262
g75
I4
ssg76
Nsg69
(lp5263
sbasbasbasbag62
(g78
g64
NtRp5264
(dp5265
g67
(dp5266
sg76
g3930
sg69
(lp5267
g62
(g83
g64
NtRp5268
(dp5269
g67
(dp5270
g87
g88
ssg76
g5264
sg69
(lp5271
S'session_cookie_expires'
p5272
asbag62
(g83
g64
NtRp5273
(dp5274
g67
(dp5275
g94
g95
ssg76
g5264
sg69
(lp5276
S':'
asbag62
(g83
g64
NtRp5277
(dp5278
g67
(dp5279
sg76
g5264
sg69
(lp5280
g62
(g63
g64
NtRp5281
(dp5282
g67
(dp5283
g75
I5
ssg76
g5277
sg69
(lp5284
S'None'
p5285
asbasbasbag62
(g78
g64
NtRp5286
(dp5287
g67
(dp5288
sg76
g3930
sg69
(lp5289
g62
(g83
g64
NtRp5290
(dp5291
g67
(dp5292
g87
g88
ssg76
g5286
sg69
(lp5293
S'session_data_name'
p5294
asbag62
(g83
g64
NtRp5295
(dp5296
g67
(dp5297
g94
g95
ssg76
g5286
sg69
(lp5298
S':'
asbag62
(g83
g64
NtRp5299
(dp5300
g67
(dp5301
sg76
g5286
sg69
(lp5302
g62
(g63
g64
NtRp5303
(dp5304
g67
(dp5305
g75
I5
ssg76
g5299
sg69
(lp5306
S'session_data_wsd_tool'
p5307
asbasbasbag62
(g78
g64
NtRp5308
(dp5309
g67
(dp5310
sg76
g3930
sg69
(lp5311
g62
(g83
g64
NtRp5312
(dp5313
g67
(dp5314
g87
g88
ssg76
g5308
sg69
(lp5315
S'session_file'
p5316
asbag62
(g83
g64
NtRp5317
(dp5318
g67
(dp5319
g94
g95
ssg76
g5308
sg69
(lp5320
S':'
asbag62
(g83
g64
NtRp5321
(dp5322
g67
(dp5323
sg76
g5308
sg69
(lp5324
g62
(g63
g64
NtRp5325
(dp5326
g67
(dp5327
g75
I5
ssg76
g5321
sg69
(lp5328
S"<open file '/home/nazrul/web2py/applications/WSD_Tool/sessions/127.0.0.1-1b9513ff-7a4a-46e3-9d60-f0b6086e5c03', mode 'rb+' at 0xa89e968>"
p5329
asbasbasbag62
(g78
g64
NtRp5330
(dp5331
g67
(dp5332
sg76
g3930
sg69
(lp5333
g62
(g83
g64
NtRp5334
(dp5335
g67
(dp5336
g87
g88
ssg76
g5330
sg69
(lp5337
S'session_filename'
p5338
asbag62
(g83
g64
NtRp5339
(dp5340
g67
(dp5341
g94
g95
ssg76
g5330
sg69
(lp5342
S':'
asbag62
(g83
g64
NtRp5343
(dp5344
g67
(dp5345
sg76
g5330
sg69
(lp5346
g62
(g63
g64
NtRp5347
(dp5348
g67
(dp5349
g75
I5
ssg76
g5343
sg69
(lp5350
S'/home/nazrul/web2py/applications/WSD_Tool/sessions/127.0.0.1-1b9513ff-7a4a-46e3-9d60-f0b6086e5c03'
p5351
asbasbasbag62
(g78
g64
NtRp5352
(dp5353
g67
(dp5354
sg76
g3930
sg69
(lp5355
g62
(g83
g64
NtRp5356
(dp5357
g67
(dp5358
g87
g88
ssg76
g5352
sg69
(lp5359
S'session_id'
p5360
asbag62
(g83
g64
NtRp5361
(dp5362
g67
(dp5363
g94
g95
ssg76
g5352
sg69
(lp5364
S':'
asbag62
(g83
g64
NtRp5365
(dp5366
g67
(dp5367
sg76
g5352
sg69
(lp5368
g62
(g63
g64
NtRp5369
(dp5370
g67
(dp5371
g75
I5
ssg76
g5365
sg69
(lp5372
g852
asbasbasbag62
(g78
g64
NtRp5373
(dp5374
g67
(dp5375
sg76
g3930
sg69
(lp5376
g62
(g83
g64
NtRp5377
(dp5378
g67
(dp5379
g87
g88
ssg76
g5373
sg69
(lp5380
S'session_id_name'
p5381
asbag62
(g83
g64
NtRp5382
(dp5383
g67
(dp5384
g94
g95
ssg76
g5373
sg69
(lp5385
S':'
asbag62
(g83
g64
NtRp5386
(dp5387
g67
(dp5388
sg76
g5373
sg69
(lp5389
g62
(g63
g64
NtRp5390
(dp5391
g67
(dp5392
g75
I5
ssg76
g5386
sg69
(lp5393
g3987
asbasbasbag62
(g78
g64
NtRp5394
(dp5395
g67
(dp5396
sg76
g3930
sg69
(lp5397
g62
(g83
g64
NtRp5398
(dp5399
g67
(dp5400
g87
g88
ssg76
g5394
sg69
(lp5401
S'session_locked'
p5402
asbag62
(g83
g64
NtRp5403
(dp5404
g67
(dp5405
g94
g95
ssg76
g5394
sg69
(lp5406
S':'
asbag62
(g83
g64
NtRp5407
(dp5408
g67
(dp5409
sg76
g5394
sg69
(lp5410
g62
(g63
g64
NtRp5411
(dp5412
g67
(dp5413
g75
I5
ssg76
g5407
sg69
(lp5414
g1960
asbasbasbag62
(g78
g64
NtRp5415
(dp5416
g67
(dp5417
sg76
g3930
sg69
(lp5418
g62
(g83
g64
NtRp5419
(dp5420
g67
(dp5421
g87
g88
ssg76
g5415
sg69
(lp5422
S'session_new'
p5423
asbag62
(g83
g64
NtRp5424
(dp5425
g67
(dp5426
g94
g95
ssg76
g5415
sg69
(lp5427
S':'
asbag62
(g83
g64
NtRp5428
(dp5429
g67
(dp5430
sg76
g5415
sg69
(lp5431
g62
(g63
g64
NtRp5432
(dp5433
g67
(dp5434
g75
I5
ssg76
g5428
sg69
(lp5435
g105
asbasbasbag62
(g78
g64
NtRp5436
(dp5437
g67
(dp5438
sg76
g3930
sg69
(lp5439
g62
(g83
g64
NtRp5440
(dp5441
g67
(dp5442
g87
g88
ssg76
g5436
sg69
(lp5443
S'session_storage_type'
p5444
asbag62
(g83
g64
NtRp5445
(dp5446
g67
(dp5447
g94
g95
ssg76
g5436
sg69
(lp5448
S':'
asbag62
(g83
g64
NtRp5449
(dp5450
g67
(dp5451
sg76
g5436
sg69
(lp5452
g62
(g63
g64
NtRp5453
(dp5454
g67
(dp5455
g75
I5
ssg76
g5449
sg69
(lp5456
g3391
asbasbasbag62
(g78
g64
NtRp5457
(dp5458
g67
(dp5459
sg76
g3930
sg69
(lp5460
g62
(g83
g64
NtRp5461
(dp5462
g67
(dp5463
g87
g88
ssg76
g5457
sg69
(lp5464
S'status'
p5465
asbag62
(g83
g64
NtRp5466
(dp5467
g67
(dp5468
g94
g95
ssg76
g5457
sg69
(lp5469
S':'
asbag62
(g83
g64
NtRp5470
(dp5471
g67
(dp5472
sg76
g5457
sg69
(lp5473
g62
(g63
g64
NtRp5474
(dp5475
g67
(dp5476
g75
I5
ssg76
g5470
sg69
(lp5477
S'200'
p5478
asbasbasbag62
(g78
g64
NtRp5479
(dp5480
g67
(dp5481
sg76
g3930
sg69
(lp5482
g62
(g83
g64
NtRp5483
(dp5484
g67
(dp5485
g87
g88
ssg76
g5479
sg69
(lp5486
S'subtitle'
p5487
asbag62
(g83
g64
NtRp5488
(dp5489
g67
(dp5490
g94
g95
ssg76
g5479
sg69
(lp5491
S':'
asbag62
(g83
g64
NtRp5492
(dp5493
g67
(dp5494
sg76
g5479
sg69
(lp5495
g62
(g63
g64
NtRp5496
(dp5497
g67
(dp5498
g75
I5
ssg76
g5492
sg69
(lp5499
g4420
(S's\r\x00\x00\x00customize me!'
tRp5500
asbasbasbag62
(g78
g64
NtRp5501
(dp5502
g67
(dp5503
sg76
g3930
sg69
(lp5504
g62
(g83
g64
NtRp5505
(dp5506
g67
(dp5507
g87
g88
ssg76
g5501
sg69
(lp5508
S'title'
p5509
asbag62
(g83
g64
NtRp5510
(dp5511
g67
(dp5512
g94
g95
ssg76
g5501
sg69
(lp5513
S':'
asbag62
(g83
g64
NtRp5514
(dp5515
g67
(dp5516
sg76
g5501
sg69
(lp5517
g62
(g63
g64
NtRp5518
(dp5519
g67
(dp5520
g75
I5
ssg76
g5514
sg69
(lp5521
S'Wsd Tool'
p5522
asbasbasbag62
(g78
g64
NtRp5523
(dp5524
g67
(dp5525
sg76
g3930
sg69
(lp5526
g62
(g83
g64
NtRp5527
(dp5528
g67
(dp5529
g87
g88
ssg76
g5523
sg69
(lp5530
S'view'
p5531
asbag62
(g83
g64
NtRp5532
(dp5533
g67
(dp5534
g94
g95
ssg76
g5523
sg69
(lp5535
S':'
asbag62
(g83
g64
NtRp5536
(dp5537
g67
(dp5538
sg76
g5523
sg69
(lp5539
g62
(g63
g64
NtRp5540
(dp5541
g67
(dp5542
g75
I5
ssg76
g5536
sg69
(lp5543
S'default/rel.html'
p5544
asbasbasbasbasbsS'locals'
p5545
(dp5546
S's'
S"'There is no asbestos in our products now'"
p5547
sssS'traceback'
p5548
S'Traceback (most recent call last):\n  File "/home/nazrul/web2py/gluon/restricted.py", line 212, in restricted\n    exec ccode in environment\n  File "/home/nazrul/web2py/applications/WSD_Tool/controllers/default.py", line 260, in <module>\n  File "/home/nazrul/web2py/gluon/globals.py", line 193, in <lambda>\n    self._caller = lambda f: f()\n  File "/home/nazrul/web2py/applications/WSD_Tool/controllers/default.py", line 251, in rel\n    f=open(\'$HOME_anu_tmp/tmp/sample_tmp/2.1/word.dat\',\'r\')\nIOError: [Errno 2] No such file or directory: \'$HOME_anu_tmp/tmp/sample_tmp/2.1/word.dat\'\n'
p5549
s.