(dp1
S'output'
p2
S"<type 'exceptions.IOError'> [Errno 2] No such file or directory: '$HOME_anu_tmp/tmp/sample_tmp/2.1/word.dat'"
p3
sS'layer'
p4
S'/home/nazrul/web2py/applications/WSD_Tool/controllers/default.py'
p5
sS'code'
p6
S'# -*- coding: utf-8 -*-\n# this file is released under public domain and you can use without limitations\n\n#########################################################################\n## This is a samples controller\n## - index is the default action of any application\n## - user is required for authentication and authorization\n## - download is for downloading files uploaded in the db (does streaming)\n## - call exposes all registered services (none by default)\n#########################################################################\nimport os,subprocess\ndef index():\n    redirect(\'home\')\n    """\n    example action using the internationalization operator T and flash\n    rendered by views/default/index.html or views/generic.html\n    """\n    response.flash = "Welcome to web2py!"\n    return dict(message=T(\'Hello World\'))\n\ndef user():\n    """\n    exposes:\n    http://..../[app]/default/user/login\n    http://..../[app]/default/user/logout\n    http://..../[app]/default/user/register\n    http://..../[app]/default/user/profile\n    http://..../[app]/default/user/retrieve_password\n    http://..../[app]/default/user/change_password\n    use @auth.requires_login()\n        @auth.requires_membership(\'group name\')\n        @auth.requires_permission(\'read\',\'table name\',record_id)\n    to decorate functions that need access control\n    """\n    return dict(form=auth())\n\n\ndef download():\n    """\n    allows downloading of uploaded files\n    http://..../[app]/default/download/[filename]\n    """\n    return response.download(request,db)\n\n\ndef call():\n    """\n    exposes services. for example:\n    http://..../[app]/default/call/jsonrpc\n    decorate with @services.jsonrpc the functions to expose\n    supports xml, json, xmlrpc, jsonrpc, amfrpc, rss, csv\n    """\n    return service()\n\n\n@auth.requires_signature()\ndef data():\n    """\n    http://..../[app]/default/data/tables\n    http://..../[app]/default/data/create/[table]\n    http://..../[app]/default/data/read/[table]/[id]\n    http://..../[app]/default/data/update/[table]/[id]\n    http://..../[app]/default/data/delete/[table]/[id]\n    http://..../[app]/default/data/select/[table]\n    http://..../[app]/default/data/search/[table]\n    but URLs must be signed, i.e. linked with\n      A(\'table\',_href=URL(\'data/tables\',user_signature=True))\n    or with the signed load operator\n      LOAD(\'default\',\'data.load\',args=\'tables\',ajax=True,user_signature=True)\n    """\n    return dict(form=crud())\n\n\n\n\n@auth.requires_login()\ndef home():\n    t = auth.user.id\n    h = db(db.rules.userid==t).select()\n    g = []\n    for i in h:\n        g.append(db(db.words.id==i.wid).select(db.words.word))\n    h=[]\n    for i in g:\n        for j in i:\n            h.append(j.word) \n    h=list(set(h))\n    return dict(t=t,h=h)\n\n@auth.requires_login()\ndef word_select():\n    if not request.vars.check:\n        redirect(\'home\')\n    else:\n        check=0\n    if request.vars.submit:\n        w = request.vars.word\n        t = db(db.words).select()\n        for i in t:\n            if i.word==w:\n                session.word = w\n                session.ide = i.id\n                break\n        redirect(\'sentence_select\')\n    return dict()\n\n\n@auth.requires_login()\ndef word_selectc():\n    if not request.vars.check:\n        redirect(\'home\')\n    else:\n        check=0\n    if request.vars.submit:\n        w = request.vars.word\n        t = db(db.words).select()\n        for i in t:\n            if i.word==w:\n                session.word = w\n                session.ide = i.id\n                break\n        redirect(URL(\'sentence_selectc\',vars=dict(second=request.vars.second)))\n    return dict()\n    \n    \n    \n\n\n\n#@auth.requires_login()\n#def reason():\n#    t=session.senid\n#    pre=db((db.rules.wid==session.ide)&(db.rules.sid==session.sid)).select()\n#    c=0\n#    for i in pre:\n#        c+=1\n#    if request.vars.hindit:\n#        db.rules.insert(name=session.word+str(c),userid=auth.user.id,wid=session.ide,sid=session.sid,translation=hindit)\n#        redirect(URL(\'rel\'))\n#    return dict()\n    \n    \n@auth.requires_login()\ndef sentence_select():\n    f = \'\'\n    x = 0\n    if request.vars.submit and (request.vars.hindit):\n        t = request.vars.sentence\n        r = db(db.sentences.esentence==t).select(db.sentences.id)\n        for i in r:\n          session.sid=i.id\n          break\n        pre=db((db.rules.wid==session.ide)&(db.rules.userid==auth.user.id)).select()\n        c=0\n        f=0\n        for i in pre:\n            c+=1\n            if str(session.sid)==i.sid:\n                f=1\n                break\n        if f==0:\n            db.rules.insert(name=session.word+str(c),userid=auth.user.id,wid=session.ide,sid=session.sid,translation=request.vars.hindit)\n        redirect(URL(\'rel\'))\n    return dict(w=session.word,d=session.ide,f=f)\n\n\n@auth.requires_login()\ndef sentence_selectc():\n    f = \'\'\n    x = 0\n    if request.vars.submit:\n        t = request.vars.sentence\n        r = db(db.sentences.esentence==t).select(db.sentences.id)\n        for i in r:\n          hindit=i.id\n          session.sid=i.id\n          break\n        redirect(URL(\'reasonc\',vars=dict(hindit=hindit)))\n    return dict(w=session.word,d=session.ide,f=f)\n\n\n@auth.requires_login()\ndef reasonc():\n    t=session.sid\n    r = db(db.sentences.id==t).select(db.sentences.hsentence)\n    if request.vars.submit:\n        pre=db((db.rules.wid==session.ide)&(db.rules.userid==auth.user.id)).select()\n        c=0\n        f=0\n        for i in pre:\n            c+=1\n            print session.sid,i.sid\n            if i.sid==str(session.sid):\n                f=1\n                break\n        if f==0:\n            db.rules.insert(name=session.word+str(c),userid=auth.user.id,wid=session.ide,sid=session.sid)\n        redirect(URL(\'rel\'))\n    return dict(r=r)\n\n@auth.requires_login()\ndef delaccount():\n    if request.vars.submit:\n        db(db.auth_user.email==request.vars.email).delete()\n        redirect("home")\n    return dict()\n\n@auth.requires_login()\ndef addword():\n    if request.vars.submit:\n        db.words.insert(word=request.vars.word)\n        db.sentences.insert(esentence=request.vars.esentence,hsentence=request.vars.hsentence)\n        w = db(db.words.word==request.vars.word).select(db.words.id)\n        s = db(db.sentences.esentence==request.vars.esentence).select(db.sentences.id)\n        for i in w:\n            for j in s:\n                db.links.insert(wid=i.id,sid=j.id)\n                break\n            break\n        session.flash="Word Added"\n        redirect(\'home\')\n    return dict()\n@auth.requires_login()\ndef delword():\n    if request.vars.submit:\n        g = db(db.words.word==request.vars.word).select(db.words.id)\n        for i in g:\n            db(db.words.id==i.id).delete()\n            db(db.rules.wid==i.id).delete()\n            y = db(db.links.wid==i.id).select(db.links.sid)\n            db(db.links.wid==i.id).delete()\n            for j in y:\n                db(db.sentences.id==j.sid).delete()\n                break\n            break\n            session.flash="Word Deleted "\n        redirect(\'home\')\n    return dict()\ndef rel():\n       s=db(db.sentences.id==session.sid).select(db.sentences.esentence)\n       s=s[0].esentence\n       f=open(\'sample\',\'w\')\n       st="<TITLE> test. </TITLE> \\n <p> " + s + " </p>\\n"\n       f.write(st)\n       #from subprocess \n       #shell_command = \'Anusaaraka_stanford.sh  sample 0 True\'\n       #event = Popen(shell_command, shell=True, stdin=PIPE, stdout=PIPE, stderr=STDOUT)\n       #event.communicate()\n       os.system("/bin/bash Anusaaraka_stanford.sh sample 0 True")\n       #subprocess.call([\'Anusaaraka_stanford.sh\',\'sample\',\'0\',\'True\'],shell=True)\n       f.close()\n       f=open(\'$HOME_anu_tmp/tmp/sample_tmp/2.1/word.dat\',\'r\')\n       a=f.read()\n       f.close()\n       return dict(a=a) \n        \ndef testt():\n    v=db(db.auth_user).select()\n    return dict(v=v)\n\nresponse._vars=response._caller(rel)\n'
p7
sS'snapshot'
p8
(dp9
S'exception'
p10
(dp11
S'__getslice__'
p12
S"<method-wrapper '__getslice__' of exceptions.IOError object>"
p13
sS'__str__'
p14
S"<method-wrapper '__str__' of exceptions.IOError object>"
p15
sS'__reduce__'
p16
S'<built-in method __reduce__ of exceptions.IOError object>'
p17
sS'__dict__'
p18
S'{}'
p19
sS'__sizeof__'
p20
S'<built-in method __sizeof__ of exceptions.IOError object>'
p21
sS'__init__'
p22
S"<method-wrapper '__init__' of exceptions.IOError object>"
p23
sS'__setattr__'
p24
S"<method-wrapper '__setattr__' of exceptions.IOError object>"
p25
sS'__reduce_ex__'
p26
S'<built-in method __reduce_ex__ of exceptions.IOError object>'
p27
sS'__new__'
p28
S'<built-in method __new__ of type object>'
p29
sS'errno'
p30
S'2'
sS'__format__'
p31
S'<built-in method __format__ of exceptions.IOError object>'
p32
sS'__class__'
p33
S"<type 'exceptions.IOError'>"
p34
sS'filename'
p35
S"'$HOME_anu_tmp/tmp/sample_tmp/2.1/word.dat'"
p36
sS'__doc__'
p37
S"'I/O operation failed.'"
p38
sS'__getitem__'
p39
S"<method-wrapper '__getitem__' of exceptions.IOError object>"
p40
sS'__setstate__'
p41
S'<built-in method __setstate__ of exceptions.IOError object>'
p42
sS'__getattribute__'
p43
S"<method-wrapper '__getattribute__' of exceptions.IOError object>"
p44
sS'args'
p45
S"(2, 'No such file or directory')"
p46
sS'__subclasshook__'
p47
S'<built-in method __subclasshook__ of type object>'
p48
sS'__unicode__'
p49
S'<built-in method __unicode__ of exceptions.IOError object>'
p50
sS'strerror'
p51
S"'No such file or directory'"
p52
sS'__delattr__'
p53
S"<method-wrapper '__delattr__' of exceptions.IOError object>"
p54
sS'__repr__'
p55
S"<method-wrapper '__repr__' of exceptions.IOError object>"
p56
sS'__hash__'
p57
S"<method-wrapper '__hash__' of exceptions.IOError object>"
p58
ssS'evalue'
p59
S"[Errno 2] No such file or directory: '$HOME_anu_tmp/tmp/sample_tmp/2.1/word.dat'"
p60
sS'request'
p61
ccopy_reg
_reconstructor
p62
(cgluon.html
BEAUTIFY
p63
c__builtin__
object
p64
NtRp65
(dp66
S'attributes'
p67
(dp68
sS'components'
p69
(lp70
g62
(cgluon.html
TABLE
p71
g64
NtRp72
(dp73
g67
(dp74
S'level'
p75
I5
ssS'parent'
p76
Nsg69
(lp77
g62
(cgluon.html
TR
p78
g64
NtRp79
(dp80
g67
(dp81
sg76
g72
sg69
(lp82
g62
(cgluon.html
TD
p83
g64
NtRp84
(dp85
g67
(dp86
S'_style'
p87
S'font-weight:bold;vertical-align:top'
p88
ssg76
g79
sg69
(lp89
S'ajax'
p90
asbag62
(g83
g64
NtRp91
(dp92
g67
(dp93
S'_valign'
p94
S'top'
p95
ssg76
g79
sg69
(lp96
S':'
asbag62
(g83
g64
NtRp97
(dp98
g67
(dp99
sg76
g79
sg69
(lp100
g62
(g63
g64
NtRp101
(dp102
g67
(dp103
g75
I5
ssg76
g97
sg69
(lp104
S'False'
p105
asbasbasbag62
(g78
g64
NtRp106
(dp107
g67
(dp108
sg76
g72
sg69
(lp109
g62
(g83
g64
NtRp110
(dp111
g67
(dp112
g87
g88
ssg76
g106
sg69
(lp113
S'application'
p114
asbag62
(g83
g64
NtRp115
(dp116
g67
(dp117
g94
g95
ssg76
g106
sg69
(lp118
S':'
asbag62
(g83
g64
NtRp119
(dp120
g67
(dp121
sg76
g106
sg69
(lp122
g62
(g63
g64
NtRp123
(dp124
g67
(dp125
g75
I5
ssg76
g119
sg69
(lp126
S'WSD_Tool'
p127
asbasbasbag62
(g78
g64
NtRp128
(dp129
g67
(dp130
sg76
g72
sg69
(lp131
g62
(g83
g64
NtRp132
(dp133
g67
(dp134
g87
g88
ssg76
g128
sg69
(lp135
g45
asbag62
(g83
g64
NtRp136
(dp137
g67
(dp138
g94
g95
ssg76
g128
sg69
(lp139
S':'
asbag62
(g83
g64
NtRp140
(dp141
g67
(dp142
sg76
g128
sg69
(lp143
g62
(g63
g64
NtRp144
(dp145
g67
(dp146
g75
I5
ssg76
g140
sg69
(lp147
g62
(g71
g64
NtRp148
(dp149
g67
(dp150
g75
I4
ssg76
Nsg69
(lp151
sbasbasbasbag62
(g78
g64
NtRp152
(dp153
g67
(dp154
sg76
g72
sg69
(lp155
g62
(g83
g64
NtRp156
(dp157
g67
(dp158
g87
g88
ssg76
g152
sg69
(lp159
S'body'
p160
asbag62
(g83
g64
NtRp161
(dp162
g67
(dp163
g94
g95
ssg76
g152
sg69
(lp164
S':'
asbag62
(g83
g64
NtRp165
(dp166
g67
(dp167
sg76
g152
sg69
(lp168
g62
(g63
g64
NtRp169
(dp170
g67
(dp171
g75
I5
ssg76
g165
sg69
(lp172
S'<cStringIO.StringO object at 0xa1a0ac0>'
p173
asbasbasbag62
(g78
g64
NtRp174
(dp175
g67
(dp176
sg76
g72
sg69
(lp177
g62
(g83
g64
NtRp178
(dp179
g67
(dp180
g87
g88
ssg76
g174
sg69
(lp181
S'cid'
p182
asbag62
(g83
g64
NtRp183
(dp184
g67
(dp185
g94
g95
ssg76
g174
sg69
(lp186
S':'
asbag62
(g83
g64
NtRp187
(dp188
g67
(dp189
sg76
g174
sg69
(lp190
g62
(g63
g64
NtRp191
(dp192
g67
(dp193
g75
I5
ssg76
g187
sg69
(lp194
S'None'
p195
asbasbasbag62
(g78
g64
NtRp196
(dp197
g67
(dp198
sg76
g72
sg69
(lp199
g62
(g83
g64
NtRp200
(dp201
g67
(dp202
g87
g88
ssg76
g196
sg69
(lp203
S'client'
p204
asbag62
(g83
g64
NtRp205
(dp206
g67
(dp207
g94
g95
ssg76
g196
sg69
(lp208
S':'
asbag62
(g83
g64
NtRp209
(dp210
g67
(dp211
sg76
g196
sg69
(lp212
g62
(g63
g64
NtRp213
(dp214
g67
(dp215
g75
I5
ssg76
g209
sg69
(lp216
S'127.0.0.1'
p217
asbasbasbag62
(g78
g64
NtRp218
(dp219
g67
(dp220
sg76
g72
sg69
(lp221
g62
(g83
g64
NtRp222
(dp223
g67
(dp224
g87
g88
ssg76
g218
sg69
(lp225
S'controller'
p226
asbag62
(g83
g64
NtRp227
(dp228
g67
(dp229
g94
g95
ssg76
g218
sg69
(lp230
S':'
asbag62
(g83
g64
NtRp231
(dp232
g67
(dp233
sg76
g218
sg69
(lp234
g62
(g63
g64
NtRp235
(dp236
g67
(dp237
g75
I5
ssg76
g231
sg69
(lp238
S'default'
p239
asbasbasbag62
(g78
g64
NtRp240
(dp241
g67
(dp242
sg76
g72
sg69
(lp243
g62
(g83
g64
NtRp244
(dp245
g67
(dp246
g87
g88
ssg76
g240
sg69
(lp247
S'cookies'
p248
asbag62
(g83
g64
NtRp249
(dp250
g67
(dp251
g94
g95
ssg76
g240
sg69
(lp252
S':'
asbag62
(g83
g64
NtRp253
(dp254
g67
(dp255
sg76
g240
sg69
(lp256
g62
(g63
g64
NtRp257
(dp258
g67
(dp259
g75
I5
ssg76
g253
sg69
(lp260
g62
(g71
g64
NtRp261
(dp262
g67
(dp263
g75
I4
ssg76
Nsg69
(lp264
g62
(g78
g64
NtRp265
(dp266
g67
(dp267
sg76
g261
sg69
(lp268
g62
(g83
g64
NtRp269
(dp270
g67
(dp271
g87
g88
ssg76
g265
sg69
(lp272
S'KBD'
p273
asbag62
(g83
g64
NtRp274
(dp275
g67
(dp276
g94
g95
ssg76
g265
sg69
(lp277
S':'
asbag62
(g83
g64
NtRp278
(dp279
g67
(dp280
sg76
g265
sg69
(lp281
g62
(g63
g64
NtRp282
(dp283
g67
(dp284
g75
I4
ssg76
g278
sg69
(lp285
S'0hi-0'
p286
ag62
(g71
g64
NtRp287
(dp288
g67
(dp289
g75
I3
ssg76
Nsg69
(lp290
g62
(g78
g64
NtRp291
(dp292
g67
(dp293
sg76
g287
sg69
(lp294
g62
(g83
g64
NtRp295
(dp296
g67
(dp297
g87
g88
ssg76
g291
sg69
(lp298
S'comment'
p299
asbag62
(g83
g64
NtRp300
(dp301
g67
(dp302
g94
g95
ssg76
g291
sg69
(lp303
S':'
asbag62
(g83
g64
NtRp304
(dp305
g67
(dp306
sg76
g291
sg69
(lp307
g62
(g63
g64
NtRp308
(dp309
g67
(dp310
g75
I3
ssg76
g304
sg69
(lp311
S''
asbasbasbag62
(g78
g64
NtRp312
(dp313
g67
(dp314
sg76
g287
sg69
(lp315
g62
(g83
g64
NtRp316
(dp317
g67
(dp318
g87
g88
ssg76
g312
sg69
(lp319
S'domain'
p320
asbag62
(g83
g64
NtRp321
(dp322
g67
(dp323
g94
g95
ssg76
g312
sg69
(lp324
S':'
asbag62
(g83
g64
NtRp325
(dp326
g67
(dp327
sg76
g312
sg69
(lp328
g62
(g63
g64
NtRp329
(dp330
g67
(dp331
g75
I3
ssg76
g325
sg69
(lp332
S''
asbasbasbag62
(g78
g64
NtRp333
(dp334
g67
(dp335
sg76
g287
sg69
(lp336
g62
(g83
g64
NtRp337
(dp338
g67
(dp339
g87
g88
ssg76
g333
sg69
(lp340
S'expires'
p341
asbag62
(g83
g64
NtRp342
(dp343
g67
(dp344
g94
g95
ssg76
g333
sg69
(lp345
S':'
asbag62
(g83
g64
NtRp346
(dp347
g67
(dp348
sg76
g333
sg69
(lp349
g62
(g63
g64
NtRp350
(dp351
g67
(dp352
g75
I3
ssg76
g346
sg69
(lp353
S''
asbasbasbag62
(g78
g64
NtRp354
(dp355
g67
(dp356
sg76
g287
sg69
(lp357
g62
(g83
g64
NtRp358
(dp359
g67
(dp360
g87
g88
ssg76
g354
sg69
(lp361
S'httponly'
p362
asbag62
(g83
g64
NtRp363
(dp364
g67
(dp365
g94
g95
ssg76
g354
sg69
(lp366
S':'
asbag62
(g83
g64
NtRp367
(dp368
g67
(dp369
sg76
g354
sg69
(lp370
g62
(g63
g64
NtRp371
(dp372
g67
(dp373
g75
I3
ssg76
g367
sg69
(lp374
S''
asbasbasbag62
(g78
g64
NtRp375
(dp376
g67
(dp377
sg76
g287
sg69
(lp378
g62
(g83
g64
NtRp379
(dp380
g67
(dp381
g87
g88
ssg76
g375
sg69
(lp382
S'max-age'
p383
asbag62
(g83
g64
NtRp384
(dp385
g67
(dp386
g94
g95
ssg76
g375
sg69
(lp387
S':'
asbag62
(g83
g64
NtRp388
(dp389
g67
(dp390
sg76
g375
sg69
(lp391
g62
(g63
g64
NtRp392
(dp393
g67
(dp394
g75
I3
ssg76
g388
sg69
(lp395
S''
asbasbasbag62
(g78
g64
NtRp396
(dp397
g67
(dp398
sg76
g287
sg69
(lp399
g62
(g83
g64
NtRp400
(dp401
g67
(dp402
g87
g88
ssg76
g396
sg69
(lp403
S'path'
p404
asbag62
(g83
g64
NtRp405
(dp406
g67
(dp407
g94
g95
ssg76
g396
sg69
(lp408
S':'
asbag62
(g83
g64
NtRp409
(dp410
g67
(dp411
sg76
g396
sg69
(lp412
g62
(g63
g64
NtRp413
(dp414
g67
(dp415
g75
I3
ssg76
g409
sg69
(lp416
S''
asbasbasbag62
(g78
g64
NtRp417
(dp418
g67
(dp419
sg76
g287
sg69
(lp420
g62
(g83
g64
NtRp421
(dp422
g67
(dp423
g87
g88
ssg76
g417
sg69
(lp424
S'secure'
p425
asbag62
(g83
g64
NtRp426
(dp427
g67
(dp428
g94
g95
ssg76
g417
sg69
(lp429
S':'
asbag62
(g83
g64
NtRp430
(dp431
g67
(dp432
sg76
g417
sg69
(lp433
g62
(g63
g64
NtRp434
(dp435
g67
(dp436
g75
I3
ssg76
g430
sg69
(lp437
S''
asbasbasbag62
(g78
g64
NtRp438
(dp439
g67
(dp440
sg76
g287
sg69
(lp441
g62
(g83
g64
NtRp442
(dp443
g67
(dp444
g87
g88
ssg76
g438
sg69
(lp445
S'version'
p446
asbag62
(g83
g64
NtRp447
(dp448
g67
(dp449
g94
g95
ssg76
g438
sg69
(lp450
S':'
asbag62
(g83
g64
NtRp451
(dp452
g67
(dp453
sg76
g438
sg69
(lp454
g62
(g63
g64
NtRp455
(dp456
g67
(dp457
g75
I3
ssg76
g451
sg69
(lp458
S''
asbasbasbasbasbasbasbag62
(g78
g64
NtRp459
(dp460
g67
(dp461
sg76
g261
sg69
(lp462
g62
(g83
g64
NtRp463
(dp464
g67
(dp465
g87
g88
ssg76
g459
sg69
(lp466
S'session_id_admin'
p467
asbag62
(g83
g64
NtRp468
(dp469
g67
(dp470
g94
g95
ssg76
g459
sg69
(lp471
S':'
asbag62
(g83
g64
NtRp472
(dp473
g67
(dp474
sg76
g459
sg69
(lp475
g62
(g63
g64
NtRp476
(dp477
g67
(dp478
g75
I4
ssg76
g472
sg69
(lp479
S'127.0.0.1-c6702541-9908-41a0-b271-62a21bde1ba8'
p480
ag62
(g71
g64
NtRp481
(dp482
g67
(dp483
g75
I3
ssg76
Nsg69
(lp484
g62
(g78
g64
NtRp485
(dp486
g67
(dp487
sg76
g481
sg69
(lp488
g62
(g83
g64
NtRp489
(dp490
g67
(dp491
g87
g88
ssg76
g485
sg69
(lp492
g299
asbag62
(g83
g64
NtRp493
(dp494
g67
(dp495
g94
g95
ssg76
g485
sg69
(lp496
S':'
asbag62
(g83
g64
NtRp497
(dp498
g67
(dp499
sg76
g485
sg69
(lp500
g62
(g63
g64
NtRp501
(dp502
g67
(dp503
g75
I3
ssg76
g497
sg69
(lp504
S''
asbasbasbag62
(g78
g64
NtRp505
(dp506
g67
(dp507
sg76
g481
sg69
(lp508
g62
(g83
g64
NtRp509
(dp510
g67
(dp511
g87
g88
ssg76
g505
sg69
(lp512
g320
asbag62
(g83
g64
NtRp513
(dp514
g67
(dp515
g94
g95
ssg76
g505
sg69
(lp516
S':'
asbag62
(g83
g64
NtRp517
(dp518
g67
(dp519
sg76
g505
sg69
(lp520
g62
(g63
g64
NtRp521
(dp522
g67
(dp523
g75
I3
ssg76
g517
sg69
(lp524
S''
asbasbasbag62
(g78
g64
NtRp525
(dp526
g67
(dp527
sg76
g481
sg69
(lp528
g62
(g83
g64
NtRp529
(dp530
g67
(dp531
g87
g88
ssg76
g525
sg69
(lp532
g341
asbag62
(g83
g64
NtRp533
(dp534
g67
(dp535
g94
g95
ssg76
g525
sg69
(lp536
S':'
asbag62
(g83
g64
NtRp537
(dp538
g67
(dp539
sg76
g525
sg69
(lp540
g62
(g63
g64
NtRp541
(dp542
g67
(dp543
g75
I3
ssg76
g537
sg69
(lp544
S''
asbasbasbag62
(g78
g64
NtRp545
(dp546
g67
(dp547
sg76
g481
sg69
(lp548
g62
(g83
g64
NtRp549
(dp550
g67
(dp551
g87
g88
ssg76
g545
sg69
(lp552
g362
asbag62
(g83
g64
NtRp553
(dp554
g67
(dp555
g94
g95
ssg76
g545
sg69
(lp556
S':'
asbag62
(g83
g64
NtRp557
(dp558
g67
(dp559
sg76
g545
sg69
(lp560
g62
(g63
g64
NtRp561
(dp562
g67
(dp563
g75
I3
ssg76
g557
sg69
(lp564
S''
asbasbasbag62
(g78
g64
NtRp565
(dp566
g67
(dp567
sg76
g481
sg69
(lp568
g62
(g83
g64
NtRp569
(dp570
g67
(dp571
g87
g88
ssg76
g565
sg69
(lp572
g383
asbag62
(g83
g64
NtRp573
(dp574
g67
(dp575
g94
g95
ssg76
g565
sg69
(lp576
S':'
asbag62
(g83
g64
NtRp577
(dp578
g67
(dp579
sg76
g565
sg69
(lp580
g62
(g63
g64
NtRp581
(dp582
g67
(dp583
g75
I3
ssg76
g577
sg69
(lp584
S''
asbasbasbag62
(g78
g64
NtRp585
(dp586
g67
(dp587
sg76
g481
sg69
(lp588
g62
(g83
g64
NtRp589
(dp590
g67
(dp591
g87
g88
ssg76
g585
sg69
(lp592
g404
asbag62
(g83
g64
NtRp593
(dp594
g67
(dp595
g94
g95
ssg76
g585
sg69
(lp596
S':'
asbag62
(g83
g64
NtRp597
(dp598
g67
(dp599
sg76
g585
sg69
(lp600
g62
(g63
g64
NtRp601
(dp602
g67
(dp603
g75
I3
ssg76
g597
sg69
(lp604
S''
asbasbasbag62
(g78
g64
NtRp605
(dp606
g67
(dp607
sg76
g481
sg69
(lp608
g62
(g83
g64
NtRp609
(dp610
g67
(dp611
g87
g88
ssg76
g605
sg69
(lp612
g425
asbag62
(g83
g64
NtRp613
(dp614
g67
(dp615
g94
g95
ssg76
g605
sg69
(lp616
S':'
asbag62
(g83
g64
NtRp617
(dp618
g67
(dp619
sg76
g605
sg69
(lp620
g62
(g63
g64
NtRp621
(dp622
g67
(dp623
g75
I3
ssg76
g617
sg69
(lp624
S''
asbasbasbag62
(g78
g64
NtRp625
(dp626
g67
(dp627
sg76
g481
sg69
(lp628
g62
(g83
g64
NtRp629
(dp630
g67
(dp631
g87
g88
ssg76
g625
sg69
(lp632
g446
asbag62
(g83
g64
NtRp633
(dp634
g67
(dp635
g94
g95
ssg76
g625
sg69
(lp636
S':'
asbag62
(g83
g64
NtRp637
(dp638
g67
(dp639
sg76
g625
sg69
(lp640
g62
(g63
g64
NtRp641
(dp642
g67
(dp643
g75
I3
ssg76
g637
sg69
(lp644
S''
asbasbasbasbasbasbasbag62
(g78
g64
NtRp645
(dp646
g67
(dp647
sg76
g261
sg69
(lp648
g62
(g83
g64
NtRp649
(dp650
g67
(dp651
g87
g88
ssg76
g645
sg69
(lp652
S'session_id_welcome'
p653
asbag62
(g83
g64
NtRp654
(dp655
g67
(dp656
g94
g95
ssg76
g645
sg69
(lp657
S':'
asbag62
(g83
g64
NtRp658
(dp659
g67
(dp660
sg76
g645
sg69
(lp661
g62
(g63
g64
NtRp662
(dp663
g67
(dp664
g75
I4
ssg76
g658
sg69
(lp665
S'127.0.0.1-06f86553-e457-41d4-b352-3cfbdebe071b'
p666
ag62
(g71
g64
NtRp667
(dp668
g67
(dp669
g75
I3
ssg76
Nsg69
(lp670
g62
(g78
g64
NtRp671
(dp672
g67
(dp673
sg76
g667
sg69
(lp674
g62
(g83
g64
NtRp675
(dp676
g67
(dp677
g87
g88
ssg76
g671
sg69
(lp678
g299
asbag62
(g83
g64
NtRp679
(dp680
g67
(dp681
g94
g95
ssg76
g671
sg69
(lp682
S':'
asbag62
(g83
g64
NtRp683
(dp684
g67
(dp685
sg76
g671
sg69
(lp686
g62
(g63
g64
NtRp687
(dp688
g67
(dp689
g75
I3
ssg76
g683
sg69
(lp690
S''
asbasbasbag62
(g78
g64
NtRp691
(dp692
g67
(dp693
sg76
g667
sg69
(lp694
g62
(g83
g64
NtRp695
(dp696
g67
(dp697
g87
g88
ssg76
g691
sg69
(lp698
g320
asbag62
(g83
g64
NtRp699
(dp700
g67
(dp701
g94
g95
ssg76
g691
sg69
(lp702
S':'
asbag62
(g83
g64
NtRp703
(dp704
g67
(dp705
sg76
g691
sg69
(lp706
g62
(g63
g64
NtRp707
(dp708
g67
(dp709
g75
I3
ssg76
g703
sg69
(lp710
S''
asbasbasbag62
(g78
g64
NtRp711
(dp712
g67
(dp713
sg76
g667
sg69
(lp714
g62
(g83
g64
NtRp715
(dp716
g67
(dp717
g87
g88
ssg76
g711
sg69
(lp718
g341
asbag62
(g83
g64
NtRp719
(dp720
g67
(dp721
g94
g95
ssg76
g711
sg69
(lp722
S':'
asbag62
(g83
g64
NtRp723
(dp724
g67
(dp725
sg76
g711
sg69
(lp726
g62
(g63
g64
NtRp727
(dp728
g67
(dp729
g75
I3
ssg76
g723
sg69
(lp730
S''
asbasbasbag62
(g78
g64
NtRp731
(dp732
g67
(dp733
sg76
g667
sg69
(lp734
g62
(g83
g64
NtRp735
(dp736
g67
(dp737
g87
g88
ssg76
g731
sg69
(lp738
g362
asbag62
(g83
g64
NtRp739
(dp740
g67
(dp741
g94
g95
ssg76
g731
sg69
(lp742
S':'
asbag62
(g83
g64
NtRp743
(dp744
g67
(dp745
sg76
g731
sg69
(lp746
g62
(g63
g64
NtRp747
(dp748
g67
(dp749
g75
I3
ssg76
g743
sg69
(lp750
S''
asbasbasbag62
(g78
g64
NtRp751
(dp752
g67
(dp753
sg76
g667
sg69
(lp754
g62
(g83
g64
NtRp755
(dp756
g67
(dp757
g87
g88
ssg76
g751
sg69
(lp758
g383
asbag62
(g83
g64
NtRp759
(dp760
g67
(dp761
g94
g95
ssg76
g751
sg69
(lp762
S':'
asbag62
(g83
g64
NtRp763
(dp764
g67
(dp765
sg76
g751
sg69
(lp766
g62
(g63
g64
NtRp767
(dp768
g67
(dp769
g75
I3
ssg76
g763
sg69
(lp770
S''
asbasbasbag62
(g78
g64
NtRp771
(dp772
g67
(dp773
sg76
g667
sg69
(lp774
g62
(g83
g64
NtRp775
(dp776
g67
(dp777
g87
g88
ssg76
g771
sg69
(lp778
g404
asbag62
(g83
g64
NtRp779
(dp780
g67
(dp781
g94
g95
ssg76
g771
sg69
(lp782
S':'
asbag62
(g83
g64
NtRp783
(dp784
g67
(dp785
sg76
g771
sg69
(lp786
g62
(g63
g64
NtRp787
(dp788
g67
(dp789
g75
I3
ssg76
g783
sg69
(lp790
S''
asbasbasbag62
(g78
g64
NtRp791
(dp792
g67
(dp793
sg76
g667
sg69
(lp794
g62
(g83
g64
NtRp795
(dp796
g67
(dp797
g87
g88
ssg76
g791
sg69
(lp798
g425
asbag62
(g83
g64
NtRp799
(dp800
g67
(dp801
g94
g95
ssg76
g791
sg69
(lp802
S':'
asbag62
(g83
g64
NtRp803
(dp804
g67
(dp805
sg76
g791
sg69
(lp806
g62
(g63
g64
NtRp807
(dp808
g67
(dp809
g75
I3
ssg76
g803
sg69
(lp810
S''
asbasbasbag62
(g78
g64
NtRp811
(dp812
g67
(dp813
sg76
g667
sg69
(lp814
g62
(g83
g64
NtRp815
(dp816
g67
(dp817
g87
g88
ssg76
g811
sg69
(lp818
g446
asbag62
(g83
g64
NtRp819
(dp820
g67
(dp821
g94
g95
ssg76
g811
sg69
(lp822
S':'
asbag62
(g83
g64
NtRp823
(dp824
g67
(dp825
sg76
g811
sg69
(lp826
g62
(g63
g64
NtRp827
(dp828
g67
(dp829
g75
I3
ssg76
g823
sg69
(lp830
S''
asbasbasbasbasbasbasbag62
(g78
g64
NtRp831
(dp832
g67
(dp833
sg76
g261
sg69
(lp834
g62
(g83
g64
NtRp835
(dp836
g67
(dp837
g87
g88
ssg76
g831
sg69
(lp838
S'session_id_wsd_tool'
p839
asbag62
(g83
g64
NtRp840
(dp841
g67
(dp842
g94
g95
ssg76
g831
sg69
(lp843
S':'
asbag62
(g83
g64
NtRp844
(dp845
g67
(dp846
sg76
g831
sg69
(lp847
g62
(g63
g64
NtRp848
(dp849
g67
(dp850
g75
I4
ssg76
g844
sg69
(lp851
S'127.0.0.1-48e345ac-6165-4891-9c6c-2f808a680f24'
p852
ag62
(g71
g64
NtRp853
(dp854
g67
(dp855
g75
I3
ssg76
Nsg69
(lp856
g62
(g78
g64
NtRp857
(dp858
g67
(dp859
sg76
g853
sg69
(lp860
g62
(g83
g64
NtRp861
(dp862
g67
(dp863
g87
g88
ssg76
g857
sg69
(lp864
g299
asbag62
(g83
g64
NtRp865
(dp866
g67
(dp867
g94
g95
ssg76
g857
sg69
(lp868
S':'
asbag62
(g83
g64
NtRp869
(dp870
g67
(dp871
sg76
g857
sg69
(lp872
g62
(g63
g64
NtRp873
(dp874
g67
(dp875
g75
I3
ssg76
g869
sg69
(lp876
S''
asbasbasbag62
(g78
g64
NtRp877
(dp878
g67
(dp879
sg76
g853
sg69
(lp880
g62
(g83
g64
NtRp881
(dp882
g67
(dp883
g87
g88
ssg76
g877
sg69
(lp884
g320
asbag62
(g83
g64
NtRp885
(dp886
g67
(dp887
g94
g95
ssg76
g877
sg69
(lp888
S':'
asbag62
(g83
g64
NtRp889
(dp890
g67
(dp891
sg76
g877
sg69
(lp892
g62
(g63
g64
NtRp893
(dp894
g67
(dp895
g75
I3
ssg76
g889
sg69
(lp896
S''
asbasbasbag62
(g78
g64
NtRp897
(dp898
g67
(dp899
sg76
g853
sg69
(lp900
g62
(g83
g64
NtRp901
(dp902
g67
(dp903
g87
g88
ssg76
g897
sg69
(lp904
g341
asbag62
(g83
g64
NtRp905
(dp906
g67
(dp907
g94
g95
ssg76
g897
sg69
(lp908
S':'
asbag62
(g83
g64
NtRp909
(dp910
g67
(dp911
sg76
g897
sg69
(lp912
g62
(g63
g64
NtRp913
(dp914
g67
(dp915
g75
I3
ssg76
g909
sg69
(lp916
S''
asbasbasbag62
(g78
g64
NtRp917
(dp918
g67
(dp919
sg76
g853
sg69
(lp920
g62
(g83
g64
NtRp921
(dp922
g67
(dp923
g87
g88
ssg76
g917
sg69
(lp924
g362
asbag62
(g83
g64
NtRp925
(dp926
g67
(dp927
g94
g95
ssg76
g917
sg69
(lp928
S':'
asbag62
(g83
g64
NtRp929
(dp930
g67
(dp931
sg76
g917
sg69
(lp932
g62
(g63
g64
NtRp933
(dp934
g67
(dp935
g75
I3
ssg76
g929
sg69
(lp936
S''
asbasbasbag62
(g78
g64
NtRp937
(dp938
g67
(dp939
sg76
g853
sg69
(lp940
g62
(g83
g64
NtRp941
(dp942
g67
(dp943
g87
g88
ssg76
g937
sg69
(lp944
g383
asbag62
(g83
g64
NtRp945
(dp946
g67
(dp947
g94
g95
ssg76
g937
sg69
(lp948
S':'
asbag62
(g83
g64
NtRp949
(dp950
g67
(dp951
sg76
g937
sg69
(lp952
g62
(g63
g64
NtRp953
(dp954
g67
(dp955
g75
I3
ssg76
g949
sg69
(lp956
S''
asbasbasbag62
(g78
g64
NtRp957
(dp958
g67
(dp959
sg76
g853
sg69
(lp960
g62
(g83
g64
NtRp961
(dp962
g67
(dp963
g87
g88
ssg76
g957
sg69
(lp964
g404
asbag62
(g83
g64
NtRp965
(dp966
g67
(dp967
g94
g95
ssg76
g957
sg69
(lp968
S':'
asbag62
(g83
g64
NtRp969
(dp970
g67
(dp971
sg76
g957
sg69
(lp972
g62
(g63
g64
NtRp973
(dp974
g67
(dp975
g75
I3
ssg76
g969
sg69
(lp976
S''
asbasbasbag62
(g78
g64
NtRp977
(dp978
g67
(dp979
sg76
g853
sg69
(lp980
g62
(g83
g64
NtRp981
(dp982
g67
(dp983
g87
g88
ssg76
g977
sg69
(lp984
g425
asbag62
(g83
g64
NtRp985
(dp986
g67
(dp987
g94
g95
ssg76
g977
sg69
(lp988
S':'
asbag62
(g83
g64
NtRp989
(dp990
g67
(dp991
sg76
g977
sg69
(lp992
g62
(g63
g64
NtRp993
(dp994
g67
(dp995
g75
I3
ssg76
g989
sg69
(lp996
S''
asbasbasbag62
(g78
g64
NtRp997
(dp998
g67
(dp999
sg76
g853
sg69
(lp1000
g62
(g83
g64
NtRp1001
(dp1002
g67
(dp1003
g87
g88
ssg76
g997
sg69
(lp1004
g446
asbag62
(g83
g64
NtRp1005
(dp1006
g67
(dp1007
g94
g95
ssg76
g997
sg69
(lp1008
S':'
asbag62
(g83
g64
NtRp1009
(dp1010
g67
(dp1011
sg76
g997
sg69
(lp1012
g62
(g63
g64
NtRp1013
(dp1014
g67
(dp1015
g75
I3
ssg76
g1009
sg69
(lp1016
S''
asbasbasbasbasbasbasbasbasbasbasbag62
(g78
g64
NtRp1017
(dp1018
g67
(dp1019
sg76
g72
sg69
(lp1020
g62
(g83
g64
NtRp1021
(dp1022
g67
(dp1023
g87
g88
ssg76
g1017
sg69
(lp1024
S'env'
p1025
asbag62
(g83
g64
NtRp1026
(dp1027
g67
(dp1028
g94
g95
ssg76
g1017
sg69
(lp1029
S':'
asbag62
(g83
g64
NtRp1030
(dp1031
g67
(dp1032
sg76
g1017
sg69
(lp1033
g62
(g63
g64
NtRp1034
(dp1035
g67
(dp1036
g75
I5
ssg76
g1030
sg69
(lp1037
g62
(g71
g64
NtRp1038
(dp1039
g67
(dp1040
g75
I4
ssg76
Nsg69
(lp1041
g62
(g78
g64
NtRp1042
(dp1043
g67
(dp1044
sg76
g1038
sg69
(lp1045
g62
(g83
g64
NtRp1046
(dp1047
g67
(dp1048
g87
g88
ssg76
g1042
sg69
(lp1049
S'app_folders'
p1050
asbag62
(g83
g64
NtRp1051
(dp1052
g67
(dp1053
g94
g95
ssg76
g1042
sg69
(lp1054
S':'
asbag62
(g83
g64
NtRp1055
(dp1056
g67
(dp1057
sg76
g1042
sg69
(lp1058
g62
(g63
g64
NtRp1059
(dp1060
g67
(dp1061
g75
I4
ssg76
g1055
sg69
(lp1062
S"set(['/home/nazrul/web2py/applications/welcome/', '/home/nazrul/web2py/applications/WSD_Tool/', '/home/nazrul/web2py/applications/admin/'])"
p1063
asbasbasbag62
(g78
g64
NtRp1064
(dp1065
g67
(dp1066
sg76
g1038
sg69
(lp1067
g62
(g83
g64
NtRp1068
(dp1069
g67
(dp1070
g87
g88
ssg76
g1064
sg69
(lp1071
S'applications_parent'
p1072
asbag62
(g83
g64
NtRp1073
(dp1074
g67
(dp1075
g94
g95
ssg76
g1064
sg69
(lp1076
S':'
asbag62
(g83
g64
NtRp1077
(dp1078
g67
(dp1079
sg76
g1064
sg69
(lp1080
g62
(g63
g64
NtRp1081
(dp1082
g67
(dp1083
g75
I4
ssg76
g1077
sg69
(lp1084
S'/home/nazrul/web2py'
p1085
asbasbasbag62
(g78
g64
NtRp1086
(dp1087
g67
(dp1088
sg76
g1038
sg69
(lp1089
g62
(g83
g64
NtRp1090
(dp1091
g67
(dp1092
g87
g88
ssg76
g1086
sg69
(lp1093
S'cmd_args'
p1094
asbag62
(g83
g64
NtRp1095
(dp1096
g67
(dp1097
g94
g95
ssg76
g1086
sg69
(lp1098
S':'
asbag62
(g83
g64
NtRp1099
(dp1100
g67
(dp1101
sg76
g1086
sg69
(lp1102
g62
(g63
g64
NtRp1103
(dp1104
g67
(dp1105
g75
I4
ssg76
g1099
sg69
(lp1106
g62
(g71
g64
NtRp1107
(dp1108
g67
(dp1109
g75
I3
ssg76
Nsg69
(lp1110
sbasbasbasbag62
(g78
g64
NtRp1111
(dp1112
g67
(dp1113
sg76
g1038
sg69
(lp1114
g62
(g83
g64
NtRp1115
(dp1116
g67
(dp1117
g87
g88
ssg76
g1111
sg69
(lp1118
S'cmd_options'
p1119
asbag62
(g83
g64
NtRp1120
(dp1121
g67
(dp1122
g94
g95
ssg76
g1111
sg69
(lp1123
S':'
asbag62
(g83
g64
NtRp1124
(dp1125
g67
(dp1126
sg76
g1111
sg69
(lp1127
g62
(g63
g64
NtRp1128
(dp1129
g67
(dp1130
g75
I4
ssg76
g1124
sg69
(lp1131
S"<Values at 0x9d0594c: {'verbose': False, 'ip': '127.0.0.1', 'with_scheduler': False, 'ips': [], 'shutdown_timeout': 5, 'taskbar': False, 'port': 8000, 'maxthreads': None, 'softcron': False, 'server_name': 'nazrul-Compaq-Presario-CQ40-Notebook-PC', 'bpython': False, 'nogui': False, 'pid_filename': 'httpserver.pid', 'extcron': False, 'runcron': False, 'run_system_tests': False, 'test': None, 'folder': '/home/nazrul/web2py', 'config': '', 'import_models': False, 'winservice': '', 'shell': None, 'run': '', 'log_filename': 'httpserver.log', 'debuglevel': 30, 'args': [''], 'socket_timeout': 5, 'ssl_ca_certificate': None, 'scheduler': None, 'profiler_filename': None, 'ssl_private_key': '', 'scheduler_groups': None, 'password': '<ask>', 'request_queue_size': 5, 'ssl_certificate': '', 'cronjob': False, 'numthreads': None, 'quiet': False, 'interfaces': None, 'minthreads': None, 'timeout': 10, 'plain': False, 'nobanner': False}>"
p1132
asbasbasbag62
(g78
g64
NtRp1133
(dp1134
g67
(dp1135
sg76
g1038
sg69
(lp1136
g62
(g83
g64
NtRp1137
(dp1138
g67
(dp1139
g87
g88
ssg76
g1133
sg69
(lp1140
S'db_sessions'
p1141
asbag62
(g83
g64
NtRp1142
(dp1143
g67
(dp1144
g94
g95
ssg76
g1133
sg69
(lp1145
S':'
asbag62
(g83
g64
NtRp1146
(dp1147
g67
(dp1148
sg76
g1133
sg69
(lp1149
g62
(g63
g64
NtRp1150
(dp1151
g67
(dp1152
g75
I4
ssg76
g1146
sg69
(lp1153
S'set([])'
p1154
asbasbasbag62
(g78
g64
NtRp1155
(dp1156
g67
(dp1157
sg76
g1038
sg69
(lp1158
g62
(g83
g64
NtRp1159
(dp1160
g67
(dp1161
g87
g88
ssg76
g1155
sg69
(lp1162
S'debugging'
p1163
asbag62
(g83
g64
NtRp1164
(dp1165
g67
(dp1166
g94
g95
ssg76
g1155
sg69
(lp1167
S':'
asbag62
(g83
g64
NtRp1168
(dp1169
g67
(dp1170
sg76
g1155
sg69
(lp1171
g62
(g63
g64
NtRp1172
(dp1173
g67
(dp1174
g75
I4
ssg76
g1168
sg69
(lp1175
g105
asbasbasbag62
(g78
g64
NtRp1176
(dp1177
g67
(dp1178
sg76
g1038
sg69
(lp1179
g62
(g83
g64
NtRp1180
(dp1181
g67
(dp1182
g87
g88
ssg76
g1176
sg69
(lp1183
S'gluon_parent'
p1184
asbag62
(g83
g64
NtRp1185
(dp1186
g67
(dp1187
g94
g95
ssg76
g1176
sg69
(lp1188
S':'
asbag62
(g83
g64
NtRp1189
(dp1190
g67
(dp1191
sg76
g1176
sg69
(lp1192
g62
(g63
g64
NtRp1193
(dp1194
g67
(dp1195
g75
I4
ssg76
g1189
sg69
(lp1196
S'/home/nazrul/web2py'
p1197
asbasbasbag62
(g78
g64
NtRp1198
(dp1199
g67
(dp1200
sg76
g1038
sg69
(lp1201
g62
(g83
g64
NtRp1202
(dp1203
g67
(dp1204
g87
g88
ssg76
g1198
sg69
(lp1205
S'http_accept'
p1206
asbag62
(g83
g64
NtRp1207
(dp1208
g67
(dp1209
g94
g95
ssg76
g1198
sg69
(lp1210
S':'
asbag62
(g83
g64
NtRp1211
(dp1212
g67
(dp1213
sg76
g1198
sg69
(lp1214
g62
(g63
g64
NtRp1215
(dp1216
g67
(dp1217
g75
I4
ssg76
g1211
sg69
(lp1218
S'text/html,application/xhtml+xml,application/xml;q=0.9,*/*;q=0.8'
p1219
asbasbasbag62
(g78
g64
NtRp1220
(dp1221
g67
(dp1222
sg76
g1038
sg69
(lp1223
g62
(g83
g64
NtRp1224
(dp1225
g67
(dp1226
g87
g88
ssg76
g1220
sg69
(lp1227
S'http_accept_encoding'
p1228
asbag62
(g83
g64
NtRp1229
(dp1230
g67
(dp1231
g94
g95
ssg76
g1220
sg69
(lp1232
S':'
asbag62
(g83
g64
NtRp1233
(dp1234
g67
(dp1235
sg76
g1220
sg69
(lp1236
g62
(g63
g64
NtRp1237
(dp1238
g67
(dp1239
g75
I4
ssg76
g1233
sg69
(lp1240
S'gzip, deflate'
p1241
asbasbasbag62
(g78
g64
NtRp1242
(dp1243
g67
(dp1244
sg76
g1038
sg69
(lp1245
g62
(g83
g64
NtRp1246
(dp1247
g67
(dp1248
g87
g88
ssg76
g1242
sg69
(lp1249
S'http_accept_language'
p1250
asbag62
(g83
g64
NtRp1251
(dp1252
g67
(dp1253
g94
g95
ssg76
g1242
sg69
(lp1254
S':'
asbag62
(g83
g64
NtRp1255
(dp1256
g67
(dp1257
sg76
g1242
sg69
(lp1258
g62
(g63
g64
NtRp1259
(dp1260
g67
(dp1261
g75
I4
ssg76
g1255
sg69
(lp1262
S'en-US,en;q=0.5'
p1263
asbasbasbag62
(g78
g64
NtRp1264
(dp1265
g67
(dp1266
sg76
g1038
sg69
(lp1267
g62
(g83
g64
NtRp1268
(dp1269
g67
(dp1270
g87
g88
ssg76
g1264
sg69
(lp1271
S'http_cache_control'
p1272
asbag62
(g83
g64
NtRp1273
(dp1274
g67
(dp1275
g94
g95
ssg76
g1264
sg69
(lp1276
S':'
asbag62
(g83
g64
NtRp1277
(dp1278
g67
(dp1279
sg76
g1264
sg69
(lp1280
g62
(g63
g64
NtRp1281
(dp1282
g67
(dp1283
g75
I4
ssg76
g1277
sg69
(lp1284
S'max-age=0'
p1285
asbasbasbag62
(g78
g64
NtRp1286
(dp1287
g67
(dp1288
sg76
g1038
sg69
(lp1289
g62
(g83
g64
NtRp1290
(dp1291
g67
(dp1292
g87
g88
ssg76
g1286
sg69
(lp1293
S'http_connection'
p1294
asbag62
(g83
g64
NtRp1295
(dp1296
g67
(dp1297
g94
g95
ssg76
g1286
sg69
(lp1298
S':'
asbag62
(g83
g64
NtRp1299
(dp1300
g67
(dp1301
sg76
g1286
sg69
(lp1302
g62
(g63
g64
NtRp1303
(dp1304
g67
(dp1305
g75
I4
ssg76
g1299
sg69
(lp1306
S'keep-alive'
p1307
asbasbasbag62
(g78
g64
NtRp1308
(dp1309
g67
(dp1310
sg76
g1038
sg69
(lp1311
g62
(g83
g64
NtRp1312
(dp1313
g67
(dp1314
g87
g88
ssg76
g1308
sg69
(lp1315
S'http_cookie'
p1316
asbag62
(g83
g64
NtRp1317
(dp1318
g67
(dp1319
g94
g95
ssg76
g1308
sg69
(lp1320
S':'
asbag62
(g83
g64
NtRp1321
(dp1322
g67
(dp1323
sg76
g1308
sg69
(lp1324
g62
(g63
g64
NtRp1325
(dp1326
g67
(dp1327
g75
I4
ssg76
g1321
sg69
(lp1328
S'KBD=0hi-0; session_id_welcome=127.0.0.1-06f86553-e457-41d4-b352-3cfbdebe071b; session_id_admin=127.0.0.1-c6702541-9908-41a0-b271-62a21bde1ba8; session_id_wsd_tool=127.0.0.1-48e345ac-6165-4891-9c6c-2f808a680f24'
p1329
asbasbasbag62
(g78
g64
NtRp1330
(dp1331
g67
(dp1332
sg76
g1038
sg69
(lp1333
g62
(g83
g64
NtRp1334
(dp1335
g67
(dp1336
g87
g88
ssg76
g1330
sg69
(lp1337
S'http_host'
p1338
asbag62
(g83
g64
NtRp1339
(dp1340
g67
(dp1341
g94
g95
ssg76
g1330
sg69
(lp1342
S':'
asbag62
(g83
g64
NtRp1343
(dp1344
g67
(dp1345
sg76
g1330
sg69
(lp1346
g62
(g63
g64
NtRp1347
(dp1348
g67
(dp1349
g75
I4
ssg76
g1343
sg69
(lp1350
S'127.0.0.1:8000'
p1351
asbasbasbag62
(g78
g64
NtRp1352
(dp1353
g67
(dp1354
sg76
g1038
sg69
(lp1355
g62
(g83
g64
NtRp1356
(dp1357
g67
(dp1358
g87
g88
ssg76
g1352
sg69
(lp1359
S'http_referer'
p1360
asbag62
(g83
g64
NtRp1361
(dp1362
g67
(dp1363
g94
g95
ssg76
g1352
sg69
(lp1364
S':'
asbag62
(g83
g64
NtRp1365
(dp1366
g67
(dp1367
sg76
g1352
sg69
(lp1368
g62
(g63
g64
NtRp1369
(dp1370
g67
(dp1371
g75
I4
ssg76
g1365
sg69
(lp1372
S'http://127.0.0.1:8000/WSD_Tool/default/reasonc?hindit=10'
p1373
asbasbasbag62
(g78
g64
NtRp1374
(dp1375
g67
(dp1376
sg76
g1038
sg69
(lp1377
g62
(g83
g64
NtRp1378
(dp1379
g67
(dp1380
g87
g88
ssg76
g1374
sg69
(lp1381
S'http_user_agent'
p1382
asbag62
(g83
g64
NtRp1383
(dp1384
g67
(dp1385
g94
g95
ssg76
g1374
sg69
(lp1386
S':'
asbag62
(g83
g64
NtRp1387
(dp1388
g67
(dp1389
sg76
g1374
sg69
(lp1390
g62
(g63
g64
NtRp1391
(dp1392
g67
(dp1393
g75
I4
ssg76
g1387
sg69
(lp1394
S'Mozilla/5.0 (X11; Ubuntu; Linux i686; rv:18.0) Gecko/20100101 Firefox/18.0'
p1395
asbasbasbag62
(g78
g64
NtRp1396
(dp1397
g67
(dp1398
sg76
g1038
sg69
(lp1399
g62
(g83
g64
NtRp1400
(dp1401
g67
(dp1402
g87
g88
ssg76
g1396
sg69
(lp1403
S'is_jython'
p1404
asbag62
(g83
g64
NtRp1405
(dp1406
g67
(dp1407
g94
g95
ssg76
g1396
sg69
(lp1408
S':'
asbag62
(g83
g64
NtRp1409
(dp1410
g67
(dp1411
sg76
g1396
sg69
(lp1412
g62
(g63
g64
NtRp1413
(dp1414
g67
(dp1415
g75
I4
ssg76
g1409
sg69
(lp1416
g105
asbasbasbag62
(g78
g64
NtRp1417
(dp1418
g67
(dp1419
sg76
g1038
sg69
(lp1420
g62
(g83
g64
NtRp1421
(dp1422
g67
(dp1423
g87
g88
ssg76
g1417
sg69
(lp1424
S'is_pypy'
p1425
asbag62
(g83
g64
NtRp1426
(dp1427
g67
(dp1428
g94
g95
ssg76
g1417
sg69
(lp1429
S':'
asbag62
(g83
g64
NtRp1430
(dp1431
g67
(dp1432
sg76
g1417
sg69
(lp1433
g62
(g63
g64
NtRp1434
(dp1435
g67
(dp1436
g75
I4
ssg76
g1430
sg69
(lp1437
g105
asbasbasbag62
(g78
g64
NtRp1438
(dp1439
g67
(dp1440
sg76
g1038
sg69
(lp1441
g62
(g83
g64
NtRp1442
(dp1443
g67
(dp1444
g87
g88
ssg76
g1438
sg69
(lp1445
S'local_hosts'
p1446
asbag62
(g83
g64
NtRp1447
(dp1448
g67
(dp1449
g94
g95
ssg76
g1438
sg69
(lp1450
S':'
asbag62
(g83
g64
NtRp1451
(dp1452
g67
(dp1453
sg76
g1438
sg69
(lp1454
g62
(g63
g64
NtRp1455
(dp1456
g67
(dp1457
g75
I4
ssg76
g1451
sg69
(lp1458
g62
(g71
g64
NtRp1459
(dp1460
g67
(dp1461
g75
I3
ssg76
Nsg69
(lp1462
g62
(g78
g64
NtRp1463
(dp1464
g67
(dp1465
sg76
g1459
sg69
(lp1466
g62
(g83
g64
NtRp1467
(dp1468
g67
(dp1469
sg76
g1463
sg69
(lp1470
g62
(g63
g64
NtRp1471
(dp1472
g67
(dp1473
g75
I3
ssg76
g1467
sg69
(lp1474
S'::1'
p1475
asbasbasbag62
(g78
g64
NtRp1476
(dp1477
g67
(dp1478
sg76
g1459
sg69
(lp1479
g62
(g83
g64
NtRp1480
(dp1481
g67
(dp1482
sg76
g1476
sg69
(lp1483
g62
(g63
g64
NtRp1484
(dp1485
g67
(dp1486
g75
I3
ssg76
g1480
sg69
(lp1487
S'127.0.1.1'
p1488
asbasbasbag62
(g78
g64
NtRp1489
(dp1490
g67
(dp1491
sg76
g1459
sg69
(lp1492
g62
(g83
g64
NtRp1493
(dp1494
g67
(dp1495
sg76
g1489
sg69
(lp1496
g62
(g63
g64
NtRp1497
(dp1498
g67
(dp1499
g75
I3
ssg76
g1493
sg69
(lp1500
S'::ffff:127.0.0.1'
p1501
asbasbasbag62
(g78
g64
NtRp1502
(dp1503
g67
(dp1504
sg76
g1459
sg69
(lp1505
g62
(g83
g64
NtRp1506
(dp1507
g67
(dp1508
sg76
g1502
sg69
(lp1509
g62
(g63
g64
NtRp1510
(dp1511
g67
(dp1512
g75
I3
ssg76
g1506
sg69
(lp1513
S'127.0.0.1'
p1514
asbasbasbag62
(g78
g64
NtRp1515
(dp1516
g67
(dp1517
sg76
g1459
sg69
(lp1518
g62
(g83
g64
NtRp1519
(dp1520
g67
(dp1521
sg76
g1515
sg69
(lp1522
g62
(g63
g64
NtRp1523
(dp1524
g67
(dp1525
g75
I3
ssg76
g1519
sg69
(lp1526
S'nazrul-Compaq-Presario-CQ40-Notebook-PC'
p1527
asbasbasbasbasbasbasbag62
(g78
g64
NtRp1528
(dp1529
g67
(dp1530
sg76
g1038
sg69
(lp1531
g62
(g83
g64
NtRp1532
(dp1533
g67
(dp1534
g87
g88
ssg76
g1528
sg69
(lp1535
S'path_info'
p1536
asbag62
(g83
g64
NtRp1537
(dp1538
g67
(dp1539
g94
g95
ssg76
g1528
sg69
(lp1540
S':'
asbag62
(g83
g64
NtRp1541
(dp1542
g67
(dp1543
sg76
g1528
sg69
(lp1544
g62
(g63
g64
NtRp1545
(dp1546
g67
(dp1547
g75
I4
ssg76
g1541
sg69
(lp1548
S'/WSD_Tool/default/rel'
p1549
asbasbasbag62
(g78
g64
NtRp1550
(dp1551
g67
(dp1552
sg76
g1038
sg69
(lp1553
g62
(g83
g64
NtRp1554
(dp1555
g67
(dp1556
g87
g88
ssg76
g1550
sg69
(lp1557
S'query_string'
p1558
asbag62
(g83
g64
NtRp1559
(dp1560
g67
(dp1561
g94
g95
ssg76
g1550
sg69
(lp1562
S':'
asbag62
(g83
g64
NtRp1563
(dp1564
g67
(dp1565
sg76
g1550
sg69
(lp1566
g62
(g63
g64
NtRp1567
(dp1568
g67
(dp1569
g75
I4
ssg76
g1563
sg69
(lp1570
S''
asbasbasbag62
(g78
g64
NtRp1571
(dp1572
g67
(dp1573
sg76
g1038
sg69
(lp1574
g62
(g83
g64
NtRp1575
(dp1576
g67
(dp1577
g87
g88
ssg76
g1571
sg69
(lp1578
S'remote_addr'
p1579
asbag62
(g83
g64
NtRp1580
(dp1581
g67
(dp1582
g94
g95
ssg76
g1571
sg69
(lp1583
S':'
asbag62
(g83
g64
NtRp1584
(dp1585
g67
(dp1586
sg76
g1571
sg69
(lp1587
g62
(g63
g64
NtRp1588
(dp1589
g67
(dp1590
g75
I4
ssg76
g1584
sg69
(lp1591
g217
asbasbasbag62
(g78
g64
NtRp1592
(dp1593
g67
(dp1594
sg76
g1038
sg69
(lp1595
g62
(g83
g64
NtRp1596
(dp1597
g67
(dp1598
g87
g88
ssg76
g1592
sg69
(lp1599
S'remote_port'
p1600
asbag62
(g83
g64
NtRp1601
(dp1602
g67
(dp1603
g94
g95
ssg76
g1592
sg69
(lp1604
S':'
asbag62
(g83
g64
NtRp1605
(dp1606
g67
(dp1607
sg76
g1592
sg69
(lp1608
g62
(g63
g64
NtRp1609
(dp1610
g67
(dp1611
g75
I4
ssg76
g1605
sg69
(lp1612
S'45486'
p1613
asbasbasbag62
(g78
g64
NtRp1614
(dp1615
g67
(dp1616
sg76
g1038
sg69
(lp1617
g62
(g83
g64
NtRp1618
(dp1619
g67
(dp1620
g87
g88
ssg76
g1614
sg69
(lp1621
S'request_method'
p1622
asbag62
(g83
g64
NtRp1623
(dp1624
g67
(dp1625
g94
g95
ssg76
g1614
sg69
(lp1626
S':'
asbag62
(g83
g64
NtRp1627
(dp1628
g67
(dp1629
sg76
g1614
sg69
(lp1630
g62
(g63
g64
NtRp1631
(dp1632
g67
(dp1633
g75
I4
ssg76
g1627
sg69
(lp1634
S'GET'
p1635
asbasbasbag62
(g78
g64
NtRp1636
(dp1637
g67
(dp1638
sg76
g1038
sg69
(lp1639
g62
(g83
g64
NtRp1640
(dp1641
g67
(dp1642
g87
g88
ssg76
g1636
sg69
(lp1643
S'request_uri'
p1644
asbag62
(g83
g64
NtRp1645
(dp1646
g67
(dp1647
g94
g95
ssg76
g1636
sg69
(lp1648
S':'
asbag62
(g83
g64
NtRp1649
(dp1650
g67
(dp1651
sg76
g1636
sg69
(lp1652
g62
(g63
g64
NtRp1653
(dp1654
g67
(dp1655
g75
I4
ssg76
g1649
sg69
(lp1656
g1549
asbasbasbag62
(g78
g64
NtRp1657
(dp1658
g67
(dp1659
sg76
g1038
sg69
(lp1660
g62
(g83
g64
NtRp1661
(dp1662
g67
(dp1663
g87
g88
ssg76
g1657
sg69
(lp1664
S'script_name'
p1665
asbag62
(g83
g64
NtRp1666
(dp1667
g67
(dp1668
g94
g95
ssg76
g1657
sg69
(lp1669
S':'
asbag62
(g83
g64
NtRp1670
(dp1671
g67
(dp1672
sg76
g1657
sg69
(lp1673
g62
(g63
g64
NtRp1674
(dp1675
g67
(dp1676
g75
I4
ssg76
g1670
sg69
(lp1677
S''
asbasbasbag62
(g78
g64
NtRp1678
(dp1679
g67
(dp1680
sg76
g1038
sg69
(lp1681
g62
(g83
g64
NtRp1682
(dp1683
g67
(dp1684
g87
g88
ssg76
g1678
sg69
(lp1685
S'server_name'
p1686
asbag62
(g83
g64
NtRp1687
(dp1688
g67
(dp1689
g94
g95
ssg76
g1678
sg69
(lp1690
S':'
asbag62
(g83
g64
NtRp1691
(dp1692
g67
(dp1693
sg76
g1678
sg69
(lp1694
g62
(g63
g64
NtRp1695
(dp1696
g67
(dp1697
g75
I4
ssg76
g1691
sg69
(lp1698
S'nazrul-Compaq-Presario-CQ40-Notebook-PC'
p1699
asbasbasbag62
(g78
g64
NtRp1700
(dp1701
g67
(dp1702
sg76
g1038
sg69
(lp1703
g62
(g83
g64
NtRp1704
(dp1705
g67
(dp1706
g87
g88
ssg76
g1700
sg69
(lp1707
S'server_port'
p1708
asbag62
(g83
g64
NtRp1709
(dp1710
g67
(dp1711
g94
g95
ssg76
g1700
sg69
(lp1712
S':'
asbag62
(g83
g64
NtRp1713
(dp1714
g67
(dp1715
sg76
g1700
sg69
(lp1716
g62
(g63
g64
NtRp1717
(dp1718
g67
(dp1719
g75
I4
ssg76
g1713
sg69
(lp1720
S'8000'
p1721
asbasbasbag62
(g78
g64
NtRp1722
(dp1723
g67
(dp1724
sg76
g1038
sg69
(lp1725
g62
(g83
g64
NtRp1726
(dp1727
g67
(dp1728
g87
g88
ssg76
g1722
sg69
(lp1729
S'server_protocol'
p1730
asbag62
(g83
g64
NtRp1731
(dp1732
g67
(dp1733
g94
g95
ssg76
g1722
sg69
(lp1734
S':'
asbag62
(g83
g64
NtRp1735
(dp1736
g67
(dp1737
sg76
g1722
sg69
(lp1738
g62
(g63
g64
NtRp1739
(dp1740
g67
(dp1741
g75
I4
ssg76
g1735
sg69
(lp1742
S'HTTP/1.1'
p1743
asbasbasbag62
(g78
g64
NtRp1744
(dp1745
g67
(dp1746
sg76
g1038
sg69
(lp1747
g62
(g83
g64
NtRp1748
(dp1749
g67
(dp1750
g87
g88
ssg76
g1744
sg69
(lp1751
S'server_software'
p1752
asbag62
(g83
g64
NtRp1753
(dp1754
g67
(dp1755
g94
g95
ssg76
g1744
sg69
(lp1756
S':'
asbag62
(g83
g64
NtRp1757
(dp1758
g67
(dp1759
sg76
g1744
sg69
(lp1760
g62
(g63
g64
NtRp1761
(dp1762
g67
(dp1763
g75
I4
ssg76
g1757
sg69
(lp1764
S'Rocket 1.2.6'
p1765
asbasbasbag62
(g78
g64
NtRp1766
(dp1767
g67
(dp1768
sg76
g1038
sg69
(lp1769
g62
(g83
g64
NtRp1770
(dp1771
g67
(dp1772
g87
g88
ssg76
g1766
sg69
(lp1773
S'web2py_path'
p1774
asbag62
(g83
g64
NtRp1775
(dp1776
g67
(dp1777
g94
g95
ssg76
g1766
sg69
(lp1778
S':'
asbag62
(g83
g64
NtRp1779
(dp1780
g67
(dp1781
sg76
g1766
sg69
(lp1782
g62
(g63
g64
NtRp1783
(dp1784
g67
(dp1785
g75
I4
ssg76
g1779
sg69
(lp1786
g1085
asbasbasbag62
(g78
g64
NtRp1787
(dp1788
g67
(dp1789
sg76
g1038
sg69
(lp1790
g62
(g83
g64
NtRp1791
(dp1792
g67
(dp1793
g87
g88
ssg76
g1787
sg69
(lp1794
S'web2py_version'
p1795
asbag62
(g83
g64
NtRp1796
(dp1797
g67
(dp1798
g94
g95
ssg76
g1787
sg69
(lp1799
S':'
asbag62
(g83
g64
NtRp1800
(dp1801
g67
(dp1802
sg76
g1787
sg69
(lp1803
g62
(g63
g64
NtRp1804
(dp1805
g67
(dp1806
g75
I4
ssg76
g1800
sg69
(lp1807
g62
(g71
g64
NtRp1808
(dp1809
g67
(dp1810
g75
I3
ssg76
Nsg69
(lp1811
g62
(g78
g64
NtRp1812
(dp1813
g67
(dp1814
sg76
g1808
sg69
(lp1815
g62
(g83
g64
NtRp1816
(dp1817
g67
(dp1818
sg76
g1812
sg69
(lp1819
g62
(g63
g64
NtRp1820
(dp1821
g67
(dp1822
g75
I3
ssg76
g1816
sg69
(lp1823
S'2'
asbasbasbag62
(g78
g64
NtRp1824
(dp1825
g67
(dp1826
sg76
g1808
sg69
(lp1827
g62
(g83
g64
NtRp1828
(dp1829
g67
(dp1830
sg76
g1824
sg69
(lp1831
g62
(g63
g64
NtRp1832
(dp1833
g67
(dp1834
g75
I3
ssg76
g1828
sg69
(lp1835
S'3'
asbasbasbag62
(g78
g64
NtRp1836
(dp1837
g67
(dp1838
sg76
g1808
sg69
(lp1839
g62
(g83
g64
NtRp1840
(dp1841
g67
(dp1842
sg76
g1836
sg69
(lp1843
g62
(g63
g64
NtRp1844
(dp1845
g67
(dp1846
g75
I3
ssg76
g1840
sg69
(lp1847
S'2'
asbasbasbag62
(g78
g64
NtRp1848
(dp1849
g67
(dp1850
sg76
g1808
sg69
(lp1851
g62
(g83
g64
NtRp1852
(dp1853
g67
(dp1854
sg76
g1848
sg69
(lp1855
g62
(g63
g64
NtRp1856
(dp1857
g67
(dp1858
g75
I3
ssg76
g1852
sg69
(lp1859
S'datetime.datetime(2012, 12, 17, 15, 3, 30)'
p1860
asbasbasbag62
(g78
g64
NtRp1861
(dp1862
g67
(dp1863
sg76
g1808
sg69
(lp1864
g62
(g83
g64
NtRp1865
(dp1866
g67
(dp1867
sg76
g1861
sg69
(lp1868
g62
(g63
g64
NtRp1869
(dp1870
g67
(dp1871
g75
I3
ssg76
g1865
sg69
(lp1872
S'stable'
p1873
asbasbasbasbasbasbasbag62
(g78
g64
NtRp1874
(dp1875
g67
(dp1876
sg76
g1038
sg69
(lp1877
g62
(g83
g64
NtRp1878
(dp1879
g67
(dp1880
g87
g88
ssg76
g1874
sg69
(lp1881
S'wsgi_errors'
p1882
asbag62
(g83
g64
NtRp1883
(dp1884
g67
(dp1885
g94
g95
ssg76
g1874
sg69
(lp1886
S':'
asbag62
(g83
g64
NtRp1887
(dp1888
g67
(dp1889
sg76
g1874
sg69
(lp1890
g62
(g63
g64
NtRp1891
(dp1892
g67
(dp1893
g75
I4
ssg76
g1887
sg69
(lp1894
S"<open file '<stderr>', mode 'w' at 0xb73040d0>"
p1895
asbasbasbag62
(g78
g64
NtRp1896
(dp1897
g67
(dp1898
sg76
g1038
sg69
(lp1899
g62
(g83
g64
NtRp1900
(dp1901
g67
(dp1902
g87
g88
ssg76
g1896
sg69
(lp1903
S'wsgi_file_wrapper'
p1904
asbag62
(g83
g64
NtRp1905
(dp1906
g67
(dp1907
g94
g95
ssg76
g1896
sg69
(lp1908
S':'
asbag62
(g83
g64
NtRp1909
(dp1910
g67
(dp1911
sg76
g1896
sg69
(lp1912
g62
(g63
g64
NtRp1913
(dp1914
g67
(dp1915
g75
I4
ssg76
g1909
sg69
(lp1916
S'<class wsgiref.util.FileWrapper at 0x9cc547c>'
p1917
asbasbasbag62
(g78
g64
NtRp1918
(dp1919
g67
(dp1920
sg76
g1038
sg69
(lp1921
g62
(g83
g64
NtRp1922
(dp1923
g67
(dp1924
g87
g88
ssg76
g1918
sg69
(lp1925
S'wsgi_input'
p1926
asbag62
(g83
g64
NtRp1927
(dp1928
g67
(dp1929
g94
g95
ssg76
g1918
sg69
(lp1930
S':'
asbag62
(g83
g64
NtRp1931
(dp1932
g67
(dp1933
sg76
g1918
sg69
(lp1934
g62
(g63
g64
NtRp1935
(dp1936
g67
(dp1937
g75
I4
ssg76
g1931
sg69
(lp1938
S'<socket._fileobject object at 0xae2828ec>'
p1939
asbasbasbag62
(g78
g64
NtRp1940
(dp1941
g67
(dp1942
sg76
g1038
sg69
(lp1943
g62
(g83
g64
NtRp1944
(dp1945
g67
(dp1946
g87
g88
ssg76
g1940
sg69
(lp1947
S'wsgi_multiprocess'
p1948
asbag62
(g83
g64
NtRp1949
(dp1950
g67
(dp1951
g94
g95
ssg76
g1940
sg69
(lp1952
S':'
asbag62
(g83
g64
NtRp1953
(dp1954
g67
(dp1955
sg76
g1940
sg69
(lp1956
g62
(g63
g64
NtRp1957
(dp1958
g67
(dp1959
g75
I4
ssg76
g1953
sg69
(lp1960
g105
asbasbasbag62
(g78
g64
NtRp1961
(dp1962
g67
(dp1963
sg76
g1038
sg69
(lp1964
g62
(g83
g64
NtRp1965
(dp1966
g67
(dp1967
g87
g88
ssg76
g1961
sg69
(lp1968
S'wsgi_multithread'
p1969
asbag62
(g83
g64
NtRp1970
(dp1971
g67
(dp1972
g94
g95
ssg76
g1961
sg69
(lp1973
S':'
asbag62
(g83
g64
NtRp1974
(dp1975
g67
(dp1976
sg76
g1961
sg69
(lp1977
g62
(g63
g64
NtRp1978
(dp1979
g67
(dp1980
g75
I4
ssg76
g1974
sg69
(lp1981
S'True'
p1982
asbasbasbag62
(g78
g64
NtRp1983
(dp1984
g67
(dp1985
sg76
g1038
sg69
(lp1986
g62
(g83
g64
NtRp1987
(dp1988
g67
(dp1989
g87
g88
ssg76
g1983
sg69
(lp1990
S'wsgi_run_once'
p1991
asbag62
(g83
g64
NtRp1992
(dp1993
g67
(dp1994
g94
g95
ssg76
g1983
sg69
(lp1995
S':'
asbag62
(g83
g64
NtRp1996
(dp1997
g67
(dp1998
sg76
g1983
sg69
(lp1999
g62
(g63
g64
NtRp2000
(dp2001
g67
(dp2002
g75
I4
ssg76
g1996
sg69
(lp2003
g105
asbasbasbag62
(g78
g64
NtRp2004
(dp2005
g67
(dp2006
sg76
g1038
sg69
(lp2007
g62
(g83
g64
NtRp2008
(dp2009
g67
(dp2010
g87
g88
ssg76
g2004
sg69
(lp2011
S'wsgi_url_scheme'
p2012
asbag62
(g83
g64
NtRp2013
(dp2014
g67
(dp2015
g94
g95
ssg76
g2004
sg69
(lp2016
S':'
asbag62
(g83
g64
NtRp2017
(dp2018
g67
(dp2019
sg76
g2004
sg69
(lp2020
g62
(g63
g64
NtRp2021
(dp2022
g67
(dp2023
g75
I4
ssg76
g2017
sg69
(lp2024
S'http'
p2025
asbasbasbag62
(g78
g64
NtRp2026
(dp2027
g67
(dp2028
sg76
g1038
sg69
(lp2029
g62
(g83
g64
NtRp2030
(dp2031
g67
(dp2032
g87
g88
ssg76
g2026
sg69
(lp2033
S'wsgi_version'
p2034
asbag62
(g83
g64
NtRp2035
(dp2036
g67
(dp2037
g94
g95
ssg76
g2026
sg69
(lp2038
S':'
asbag62
(g83
g64
NtRp2039
(dp2040
g67
(dp2041
sg76
g2026
sg69
(lp2042
g62
(g63
g64
NtRp2043
(dp2044
g67
(dp2045
g75
I4
ssg76
g2039
sg69
(lp2046
g62
(g71
g64
NtRp2047
(dp2048
g67
(dp2049
g75
I3
ssg76
Nsg69
(lp2050
g62
(g78
g64
NtRp2051
(dp2052
g67
(dp2053
sg76
g2047
sg69
(lp2054
g62
(g83
g64
NtRp2055
(dp2056
g67
(dp2057
sg76
g2051
sg69
(lp2058
g62
(g63
g64
NtRp2059
(dp2060
g67
(dp2061
g75
I3
ssg76
g2055
sg69
(lp2062
S'1'
asbasbasbag62
(g78
g64
NtRp2063
(dp2064
g67
(dp2065
sg76
g2047
sg69
(lp2066
g62
(g83
g64
NtRp2067
(dp2068
g67
(dp2069
sg76
g2063
sg69
(lp2070
g62
(g63
g64
NtRp2071
(dp2072
g67
(dp2073
g75
I3
ssg76
g2067
sg69
(lp2074
S'0'
asbasbasbasbasbasbasbasbasbasbasbag62
(g78
g64
NtRp2075
(dp2076
g67
(dp2077
sg76
g72
sg69
(lp2078
g62
(g83
g64
NtRp2079
(dp2080
g67
(dp2081
g87
g88
ssg76
g2075
sg69
(lp2082
S'extension'
p2083
asbag62
(g83
g64
NtRp2084
(dp2085
g67
(dp2086
g94
g95
ssg76
g2075
sg69
(lp2087
S':'
asbag62
(g83
g64
NtRp2088
(dp2089
g67
(dp2090
sg76
g2075
sg69
(lp2091
g62
(g63
g64
NtRp2092
(dp2093
g67
(dp2094
g75
I5
ssg76
g2088
sg69
(lp2095
S'html'
p2096
asbasbasbag62
(g78
g64
NtRp2097
(dp2098
g67
(dp2099
sg76
g72
sg69
(lp2100
g62
(g83
g64
NtRp2101
(dp2102
g67
(dp2103
g87
g88
ssg76
g2097
sg69
(lp2104
S'folder'
p2105
asbag62
(g83
g64
NtRp2106
(dp2107
g67
(dp2108
g94
g95
ssg76
g2097
sg69
(lp2109
S':'
asbag62
(g83
g64
NtRp2110
(dp2111
g67
(dp2112
sg76
g2097
sg69
(lp2113
g62
(g63
g64
NtRp2114
(dp2115
g67
(dp2116
g75
I5
ssg76
g2110
sg69
(lp2117
S'/home/nazrul/web2py/applications/WSD_Tool/'
p2118
asbasbasbag62
(g78
g64
NtRp2119
(dp2120
g67
(dp2121
sg76
g72
sg69
(lp2122
g62
(g83
g64
NtRp2123
(dp2124
g67
(dp2125
g87
g88
ssg76
g2119
sg69
(lp2126
S'function'
p2127
asbag62
(g83
g64
NtRp2128
(dp2129
g67
(dp2130
g94
g95
ssg76
g2119
sg69
(lp2131
S':'
asbag62
(g83
g64
NtRp2132
(dp2133
g67
(dp2134
sg76
g2119
sg69
(lp2135
g62
(g63
g64
NtRp2136
(dp2137
g67
(dp2138
g75
I5
ssg76
g2132
sg69
(lp2139
S'rel'
p2140
asbasbasbag62
(g78
g64
NtRp2141
(dp2142
g67
(dp2143
sg76
g72
sg69
(lp2144
g62
(g83
g64
NtRp2145
(dp2146
g67
(dp2147
g87
g88
ssg76
g2141
sg69
(lp2148
S'get_vars'
p2149
asbag62
(g83
g64
NtRp2150
(dp2151
g67
(dp2152
g94
g95
ssg76
g2141
sg69
(lp2153
S':'
asbag62
(g83
g64
NtRp2154
(dp2155
g67
(dp2156
sg76
g2141
sg69
(lp2157
g62
(g63
g64
NtRp2158
(dp2159
g67
(dp2160
g75
I5
ssg76
g2154
sg69
(lp2161
g62
(g71
g64
NtRp2162
(dp2163
g67
(dp2164
g75
I4
ssg76
Nsg69
(lp2165
sbasbasbasbag62
(g78
g64
NtRp2166
(dp2167
g67
(dp2168
sg76
g72
sg69
(lp2169
g62
(g83
g64
NtRp2170
(dp2171
g67
(dp2172
g87
g88
ssg76
g2166
sg69
(lp2173
S'global_settings'
p2174
asbag62
(g83
g64
NtRp2175
(dp2176
g67
(dp2177
g94
g95
ssg76
g2166
sg69
(lp2178
S':'
asbag62
(g83
g64
NtRp2179
(dp2180
g67
(dp2181
sg76
g2166
sg69
(lp2182
g62
(g63
g64
NtRp2183
(dp2184
g67
(dp2185
g75
I5
ssg76
g2179
sg69
(lp2186
g62
(g71
g64
NtRp2187
(dp2188
g67
(dp2189
g75
I4
ssg76
Nsg69
(lp2190
g62
(g78
g64
NtRp2191
(dp2192
g67
(dp2193
sg76
g2187
sg69
(lp2194
g62
(g83
g64
NtRp2195
(dp2196
g67
(dp2197
g87
g88
ssg76
g2191
sg69
(lp2198
g1050
asbag62
(g83
g64
NtRp2199
(dp2200
g67
(dp2201
g94
g95
ssg76
g2191
sg69
(lp2202
S':'
asbag62
(g83
g64
NtRp2203
(dp2204
g67
(dp2205
sg76
g2191
sg69
(lp2206
g62
(g63
g64
NtRp2207
(dp2208
g67
(dp2209
g75
I4
ssg76
g2203
sg69
(lp2210
S"set(['/home/nazrul/web2py/applications/welcome/', '/home/nazrul/web2py/applications/WSD_Tool/', '/home/nazrul/web2py/applications/admin/'])"
p2211
asbasbasbag62
(g78
g64
NtRp2212
(dp2213
g67
(dp2214
sg76
g2187
sg69
(lp2215
g62
(g83
g64
NtRp2216
(dp2217
g67
(dp2218
g87
g88
ssg76
g2212
sg69
(lp2219
g1072
asbag62
(g83
g64
NtRp2220
(dp2221
g67
(dp2222
g94
g95
ssg76
g2212
sg69
(lp2223
S':'
asbag62
(g83
g64
NtRp2224
(dp2225
g67
(dp2226
sg76
g2212
sg69
(lp2227
g62
(g63
g64
NtRp2228
(dp2229
g67
(dp2230
g75
I4
ssg76
g2224
sg69
(lp2231
g1085
asbasbasbag62
(g78
g64
NtRp2232
(dp2233
g67
(dp2234
sg76
g2187
sg69
(lp2235
g62
(g83
g64
NtRp2236
(dp2237
g67
(dp2238
g87
g88
ssg76
g2232
sg69
(lp2239
g1094
asbag62
(g83
g64
NtRp2240
(dp2241
g67
(dp2242
g94
g95
ssg76
g2232
sg69
(lp2243
S':'
asbag62
(g83
g64
NtRp2244
(dp2245
g67
(dp2246
sg76
g2232
sg69
(lp2247
g62
(g63
g64
NtRp2248
(dp2249
g67
(dp2250
g75
I4
ssg76
g2244
sg69
(lp2251
g62
(g71
g64
NtRp2252
(dp2253
g67
(dp2254
g75
I3
ssg76
Nsg69
(lp2255
sbasbasbasbag62
(g78
g64
NtRp2256
(dp2257
g67
(dp2258
sg76
g2187
sg69
(lp2259
g62
(g83
g64
NtRp2260
(dp2261
g67
(dp2262
g87
g88
ssg76
g2256
sg69
(lp2263
g1119
asbag62
(g83
g64
NtRp2264
(dp2265
g67
(dp2266
g94
g95
ssg76
g2256
sg69
(lp2267
S':'
asbag62
(g83
g64
NtRp2268
(dp2269
g67
(dp2270
sg76
g2256
sg69
(lp2271
g62
(g63
g64
NtRp2272
(dp2273
g67
(dp2274
g75
I4
ssg76
g2268
sg69
(lp2275
S"<Values at 0x9d0594c: {'verbose': False, 'ip': '127.0.0.1', 'with_scheduler': False, 'ips': [], 'shutdown_timeout': 5, 'taskbar': False, 'port': 8000, 'maxthreads': None, 'softcron': False, 'server_name': 'nazrul-Compaq-Presario-CQ40-Notebook-PC', 'bpython': False, 'nogui': False, 'pid_filename': 'httpserver.pid', 'extcron': False, 'runcron': False, 'run_system_tests': False, 'test': None, 'folder': '/home/nazrul/web2py', 'config': '', 'import_models': False, 'winservice': '', 'shell': None, 'run': '', 'log_filename': 'httpserver.log', 'debuglevel': 30, 'args': [''], 'socket_timeout': 5, 'ssl_ca_certificate': None, 'scheduler': None, 'profiler_filename': None, 'ssl_private_key': '', 'scheduler_groups': None, 'password': '<ask>', 'request_queue_size': 5, 'ssl_certificate': '', 'cronjob': False, 'numthreads': None, 'quiet': False, 'interfaces': None, 'minthreads': None, 'timeout': 10, 'plain': False, 'nobanner': False}>"
p2276
asbasbasbag62
(g78
g64
NtRp2277
(dp2278
g67
(dp2279
sg76
g2187
sg69
(lp2280
g62
(g83
g64
NtRp2281
(dp2282
g67
(dp2283
g87
g88
ssg76
g2277
sg69
(lp2284
g1141
asbag62
(g83
g64
NtRp2285
(dp2286
g67
(dp2287
g94
g95
ssg76
g2277
sg69
(lp2288
S':'
asbag62
(g83
g64
NtRp2289
(dp2290
g67
(dp2291
sg76
g2277
sg69
(lp2292
g62
(g63
g64
NtRp2293
(dp2294
g67
(dp2295
g75
I4
ssg76
g2289
sg69
(lp2296
S'set([])'
p2297
asbasbasbag62
(g78
g64
NtRp2298
(dp2299
g67
(dp2300
sg76
g2187
sg69
(lp2301
g62
(g83
g64
NtRp2302
(dp2303
g67
(dp2304
g87
g88
ssg76
g2298
sg69
(lp2305
g1163
asbag62
(g83
g64
NtRp2306
(dp2307
g67
(dp2308
g94
g95
ssg76
g2298
sg69
(lp2309
S':'
asbag62
(g83
g64
NtRp2310
(dp2311
g67
(dp2312
sg76
g2298
sg69
(lp2313
g62
(g63
g64
NtRp2314
(dp2315
g67
(dp2316
g75
I4
ssg76
g2310
sg69
(lp2317
g105
asbasbasbag62
(g78
g64
NtRp2318
(dp2319
g67
(dp2320
sg76
g2187
sg69
(lp2321
g62
(g83
g64
NtRp2322
(dp2323
g67
(dp2324
g87
g88
ssg76
g2318
sg69
(lp2325
g1184
asbag62
(g83
g64
NtRp2326
(dp2327
g67
(dp2328
g94
g95
ssg76
g2318
sg69
(lp2329
S':'
asbag62
(g83
g64
NtRp2330
(dp2331
g67
(dp2332
sg76
g2318
sg69
(lp2333
g62
(g63
g64
NtRp2334
(dp2335
g67
(dp2336
g75
I4
ssg76
g2330
sg69
(lp2337
g1197
asbasbasbag62
(g78
g64
NtRp2338
(dp2339
g67
(dp2340
sg76
g2187
sg69
(lp2341
g62
(g83
g64
NtRp2342
(dp2343
g67
(dp2344
g87
g88
ssg76
g2338
sg69
(lp2345
g1404
asbag62
(g83
g64
NtRp2346
(dp2347
g67
(dp2348
g94
g95
ssg76
g2338
sg69
(lp2349
S':'
asbag62
(g83
g64
NtRp2350
(dp2351
g67
(dp2352
sg76
g2338
sg69
(lp2353
g62
(g63
g64
NtRp2354
(dp2355
g67
(dp2356
g75
I4
ssg76
g2350
sg69
(lp2357
g105
asbasbasbag62
(g78
g64
NtRp2358
(dp2359
g67
(dp2360
sg76
g2187
sg69
(lp2361
g62
(g83
g64
NtRp2362
(dp2363
g67
(dp2364
g87
g88
ssg76
g2358
sg69
(lp2365
g1425
asbag62
(g83
g64
NtRp2366
(dp2367
g67
(dp2368
g94
g95
ssg76
g2358
sg69
(lp2369
S':'
asbag62
(g83
g64
NtRp2370
(dp2371
g67
(dp2372
sg76
g2358
sg69
(lp2373
g62
(g63
g64
NtRp2374
(dp2375
g67
(dp2376
g75
I4
ssg76
g2370
sg69
(lp2377
g105
asbasbasbag62
(g78
g64
NtRp2378
(dp2379
g67
(dp2380
sg76
g2187
sg69
(lp2381
g62
(g83
g64
NtRp2382
(dp2383
g67
(dp2384
g87
g88
ssg76
g2378
sg69
(lp2385
g1446
asbag62
(g83
g64
NtRp2386
(dp2387
g67
(dp2388
g94
g95
ssg76
g2378
sg69
(lp2389
S':'
asbag62
(g83
g64
NtRp2390
(dp2391
g67
(dp2392
sg76
g2378
sg69
(lp2393
g62
(g63
g64
NtRp2394
(dp2395
g67
(dp2396
g75
I4
ssg76
g2390
sg69
(lp2397
g62
(g71
g64
NtRp2398
(dp2399
g67
(dp2400
g75
I3
ssg76
Nsg69
(lp2401
g62
(g78
g64
NtRp2402
(dp2403
g67
(dp2404
sg76
g2398
sg69
(lp2405
g62
(g83
g64
NtRp2406
(dp2407
g67
(dp2408
sg76
g2402
sg69
(lp2409
g62
(g63
g64
NtRp2410
(dp2411
g67
(dp2412
g75
I3
ssg76
g2406
sg69
(lp2413
g1475
asbasbasbag62
(g78
g64
NtRp2414
(dp2415
g67
(dp2416
sg76
g2398
sg69
(lp2417
g62
(g83
g64
NtRp2418
(dp2419
g67
(dp2420
sg76
g2414
sg69
(lp2421
g62
(g63
g64
NtRp2422
(dp2423
g67
(dp2424
g75
I3
ssg76
g2418
sg69
(lp2425
g1488
asbasbasbag62
(g78
g64
NtRp2426
(dp2427
g67
(dp2428
sg76
g2398
sg69
(lp2429
g62
(g83
g64
NtRp2430
(dp2431
g67
(dp2432
sg76
g2426
sg69
(lp2433
g62
(g63
g64
NtRp2434
(dp2435
g67
(dp2436
g75
I3
ssg76
g2430
sg69
(lp2437
g1501
asbasbasbag62
(g78
g64
NtRp2438
(dp2439
g67
(dp2440
sg76
g2398
sg69
(lp2441
g62
(g83
g64
NtRp2442
(dp2443
g67
(dp2444
sg76
g2438
sg69
(lp2445
g62
(g63
g64
NtRp2446
(dp2447
g67
(dp2448
g75
I3
ssg76
g2442
sg69
(lp2449
g1514
asbasbasbag62
(g78
g64
NtRp2450
(dp2451
g67
(dp2452
sg76
g2398
sg69
(lp2453
g62
(g83
g64
NtRp2454
(dp2455
g67
(dp2456
sg76
g2450
sg69
(lp2457
g62
(g63
g64
NtRp2458
(dp2459
g67
(dp2460
g75
I3
ssg76
g2454
sg69
(lp2461
g1527
asbasbasbasbasbasbasbag62
(g78
g64
NtRp2462
(dp2463
g67
(dp2464
sg76
g2187
sg69
(lp2465
g62
(g83
g64
NtRp2466
(dp2467
g67
(dp2468
g87
g88
ssg76
g2462
sg69
(lp2469
g1795
asbag62
(g83
g64
NtRp2470
(dp2471
g67
(dp2472
g94
g95
ssg76
g2462
sg69
(lp2473
S':'
asbag62
(g83
g64
NtRp2474
(dp2475
g67
(dp2476
sg76
g2462
sg69
(lp2477
g62
(g63
g64
NtRp2478
(dp2479
g67
(dp2480
g75
I4
ssg76
g2474
sg69
(lp2481
g62
(g71
g64
NtRp2482
(dp2483
g67
(dp2484
g75
I3
ssg76
Nsg69
(lp2485
g62
(g78
g64
NtRp2486
(dp2487
g67
(dp2488
sg76
g2482
sg69
(lp2489
g62
(g83
g64
NtRp2490
(dp2491
g67
(dp2492
sg76
g2486
sg69
(lp2493
g62
(g63
g64
NtRp2494
(dp2495
g67
(dp2496
g75
I3
ssg76
g2490
sg69
(lp2497
S'2'
asbasbasbag62
(g78
g64
NtRp2498
(dp2499
g67
(dp2500
sg76
g2482
sg69
(lp2501
g62
(g83
g64
NtRp2502
(dp2503
g67
(dp2504
sg76
g2498
sg69
(lp2505
g62
(g63
g64
NtRp2506
(dp2507
g67
(dp2508
g75
I3
ssg76
g2502
sg69
(lp2509
S'3'
asbasbasbag62
(g78
g64
NtRp2510
(dp2511
g67
(dp2512
sg76
g2482
sg69
(lp2513
g62
(g83
g64
NtRp2514
(dp2515
g67
(dp2516
sg76
g2510
sg69
(lp2517
g62
(g63
g64
NtRp2518
(dp2519
g67
(dp2520
g75
I3
ssg76
g2514
sg69
(lp2521
S'2'
asbasbasbag62
(g78
g64
NtRp2522
(dp2523
g67
(dp2524
sg76
g2482
sg69
(lp2525
g62
(g83
g64
NtRp2526
(dp2527
g67
(dp2528
sg76
g2522
sg69
(lp2529
g62
(g63
g64
NtRp2530
(dp2531
g67
(dp2532
g75
I3
ssg76
g2526
sg69
(lp2533
S'datetime.datetime(2012, 12, 17, 15, 3, 30)'
p2534
asbasbasbag62
(g78
g64
NtRp2535
(dp2536
g67
(dp2537
sg76
g2482
sg69
(lp2538
g62
(g83
g64
NtRp2539
(dp2540
g67
(dp2541
sg76
g2535
sg69
(lp2542
g62
(g63
g64
NtRp2543
(dp2544
g67
(dp2545
g75
I3
ssg76
g2539
sg69
(lp2546
g1873
asbasbasbasbasbasbasbasbasbasbasbag62
(g78
g64
NtRp2547
(dp2548
g67
(dp2549
sg76
g72
sg69
(lp2550
g62
(g83
g64
NtRp2551
(dp2552
g67
(dp2553
g87
g88
ssg76
g2547
sg69
(lp2554
S'is_https'
p2555
asbag62
(g83
g64
NtRp2556
(dp2557
g67
(dp2558
g94
g95
ssg76
g2547
sg69
(lp2559
S':'
asbag62
(g83
g64
NtRp2560
(dp2561
g67
(dp2562
sg76
g2547
sg69
(lp2563
g62
(g63
g64
NtRp2564
(dp2565
g67
(dp2566
g75
I5
ssg76
g2560
sg69
(lp2567
g105
asbasbasbag62
(g78
g64
NtRp2568
(dp2569
g67
(dp2570
sg76
g72
sg69
(lp2571
g62
(g83
g64
NtRp2572
(dp2573
g67
(dp2574
g87
g88
ssg76
g2568
sg69
(lp2575
S'is_local'
p2576
asbag62
(g83
g64
NtRp2577
(dp2578
g67
(dp2579
g94
g95
ssg76
g2568
sg69
(lp2580
S':'
asbag62
(g83
g64
NtRp2581
(dp2582
g67
(dp2583
sg76
g2568
sg69
(lp2584
g62
(g63
g64
NtRp2585
(dp2586
g67
(dp2587
g75
I5
ssg76
g2581
sg69
(lp2588
g1982
asbasbasbag62
(g78
g64
NtRp2589
(dp2590
g67
(dp2591
sg76
g72
sg69
(lp2592
g62
(g83
g64
NtRp2593
(dp2594
g67
(dp2595
g87
g88
ssg76
g2589
sg69
(lp2596
S'is_restful'
p2597
asbag62
(g83
g64
NtRp2598
(dp2599
g67
(dp2600
g94
g95
ssg76
g2589
sg69
(lp2601
S':'
asbag62
(g83
g64
NtRp2602
(dp2603
g67
(dp2604
sg76
g2589
sg69
(lp2605
g62
(g63
g64
NtRp2606
(dp2607
g67
(dp2608
g75
I5
ssg76
g2602
sg69
(lp2609
g105
asbasbasbag62
(g78
g64
NtRp2610
(dp2611
g67
(dp2612
sg76
g72
sg69
(lp2613
g62
(g83
g64
NtRp2614
(dp2615
g67
(dp2616
g87
g88
ssg76
g2610
sg69
(lp2617
S'now'
p2618
asbag62
(g83
g64
NtRp2619
(dp2620
g67
(dp2621
g94
g95
ssg76
g2610
sg69
(lp2622
S':'
asbag62
(g83
g64
NtRp2623
(dp2624
g67
(dp2625
sg76
g2610
sg69
(lp2626
g62
(g63
g64
NtRp2627
(dp2628
g67
(dp2629
g75
I5
ssg76
g2623
sg69
(lp2630
S'datetime.datetime(2013, 11, 13, 0, 16, 45, 681106)'
p2631
asbasbasbag62
(g78
g64
NtRp2632
(dp2633
g67
(dp2634
sg76
g72
sg69
(lp2635
g62
(g83
g64
NtRp2636
(dp2637
g67
(dp2638
g87
g88
ssg76
g2632
sg69
(lp2639
S'post_vars'
p2640
asbag62
(g83
g64
NtRp2641
(dp2642
g67
(dp2643
g94
g95
ssg76
g2632
sg69
(lp2644
S':'
asbag62
(g83
g64
NtRp2645
(dp2646
g67
(dp2647
sg76
g2632
sg69
(lp2648
g62
(g63
g64
NtRp2649
(dp2650
g67
(dp2651
g75
I5
ssg76
g2645
sg69
(lp2652
g62
(g71
g64
NtRp2653
(dp2654
g67
(dp2655
g75
I4
ssg76
Nsg69
(lp2656
sbasbasbasbag62
(g78
g64
NtRp2657
(dp2658
g67
(dp2659
sg76
g72
sg69
(lp2660
g62
(g83
g64
NtRp2661
(dp2662
g67
(dp2663
g87
g88
ssg76
g2657
sg69
(lp2664
S'raw_args'
p2665
asbag62
(g83
g64
NtRp2666
(dp2667
g67
(dp2668
g94
g95
ssg76
g2657
sg69
(lp2669
S':'
asbag62
(g83
g64
NtRp2670
(dp2671
g67
(dp2672
sg76
g2657
sg69
(lp2673
g62
(g63
g64
NtRp2674
(dp2675
g67
(dp2676
g75
I5
ssg76
g2670
sg69
(lp2677
S''
asbasbasbag62
(g78
g64
NtRp2678
(dp2679
g67
(dp2680
sg76
g72
sg69
(lp2681
g62
(g83
g64
NtRp2682
(dp2683
g67
(dp2684
g87
g88
ssg76
g2678
sg69
(lp2685
S'raw_extension'
p2686
asbag62
(g83
g64
NtRp2687
(dp2688
g67
(dp2689
g94
g95
ssg76
g2678
sg69
(lp2690
S':'
asbag62
(g83
g64
NtRp2691
(dp2692
g67
(dp2693
sg76
g2678
sg69
(lp2694
g62
(g63
g64
NtRp2695
(dp2696
g67
(dp2697
g75
I5
ssg76
g2691
sg69
(lp2698
S'None'
p2699
asbasbasbag62
(g78
g64
NtRp2700
(dp2701
g67
(dp2702
sg76
g72
sg69
(lp2703
g62
(g83
g64
NtRp2704
(dp2705
g67
(dp2706
g87
g88
ssg76
g2700
sg69
(lp2707
S'url'
p2708
asbag62
(g83
g64
NtRp2709
(dp2710
g67
(dp2711
g94
g95
ssg76
g2700
sg69
(lp2712
S':'
asbag62
(g83
g64
NtRp2713
(dp2714
g67
(dp2715
sg76
g2700
sg69
(lp2716
g62
(g63
g64
NtRp2717
(dp2718
g67
(dp2719
g75
I5
ssg76
g2713
sg69
(lp2720
g1549
asbasbasbag62
(g78
g64
NtRp2721
(dp2722
g67
(dp2723
sg76
g72
sg69
(lp2724
g62
(g83
g64
NtRp2725
(dp2726
g67
(dp2727
g87
g88
ssg76
g2721
sg69
(lp2728
S'utcnow'
p2729
asbag62
(g83
g64
NtRp2730
(dp2731
g67
(dp2732
g94
g95
ssg76
g2721
sg69
(lp2733
S':'
asbag62
(g83
g64
NtRp2734
(dp2735
g67
(dp2736
sg76
g2721
sg69
(lp2737
g62
(g63
g64
NtRp2738
(dp2739
g67
(dp2740
g75
I5
ssg76
g2734
sg69
(lp2741
S'datetime.datetime(2013, 11, 12, 18, 46, 45, 681151)'
p2742
asbasbasbag62
(g78
g64
NtRp2743
(dp2744
g67
(dp2745
sg76
g72
sg69
(lp2746
g62
(g83
g64
NtRp2747
(dp2748
g67
(dp2749
g87
g88
ssg76
g2743
sg69
(lp2750
S'uuid'
p2751
asbag62
(g83
g64
NtRp2752
(dp2753
g67
(dp2754
g94
g95
ssg76
g2743
sg69
(lp2755
S':'
asbag62
(g83
g64
NtRp2756
(dp2757
g67
(dp2758
sg76
g2743
sg69
(lp2759
g62
(g63
g64
NtRp2760
(dp2761
g67
(dp2762
g75
I5
ssg76
g2756
sg69
(lp2763
S'WSD_Tool/127.0.0.1.2013-11-13.00-16-45.59fc7d85-e27b-4213-8777-39d360797fb5'
p2764
asbasbasbag62
(g78
g64
NtRp2765
(dp2766
g67
(dp2767
sg76
g72
sg69
(lp2768
g62
(g83
g64
NtRp2769
(dp2770
g67
(dp2771
g87
g88
ssg76
g2765
sg69
(lp2772
S'vars'
p2773
asbag62
(g83
g64
NtRp2774
(dp2775
g67
(dp2776
g94
g95
ssg76
g2765
sg69
(lp2777
S':'
asbag62
(g83
g64
NtRp2778
(dp2779
g67
(dp2780
sg76
g2765
sg69
(lp2781
g62
(g63
g64
NtRp2782
(dp2783
g67
(dp2784
g75
I5
ssg76
g2778
sg69
(lp2785
g62
(g71
g64
NtRp2786
(dp2787
g67
(dp2788
g75
I4
ssg76
Nsg69
(lp2789
sbasbasbasbag62
(g78
g64
NtRp2790
(dp2791
g67
(dp2792
sg76
g72
sg69
(lp2793
g62
(g83
g64
NtRp2794
(dp2795
g67
(dp2796
g87
g88
ssg76
g2790
sg69
(lp2797
S'wsgi'
p2798
asbag62
(g83
g64
NtRp2799
(dp2800
g67
(dp2801
g94
g95
ssg76
g2790
sg69
(lp2802
S':'
asbag62
(g83
g64
NtRp2803
(dp2804
g67
(dp2805
sg76
g2790
sg69
(lp2806
g62
(g63
g64
NtRp2807
(dp2808
g67
(dp2809
g75
I5
ssg76
g2803
sg69
(lp2810
g62
(g71
g64
NtRp2811
(dp2812
g67
(dp2813
g75
I4
ssg76
Nsg69
(lp2814
g62
(g78
g64
NtRp2815
(dp2816
g67
(dp2817
sg76
g2811
sg69
(lp2818
g62
(g83
g64
NtRp2819
(dp2820
g67
(dp2821
g87
g88
ssg76
g2815
sg69
(lp2822
S'environ'
p2823
asbag62
(g83
g64
NtRp2824
(dp2825
g67
(dp2826
g94
g95
ssg76
g2815
sg69
(lp2827
S':'
asbag62
(g83
g64
NtRp2828
(dp2829
g67
(dp2830
sg76
g2815
sg69
(lp2831
g62
(g63
g64
NtRp2832
(dp2833
g67
(dp2834
g75
I4
ssg76
g2828
sg69
(lp2835
g62
(g71
g64
NtRp2836
(dp2837
g67
(dp2838
g75
I3
ssg76
Nsg69
(lp2839
g62
(g78
g64
NtRp2840
(dp2841
g67
(dp2842
sg76
g2836
sg69
(lp2843
g62
(g83
g64
NtRp2844
(dp2845
g67
(dp2846
g87
g88
ssg76
g2840
sg69
(lp2847
S'HTTP_ACCEPT'
p2848
asbag62
(g83
g64
NtRp2849
(dp2850
g67
(dp2851
g94
g95
ssg76
g2840
sg69
(lp2852
S':'
asbag62
(g83
g64
NtRp2853
(dp2854
g67
(dp2855
sg76
g2840
sg69
(lp2856
g62
(g63
g64
NtRp2857
(dp2858
g67
(dp2859
g75
I3
ssg76
g2853
sg69
(lp2860
g1219
asbasbasbag62
(g78
g64
NtRp2861
(dp2862
g67
(dp2863
sg76
g2836
sg69
(lp2864
g62
(g83
g64
NtRp2865
(dp2866
g67
(dp2867
g87
g88
ssg76
g2861
sg69
(lp2868
S'HTTP_ACCEPT_ENCODING'
p2869
asbag62
(g83
g64
NtRp2870
(dp2871
g67
(dp2872
g94
g95
ssg76
g2861
sg69
(lp2873
S':'
asbag62
(g83
g64
NtRp2874
(dp2875
g67
(dp2876
sg76
g2861
sg69
(lp2877
g62
(g63
g64
NtRp2878
(dp2879
g67
(dp2880
g75
I3
ssg76
g2874
sg69
(lp2881
g1241
asbasbasbag62
(g78
g64
NtRp2882
(dp2883
g67
(dp2884
sg76
g2836
sg69
(lp2885
g62
(g83
g64
NtRp2886
(dp2887
g67
(dp2888
g87
g88
ssg76
g2882
sg69
(lp2889
S'HTTP_ACCEPT_LANGUAGE'
p2890
asbag62
(g83
g64
NtRp2891
(dp2892
g67
(dp2893
g94
g95
ssg76
g2882
sg69
(lp2894
S':'
asbag62
(g83
g64
NtRp2895
(dp2896
g67
(dp2897
sg76
g2882
sg69
(lp2898
g62
(g63
g64
NtRp2899
(dp2900
g67
(dp2901
g75
I3
ssg76
g2895
sg69
(lp2902
g1263
asbasbasbag62
(g78
g64
NtRp2903
(dp2904
g67
(dp2905
sg76
g2836
sg69
(lp2906
g62
(g83
g64
NtRp2907
(dp2908
g67
(dp2909
g87
g88
ssg76
g2903
sg69
(lp2910
S'HTTP_CACHE_CONTROL'
p2911
asbag62
(g83
g64
NtRp2912
(dp2913
g67
(dp2914
g94
g95
ssg76
g2903
sg69
(lp2915
S':'
asbag62
(g83
g64
NtRp2916
(dp2917
g67
(dp2918
sg76
g2903
sg69
(lp2919
g62
(g63
g64
NtRp2920
(dp2921
g67
(dp2922
g75
I3
ssg76
g2916
sg69
(lp2923
g1285
asbasbasbag62
(g78
g64
NtRp2924
(dp2925
g67
(dp2926
sg76
g2836
sg69
(lp2927
g62
(g83
g64
NtRp2928
(dp2929
g67
(dp2930
g87
g88
ssg76
g2924
sg69
(lp2931
S'HTTP_CONNECTION'
p2932
asbag62
(g83
g64
NtRp2933
(dp2934
g67
(dp2935
g94
g95
ssg76
g2924
sg69
(lp2936
S':'
asbag62
(g83
g64
NtRp2937
(dp2938
g67
(dp2939
sg76
g2924
sg69
(lp2940
g62
(g63
g64
NtRp2941
(dp2942
g67
(dp2943
g75
I3
ssg76
g2937
sg69
(lp2944
g1307
asbasbasbag62
(g78
g64
NtRp2945
(dp2946
g67
(dp2947
sg76
g2836
sg69
(lp2948
g62
(g83
g64
NtRp2949
(dp2950
g67
(dp2951
g87
g88
ssg76
g2945
sg69
(lp2952
S'HTTP_COOKIE'
p2953
asbag62
(g83
g64
NtRp2954
(dp2955
g67
(dp2956
g94
g95
ssg76
g2945
sg69
(lp2957
S':'
asbag62
(g83
g64
NtRp2958
(dp2959
g67
(dp2960
sg76
g2945
sg69
(lp2961
g62
(g63
g64
NtRp2962
(dp2963
g67
(dp2964
g75
I3
ssg76
g2958
sg69
(lp2965
g1329
asbasbasbag62
(g78
g64
NtRp2966
(dp2967
g67
(dp2968
sg76
g2836
sg69
(lp2969
g62
(g83
g64
NtRp2970
(dp2971
g67
(dp2972
g87
g88
ssg76
g2966
sg69
(lp2973
S'HTTP_HOST'
p2974
asbag62
(g83
g64
NtRp2975
(dp2976
g67
(dp2977
g94
g95
ssg76
g2966
sg69
(lp2978
S':'
asbag62
(g83
g64
NtRp2979
(dp2980
g67
(dp2981
sg76
g2966
sg69
(lp2982
g62
(g63
g64
NtRp2983
(dp2984
g67
(dp2985
g75
I3
ssg76
g2979
sg69
(lp2986
g1351
asbasbasbag62
(g78
g64
NtRp2987
(dp2988
g67
(dp2989
sg76
g2836
sg69
(lp2990
g62
(g83
g64
NtRp2991
(dp2992
g67
(dp2993
g87
g88
ssg76
g2987
sg69
(lp2994
S'HTTP_REFERER'
p2995
asbag62
(g83
g64
NtRp2996
(dp2997
g67
(dp2998
g94
g95
ssg76
g2987
sg69
(lp2999
S':'
asbag62
(g83
g64
NtRp3000
(dp3001
g67
(dp3002
sg76
g2987
sg69
(lp3003
g62
(g63
g64
NtRp3004
(dp3005
g67
(dp3006
g75
I3
ssg76
g3000
sg69
(lp3007
g1373
asbasbasbag62
(g78
g64
NtRp3008
(dp3009
g67
(dp3010
sg76
g2836
sg69
(lp3011
g62
(g83
g64
NtRp3012
(dp3013
g67
(dp3014
g87
g88
ssg76
g3008
sg69
(lp3015
S'HTTP_USER_AGENT'
p3016
asbag62
(g83
g64
NtRp3017
(dp3018
g67
(dp3019
g94
g95
ssg76
g3008
sg69
(lp3020
S':'
asbag62
(g83
g64
NtRp3021
(dp3022
g67
(dp3023
sg76
g3008
sg69
(lp3024
g62
(g63
g64
NtRp3025
(dp3026
g67
(dp3027
g75
I3
ssg76
g3021
sg69
(lp3028
g1395
asbasbasbag62
(g78
g64
NtRp3029
(dp3030
g67
(dp3031
sg76
g2836
sg69
(lp3032
g62
(g83
g64
NtRp3033
(dp3034
g67
(dp3035
g87
g88
ssg76
g3029
sg69
(lp3036
S'PATH_INFO'
p3037
asbag62
(g83
g64
NtRp3038
(dp3039
g67
(dp3040
g94
g95
ssg76
g3029
sg69
(lp3041
S':'
asbag62
(g83
g64
NtRp3042
(dp3043
g67
(dp3044
sg76
g3029
sg69
(lp3045
g62
(g63
g64
NtRp3046
(dp3047
g67
(dp3048
g75
I3
ssg76
g3042
sg69
(lp3049
g1549
asbasbasbag62
(g78
g64
NtRp3050
(dp3051
g67
(dp3052
sg76
g2836
sg69
(lp3053
g62
(g83
g64
NtRp3054
(dp3055
g67
(dp3056
g87
g88
ssg76
g3050
sg69
(lp3057
S'QUERY_STRING'
p3058
asbag62
(g83
g64
NtRp3059
(dp3060
g67
(dp3061
g94
g95
ssg76
g3050
sg69
(lp3062
S':'
asbag62
(g83
g64
NtRp3063
(dp3064
g67
(dp3065
sg76
g3050
sg69
(lp3066
g62
(g63
g64
NtRp3067
(dp3068
g67
(dp3069
g75
I3
ssg76
g3063
sg69
(lp3070
S''
asbasbasbag62
(g78
g64
NtRp3071
(dp3072
g67
(dp3073
sg76
g2836
sg69
(lp3074
g62
(g83
g64
NtRp3075
(dp3076
g67
(dp3077
g87
g88
ssg76
g3071
sg69
(lp3078
S'REMOTE_ADDR'
p3079
asbag62
(g83
g64
NtRp3080
(dp3081
g67
(dp3082
g94
g95
ssg76
g3071
sg69
(lp3083
S':'
asbag62
(g83
g64
NtRp3084
(dp3085
g67
(dp3086
sg76
g3071
sg69
(lp3087
g62
(g63
g64
NtRp3088
(dp3089
g67
(dp3090
g75
I3
ssg76
g3084
sg69
(lp3091
g217
asbasbasbag62
(g78
g64
NtRp3092
(dp3093
g67
(dp3094
sg76
g2836
sg69
(lp3095
g62
(g83
g64
NtRp3096
(dp3097
g67
(dp3098
g87
g88
ssg76
g3092
sg69
(lp3099
S'REMOTE_PORT'
p3100
asbag62
(g83
g64
NtRp3101
(dp3102
g67
(dp3103
g94
g95
ssg76
g3092
sg69
(lp3104
S':'
asbag62
(g83
g64
NtRp3105
(dp3106
g67
(dp3107
sg76
g3092
sg69
(lp3108
g62
(g63
g64
NtRp3109
(dp3110
g67
(dp3111
g75
I3
ssg76
g3105
sg69
(lp3112
g1613
asbasbasbag62
(g78
g64
NtRp3113
(dp3114
g67
(dp3115
sg76
g2836
sg69
(lp3116
g62
(g83
g64
NtRp3117
(dp3118
g67
(dp3119
g87
g88
ssg76
g3113
sg69
(lp3120
S'REQUEST_METHOD'
p3121
asbag62
(g83
g64
NtRp3122
(dp3123
g67
(dp3124
g94
g95
ssg76
g3113
sg69
(lp3125
S':'
asbag62
(g83
g64
NtRp3126
(dp3127
g67
(dp3128
sg76
g3113
sg69
(lp3129
g62
(g63
g64
NtRp3130
(dp3131
g67
(dp3132
g75
I3
ssg76
g3126
sg69
(lp3133
g1635
asbasbasbag62
(g78
g64
NtRp3134
(dp3135
g67
(dp3136
sg76
g2836
sg69
(lp3137
g62
(g83
g64
NtRp3138
(dp3139
g67
(dp3140
g87
g88
ssg76
g3134
sg69
(lp3141
S'REQUEST_URI'
p3142
asbag62
(g83
g64
NtRp3143
(dp3144
g67
(dp3145
g94
g95
ssg76
g3134
sg69
(lp3146
S':'
asbag62
(g83
g64
NtRp3147
(dp3148
g67
(dp3149
sg76
g3134
sg69
(lp3150
g62
(g63
g64
NtRp3151
(dp3152
g67
(dp3153
g75
I3
ssg76
g3147
sg69
(lp3154
g1549
asbasbasbag62
(g78
g64
NtRp3155
(dp3156
g67
(dp3157
sg76
g2836
sg69
(lp3158
g62
(g83
g64
NtRp3159
(dp3160
g67
(dp3161
g87
g88
ssg76
g3155
sg69
(lp3162
S'SCRIPT_NAME'
p3163
asbag62
(g83
g64
NtRp3164
(dp3165
g67
(dp3166
g94
g95
ssg76
g3155
sg69
(lp3167
S':'
asbag62
(g83
g64
NtRp3168
(dp3169
g67
(dp3170
sg76
g3155
sg69
(lp3171
g62
(g63
g64
NtRp3172
(dp3173
g67
(dp3174
g75
I3
ssg76
g3168
sg69
(lp3175
S''
asbasbasbag62
(g78
g64
NtRp3176
(dp3177
g67
(dp3178
sg76
g2836
sg69
(lp3179
g62
(g83
g64
NtRp3180
(dp3181
g67
(dp3182
g87
g88
ssg76
g3176
sg69
(lp3183
S'SERVER_NAME'
p3184
asbag62
(g83
g64
NtRp3185
(dp3186
g67
(dp3187
g94
g95
ssg76
g3176
sg69
(lp3188
S':'
asbag62
(g83
g64
NtRp3189
(dp3190
g67
(dp3191
sg76
g3176
sg69
(lp3192
g62
(g63
g64
NtRp3193
(dp3194
g67
(dp3195
g75
I3
ssg76
g3189
sg69
(lp3196
g1699
asbasbasbag62
(g78
g64
NtRp3197
(dp3198
g67
(dp3199
sg76
g2836
sg69
(lp3200
g62
(g83
g64
NtRp3201
(dp3202
g67
(dp3203
g87
g88
ssg76
g3197
sg69
(lp3204
S'SERVER_PORT'
p3205
asbag62
(g83
g64
NtRp3206
(dp3207
g67
(dp3208
g94
g95
ssg76
g3197
sg69
(lp3209
S':'
asbag62
(g83
g64
NtRp3210
(dp3211
g67
(dp3212
sg76
g3197
sg69
(lp3213
g62
(g63
g64
NtRp3214
(dp3215
g67
(dp3216
g75
I3
ssg76
g3210
sg69
(lp3217
g1721
asbasbasbag62
(g78
g64
NtRp3218
(dp3219
g67
(dp3220
sg76
g2836
sg69
(lp3221
g62
(g83
g64
NtRp3222
(dp3223
g67
(dp3224
g87
g88
ssg76
g3218
sg69
(lp3225
S'SERVER_PROTOCOL'
p3226
asbag62
(g83
g64
NtRp3227
(dp3228
g67
(dp3229
g94
g95
ssg76
g3218
sg69
(lp3230
S':'
asbag62
(g83
g64
NtRp3231
(dp3232
g67
(dp3233
sg76
g3218
sg69
(lp3234
g62
(g63
g64
NtRp3235
(dp3236
g67
(dp3237
g75
I3
ssg76
g3231
sg69
(lp3238
g1743
asbasbasbag62
(g78
g64
NtRp3239
(dp3240
g67
(dp3241
sg76
g2836
sg69
(lp3242
g62
(g83
g64
NtRp3243
(dp3244
g67
(dp3245
g87
g88
ssg76
g3239
sg69
(lp3246
S'SERVER_SOFTWARE'
p3247
asbag62
(g83
g64
NtRp3248
(dp3249
g67
(dp3250
g94
g95
ssg76
g3239
sg69
(lp3251
S':'
asbag62
(g83
g64
NtRp3252
(dp3253
g67
(dp3254
sg76
g3239
sg69
(lp3255
g62
(g63
g64
NtRp3256
(dp3257
g67
(dp3258
g75
I3
ssg76
g3252
sg69
(lp3259
g1765
asbasbasbag62
(g78
g64
NtRp3260
(dp3261
g67
(dp3262
sg76
g2836
sg69
(lp3263
g62
(g83
g64
NtRp3264
(dp3265
g67
(dp3266
g87
g88
ssg76
g3260
sg69
(lp3267
S'wsgi.errors'
p3268
asbag62
(g83
g64
NtRp3269
(dp3270
g67
(dp3271
g94
g95
ssg76
g3260
sg69
(lp3272
S':'
asbag62
(g83
g64
NtRp3273
(dp3274
g67
(dp3275
sg76
g3260
sg69
(lp3276
g62
(g63
g64
NtRp3277
(dp3278
g67
(dp3279
g75
I3
ssg76
g3273
sg69
(lp3280
S"<open file '<stderr>', mode 'w' at 0xb73040d0>"
p3281
asbasbasbag62
(g78
g64
NtRp3282
(dp3283
g67
(dp3284
sg76
g2836
sg69
(lp3285
g62
(g83
g64
NtRp3286
(dp3287
g67
(dp3288
g87
g88
ssg76
g3282
sg69
(lp3289
S'wsgi.file_wrapper'
p3290
asbag62
(g83
g64
NtRp3291
(dp3292
g67
(dp3293
g94
g95
ssg76
g3282
sg69
(lp3294
S':'
asbag62
(g83
g64
NtRp3295
(dp3296
g67
(dp3297
sg76
g3282
sg69
(lp3298
g62
(g63
g64
NtRp3299
(dp3300
g67
(dp3301
g75
I3
ssg76
g3295
sg69
(lp3302
S'<class wsgiref.util.FileWrapper at 0x9cc547c>'
p3303
asbasbasbag62
(g78
g64
NtRp3304
(dp3305
g67
(dp3306
sg76
g2836
sg69
(lp3307
g62
(g83
g64
NtRp3308
(dp3309
g67
(dp3310
g87
g88
ssg76
g3304
sg69
(lp3311
S'wsgi.input'
p3312
asbag62
(g83
g64
NtRp3313
(dp3314
g67
(dp3315
g94
g95
ssg76
g3304
sg69
(lp3316
S':'
asbag62
(g83
g64
NtRp3317
(dp3318
g67
(dp3319
sg76
g3304
sg69
(lp3320
g62
(g63
g64
NtRp3321
(dp3322
g67
(dp3323
g75
I3
ssg76
g3317
sg69
(lp3324
S'<cStringIO.StringO object at 0xa1a0ac0>'
p3325
asbasbasbag62
(g78
g64
NtRp3326
(dp3327
g67
(dp3328
sg76
g2836
sg69
(lp3329
g62
(g83
g64
NtRp3330
(dp3331
g67
(dp3332
g87
g88
ssg76
g3326
sg69
(lp3333
S'wsgi.multiprocess'
p3334
asbag62
(g83
g64
NtRp3335
(dp3336
g67
(dp3337
g94
g95
ssg76
g3326
sg69
(lp3338
S':'
asbag62
(g83
g64
NtRp3339
(dp3340
g67
(dp3341
sg76
g3326
sg69
(lp3342
g62
(g63
g64
NtRp3343
(dp3344
g67
(dp3345
g75
I3
ssg76
g3339
sg69
(lp3346
g105
asbasbasbag62
(g78
g64
NtRp3347
(dp3348
g67
(dp3349
sg76
g2836
sg69
(lp3350
g62
(g83
g64
NtRp3351
(dp3352
g67
(dp3353
g87
g88
ssg76
g3347
sg69
(lp3354
S'wsgi.multithread'
p3355
asbag62
(g83
g64
NtRp3356
(dp3357
g67
(dp3358
g94
g95
ssg76
g3347
sg69
(lp3359
S':'
asbag62
(g83
g64
NtRp3360
(dp3361
g67
(dp3362
sg76
g3347
sg69
(lp3363
g62
(g63
g64
NtRp3364
(dp3365
g67
(dp3366
g75
I3
ssg76
g3360
sg69
(lp3367
g1982
asbasbasbag62
(g78
g64
NtRp3368
(dp3369
g67
(dp3370
sg76
g2836
sg69
(lp3371
g62
(g83
g64
NtRp3372
(dp3373
g67
(dp3374
g87
g88
ssg76
g3368
sg69
(lp3375
S'wsgi.run_once'
p3376
asbag62
(g83
g64
NtRp3377
(dp3378
g67
(dp3379
g94
g95
ssg76
g3368
sg69
(lp3380
S':'
asbag62
(g83
g64
NtRp3381
(dp3382
g67
(dp3383
sg76
g3368
sg69
(lp3384
g62
(g63
g64
NtRp3385
(dp3386
g67
(dp3387
g75
I3
ssg76
g3381
sg69
(lp3388
g105
asbasbasbag62
(g78
g64
NtRp3389
(dp3390
g67
(dp3391
sg76
g2836
sg69
(lp3392
g62
(g83
g64
NtRp3393
(dp3394
g67
(dp3395
g87
g88
ssg76
g3389
sg69
(lp3396
S'wsgi.url_scheme'
p3397
asbag62
(g83
g64
NtRp3398
(dp3399
g67
(dp3400
g94
g95
ssg76
g3389
sg69
(lp3401
S':'
asbag62
(g83
g64
NtRp3402
(dp3403
g67
(dp3404
sg76
g3389
sg69
(lp3405
g62
(g63
g64
NtRp3406
(dp3407
g67
(dp3408
g75
I3
ssg76
g3402
sg69
(lp3409
g2025
asbasbasbag62
(g78
g64
NtRp3410
(dp3411
g67
(dp3412
sg76
g2836
sg69
(lp3413
g62
(g83
g64
NtRp3414
(dp3415
g67
(dp3416
g87
g88
ssg76
g3410
sg69
(lp3417
S'wsgi.version'
p3418
asbag62
(g83
g64
NtRp3419
(dp3420
g67
(dp3421
g94
g95
ssg76
g3410
sg69
(lp3422
S':'
asbag62
(g83
g64
NtRp3423
(dp3424
g67
(dp3425
sg76
g3410
sg69
(lp3426
g62
(g63
g64
NtRp3427
(dp3428
g67
(dp3429
g75
I3
ssg76
g3423
sg69
(lp3430
S'1'
asbasbasbasbasbasbasbasbasbasbasbasbasbsS'frames'
p3431
(lp3432
(dp3433
S'file'
p3434
S'/home/nazrul/web2py/gluon/restricted.py'
p3435
sS'dump'
p3436
(dp3437
S'environment'
p3438
S"{'A': <class 'gluon.html.A'>, 'Auth': <class 'gluon.tools.Auth'>, 'B': <class 'gluon.html.B'>, 'BEAUTIFY': <class 'gluon.html.BEAUTIFY'>, 'BODY': <class 'gluon.html.BODY'>, 'BR': <class 'gluon.html.BR'>, 'BUTTON': <class 'gluon.html.BUTTON'>, 'CAT': <class 'gluon.html.CAT'>, 'CENTER': <class 'gluon.html.CENTER'>, 'CLEANUP': <class 'gluon.validators.CLEANUP'>, ...}"
p3439
sS'ccode'
p3440
S'<code object <module> at 0xa393338, file "/home/...ations/WSD_Tool/controllers/default.py", line 11>'
p3441
ssS'lnum'
p3442
I212
sS'lines'
p3443
(dp3444
I207
S'    try:'
p3445
sI208
S'        if isinstance(code, types.CodeType):'
p3446
sI209
S'            ccode = code'
p3447
sI210
S'        else:'
p3448
sI211
S'            ccode = compile2(code, layer)'
p3449
sI212
S'        exec ccode in environment'
p3450
sI213
S'    except HTTP:'
p3451
sI214
S'        raise'
p3452
sI215
S'    except RestrictedError:'
p3453
sI216
S'        # do not encapsulate (obfuscate) the original RestrictedError'
p3454
ssS'call'
p3455
S"(code='# -*- coding: utf-8 -*-\\n# this file is released ... dict(v=v)\\n\\nresponse._vars=response._caller(rel)\\n', environment={'A': <class 'gluon.html.A'>, 'Auth': <class 'gluon.tools.Auth'>, 'B': <class 'gluon.html.B'>, 'BEAUTIFY': <class 'gluon.html.BEAUTIFY'>, 'BODY': <class 'gluon.html.BODY'>, 'BR': <class 'gluon.html.BR'>, 'BUTTON': <class 'gluon.html.BUTTON'>, 'CAT': <class 'gluon.html.CAT'>, 'CENTER': <class 'gluon.html.CENTER'>, 'CLEANUP': <class 'gluon.validators.CLEANUP'>, ...}, layer='/home/nazrul/web2py/applications/WSD_Tool/controllers/default.py')"
p3456
sS'func'
p3457
S'restricted'
p3458
sa(dp3459
g3434
S'/home/nazrul/web2py/applications/WSD_Tool/controllers/default.py'
p3460
sg3436
(dp3461
sg3442
I261
sg3443
(dp3462
I256
S''
sI257
S'def testt():'
p3463
sI258
S'    v=db(db.auth_user).select()'
p3464
sI259
S'    return dict(v=v)'
p3465
sI250
S"       #subprocess.call(['Anusaaraka_stanford.sh','sample','0','True'],shell=True)"
p3466
sI251
S'       f.close()'
p3467
sI252
S"       f=open('$HOME_anu_tmp/tmp/sample_tmp/2.1/word.dat','r')"
p3468
sI253
S'       a=f.read()'
p3469
sI254
S'       f.close()'
p3470
sI255
S'       return dict(a=a)'
p3471
ssg3455
S'()'
p3472
sg3457
S'<module>'
p3473
sa(dp3474
g3434
S'/home/nazrul/web2py/gluon/globals.py'
p3475
sg3436
(dp3476
S'self'
p3477
S'undefined'
p3478
sS'f'
S'<function rel>'
p3479
ssg3442
I193
sg3443
(dp3480
I192
S'        self._vars = None'
p3481
sI193
S'        self._caller = lambda f: f()'
p3482
sI194
S'        self._view_environment = None'
p3483
sI195
S'        self._custom_commit = None'
p3484
sI196
S'        self._custom_rollback = None'
p3485
sI197
S''
sI188
S'        self.menu = []             # used by the default view layout'
p3486
sI189
S'        self.files = []            # used by web2py_ajax.html'
p3487
sI190
S'        self.generic_patterns = []  # patterns to allow generic views'
p3488
sI191
S"        self.delimiters = ('{{', '}}')"
p3489
ssg3455
S'(f=<function rel>)'
p3490
sg3457
S'<lambda>'
p3491
sa(dp3492
g3434
S'/home/nazrul/web2py/applications/WSD_Tool/controllers/default.py'
p3493
sg3436
(dp3494
S'builtinopen'
p3495
S'<built-in function open>'
p3496
sS'f'
S"<closed file 'sample', mode 'w'>"
p3497
ssg3442
I252
sg3443
(dp3498
I256
S''
sI247
S'       #event = Popen(shell_command, shell=True, stdin=PIPE, stdout=PIPE, stderr=STDOUT)'
p3499
sI248
S'       #event.communicate()'
p3500
sI249
S'       os.system("/bin/bash Anusaaraka_stanford.sh sample 0 True")'
p3501
sI250
S"       #subprocess.call(['Anusaaraka_stanford.sh','sample','0','True'],shell=True)"
p3502
sI251
S'       f.close()'
p3503
sI252
S"       f=open('$HOME_anu_tmp/tmp/sample_tmp/2.1/word.dat','r')"
p3504
sI253
S'       a=f.read()'
p3505
sI254
S'       f.close()'
p3506
sI255
S'       return dict(a=a)'
p3507
ssg3455
S'()'
p3508
sg3457
S'rel'
p3509
sasS'pyver'
p3510
S'Python 2.7.3: /usr/bin/python'
p3511
sS'session'
p3512
g62
(g63
g64
NtRp3513
(dp3514
g67
(dp3515
sg69
(lp3516
g62
(g71
g64
NtRp3517
(dp3518
g67
(dp3519
g75
I5
ssg76
Nsg69
(lp3520
g62
(g78
g64
NtRp3521
(dp3522
g67
(dp3523
sg76
g3517
sg69
(lp3524
g62
(g83
g64
NtRp3525
(dp3526
g67
(dp3527
g87
g88
ssg76
g3521
sg69
(lp3528
S'auth'
p3529
asbag62
(g83
g64
NtRp3530
(dp3531
g67
(dp3532
g94
g95
ssg76
g3521
sg69
(lp3533
S':'
asbag62
(g83
g64
NtRp3534
(dp3535
g67
(dp3536
sg76
g3521
sg69
(lp3537
g62
(g63
g64
NtRp3538
(dp3539
g67
(dp3540
g75
I5
ssg76
g3534
sg69
(lp3541
g62
(g71
g64
NtRp3542
(dp3543
g67
(dp3544
g75
I4
ssg76
Nsg69
(lp3545
g62
(g78
g64
NtRp3546
(dp3547
g67
(dp3548
sg76
g3542
sg69
(lp3549
g62
(g83
g64
NtRp3550
(dp3551
g67
(dp3552
g87
g88
ssg76
g3546
sg69
(lp3553
S'expiration'
p3554
asbag62
(g83
g64
NtRp3555
(dp3556
g67
(dp3557
g94
g95
ssg76
g3546
sg69
(lp3558
S':'
asbag62
(g83
g64
NtRp3559
(dp3560
g67
(dp3561
sg76
g3546
sg69
(lp3562
g62
(g63
g64
NtRp3563
(dp3564
g67
(dp3565
g75
I4
ssg76
g3559
sg69
(lp3566
S'3600'
p3567
asbasbasbag62
(g78
g64
NtRp3568
(dp3569
g67
(dp3570
sg76
g3542
sg69
(lp3571
g62
(g83
g64
NtRp3572
(dp3573
g67
(dp3574
g87
g88
ssg76
g3568
sg69
(lp3575
S'hmac_key'
p3576
asbag62
(g83
g64
NtRp3577
(dp3578
g67
(dp3579
g94
g95
ssg76
g3568
sg69
(lp3580
S':'
asbag62
(g83
g64
NtRp3581
(dp3582
g67
(dp3583
sg76
g3568
sg69
(lp3584
g62
(g63
g64
NtRp3585
(dp3586
g67
(dp3587
g75
I4
ssg76
g3581
sg69
(lp3588
S'4ce45816-811e-4124-b486-41a14270b348'
p3589
asbasbasbag62
(g78
g64
NtRp3590
(dp3591
g67
(dp3592
sg76
g3542
sg69
(lp3593
g62
(g83
g64
NtRp3594
(dp3595
g67
(dp3596
g87
g88
ssg76
g3590
sg69
(lp3597
S'last_visit'
p3598
asbag62
(g83
g64
NtRp3599
(dp3600
g67
(dp3601
g94
g95
ssg76
g3590
sg69
(lp3602
S':'
asbag62
(g83
g64
NtRp3603
(dp3604
g67
(dp3605
sg76
g3590
sg69
(lp3606
g62
(g63
g64
NtRp3607
(dp3608
g67
(dp3609
g75
I4
ssg76
g3603
sg69
(lp3610
S'datetime.datetime(2013, 11, 13, 0, 14, 44, 843740)'
p3611
asbasbasbag62
(g78
g64
NtRp3612
(dp3613
g67
(dp3614
sg76
g3542
sg69
(lp3615
g62
(g83
g64
NtRp3616
(dp3617
g67
(dp3618
g87
g88
ssg76
g3612
sg69
(lp3619
S'remember'
p3620
asbag62
(g83
g64
NtRp3621
(dp3622
g67
(dp3623
g94
g95
ssg76
g3612
sg69
(lp3624
S':'
asbag62
(g83
g64
NtRp3625
(dp3626
g67
(dp3627
sg76
g3612
sg69
(lp3628
g62
(g63
g64
NtRp3629
(dp3630
g67
(dp3631
g75
I4
ssg76
g3625
sg69
(lp3632
g105
asbasbasbag62
(g78
g64
NtRp3633
(dp3634
g67
(dp3635
sg76
g3542
sg69
(lp3636
g62
(g83
g64
NtRp3637
(dp3638
g67
(dp3639
g87
g88
ssg76
g3633
sg69
(lp3640
S'user'
p3641
asbag62
(g83
g64
NtRp3642
(dp3643
g67
(dp3644
g94
g95
ssg76
g3633
sg69
(lp3645
S':'
asbag62
(g83
g64
NtRp3646
(dp3647
g67
(dp3648
sg76
g3633
sg69
(lp3649
g62
(g63
g64
NtRp3650
(dp3651
g67
(dp3652
g75
I4
ssg76
g3646
sg69
(lp3653
g62
(g71
g64
NtRp3654
(dp3655
g67
(dp3656
g75
I3
ssg76
Nsg69
(lp3657
g62
(g78
g64
NtRp3658
(dp3659
g67
(dp3660
sg76
g3654
sg69
(lp3661
g62
(g83
g64
NtRp3662
(dp3663
g67
(dp3664
g87
g88
ssg76
g3658
sg69
(lp3665
S'email'
p3666
asbag62
(g83
g64
NtRp3667
(dp3668
g67
(dp3669
g94
g95
ssg76
g3658
sg69
(lp3670
S':'
asbag62
(g83
g64
NtRp3671
(dp3672
g67
(dp3673
sg76
g3658
sg69
(lp3674
g62
(g63
g64
NtRp3675
(dp3676
g67
(dp3677
g75
I3
ssg76
g3671
sg69
(lp3678
S'root@sys.com'
p3679
asbasbasbag62
(g78
g64
NtRp3680
(dp3681
g67
(dp3682
sg76
g3654
sg69
(lp3683
g62
(g83
g64
NtRp3684
(dp3685
g67
(dp3686
g87
g88
ssg76
g3680
sg69
(lp3687
S'first_name'
p3688
asbag62
(g83
g64
NtRp3689
(dp3690
g67
(dp3691
g94
g95
ssg76
g3680
sg69
(lp3692
S':'
asbag62
(g83
g64
NtRp3693
(dp3694
g67
(dp3695
sg76
g3680
sg69
(lp3696
g62
(g63
g64
NtRp3697
(dp3698
g67
(dp3699
g75
I3
ssg76
g3693
sg69
(lp3700
S'root'
p3701
asbasbasbag62
(g78
g64
NtRp3702
(dp3703
g67
(dp3704
sg76
g3654
sg69
(lp3705
g62
(g83
g64
NtRp3706
(dp3707
g67
(dp3708
g87
g88
ssg76
g3702
sg69
(lp3709
S'id'
p3710
asbag62
(g83
g64
NtRp3711
(dp3712
g67
(dp3713
g94
g95
ssg76
g3702
sg69
(lp3714
S':'
asbag62
(g83
g64
NtRp3715
(dp3716
g67
(dp3717
sg76
g3702
sg69
(lp3718
g62
(g63
g64
NtRp3719
(dp3720
g67
(dp3721
g75
I3
ssg76
g3715
sg69
(lp3722
S'4'
asbasbasbag62
(g78
g64
NtRp3723
(dp3724
g67
(dp3725
sg76
g3654
sg69
(lp3726
g62
(g83
g64
NtRp3727
(dp3728
g67
(dp3729
g87
g88
ssg76
g3723
sg69
(lp3730
S'last_name'
p3731
asbag62
(g83
g64
NtRp3732
(dp3733
g67
(dp3734
g94
g95
ssg76
g3723
sg69
(lp3735
S':'
asbag62
(g83
g64
NtRp3736
(dp3737
g67
(dp3738
sg76
g3723
sg69
(lp3739
g62
(g63
g64
NtRp3740
(dp3741
g67
(dp3742
g75
I3
ssg76
g3736
sg69
(lp3743
S'root'
p3744
asbasbasbag62
(g78
g64
NtRp3745
(dp3746
g67
(dp3747
sg76
g3654
sg69
(lp3748
g62
(g83
g64
NtRp3749
(dp3750
g67
(dp3751
g87
g88
ssg76
g3745
sg69
(lp3752
S'registration_id'
p3753
asbag62
(g83
g64
NtRp3754
(dp3755
g67
(dp3756
g94
g95
ssg76
g3745
sg69
(lp3757
S':'
asbag62
(g83
g64
NtRp3758
(dp3759
g67
(dp3760
sg76
g3745
sg69
(lp3761
g62
(g63
g64
NtRp3762
(dp3763
g67
(dp3764
g75
I3
ssg76
g3758
sg69
(lp3765
S''
asbasbasbag62
(g78
g64
NtRp3766
(dp3767
g67
(dp3768
sg76
g3654
sg69
(lp3769
g62
(g83
g64
NtRp3770
(dp3771
g67
(dp3772
g87
g88
ssg76
g3766
sg69
(lp3773
S'registration_key'
p3774
asbag62
(g83
g64
NtRp3775
(dp3776
g67
(dp3777
g94
g95
ssg76
g3766
sg69
(lp3778
S':'
asbag62
(g83
g64
NtRp3779
(dp3780
g67
(dp3781
sg76
g3766
sg69
(lp3782
g62
(g63
g64
NtRp3783
(dp3784
g67
(dp3785
g75
I3
ssg76
g3779
sg69
(lp3786
S''
asbasbasbag62
(g78
g64
NtRp3787
(dp3788
g67
(dp3789
sg76
g3654
sg69
(lp3790
g62
(g83
g64
NtRp3791
(dp3792
g67
(dp3793
g87
g88
ssg76
g3787
sg69
(lp3794
S'reset_password_key'
p3795
asbag62
(g83
g64
NtRp3796
(dp3797
g67
(dp3798
g94
g95
ssg76
g3787
sg69
(lp3799
S':'
asbag62
(g83
g64
NtRp3800
(dp3801
g67
(dp3802
sg76
g3787
sg69
(lp3803
g62
(g63
g64
NtRp3804
(dp3805
g67
(dp3806
g75
I3
ssg76
g3800
sg69
(lp3807
S''
asbasbasbasbasbasbasbag62
(g78
g64
NtRp3808
(dp3809
g67
(dp3810
sg76
g3542
sg69
(lp3811
g62
(g83
g64
NtRp3812
(dp3813
g67
(dp3814
g87
g88
ssg76
g3808
sg69
(lp3815
S'user_groups'
p3816
asbag62
(g83
g64
NtRp3817
(dp3818
g67
(dp3819
g94
g95
ssg76
g3808
sg69
(lp3820
S':'
asbag62
(g83
g64
NtRp3821
(dp3822
g67
(dp3823
sg76
g3808
sg69
(lp3824
g62
(g63
g64
NtRp3825
(dp3826
g67
(dp3827
g75
I4
ssg76
g3821
sg69
(lp3828
g62
(g71
g64
NtRp3829
(dp3830
g67
(dp3831
g75
I3
ssg76
Nsg69
(lp3832
sbasbasbasbasbasbasbasbag62
(g78
g64
NtRp3833
(dp3834
g67
(dp3835
sg76
g3517
sg69
(lp3836
g62
(g83
g64
NtRp3837
(dp3838
g67
(dp3839
g87
g88
ssg76
g3833
sg69
(lp3840
S'flash'
p3841
asbag62
(g83
g64
NtRp3842
(dp3843
g67
(dp3844
g94
g95
ssg76
g3833
sg69
(lp3845
S':'
asbag62
(g83
g64
NtRp3846
(dp3847
g67
(dp3848
sg76
g3833
sg69
(lp3849
g62
(g63
g64
NtRp3850
(dp3851
g67
(dp3852
g75
I5
ssg76
g3846
sg69
(lp3853
S'None'
p3854
asbasbasbag62
(g78
g64
NtRp3855
(dp3856
g67
(dp3857
sg76
g3517
sg69
(lp3858
g62
(g83
g64
NtRp3859
(dp3860
g67
(dp3861
g87
g88
ssg76
g3855
sg69
(lp3862
S'ide'
p3863
asbag62
(g83
g64
NtRp3864
(dp3865
g67
(dp3866
g94
g95
ssg76
g3855
sg69
(lp3867
S':'
asbag62
(g83
g64
NtRp3868
(dp3869
g67
(dp3870
sg76
g3855
sg69
(lp3871
g62
(g63
g64
NtRp3872
(dp3873
g67
(dp3874
g75
I5
ssg76
g3868
sg69
(lp3875
S'9'
asbasbasbag62
(g78
g64
NtRp3876
(dp3877
g67
(dp3878
sg76
g3517
sg69
(lp3879
g62
(g83
g64
NtRp3880
(dp3881
g67
(dp3882
g87
g88
ssg76
g3876
sg69
(lp3883
S'sid'
p3884
asbag62
(g83
g64
NtRp3885
(dp3886
g67
(dp3887
g94
g95
ssg76
g3876
sg69
(lp3888
S':'
asbag62
(g83
g64
NtRp3889
(dp3890
g67
(dp3891
sg76
g3876
sg69
(lp3892
g62
(g63
g64
NtRp3893
(dp3894
g67
(dp3895
g75
I5
ssg76
g3889
sg69
(lp3896
S'10'
p3897
asbasbasbag62
(g78
g64
NtRp3898
(dp3899
g67
(dp3900
sg76
g3517
sg69
(lp3901
g62
(g83
g64
NtRp3902
(dp3903
g67
(dp3904
g87
g88
ssg76
g3898
sg69
(lp3905
S'word'
p3906
asbag62
(g83
g64
NtRp3907
(dp3908
g67
(dp3909
g94
g95
ssg76
g3898
sg69
(lp3910
S':'
asbag62
(g83
g64
NtRp3911
(dp3912
g67
(dp3913
sg76
g3898
sg69
(lp3914
g62
(g63
g64
NtRp3915
(dp3916
g67
(dp3917
g75
I5
ssg76
g3911
sg69
(lp3918
S'old'
p3919
asbasbasbasbasbsS'etype'
p3920
S"<type 'exceptions.IOError'>"
p3921
sS'date'
p3922
S'Wed Nov 13 00:17:07 2013'
p3923
sS'response'
p3924
g62
(g63
g64
NtRp3925
(dp3926
g67
(dp3927
sg69
(lp3928
g62
(g71
g64
NtRp3929
(dp3930
g67
(dp3931
g75
I5
ssg76
Nsg69
(lp3932
g62
(g78
g64
NtRp3933
(dp3934
g67
(dp3935
sg76
g3929
sg69
(lp3936
g62
(g83
g64
NtRp3937
(dp3938
g67
(dp3939
g87
g88
ssg76
g3933
sg69
(lp3940
g160
asbag62
(g83
g64
NtRp3941
(dp3942
g67
(dp3943
g94
g95
ssg76
g3933
sg69
(lp3944
S':'
asbag62
(g83
g64
NtRp3945
(dp3946
g67
(dp3947
sg76
g3933
sg69
(lp3948
g62
(g63
g64
NtRp3949
(dp3950
g67
(dp3951
g75
I5
ssg76
g3945
sg69
(lp3952
S'<cStringIO.StringO object at 0xa34cfc0>'
p3953
asbasbasbag62
(g78
g64
NtRp3954
(dp3955
g67
(dp3956
sg76
g3929
sg69
(lp3957
g62
(g83
g64
NtRp3958
(dp3959
g67
(dp3960
g87
g88
ssg76
g3954
sg69
(lp3961
g248
asbag62
(g83
g64
NtRp3962
(dp3963
g67
(dp3964
g94
g95
ssg76
g3954
sg69
(lp3965
S':'
asbag62
(g83
g64
NtRp3966
(dp3967
g67
(dp3968
sg76
g3954
sg69
(lp3969
g62
(g63
g64
NtRp3970
(dp3971
g67
(dp3972
g75
I5
ssg76
g3966
sg69
(lp3973
g62
(g71
g64
NtRp3974
(dp3975
g67
(dp3976
g75
I4
ssg76
Nsg69
(lp3977
g62
(g78
g64
NtRp3978
(dp3979
g67
(dp3980
sg76
g3974
sg69
(lp3981
g62
(g83
g64
NtRp3982
(dp3983
g67
(dp3984
g87
g88
ssg76
g3978
sg69
(lp3985
S'session_id_wsd_tool'
p3986
asbag62
(g83
g64
NtRp3987
(dp3988
g67
(dp3989
g94
g95
ssg76
g3978
sg69
(lp3990
S':'
asbag62
(g83
g64
NtRp3991
(dp3992
g67
(dp3993
sg76
g3978
sg69
(lp3994
g62
(g63
g64
NtRp3995
(dp3996
g67
(dp3997
g75
I4
ssg76
g3991
sg69
(lp3998
g852
ag62
(g71
g64
NtRp3999
(dp4000
g67
(dp4001
g75
I3
ssg76
Nsg69
(lp4002
g62
(g78
g64
NtRp4003
(dp4004
g67
(dp4005
sg76
g3999
sg69
(lp4006
g62
(g83
g64
NtRp4007
(dp4008
g67
(dp4009
g87
g88
ssg76
g4003
sg69
(lp4010
g299
asbag62
(g83
g64
NtRp4011
(dp4012
g67
(dp4013
g94
g95
ssg76
g4003
sg69
(lp4014
S':'
asbag62
(g83
g64
NtRp4015
(dp4016
g67
(dp4017
sg76
g4003
sg69
(lp4018
g62
(g63
g64
NtRp4019
(dp4020
g67
(dp4021
g75
I3
ssg76
g4015
sg69
(lp4022
S''
asbasbasbag62
(g78
g64
NtRp4023
(dp4024
g67
(dp4025
sg76
g3999
sg69
(lp4026
g62
(g83
g64
NtRp4027
(dp4028
g67
(dp4029
g87
g88
ssg76
g4023
sg69
(lp4030
g320
asbag62
(g83
g64
NtRp4031
(dp4032
g67
(dp4033
g94
g95
ssg76
g4023
sg69
(lp4034
S':'
asbag62
(g83
g64
NtRp4035
(dp4036
g67
(dp4037
sg76
g4023
sg69
(lp4038
g62
(g63
g64
NtRp4039
(dp4040
g67
(dp4041
g75
I3
ssg76
g4035
sg69
(lp4042
S''
asbasbasbag62
(g78
g64
NtRp4043
(dp4044
g67
(dp4045
sg76
g3999
sg69
(lp4046
g62
(g83
g64
NtRp4047
(dp4048
g67
(dp4049
g87
g88
ssg76
g4043
sg69
(lp4050
g341
asbag62
(g83
g64
NtRp4051
(dp4052
g67
(dp4053
g94
g95
ssg76
g4043
sg69
(lp4054
S':'
asbag62
(g83
g64
NtRp4055
(dp4056
g67
(dp4057
sg76
g4043
sg69
(lp4058
g62
(g63
g64
NtRp4059
(dp4060
g67
(dp4061
g75
I3
ssg76
g4055
sg69
(lp4062
S''
asbasbasbag62
(g78
g64
NtRp4063
(dp4064
g67
(dp4065
sg76
g3999
sg69
(lp4066
g62
(g83
g64
NtRp4067
(dp4068
g67
(dp4069
g87
g88
ssg76
g4063
sg69
(lp4070
g362
asbag62
(g83
g64
NtRp4071
(dp4072
g67
(dp4073
g94
g95
ssg76
g4063
sg69
(lp4074
S':'
asbag62
(g83
g64
NtRp4075
(dp4076
g67
(dp4077
sg76
g4063
sg69
(lp4078
g62
(g63
g64
NtRp4079
(dp4080
g67
(dp4081
g75
I3
ssg76
g4075
sg69
(lp4082
S''
asbasbasbag62
(g78
g64
NtRp4083
(dp4084
g67
(dp4085
sg76
g3999
sg69
(lp4086
g62
(g83
g64
NtRp4087
(dp4088
g67
(dp4089
g87
g88
ssg76
g4083
sg69
(lp4090
g383
asbag62
(g83
g64
NtRp4091
(dp4092
g67
(dp4093
g94
g95
ssg76
g4083
sg69
(lp4094
S':'
asbag62
(g83
g64
NtRp4095
(dp4096
g67
(dp4097
sg76
g4083
sg69
(lp4098
g62
(g63
g64
NtRp4099
(dp4100
g67
(dp4101
g75
I3
ssg76
g4095
sg69
(lp4102
S''
asbasbasbag62
(g78
g64
NtRp4103
(dp4104
g67
(dp4105
sg76
g3999
sg69
(lp4106
g62
(g83
g64
NtRp4107
(dp4108
g67
(dp4109
g87
g88
ssg76
g4103
sg69
(lp4110
g404
asbag62
(g83
g64
NtRp4111
(dp4112
g67
(dp4113
g94
g95
ssg76
g4103
sg69
(lp4114
S':'
asbag62
(g83
g64
NtRp4115
(dp4116
g67
(dp4117
sg76
g4103
sg69
(lp4118
g62
(g63
g64
NtRp4119
(dp4120
g67
(dp4121
g75
I3
ssg76
g4115
sg69
(lp4122
S'/'
asbasbasbag62
(g78
g64
NtRp4123
(dp4124
g67
(dp4125
sg76
g3999
sg69
(lp4126
g62
(g83
g64
NtRp4127
(dp4128
g67
(dp4129
g87
g88
ssg76
g4123
sg69
(lp4130
g425
asbag62
(g83
g64
NtRp4131
(dp4132
g67
(dp4133
g94
g95
ssg76
g4123
sg69
(lp4134
S':'
asbag62
(g83
g64
NtRp4135
(dp4136
g67
(dp4137
sg76
g4123
sg69
(lp4138
g62
(g63
g64
NtRp4139
(dp4140
g67
(dp4141
g75
I3
ssg76
g4135
sg69
(lp4142
S''
asbasbasbag62
(g78
g64
NtRp4143
(dp4144
g67
(dp4145
sg76
g3999
sg69
(lp4146
g62
(g83
g64
NtRp4147
(dp4148
g67
(dp4149
g87
g88
ssg76
g4143
sg69
(lp4150
g446
asbag62
(g83
g64
NtRp4151
(dp4152
g67
(dp4153
g94
g95
ssg76
g4143
sg69
(lp4154
S':'
asbag62
(g83
g64
NtRp4155
(dp4156
g67
(dp4157
sg76
g4143
sg69
(lp4158
g62
(g63
g64
NtRp4159
(dp4160
g67
(dp4161
g75
I3
ssg76
g4155
sg69
(lp4162
S''
asbasbasbasbasbasbasbasbasbasbasbag62
(g78
g64
NtRp4163
(dp4164
g67
(dp4165
sg76
g3929
sg69
(lp4166
g62
(g83
g64
NtRp4167
(dp4168
g67
(dp4169
g87
g88
ssg76
g4163
sg69
(lp4170
S'delimiters'
p4171
asbag62
(g83
g64
NtRp4172
(dp4173
g67
(dp4174
g94
g95
ssg76
g4163
sg69
(lp4175
S':'
asbag62
(g83
g64
NtRp4176
(dp4177
g67
(dp4178
sg76
g4163
sg69
(lp4179
g62
(g63
g64
NtRp4180
(dp4181
g67
(dp4182
g75
I5
ssg76
g4176
sg69
(lp4183
g62
(g71
g64
NtRp4184
(dp4185
g67
(dp4186
g75
I4
ssg76
Nsg69
(lp4187
g62
(g78
g64
NtRp4188
(dp4189
g67
(dp4190
sg76
g4184
sg69
(lp4191
g62
(g83
g64
NtRp4192
(dp4193
g67
(dp4194
sg76
g4188
sg69
(lp4195
g62
(g63
g64
NtRp4196
(dp4197
g67
(dp4198
g75
I4
ssg76
g4192
sg69
(lp4199
S'{{'
p4200
asbasbasbag62
(g78
g64
NtRp4201
(dp4202
g67
(dp4203
sg76
g4184
sg69
(lp4204
g62
(g83
g64
NtRp4205
(dp4206
g67
(dp4207
sg76
g4201
sg69
(lp4208
g62
(g63
g64
NtRp4209
(dp4210
g67
(dp4211
g75
I4
ssg76
g4205
sg69
(lp4212
S'}}'
p4213
asbasbasbasbasbasbasbag62
(g78
g64
NtRp4214
(dp4215
g67
(dp4216
sg76
g3929
sg69
(lp4217
g62
(g83
g64
NtRp4218
(dp4219
g67
(dp4220
g87
g88
ssg76
g4214
sg69
(lp4221
S'files'
p4222
asbag62
(g83
g64
NtRp4223
(dp4224
g67
(dp4225
g94
g95
ssg76
g4214
sg69
(lp4226
S':'
asbag62
(g83
g64
NtRp4227
(dp4228
g67
(dp4229
sg76
g4214
sg69
(lp4230
g62
(g63
g64
NtRp4231
(dp4232
g67
(dp4233
g75
I5
ssg76
g4227
sg69
(lp4234
g62
(g71
g64
NtRp4235
(dp4236
g67
(dp4237
g75
I4
ssg76
Nsg69
(lp4238
sbasbasbasbag62
(g78
g64
NtRp4239
(dp4240
g67
(dp4241
sg76
g3929
sg69
(lp4242
g62
(g83
g64
NtRp4243
(dp4244
g67
(dp4245
g87
g88
ssg76
g4239
sg69
(lp4246
S'flash'
p4247
asbag62
(g83
g64
NtRp4248
(dp4249
g67
(dp4250
g94
g95
ssg76
g4239
sg69
(lp4251
S':'
asbag62
(g83
g64
NtRp4252
(dp4253
g67
(dp4254
sg76
g4239
sg69
(lp4255
g62
(g63
g64
NtRp4256
(dp4257
g67
(dp4258
g75
I5
ssg76
g4252
sg69
(lp4259
S''
asbasbasbag62
(g78
g64
NtRp4260
(dp4261
g67
(dp4262
sg76
g3929
sg69
(lp4263
g62
(g83
g64
NtRp4264
(dp4265
g67
(dp4266
g87
g88
ssg76
g4260
sg69
(lp4267
S'generic_patterns'
p4268
asbag62
(g83
g64
NtRp4269
(dp4270
g67
(dp4271
g94
g95
ssg76
g4260
sg69
(lp4272
S':'
asbag62
(g83
g64
NtRp4273
(dp4274
g67
(dp4275
sg76
g4260
sg69
(lp4276
g62
(g63
g64
NtRp4277
(dp4278
g67
(dp4279
g75
I5
ssg76
g4273
sg69
(lp4280
g62
(g71
g64
NtRp4281
(dp4282
g67
(dp4283
g75
I4
ssg76
Nsg69
(lp4284
g62
(g78
g64
NtRp4285
(dp4286
g67
(dp4287
sg76
g4281
sg69
(lp4288
g62
(g83
g64
NtRp4289
(dp4290
g67
(dp4291
sg76
g4285
sg69
(lp4292
g62
(g63
g64
NtRp4293
(dp4294
g67
(dp4295
g75
I4
ssg76
g4289
sg69
(lp4296
S'*'
asbasbasbasbasbasbasbag62
(g78
g64
NtRp4297
(dp4298
g67
(dp4299
sg76
g3929
sg69
(lp4300
g62
(g83
g64
NtRp4301
(dp4302
g67
(dp4303
g87
g88
ssg76
g4297
sg69
(lp4304
S'google_analytics_id'
p4305
asbag62
(g83
g64
NtRp4306
(dp4307
g67
(dp4308
g94
g95
ssg76
g4297
sg69
(lp4309
S':'
asbag62
(g83
g64
NtRp4310
(dp4311
g67
(dp4312
sg76
g4297
sg69
(lp4313
g62
(g63
g64
NtRp4314
(dp4315
g67
(dp4316
g75
I5
ssg76
g4310
sg69
(lp4317
S'None'
p4318
asbasbasbag62
(g78
g64
NtRp4319
(dp4320
g67
(dp4321
sg76
g3929
sg69
(lp4322
g62
(g83
g64
NtRp4323
(dp4324
g67
(dp4325
g87
g88
ssg76
g4319
sg69
(lp4326
S'headers'
p4327
asbag62
(g83
g64
NtRp4328
(dp4329
g67
(dp4330
g94
g95
ssg76
g4319
sg69
(lp4331
S':'
asbag62
(g83
g64
NtRp4332
(dp4333
g67
(dp4334
sg76
g4319
sg69
(lp4335
g62
(g63
g64
NtRp4336
(dp4337
g67
(dp4338
g75
I5
ssg76
g4332
sg69
(lp4339
g62
(g71
g64
NtRp4340
(dp4341
g67
(dp4342
g75
I4
ssg76
Nsg69
(lp4343
g62
(g78
g64
NtRp4344
(dp4345
g67
(dp4346
sg76
g4340
sg69
(lp4347
g62
(g83
g64
NtRp4348
(dp4349
g67
(dp4350
g87
g88
ssg76
g4344
sg69
(lp4351
S'X-Powered-By'
p4352
asbag62
(g83
g64
NtRp4353
(dp4354
g67
(dp4355
g94
g95
ssg76
g4344
sg69
(lp4356
S':'
asbag62
(g83
g64
NtRp4357
(dp4358
g67
(dp4359
sg76
g4344
sg69
(lp4360
g62
(g63
g64
NtRp4361
(dp4362
g67
(dp4363
g75
I4
ssg76
g4357
sg69
(lp4364
S'web2py'
p4365
asbasbasbasbasbasbasbag62
(g78
g64
NtRp4366
(dp4367
g67
(dp4368
sg76
g3929
sg69
(lp4369
g62
(g83
g64
NtRp4370
(dp4371
g67
(dp4372
g87
g88
ssg76
g4366
sg69
(lp4373
S'menu'
p4374
asbag62
(g83
g64
NtRp4375
(dp4376
g67
(dp4377
g94
g95
ssg76
g4366
sg69
(lp4378
S':'
asbag62
(g83
g64
NtRp4379
(dp4380
g67
(dp4381
sg76
g4366
sg69
(lp4382
g62
(g63
g64
NtRp4383
(dp4384
g67
(dp4385
g75
I5
ssg76
g4379
sg69
(lp4386
g62
(g71
g64
NtRp4387
(dp4388
g67
(dp4389
g75
I4
ssg76
Nsg69
(lp4390
g62
(g78
g64
NtRp4391
(dp4392
g67
(dp4393
sg76
g4387
sg69
(lp4394
g62
(g83
g64
NtRp4395
(dp4396
g67
(dp4397
sg76
g4391
sg69
(lp4398
g62
(g63
g64
NtRp4399
(dp4400
g67
(dp4401
g75
I4
ssg76
g4395
sg69
(lp4402
g62
(g71
g64
NtRp4403
(dp4404
g67
(dp4405
g75
I3
ssg76
Nsg69
(lp4406
g62
(g78
g64
NtRp4407
(dp4408
g67
(dp4409
sg76
g4403
sg69
(lp4410
g62
(g83
g64
NtRp4411
(dp4412
g67
(dp4413
sg76
g4407
sg69
(lp4414
g62
(g63
g64
NtRp4415
(dp4416
g67
(dp4417
g75
I3
ssg76
g4411
sg69
(lp4418
cgluon.languages
lazyT_unpickle
p4419
(S't\x04\x00\x00\x00Home'
tRp4420
asbasbasbag62
(g78
g64
NtRp4421
(dp4422
g67
(dp4423
sg76
g4403
sg69
(lp4424
g62
(g83
g64
NtRp4425
(dp4426
g67
(dp4427
sg76
g4421
sg69
(lp4428
g62
(g63
g64
NtRp4429
(dp4430
g67
(dp4431
g75
I3
ssg76
g4425
sg69
(lp4432
g105
asbasbasbag62
(g78
g64
NtRp4433
(dp4434
g67
(dp4435
sg76
g4403
sg69
(lp4436
g62
(g83
g64
NtRp4437
(dp4438
g67
(dp4439
sg76
g4433
sg69
(lp4440
g62
(g63
g64
NtRp4441
(dp4442
g67
(dp4443
g75
I3
ssg76
g4437
sg69
(lp4444
S'/WSD_Tool/default/index'
p4445
asbasbasbag62
(g78
g64
NtRp4446
(dp4447
g67
(dp4448
sg76
g4403
sg69
(lp4449
g62
(g83
g64
NtRp4450
(dp4451
g67
(dp4452
sg76
g4446
sg69
(lp4453
g62
(g63
g64
NtRp4454
(dp4455
g67
(dp4456
g75
I3
ssg76
g4450
sg69
(lp4457
g62
(g71
g64
NtRp4458
(dp4459
g67
(dp4460
g75
I2
ssg76
Nsg69
(lp4461
sbasbasbasbasbasbasbasbag62
(g78
g64
NtRp4462
(dp4463
g67
(dp4464
sg76
g4387
sg69
(lp4465
g62
(g83
g64
NtRp4466
(dp4467
g67
(dp4468
sg76
g4462
sg69
(lp4469
g62
(g63
g64
NtRp4470
(dp4471
g67
(dp4472
g75
I4
ssg76
g4466
sg69
(lp4473
g62
(g71
g64
NtRp4474
(dp4475
g67
(dp4476
g75
I3
ssg76
Nsg69
(lp4477
g62
(g78
g64
NtRp4478
(dp4479
g67
(dp4480
sg76
g4474
sg69
(lp4481
g62
(g83
g64
NtRp4482
(dp4483
g67
(dp4484
sg76
g4478
sg69
(lp4485
g62
(g63
g64
NtRp4486
(dp4487
g67
(dp4488
g75
I3
ssg76
g4482
sg69
(lp4489
g62
(cgluon.html
SPAN
p4490
g64
NtRp4491
(dp4492
g67
(dp4493
g87
S'color:yellow'
p4494
ssg76
Nsg69
(lp4495
g4365
asbasbasbasbag62
(g78
g64
NtRp4496
(dp4497
g67
(dp4498
sg76
g4474
sg69
(lp4499
g62
(g83
g64
NtRp4500
(dp4501
g67
(dp4502
sg76
g4496
sg69
(lp4503
g62
(g63
g64
NtRp4504
(dp4505
g67
(dp4506
g75
I3
ssg76
g4500
sg69
(lp4507
g105
asbasbasbag62
(g78
g64
NtRp4508
(dp4509
g67
(dp4510
sg76
g4474
sg69
(lp4511
g62
(g83
g64
NtRp4512
(dp4513
g67
(dp4514
sg76
g4508
sg69
(lp4515
g62
(g63
g64
NtRp4516
(dp4517
g67
(dp4518
g75
I3
ssg76
g4512
sg69
(lp4519
S'None'
p4520
asbasbasbag62
(g78
g64
NtRp4521
(dp4522
g67
(dp4523
sg76
g4474
sg69
(lp4524
g62
(g83
g64
NtRp4525
(dp4526
g67
(dp4527
sg76
g4521
sg69
(lp4528
g62
(g63
g64
NtRp4529
(dp4530
g67
(dp4531
g75
I3
ssg76
g4525
sg69
(lp4532
g62
(g71
g64
NtRp4533
(dp4534
g67
(dp4535
g75
I2
ssg76
Nsg69
(lp4536
g62
(g78
g64
NtRp4537
(dp4538
g67
(dp4539
sg76
g4533
sg69
(lp4540
g62
(g83
g64
NtRp4541
(dp4542
g67
(dp4543
sg76
g4537
sg69
(lp4544
g62
(g63
g64
NtRp4545
(dp4546
g67
(dp4547
g75
I2
ssg76
g4541
sg69
(lp4548
g62
(g71
g64
NtRp4549
(dp4550
g67
(dp4551
g75
I1
ssg76
Nsg69
(lp4552
g62
(g78
g64
NtRp4553
(dp4554
g67
(dp4555
sg76
g4549
sg69
(lp4556
g62
(g83
g64
NtRp4557
(dp4558
g67
(dp4559
sg76
g4553
sg69
(lp4560
g62
(g63
g64
NtRp4561
(dp4562
g67
(dp4563
g75
I1
ssg76
g4557
sg69
(lp4564
g4419
(S's\x08\x00\x00\x00My Sites'
tRp4565
asbasbasbag62
(g78
g64
NtRp4566
(dp4567
g67
(dp4568
sg76
g4549
sg69
(lp4569
g62
(g83
g64
NtRp4570
(dp4571
g67
(dp4572
sg76
g4566
sg69
(lp4573
g62
(g63
g64
NtRp4574
(dp4575
g67
(dp4576
g75
I1
ssg76
g4570
sg69
(lp4577
I00
asbasbasbag62
(g78
g64
NtRp4578
(dp4579
g67
(dp4580
sg76
g4549
sg69
(lp4581
g62
(g83
g64
NtRp4582
(dp4583
g67
(dp4584
sg76
g4578
sg69
(lp4585
g62
(g63
g64
NtRp4586
(dp4587
g67
(dp4588
g75
I1
ssg76
g4582
sg69
(lp4589
S'/admin/default/site'
p4590
asbasbasbasbasbasbasbag62
(g78
g64
NtRp4591
(dp4592
g67
(dp4593
sg76
g4533
sg69
(lp4594
g62
(g83
g64
NtRp4595
(dp4596
g67
(dp4597
sg76
g4591
sg69
(lp4598
g62
(g63
g64
NtRp4599
(dp4600
g67
(dp4601
g75
I2
ssg76
g4595
sg69
(lp4602
g62
(g71
g64
NtRp4603
(dp4604
g67
(dp4605
g75
I1
ssg76
Nsg69
(lp4606
g62
(g78
g64
NtRp4607
(dp4608
g67
(dp4609
sg76
g4603
sg69
(lp4610
g62
(g83
g64
NtRp4611
(dp4612
g67
(dp4613
sg76
g4607
sg69
(lp4614
g62
(g63
g64
NtRp4615
(dp4616
g67
(dp4617
g75
I1
ssg76
g4611
sg69
(lp4618
g4419
(S's\x08\x00\x00\x00This App'
tRp4619
asbasbasbag62
(g78
g64
NtRp4620
(dp4621
g67
(dp4622
sg76
g4603
sg69
(lp4623
g62
(g83
g64
NtRp4624
(dp4625
g67
(dp4626
sg76
g4620
sg69
(lp4627
g62
(g63
g64
NtRp4628
(dp4629
g67
(dp4630
g75
I1
ssg76
g4624
sg69
(lp4631
I00
asbasbasbag62
(g78
g64
NtRp4632
(dp4633
g67
(dp4634
sg76
g4603
sg69
(lp4635
g62
(g83
g64
NtRp4636
(dp4637
g67
(dp4638
sg76
g4632
sg69
(lp4639
g62
(g63
g64
NtRp4640
(dp4641
g67
(dp4642
g75
I1
ssg76
g4636
sg69
(lp4643
S'/admin/default/design/WSD_Tool'
p4644
asbasbasbag62
(g78
g64
NtRp4645
(dp4646
g67
(dp4647
sg76
g4603
sg69
(lp4648
g62
(g83
g64
NtRp4649
(dp4650
g67
(dp4651
sg76
g4645
sg69
(lp4652
g62
(g63
g64
NtRp4653
(dp4654
g67
(dp4655
g75
I1
ssg76
g4649
sg69
(lp4656
(lp4657
(g4419
(S't\n\x00\x00\x00Controller'
tRp4658
I00
S'/admin/default/edit/WSD_Tool/controllers/default.py'
tp4659
a(g4419
(S't\x04\x00\x00\x00View'
tRp4660
I00
S'/admin/default/edit/WSD_Tool/views/default/rel.html'
tp4661
a(g4419
(S't\x06\x00\x00\x00Layout'
tRp4662
I00
S'/admin/default/edit/WSD_Tool/views/layout.html'
tp4663
a(g4419
(S't\n\x00\x00\x00Stylesheet'
tRp4664
I00
S'/admin/default/edit/WSD_Tool/static/css/web2py.css'
tp4665
a(g4419
(S's\x08\x00\x00\x00DB Model'
tRp4666
I00
S'/admin/default/edit/WSD_Tool/models/db.py'
tp4667
a(g4419
(S's\n\x00\x00\x00Menu Model'
tRp4668
I00
S'/admin/default/edit/WSD_Tool/models/menu.py'
tp4669
a(g4419
(S't\x08\x00\x00\x00Database'
tRp4670
I00
S'/WSD_Tool/appadmin/index'
tp4671
a(g4419
(S't\x06\x00\x00\x00Errors'
tRp4672
I00
S'/admin/default/errors/WSD_Tool'
tp4673
a(g4419
(S't\x05\x00\x00\x00About'
tRp4674
I00
S'/admin/default/about/WSD_Tool'
tp4675
aasbasbasbasbasbasbasbag62
(g78
g64
NtRp4676
(dp4677
g67
(dp4678
sg76
g4533
sg69
(lp4679
g62
(g83
g64
NtRp4680
(dp4681
g67
(dp4682
sg76
g4676
sg69
(lp4683
g62
(g63
g64
NtRp4684
(dp4685
g67
(dp4686
g75
I2
ssg76
g4680
sg69
(lp4687
g62
(g71
g64
NtRp4688
(dp4689
g67
(dp4690
g75
I1
ssg76
Nsg69
(lp4691
g62
(g78
g64
NtRp4692
(dp4693
g67
(dp4694
sg76
g4688
sg69
(lp4695
g62
(g83
g64
NtRp4696
(dp4697
g67
(dp4698
sg76
g4692
sg69
(lp4699
g62
(g63
g64
NtRp4700
(dp4701
g67
(dp4702
g75
I1
ssg76
g4696
sg69
(lp4703
S'web2py.com'
p4704
asbasbasbag62
(g78
g64
NtRp4705
(dp4706
g67
(dp4707
sg76
g4688
sg69
(lp4708
g62
(g83
g64
NtRp4709
(dp4710
g67
(dp4711
sg76
g4705
sg69
(lp4712
g62
(g63
g64
NtRp4713
(dp4714
g67
(dp4715
g75
I1
ssg76
g4709
sg69
(lp4716
I00
asbasbasbag62
(g78
g64
NtRp4717
(dp4718
g67
(dp4719
sg76
g4688
sg69
(lp4720
g62
(g83
g64
NtRp4721
(dp4722
g67
(dp4723
sg76
g4717
sg69
(lp4724
g62
(g63
g64
NtRp4725
(dp4726
g67
(dp4727
g75
I1
ssg76
g4721
sg69
(lp4728
S'http://www.web2py.com'
p4729
asbasbasbag62
(g78
g64
NtRp4730
(dp4731
g67
(dp4732
sg76
g4688
sg69
(lp4733
g62
(g83
g64
NtRp4734
(dp4735
g67
(dp4736
sg76
g4730
sg69
(lp4737
g62
(g63
g64
NtRp4738
(dp4739
g67
(dp4740
g75
I1
ssg76
g4734
sg69
(lp4741
(lp4742
(g4419
(S't\x08\x00\x00\x00Download'
tRp4743
I00
S'http://www.web2py.com/examples/default/download'
p4744
tp4745
a(g4419
(S't\x07\x00\x00\x00Support'
tRp4746
I00
S'http://www.web2py.com/examples/default/support'
p4747
tp4748
a(g4419
(S't\x04\x00\x00\x00Demo'
tRp4749
I00
S'http://web2py.com/demo_admin'
p4750
tp4751
a(g4419
(S's\x0e\x00\x00\x00Quick Examples'
tRp4752
I00
S'http://web2py.com/examples/default/examples'
p4753
tp4754
a(g4419
(S't\x03\x00\x00\x00FAQ'
tRp4755
I00
S'http://web2py.com/AlterEgo'
p4756
tp4757
a(g4419
(S't\x06\x00\x00\x00Videos'
tRp4758
I00
S'http://www.web2py.com/examples/default/videos/'
p4759
tp4760
a(g4419
(S's\x11\x00\x00\x00Free Applications'
tRp4761
I00
S'http://web2py.com/appliances'
p4762
tp4763
a(g4419
(S't\x07\x00\x00\x00Plugins'
tRp4764
I00
S'http://web2py.com/plugins'
p4765
tp4766
a(g4419
(S't\x07\x00\x00\x00Layouts'
tRp4767
I00
S'http://web2py.com/layouts'
p4768
tp4769
a(g4419
(S't\x07\x00\x00\x00Recipes'
tRp4770
I00
S'http://web2pyslices.com/'
p4771
tp4772
a(g4419
(S't\x08\x00\x00\x00Semantic'
tRp4773
I00
S'http://web2py.com/semantic'
p4774
tp4775
aasbasbasbasbasbasbasbag62
(g78
g64
NtRp4776
(dp4777
g67
(dp4778
sg76
g4533
sg69
(lp4779
g62
(g83
g64
NtRp4780
(dp4781
g67
(dp4782
sg76
g4776
sg69
(lp4783
g62
(g63
g64
NtRp4784
(dp4785
g67
(dp4786
g75
I2
ssg76
g4780
sg69
(lp4787
g62
(g71
g64
NtRp4788
(dp4789
g67
(dp4790
g75
I1
ssg76
Nsg69
(lp4791
g62
(g78
g64
NtRp4792
(dp4793
g67
(dp4794
sg76
g4788
sg69
(lp4795
g62
(g83
g64
NtRp4796
(dp4797
g67
(dp4798
sg76
g4792
sg69
(lp4799
g62
(g63
g64
NtRp4800
(dp4801
g67
(dp4802
g75
I1
ssg76
g4796
sg69
(lp4803
g4419
(S't\r\x00\x00\x00Documentation'
tRp4804
asbasbasbag62
(g78
g64
NtRp4805
(dp4806
g67
(dp4807
sg76
g4788
sg69
(lp4808
g62
(g83
g64
NtRp4809
(dp4810
g67
(dp4811
sg76
g4805
sg69
(lp4812
g62
(g63
g64
NtRp4813
(dp4814
g67
(dp4815
g75
I1
ssg76
g4809
sg69
(lp4816
I00
asbasbasbag62
(g78
g64
NtRp4817
(dp4818
g67
(dp4819
sg76
g4788
sg69
(lp4820
g62
(g83
g64
NtRp4821
(dp4822
g67
(dp4823
sg76
g4817
sg69
(lp4824
g62
(g63
g64
NtRp4825
(dp4826
g67
(dp4827
g75
I1
ssg76
g4821
sg69
(lp4828
S'http://www.web2py.com/book'
p4829
asbasbasbag62
(g78
g64
NtRp4830
(dp4831
g67
(dp4832
sg76
g4788
sg69
(lp4833
g62
(g83
g64
NtRp4834
(dp4835
g67
(dp4836
sg76
g4830
sg69
(lp4837
g62
(g63
g64
NtRp4838
(dp4839
g67
(dp4840
g75
I1
ssg76
g4834
sg69
(lp4841
(lp4842
(g4419
(S't\x07\x00\x00\x00Preface'
tRp4843
I00
S'http://www.web2py.com/book/default/chapter/00'
p4844
tp4845
a(g4419
(S't\x0c\x00\x00\x00Introduction'
tRp4846
I00
S'http://www.web2py.com/book/default/chapter/01'
p4847
tp4848
a(g4419
(S't\x06\x00\x00\x00Python'
tRp4849
I00
S'http://www.web2py.com/book/default/chapter/02'
p4850
tp4851
a(g4419
(S't\x08\x00\x00\x00Overview'
tRp4852
I00
S'http://www.web2py.com/book/default/chapter/03'
p4853
tp4854
a(g4419
(S's\x08\x00\x00\x00The Core'
tRp4855
I00
S'http://www.web2py.com/book/default/chapter/04'
p4856
tp4857
a(g4419
(S's\t\x00\x00\x00The Views'
tRp4858
I00
S'http://www.web2py.com/book/default/chapter/05'
p4859
tp4860
a(g4419
(S't\x08\x00\x00\x00Database'
tRp4861
I00
S'http://www.web2py.com/book/default/chapter/06'
p4862
tp4863
a(g4419
(S's\x14\x00\x00\x00Forms and Validators'
tRp4864
I00
S'http://www.web2py.com/book/default/chapter/07'
p4865
tp4866
a(g4419
(S's\r\x00\x00\x00Email and SMS'
tRp4867
I00
S'http://www.web2py.com/book/default/chapter/08'
p4868
tp4869
a(g4419
(S's\x0e\x00\x00\x00Access Control'
tRp4870
I00
S'http://www.web2py.com/book/default/chapter/09'
p4871
tp4872
a(g4419
(S't\x08\x00\x00\x00Services'
tRp4873
I00
S'http://www.web2py.com/book/default/chapter/10'
p4874
tp4875
a(g4419
(S's\x0c\x00\x00\x00Ajax Recipes'
tRp4876
I00
S'http://www.web2py.com/book/default/chapter/11'
p4877
tp4878
a(g4419
(S's\x16\x00\x00\x00Components and Plugins'
tRp4879
I00
S'http://www.web2py.com/book/default/chapter/12'
p4880
tp4881
a(g4419
(S's\x12\x00\x00\x00Deployment Recipes'
tRp4882
I00
S'http://www.web2py.com/book/default/chapter/13'
p4883
tp4884
a(g4419
(S's\r\x00\x00\x00Other Recipes'
tRp4885
I00
S'http://www.web2py.com/book/default/chapter/14'
p4886
tp4887
a(g4419
(S's\r\x00\x00\x00Buy this book'
tRp4888
I00
S'http://stores.lulu.com/web2py'
p4889
tp4890
aasbasbasbasbasbasbasbag62
(g78
g64
NtRp4891
(dp4892
g67
(dp4893
sg76
g4533
sg69
(lp4894
g62
(g83
g64
NtRp4895
(dp4896
g67
(dp4897
sg76
g4891
sg69
(lp4898
g62
(g63
g64
NtRp4899
(dp4900
g67
(dp4901
g75
I2
ssg76
g4895
sg69
(lp4902
g62
(g71
g64
NtRp4903
(dp4904
g67
(dp4905
g75
I1
ssg76
Nsg69
(lp4906
g62
(g78
g64
NtRp4907
(dp4908
g67
(dp4909
sg76
g4903
sg69
(lp4910
g62
(g83
g64
NtRp4911
(dp4912
g67
(dp4913
sg76
g4907
sg69
(lp4914
g62
(g63
g64
NtRp4915
(dp4916
g67
(dp4917
g75
I1
ssg76
g4911
sg69
(lp4918
g4419
(S't\t\x00\x00\x00Community'
tRp4919
asbasbasbag62
(g78
g64
NtRp4920
(dp4921
g67
(dp4922
sg76
g4903
sg69
(lp4923
g62
(g83
g64
NtRp4924
(dp4925
g67
(dp4926
sg76
g4920
sg69
(lp4927
g62
(g63
g64
NtRp4928
(dp4929
g67
(dp4930
g75
I1
ssg76
g4924
sg69
(lp4931
I00
asbasbasbag62
(g78
g64
NtRp4932
(dp4933
g67
(dp4934
sg76
g4903
sg69
(lp4935
g62
(g83
g64
NtRp4936
(dp4937
g67
(dp4938
sg76
g4932
sg69
(lp4939
g62
(g63
g64
NtRp4940
(dp4941
g67
(dp4942
g75
I1
ssg76
g4936
sg69
(lp4943
Nasbasbasbag62
(g78
g64
NtRp4944
(dp4945
g67
(dp4946
sg76
g4903
sg69
(lp4947
g62
(g83
g64
NtRp4948
(dp4949
g67
(dp4950
sg76
g4944
sg69
(lp4951
g62
(g63
g64
NtRp4952
(dp4953
g67
(dp4954
g75
I1
ssg76
g4948
sg69
(lp4955
(lp4956
(g4419
(S't\x06\x00\x00\x00Groups'
tRp4957
I00
S'http://www.web2py.com/examples/default/usergroups'
p4958
tp4959
a(g4419
(S't\x07\x00\x00\x00Twitter'
tRp4960
I00
S'http://twitter.com/web2py'
p4961
tp4962
a(g4419
(S's\t\x00\x00\x00Live Chat'
tRp4963
I00
S'http://webchat.freenode.net/?channels=web2py'
p4964
tp4965
aasbasbasbasbasbasbasbag62
(g78
g64
NtRp4966
(dp4967
g67
(dp4968
sg76
g4533
sg69
(lp4969
g62
(g83
g64
NtRp4970
(dp4971
g67
(dp4972
sg76
g4966
sg69
(lp4973
g62
(g63
g64
NtRp4974
(dp4975
g67
(dp4976
g75
I2
ssg76
g4970
sg69
(lp4977
g62
(g71
g64
NtRp4978
(dp4979
g67
(dp4980
g75
I1
ssg76
Nsg69
(lp4981
g62
(g78
g64
NtRp4982
(dp4983
g67
(dp4984
sg76
g4978
sg69
(lp4985
g62
(g83
g64
NtRp4986
(dp4987
g67
(dp4988
sg76
g4982
sg69
(lp4989
g62
(g63
g64
NtRp4990
(dp4991
g67
(dp4992
g75
I1
ssg76
g4986
sg69
(lp4993
g4419
(S't\x07\x00\x00\x00Plugins'
tRp4994
asbasbasbag62
(g78
g64
NtRp4995
(dp4996
g67
(dp4997
sg76
g4978
sg69
(lp4998
g62
(g83
g64
NtRp4999
(dp5000
g67
(dp5001
sg76
g4995
sg69
(lp5002
g62
(g63
g64
NtRp5003
(dp5004
g67
(dp5005
g75
I1
ssg76
g4999
sg69
(lp5006
I00
asbasbasbag62
(g78
g64
NtRp5007
(dp5008
g67
(dp5009
sg76
g4978
sg69
(lp5010
g62
(g83
g64
NtRp5011
(dp5012
g67
(dp5013
sg76
g5007
sg69
(lp5014
g62
(g63
g64
NtRp5015
(dp5016
g67
(dp5017
g75
I1
ssg76
g5011
sg69
(lp5018
Nasbasbasbag62
(g78
g64
NtRp5019
(dp5020
g67
(dp5021
sg76
g4978
sg69
(lp5022
g62
(g83
g64
NtRp5023
(dp5024
g67
(dp5025
sg76
g5019
sg69
(lp5026
g62
(g63
g64
NtRp5027
(dp5028
g67
(dp5029
g75
I1
ssg76
g5023
sg69
(lp5030
(lp5031
(S'plugin_wiki'
p5032
I00
S'http://web2py.com/examples/default/download'
p5033
tp5034
a(g4419
(S's\r\x00\x00\x00Other Plugins'
tRp5035
I00
g4765
tp5036
a(g4419
(S's\x0e\x00\x00\x00Layout Plugins'
tRp5037
I00
g4768
tp5038
aasbasbasbasbasbasbasbasbasbasbasbasbasbasbasbasbasbasbasbag62
(g78
g64
NtRp5039
(dp5040
g67
(dp5041
sg76
g3929
sg69
(lp5042
g62
(g83
g64
NtRp5043
(dp5044
g67
(dp5045
g87
g88
ssg76
g5039
sg69
(lp5046
S'meta'
p5047
asbag62
(g83
g64
NtRp5048
(dp5049
g67
(dp5050
g94
g95
ssg76
g5039
sg69
(lp5051
S':'
asbag62
(g83
g64
NtRp5052
(dp5053
g67
(dp5054
sg76
g5039
sg69
(lp5055
g62
(g63
g64
NtRp5056
(dp5057
g67
(dp5058
g75
I5
ssg76
g5052
sg69
(lp5059
g62
(g71
g64
NtRp5060
(dp5061
g67
(dp5062
g75
I4
ssg76
Nsg69
(lp5063
g62
(g78
g64
NtRp5064
(dp5065
g67
(dp5066
sg76
g5060
sg69
(lp5067
g62
(g83
g64
NtRp5068
(dp5069
g67
(dp5070
g87
g88
ssg76
g5064
sg69
(lp5071
S'author'
p5072
asbag62
(g83
g64
NtRp5073
(dp5074
g67
(dp5075
g94
g95
ssg76
g5064
sg69
(lp5076
S':'
asbag62
(g83
g64
NtRp5077
(dp5078
g67
(dp5079
sg76
g5064
sg69
(lp5080
g62
(g63
g64
NtRp5081
(dp5082
g67
(dp5083
g75
I4
ssg76
g5077
sg69
(lp5084
S'Your Name <you@example.com>'
p5085
asbasbasbag62
(g78
g64
NtRp5086
(dp5087
g67
(dp5088
sg76
g5060
sg69
(lp5089
g62
(g83
g64
NtRp5090
(dp5091
g67
(dp5092
g87
g88
ssg76
g5086
sg69
(lp5093
S'copyright'
p5094
asbag62
(g83
g64
NtRp5095
(dp5096
g67
(dp5097
g94
g95
ssg76
g5086
sg69
(lp5098
S':'
asbag62
(g83
g64
NtRp5099
(dp5100
g67
(dp5101
sg76
g5086
sg69
(lp5102
g62
(g63
g64
NtRp5103
(dp5104
g67
(dp5105
g75
I4
ssg76
g5099
sg69
(lp5106
S'Copyright 2011'
p5107
asbasbasbag62
(g78
g64
NtRp5108
(dp5109
g67
(dp5110
sg76
g5060
sg69
(lp5111
g62
(g83
g64
NtRp5112
(dp5113
g67
(dp5114
g87
g88
ssg76
g5108
sg69
(lp5115
S'description'
p5116
asbag62
(g83
g64
NtRp5117
(dp5118
g67
(dp5119
g94
g95
ssg76
g5108
sg69
(lp5120
S':'
asbag62
(g83
g64
NtRp5121
(dp5122
g67
(dp5123
sg76
g5108
sg69
(lp5124
g62
(g63
g64
NtRp5125
(dp5126
g67
(dp5127
g75
I4
ssg76
g5121
sg69
(lp5128
S'a cool new app'
p5129
asbasbasbag62
(g78
g64
NtRp5130
(dp5131
g67
(dp5132
sg76
g5060
sg69
(lp5133
g62
(g83
g64
NtRp5134
(dp5135
g67
(dp5136
g87
g88
ssg76
g5130
sg69
(lp5137
S'generator'
p5138
asbag62
(g83
g64
NtRp5139
(dp5140
g67
(dp5141
g94
g95
ssg76
g5130
sg69
(lp5142
S':'
asbag62
(g83
g64
NtRp5143
(dp5144
g67
(dp5145
sg76
g5130
sg69
(lp5146
g62
(g63
g64
NtRp5147
(dp5148
g67
(dp5149
g75
I4
ssg76
g5143
sg69
(lp5150
S'Web2py Web Framework'
p5151
asbasbasbag62
(g78
g64
NtRp5152
(dp5153
g67
(dp5154
sg76
g5060
sg69
(lp5155
g62
(g83
g64
NtRp5156
(dp5157
g67
(dp5158
g87
g88
ssg76
g5152
sg69
(lp5159
S'keywords'
p5160
asbag62
(g83
g64
NtRp5161
(dp5162
g67
(dp5163
g94
g95
ssg76
g5152
sg69
(lp5164
S':'
asbag62
(g83
g64
NtRp5165
(dp5166
g67
(dp5167
sg76
g5152
sg69
(lp5168
g62
(g63
g64
NtRp5169
(dp5170
g67
(dp5171
g75
I4
ssg76
g5165
sg69
(lp5172
S'web2py, python, framework'
p5173
asbasbasbasbasbasbasbag62
(g78
g64
NtRp5174
(dp5175
g67
(dp5176
sg76
g3929
sg69
(lp5177
g62
(g83
g64
NtRp5178
(dp5179
g67
(dp5180
g87
g88
ssg76
g5174
sg69
(lp5181
S'models_to_run'
p5182
asbag62
(g83
g64
NtRp5183
(dp5184
g67
(dp5185
g94
g95
ssg76
g5174
sg69
(lp5186
S':'
asbag62
(g83
g64
NtRp5187
(dp5188
g67
(dp5189
sg76
g5174
sg69
(lp5190
g62
(g63
g64
NtRp5191
(dp5192
g67
(dp5193
g75
I5
ssg76
g5187
sg69
(lp5194
g62
(g71
g64
NtRp5195
(dp5196
g67
(dp5197
g75
I4
ssg76
Nsg69
(lp5198
g62
(g78
g64
NtRp5199
(dp5200
g67
(dp5201
sg76
g5195
sg69
(lp5202
g62
(g83
g64
NtRp5203
(dp5204
g67
(dp5205
sg76
g5199
sg69
(lp5206
g62
(g63
g64
NtRp5207
(dp5208
g67
(dp5209
g75
I4
ssg76
g5203
sg69
(lp5210
S'^\\w+\\.py$'
p5211
asbasbasbag62
(g78
g64
NtRp5212
(dp5213
g67
(dp5214
sg76
g5195
sg69
(lp5215
g62
(g83
g64
NtRp5216
(dp5217
g67
(dp5218
sg76
g5212
sg69
(lp5219
g62
(g63
g64
NtRp5220
(dp5221
g67
(dp5222
g75
I4
ssg76
g5216
sg69
(lp5223
S'^default/\\w+\\.py$'
p5224
asbasbasbag62
(g78
g64
NtRp5225
(dp5226
g67
(dp5227
sg76
g5195
sg69
(lp5228
g62
(g83
g64
NtRp5229
(dp5230
g67
(dp5231
sg76
g5225
sg69
(lp5232
g62
(g63
g64
NtRp5233
(dp5234
g67
(dp5235
g75
I4
ssg76
g5229
sg69
(lp5236
S'^default/rel/\\w+\\.py$'
p5237
asbasbasbasbasbasbasbag62
(g78
g64
NtRp5238
(dp5239
g67
(dp5240
sg76
g3929
sg69
(lp5241
g62
(g83
g64
NtRp5242
(dp5243
g67
(dp5244
g87
g88
ssg76
g5238
sg69
(lp5245
S'postprocessing'
p5246
asbag62
(g83
g64
NtRp5247
(dp5248
g67
(dp5249
g94
g95
ssg76
g5238
sg69
(lp5250
S':'
asbag62
(g83
g64
NtRp5251
(dp5252
g67
(dp5253
sg76
g5238
sg69
(lp5254
g62
(g63
g64
NtRp5255
(dp5256
g67
(dp5257
g75
I5
ssg76
g5251
sg69
(lp5258
g62
(g71
g64
NtRp5259
(dp5260
g67
(dp5261
g75
I4
ssg76
Nsg69
(lp5262
sbasbasbasbag62
(g78
g64
NtRp5263
(dp5264
g67
(dp5265
sg76
g3929
sg69
(lp5266
g62
(g83
g64
NtRp5267
(dp5268
g67
(dp5269
g87
g88
ssg76
g5263
sg69
(lp5270
S'session_cookie_expires'
p5271
asbag62
(g83
g64
NtRp5272
(dp5273
g67
(dp5274
g94
g95
ssg76
g5263
sg69
(lp5275
S':'
asbag62
(g83
g64
NtRp5276
(dp5277
g67
(dp5278
sg76
g5263
sg69
(lp5279
g62
(g63
g64
NtRp5280
(dp5281
g67
(dp5282
g75
I5
ssg76
g5276
sg69
(lp5283
S'None'
p5284
asbasbasbag62
(g78
g64
NtRp5285
(dp5286
g67
(dp5287
sg76
g3929
sg69
(lp5288
g62
(g83
g64
NtRp5289
(dp5290
g67
(dp5291
g87
g88
ssg76
g5285
sg69
(lp5292
S'session_data_name'
p5293
asbag62
(g83
g64
NtRp5294
(dp5295
g67
(dp5296
g94
g95
ssg76
g5285
sg69
(lp5297
S':'
asbag62
(g83
g64
NtRp5298
(dp5299
g67
(dp5300
sg76
g5285
sg69
(lp5301
g62
(g63
g64
NtRp5302
(dp5303
g67
(dp5304
g75
I5
ssg76
g5298
sg69
(lp5305
S'session_data_wsd_tool'
p5306
asbasbasbag62
(g78
g64
NtRp5307
(dp5308
g67
(dp5309
sg76
g3929
sg69
(lp5310
g62
(g83
g64
NtRp5311
(dp5312
g67
(dp5313
g87
g88
ssg76
g5307
sg69
(lp5314
S'session_file'
p5315
asbag62
(g83
g64
NtRp5316
(dp5317
g67
(dp5318
g94
g95
ssg76
g5307
sg69
(lp5319
S':'
asbag62
(g83
g64
NtRp5320
(dp5321
g67
(dp5322
sg76
g5307
sg69
(lp5323
g62
(g63
g64
NtRp5324
(dp5325
g67
(dp5326
g75
I5
ssg76
g5320
sg69
(lp5327
S"<open file '/home/nazrul/web2py/applications/WSD_Tool/sessions/127.0.0.1-48e345ac-6165-4891-9c6c-2f808a680f24', mode 'rb+' at 0xa0a1498>"
p5328
asbasbasbag62
(g78
g64
NtRp5329
(dp5330
g67
(dp5331
sg76
g3929
sg69
(lp5332
g62
(g83
g64
NtRp5333
(dp5334
g67
(dp5335
g87
g88
ssg76
g5329
sg69
(lp5336
S'session_filename'
p5337
asbag62
(g83
g64
NtRp5338
(dp5339
g67
(dp5340
g94
g95
ssg76
g5329
sg69
(lp5341
S':'
asbag62
(g83
g64
NtRp5342
(dp5343
g67
(dp5344
sg76
g5329
sg69
(lp5345
g62
(g63
g64
NtRp5346
(dp5347
g67
(dp5348
g75
I5
ssg76
g5342
sg69
(lp5349
S'/home/nazrul/web2py/applications/WSD_Tool/sessions/127.0.0.1-48e345ac-6165-4891-9c6c-2f808a680f24'
p5350
asbasbasbag62
(g78
g64
NtRp5351
(dp5352
g67
(dp5353
sg76
g3929
sg69
(lp5354
g62
(g83
g64
NtRp5355
(dp5356
g67
(dp5357
g87
g88
ssg76
g5351
sg69
(lp5358
S'session_id'
p5359
asbag62
(g83
g64
NtRp5360
(dp5361
g67
(dp5362
g94
g95
ssg76
g5351
sg69
(lp5363
S':'
asbag62
(g83
g64
NtRp5364
(dp5365
g67
(dp5366
sg76
g5351
sg69
(lp5367
g62
(g63
g64
NtRp5368
(dp5369
g67
(dp5370
g75
I5
ssg76
g5364
sg69
(lp5371
g852
asbasbasbag62
(g78
g64
NtRp5372
(dp5373
g67
(dp5374
sg76
g3929
sg69
(lp5375
g62
(g83
g64
NtRp5376
(dp5377
g67
(dp5378
g87
g88
ssg76
g5372
sg69
(lp5379
S'session_id_name'
p5380
asbag62
(g83
g64
NtRp5381
(dp5382
g67
(dp5383
g94
g95
ssg76
g5372
sg69
(lp5384
S':'
asbag62
(g83
g64
NtRp5385
(dp5386
g67
(dp5387
sg76
g5372
sg69
(lp5388
g62
(g63
g64
NtRp5389
(dp5390
g67
(dp5391
g75
I5
ssg76
g5385
sg69
(lp5392
g3986
asbasbasbag62
(g78
g64
NtRp5393
(dp5394
g67
(dp5395
sg76
g3929
sg69
(lp5396
g62
(g83
g64
NtRp5397
(dp5398
g67
(dp5399
g87
g88
ssg76
g5393
sg69
(lp5400
S'session_locked'
p5401
asbag62
(g83
g64
NtRp5402
(dp5403
g67
(dp5404
g94
g95
ssg76
g5393
sg69
(lp5405
S':'
asbag62
(g83
g64
NtRp5406
(dp5407
g67
(dp5408
sg76
g5393
sg69
(lp5409
g62
(g63
g64
NtRp5410
(dp5411
g67
(dp5412
g75
I5
ssg76
g5406
sg69
(lp5413
g1982
asbasbasbag62
(g78
g64
NtRp5414
(dp5415
g67
(dp5416
sg76
g3929
sg69
(lp5417
g62
(g83
g64
NtRp5418
(dp5419
g67
(dp5420
g87
g88
ssg76
g5414
sg69
(lp5421
S'session_new'
p5422
asbag62
(g83
g64
NtRp5423
(dp5424
g67
(dp5425
g94
g95
ssg76
g5414
sg69
(lp5426
S':'
asbag62
(g83
g64
NtRp5427
(dp5428
g67
(dp5429
sg76
g5414
sg69
(lp5430
g62
(g63
g64
NtRp5431
(dp5432
g67
(dp5433
g75
I5
ssg76
g5427
sg69
(lp5434
g105
asbasbasbag62
(g78
g64
NtRp5435
(dp5436
g67
(dp5437
sg76
g3929
sg69
(lp5438
g62
(g83
g64
NtRp5439
(dp5440
g67
(dp5441
g87
g88
ssg76
g5435
sg69
(lp5442
S'session_storage_type'
p5443
asbag62
(g83
g64
NtRp5444
(dp5445
g67
(dp5446
g94
g95
ssg76
g5435
sg69
(lp5447
S':'
asbag62
(g83
g64
NtRp5448
(dp5449
g67
(dp5450
sg76
g5435
sg69
(lp5451
g62
(g63
g64
NtRp5452
(dp5453
g67
(dp5454
g75
I5
ssg76
g5448
sg69
(lp5455
g3434
asbasbasbag62
(g78
g64
NtRp5456
(dp5457
g67
(dp5458
sg76
g3929
sg69
(lp5459
g62
(g83
g64
NtRp5460
(dp5461
g67
(dp5462
g87
g88
ssg76
g5456
sg69
(lp5463
S'status'
p5464
asbag62
(g83
g64
NtRp5465
(dp5466
g67
(dp5467
g94
g95
ssg76
g5456
sg69
(lp5468
S':'
asbag62
(g83
g64
NtRp5469
(dp5470
g67
(dp5471
sg76
g5456
sg69
(lp5472
g62
(g63
g64
NtRp5473
(dp5474
g67
(dp5475
g75
I5
ssg76
g5469
sg69
(lp5476
S'200'
p5477
asbasbasbag62
(g78
g64
NtRp5478
(dp5479
g67
(dp5480
sg76
g3929
sg69
(lp5481
g62
(g83
g64
NtRp5482
(dp5483
g67
(dp5484
g87
g88
ssg76
g5478
sg69
(lp5485
S'subtitle'
p5486
asbag62
(g83
g64
NtRp5487
(dp5488
g67
(dp5489
g94
g95
ssg76
g5478
sg69
(lp5490
S':'
asbag62
(g83
g64
NtRp5491
(dp5492
g67
(dp5493
sg76
g5478
sg69
(lp5494
g62
(g63
g64
NtRp5495
(dp5496
g67
(dp5497
g75
I5
ssg76
g5491
sg69
(lp5498
g4419
(S's\r\x00\x00\x00customize me!'
tRp5499
asbasbasbag62
(g78
g64
NtRp5500
(dp5501
g67
(dp5502
sg76
g3929
sg69
(lp5503
g62
(g83
g64
NtRp5504
(dp5505
g67
(dp5506
g87
g88
ssg76
g5500
sg69
(lp5507
S'title'
p5508
asbag62
(g83
g64
NtRp5509
(dp5510
g67
(dp5511
g94
g95
ssg76
g5500
sg69
(lp5512
S':'
asbag62
(g83
g64
NtRp5513
(dp5514
g67
(dp5515
sg76
g5500
sg69
(lp5516
g62
(g63
g64
NtRp5517
(dp5518
g67
(dp5519
g75
I5
ssg76
g5513
sg69
(lp5520
S'Wsd Tool'
p5521
asbasbasbag62
(g78
g64
NtRp5522
(dp5523
g67
(dp5524
sg76
g3929
sg69
(lp5525
g62
(g83
g64
NtRp5526
(dp5527
g67
(dp5528
g87
g88
ssg76
g5522
sg69
(lp5529
S'view'
p5530
asbag62
(g83
g64
NtRp5531
(dp5532
g67
(dp5533
g94
g95
ssg76
g5522
sg69
(lp5534
S':'
asbag62
(g83
g64
NtRp5535
(dp5536
g67
(dp5537
sg76
g5522
sg69
(lp5538
g62
(g63
g64
NtRp5539
(dp5540
g67
(dp5541
g75
I5
ssg76
g5535
sg69
(lp5542
S'default/rel.html'
p5543
asbasbasbasbasbsS'locals'
p5544
(dp5545
S's'
S'\'A Lorillard spokewoman said, "This is an old story.\''
p5546
sS'st'
p5547
S'\'<TITLE> test. </TITLE> \\n <p> A Lorillard spokewoman said, "This is an old story. </p>\\n\''
p5548
sS'f'
S"<closed file 'sample', mode 'w'>"
p5549
sssS'traceback'
p5550
S'Traceback (most recent call last):\n  File "/home/nazrul/web2py/gluon/restricted.py", line 212, in restricted\n    exec ccode in environment\n  File "/home/nazrul/web2py/applications/WSD_Tool/controllers/default.py", line 261, in <module>\n  File "/home/nazrul/web2py/gluon/globals.py", line 193, in <lambda>\n    self._caller = lambda f: f()\n  File "/home/nazrul/web2py/applications/WSD_Tool/controllers/default.py", line 252, in rel\n    f=open(\'$HOME_anu_tmp/tmp/sample_tmp/2.1/word.dat\',\'r\')\nIOError: [Errno 2] No such file or directory: \'$HOME_anu_tmp/tmp/sample_tmp/2.1/word.dat\'\n'
p5551
s.