(dp1
S'output'
p2
S"<type 'exceptions.TypeError'> int() argument must be a string or a number, not 'NoneType'"
p3
sS'layer'
p4
S'/home/nazrul/web2py/applications/WSD/views/default/sentence_select.html'
p5
sS'code'
p6
S'response.write(\'<!DOCTYPE html PUBLIC "-//W3C//DTD XHTML 1.0 Strict//EN" "http://www.w3.org/TR/xhtml1/DTD/xhtml1-strict.dtd">\\n<!--\\n\\nDesign by Free CSS Templates\\nhttp://www.freecsstemplates.org\\nReleased for free under a Creative Commons Attribution 2.5 License\\n\\nTitle      : Interlude\\nVersion    : 1.0\\nReleased   : 20080903\\nDescription: A multi-column, fixed-width design for 800x600 resolutions.\\n\\n-->\\n<html xmlns="http://www.w3.org/1999/xhtml">\\n <head>\\n  <title>\\n   \', escape=False)\nresponse.write(response.title or request.application)\nresponse.write(\'\\n  </title>\\n  \', escape=False)\nresponse.files.append(URL(request.application,\'static\',\'plugin_layouts/layouts/Interlude/default.css\'))\nresponse.write(\'\\n  \', escape=False)\nresponse.files.append(URL(\'static\',\'plugin_layouts/superfish.js\'))\nresponse.write(\'\\n  \', escape=False)\nresponse.write(\'<script type="text/javascript"><!--\\n    // These variables are used by the web2py_ajax_init function in web2py_ajax.js (which is loaded below).\\n    var w2p_ajax_confirm_message = "\', escape=False)\nresponse.write(T(\'Are you sure you want to delete this object?\'))\nresponse.write(\'";\\n    var w2p_ajax_date_format = "\', escape=False)\nresponse.write(T(\'%Y-%m-%d\'))\nresponse.write(\'";\\n    var w2p_ajax_datetime_format = "\', escape=False)\nresponse.write(T(\'%Y-%m-%d %H:%M:%S\'))\nresponse.write(\'";\\n    //--></script>\\n\', escape=False)\nresponse.files.insert(0,URL(\'static\',\'js/jquery.js\'))\nresponse.files.insert(1,URL(\'static\',\'css/calendar.css\'))\nresponse.files.insert(2,URL(\'static\',\'js/calendar.js\'))\nresponse.files.insert(3,URL(\'static\',\'js/web2py.js\'))\nresponse.include_meta()\nresponse.include_files()\nresponse.write(\'\\n\', escape=False)\nresponse.write(\'\\n\\n  <style>\\n<!--ul.web2py-menu-vertical { width: 150px; position: relative; top:1em; left:1em;  z-index:30; border:0; margin:0; padding: 0; list-style: none; text-decoration: none;}\\nul.web2py-menu-vertical li { margin:0; padding:0; border:0; width: 150px; background: black; text-align:left;}\\nul.web2py-menu-vertical li a { margin:0; padding: 1px 3px 1px 3px; border:0; width: 144px; color: white; font-size:12px;}\\n\\ndiv.flash { position: fixed; float: right; padding: 10px; top: 10px; right: 30px; opacity: 0.75; margin: 10px 10px 10px 10px; text-align: center; clear: both; color: #fff; font-size: 11pt; text-align: center; vertical-align: middle; cursor: pointer; background: black; border: 2px solid #fff; -moz-border-radius: 5px; -webkit-border-radius: 5px; z-index: 2; }-->\\n<!--\\ndiv.error { background-color: red; color: white; padding: 3px; }\\n.auth_navbar { text-align:right; z-index:20; position: absolute; top: 2px; right:30px; border:0; padding:0 }-->\\n#basic_login{position:relative;top:230px;right=-2px;}\\n  </style>\\n  \\n </head>\\n <body>\\n  <!-- start header -->\\n  <div id="header">\\n   <div id="logo">\\n    <h1>\\n     \', escape=False)\nresponse.write(response.title or request.application)\nresponse.write(\'\\n    </h1>\\n<!--    <p>\\n     <a href="http://www.freecsstemplates.org/">\\n      Design by Free CSS Templates\\n     </a>\\n    </p>-->\\n   </div>\\n   <!--\\n   <div id="menu">\\n   \\n    \', escape=False)\nresponse.write(MENU(response.menu,_class=\'web2py-menu\'))\nresponse.write(\'\\n   \\n    <script>\\n      jQuery(document).ready(function(){jQuery(\\\'ul.web2py-menu\\\').superfish({delay:400});});\\n    </script>\\n    \\n   </div>\\n   -->\\n   <div id="basic_login">\\n       \', escape=False)\nif auth.user:\n    response.write(\'\\n       <a style="position:relative;left:-370px;text-decoration:none;font-weight:bold"href="\', escape=False)\n    response.write(URL(\'home\'))\n    response.write(\'">HOME</a>\\n       \', escape=False)\n    pass\nresponse.write(\'\\n  <!-- start header -->\\n  \', escape=False)\ntry:\n    response.write(auth.navbar(action=URL(\'default\',\'user\')))\nexcept:pass\nresponse.write(\'\\n</div>\\n\\n\\n\\n\\n  </div>\\n\\n\\n  <hr />\\n\\n  <!-- end header -->\\n  <!-- start page -->\\n  <div id="wrapper">\\n   <div id="page">\\n    <!-- start content -->\\n    <div id="content">\\n<!--     <div class="flash">\', escape=False)\nresponse.write(response.flash or \'\')\nresponse.write(\'</div>-->\\n     \', escape=False)\nresponse.write(\'\\n<style>\\n\\n    .myButton {\\n        \\n        -moz-box-shadow:inset 0px 0px 15px 3px #23395e;\\n        -webkit-box-shadow:inset 0px 0px 15px 3px #23395e;\\n        box-shadow:inset 0px 0px 15px 3px #23395e;\\n        \\n        background:-webkit-gradient(linear, left top, left bottom, color-stop(0.05, #2e466e), color-stop(1, #415989));\\n        background:-moz-linear-gradient(top, #2e466e 5%, #415989 100%);\\n        background:-webkit-linear-gradient(top, #2e466e 5%, #415989 100%);\\n        background:-o-linear-gradient(top, #2e466e 5%, #415989 100%);\\n        background:-ms-linear-gradient(top, #2e466e 5%, #415989 100%);\\n        background:linear-gradient(to bottom, #2e466e 5%, #415989 100%);\\n        filter:progid:DXImageTransform.Microsoft.gradient(startColorstr=\\\'#2e466e\\\', endColorstr=\\\'#415989\\\',GradientType=0);\\n        \\n        background-color:#2e466e;\\n        \\n        -moz-border-radius:17px;\\n        -webkit-border-radius:17px;\\n        border-radius:17px;\\n        \\n        border:1px solid #1f2f47;\\n        \\n        display:inline-block;\\n        color:#ffffff;\\n        font-family:arial;\\n        font-size:15px;\\n        font-weight:normal;\\n        padding:6px 13px;\\n        text-decoration:none;\\n        \\n        text-shadow:0px 1px 0px #263666;\\n        \\n    }\\n    .myButton:hover {\\n        \\n        background:-webkit-gradient(linear, left top, left bottom, color-stop(0.05, #415989), color-stop(1, #2e466e));\\n        background:-moz-linear-gradient(top, #415989 5%, #2e466e 100%);\\n        background:-webkit-linear-gradient(top, #415989 5%, #2e466e 100%);\\n        background:-o-linear-gradient(top, #415989 5%, #2e466e 100%);\\n        background:-ms-linear-gradient(top, #415989 5%, #2e466e 100%);\\n        background:linear-gradient(to bottom, #415989 5%, #2e466e 100%);\\n        filter:progid:DXImageTransform.Microsoft.gradient(startColorstr=\\\'#415989\\\', endColorstr=\\\'#2e466e\\\',GradientType=0);\\n        \\n        background-color:#415989;\\n    }\\n    .myButton:active {\\n        position:relative;\\n        top:1px;\\n    }\\n\\n</style>\\n<br><br><br><br>\\n<span style="font-weight:bold;font-size:15px;">Selected Word: </span> &nbsp;&nbsp;<input type=\\\'text\\\' value="\', escape=False)\nresponse.write(w)\nresponse.write(\'"><br>\\n\', escape=False)\ns = []\nresponse.write(\'\\n\', escape=False)\nr = db(db.links.wid==int(d)).select(db.links.sid)\nresponse.write(\'\\n\', escape=False)\nfor i in r:\n    response.write(\'\\n\', escape=False)\n    x =db(db.sentences.id==i.sid).select()\n    response.write(\'\\n\', escape=False)\n    for er in x:\n        response.write(\'\\n\', escape=False)\n        if int(er.level) == int(level_set):\n            response.write(\'\\n\', escape=False)\n            s.append(er.esentence)\n            response.write(\'\\n\', escape=False)\n            pass\n        response.write(\'\\n\', escape=False)\n        pass\n    response.write(\'\\n\', escape=False)\n    pass\nresponse.write(\'\\n<br>\\n\', escape=False)\nif s:\n    response.write(\'\\n<form method="POST">\\n    <span style="font-weight:bold;font-size:15px;">Select sentence:</span>&nbsp;&nbsp;\\n<select name="sentence">\\n\', escape=False)\n    for i in s:\n        response.write(\'\\n<option value="\', escape=False)\n        response.write(i)\n        response.write(\'">\', escape=False)\n        response.write(i)\n        response.write(\'</option>\\n\', escape=False)\n        pass\n    response.write(\'\\n    </select><br><br>\\n\\n<script src="http://www.google.com/jsapi?key=AIzaSyA5m1Nc8ws2BbmPRwKu5gFradvD_hgq6G0" type="text/javascript"></script>\\n    <script type="text/javascript">\\n    \\n    google.load("elements", "1", {packages: "keyboard"});\\n    \\n    function onLoad() {\\n    \\n      var kbd = new google.elements.keyboard.Keyboard(\\n          [google.elements.keyboard.LayoutCode.HINDI],\\n          [\\\'hindit\\\']);\\n    }\\n    \\n    google.setOnLoadCallback(onLoad);\\n    \\n    </script>\\n    <span style="font-weight:bold;font-size:15px;">Your hindi translation for the word:</span>&nbsp;&nbsp;<input type="text" name="hindit" id="hindit"><br>\\n<br><br>\\n    <input class="myButton" style="position:relative;left:250px;top:0px;font-weight:bold" type="submit" name="submit" value="next"><br><br>\\n\\n\', escape=False)\nelse:\n    response.write(\'\\n\', escape=False)\n    redirect(\'word_select\')\n    response.write(\'\\n\', escape=False)\n    pass\nresponse.write(\'\\n\', escape=False)\nresponse.write(\'\\n     <br />\\n     <br />\\n     <br />\\n     <br />\\n     <br />\\n     <br />\\n     <br />\\n     <br />\\n    </div>\\n    <!-- end content -->\\n    <!-- start sidebar -->\\n<!--    <div id="sidebar">\\n     <ul>\\n      <li id="categories">\\n       <h2>\\n        Categories\\n       </h2>\\n       <ul>\\n        <li>\\n         <a href="#">\\n          Lorem Ipsum\\n         </a>\\n         (1)\\n        </li>\\n        <li>\\n         <a href="#">\\n          Uncategorized\\n         </a>\\n         (4)\\n        </li>\\n        <li>\\n         <a href="#">\\n          Nulla luctus eleifend\\n         </a>\\n         (1)\\n        </li>\\n        <li>\\n         <a href="#">\\n          Pellentesque tempus\\n         </a>\\n         (4)\\n        </li>\\n        <li>\\n         <a href="#">\\n          Donec dictum metus\\n         </a>\\n         (1)\\n        </li>\\n        <li>\\n         <a href="#">\\n          Etiam posuere augue\\n         </a>\\n         (4)\\n        </li>\\n       </ul>\\n      </li>\\n      <li id="calendar">\\n       <h2>\\n        Calendar\\n       </h2>\\n       <div id="calendar_wrap">\\n        <table id="wp-calendar" summary="Calendar">\\n         <caption>\\n          September 2008\\n         </caption>\\n         <thead>\\n          <tr>\\n           <th abbr="Monday" scope="col" title="Monday">\\n            M\\n           </th>\\n           <th abbr="Tuesday" scope="col" title="Tuesday">\\n            T\\n           </th>\\n           <th abbr="Wednesday" scope="col" title="Wednesday">\\n            W\\n           </th>\\n           <th abbr="Thursday" scope="col" title="Thursday">\\n            T\\n           </th>\\n           <th abbr="Friday" scope="col" title="Friday">\\n            F\\n           </th>\\n           <th abbr="Saturday" scope="col" title="Saturday">\\n            S\\n           </th>\\n           <th abbr="Sunday" scope="col" title="Sunday">\\n            S\\n           </th>\\n          </tr>\\n         </thead>\\n         <tfoot>\\n          <tr>\\n           <td abbr="July" colspan="3" id="prev">\\n            <a href="#">\\n             &laquo; Jul\\n            </a>\\n           </td>\\n           <td class="pad">\\n            &nbsp;\\n           </td>\\n           <td abbr="September" colspan="3" id="next" class="pad">\\n            <a href="#">\\n             Sep &raquo;\\n            </a>\\n           </td>\\n          </tr>\\n         </tfoot>\\n         <tbody>\\n          <tr>\\n           <td colspan="2" class="pad">\\n            &nbsp;\\n           </td>\\n           <td>\\n            1\\n           </td>\\n           <td>\\n            2\\n           </td>\\n           <td>\\n            3\\n           </td>\\n           <td>\\n            4\\n           </td>\\n           <td>\\n            5\\n           </td>\\n          </tr>\\n          <tr>\\n           <td>\\n            6\\n           </td>\\n           <td>\\n            7\\n           </td>\\n           <td>\\n            8\\n           </td>\\n           <td>\\n            9\\n           </td>\\n           <td>\\n            10\\n           </td>\\n           <td>\\n            11\\n           </td>\\n           <td>\\n            12\\n           </td>\\n          </tr>\\n          <tr>\\n           <td>\\n            13\\n           </td>\\n           <td>\\n            14\\n           </td>\\n           <td>\\n            15\\n           </td>\\n           <td>\\n            16\\n           </td>\\n           <td>\\n            17\\n           </td>\\n           <td>\\n            18\\n           </td>\\n           <td>\\n            19\\n           </td>\\n          </tr>\\n          <tr>\\n           <td>\\n            20\\n           </td>\\n           <td id="today">\\n            21\\n           </td>\\n           <td>\\n            22\\n           </td>\\n           <td>\\n            23\\n           </td>\\n           <td>\\n            24\\n           </td>\\n           <td>\\n            25\\n           </td>\\n           <td>\\n            26\\n           </td>\\n          </tr>\\n          <tr>\\n           <td>\\n            27\\n           </td>\\n           <td>\\n            28\\n           </td>\\n           <td>\\n            29\\n           </td>\\n           <td>\\n            30\\n           </td>\\n           <td>\\n            31\\n           </td>\\n           <td class="pad" colspan="2">\\n            &nbsp;\\n           </td>\\n          </tr>\\n         </tbody>\\n        </table>\\n       </div>\\n      </li>\\n      <li>\\n       <h2>\\n        Lorem Ipsum Dolor\\n       </h2>\\n       <ul>\\n        <li>\\n         <a href="#">\\n          Nulla luctus eleifend purus\\n         </a>\\n        </li>\\n        <li>\\n         <a href="#">\\n          Praesent scelerisque scelerisque erat\\n         </a>\\n        </li>\\n        <li>\\n         <a href="#">\\n          Ut nonummy rutrum sem\\n         </a>\\n        </li>\\n        <li>\\n         <a href="#">\\n          Pellentesque tempus quam quis nulla\\n         </a>\\n        </li>\\n        <li>\\n         <a href="#">\\n          Fusce ultrices fringilla metus\\n         </a>\\n        </li>\\n        <li>\\n         <a href="#">\\n          Praesent mattis condimentum nisl\\n         </a>\\n        </li>\\n       </ul>\\n      </li>\\n     </ul>\\n    </div>-->\\n    <!-- end sidebar -->\\n    <br style="clear: both;" />\\n   </div>\\n  </div>\\n  <!-- end page -->\\n  <!-- start footer -->\\n  <div id="wrapper2">\\n    \\n\\n   <div id="footer">\\n<!--\\n    <ul>\\n     <li class="first">\\n      <h2>\\n       Mauris vulputate dolor\\n      </h2>\\n      <ul>\\n       <li>\\n        <a href="#">\\n         Nulla luctus eleifend purus\\n        </a>\\n       </li>\\n       <li>\\n        <a href="#">\\n         Praesent scelerisque scelerisque erat\\n        </a>\\n       </li>\\n       <li>\\n        <a href="#">\\n         Ut nonummy rutrum sem\\n        </a>\\n       </li>\\n       <li>\\n        <a href="#">\\n         Pellentesque tempus quam quis nulla\\n        </a>\\n       </li>\\n       <li>\\n        <a href="#">\\n         Fusce ultrices fringilla metus\\n        </a>\\n       </li>\\n       <li>\\n        <a href="#">\\n         Praesent mattis condimentum nisl\\n        </a>\\n       </li>\\n      </ul>\\n     </li>\\n     <li>\\n      <h2>\\n       Praesent scelerisque sceler\\n      </h2>\\n      <ul>\\n       <li>\\n        <a href="#">\\n         Nulla luctus eleifend purus\\n        </a>\\n       </li>\\n       <li>\\n        <a href="#">\\n         Praesent scelerisque scelerisque erat\\n        </a>\\n       </li>\\n       <li>\\n        <a href="#">\\n         Ut nonummy rutrum sem\\n        </a>\\n       </li>\\n       <li>\\n        <a href="#">\\n         Pellentesque tempus quam quis nulla\\n        </a>\\n       </li>\\n       <li>\\n        <a href="#">\\n         Fusce ultrices fringilla metus\\n        </a>\\n       </li>\\n       <li>\\n        <a href="#">\\n         Praesent mattis condimentum nisl\\n        </a>\\n       </li>\\n      </ul>\\n     </li>\\n     <li>\\n      <h2>\\n       Fusce ultrices fringilla\\n      </h2>\\n      <ul>\\n       <li>\\n        <a href="#">\\n         Nulla luctus eleifend purus\\n        </a>\\n       </li>\\n       <li>\\n        <a href="#">\\n         Praesent scelerisque scelerisque erat\\n        </a>\\n       </li>\\n       <li>\\n        <a href="#">\\n         Ut nonummy rutrum sem\\n        </a>\\n       </li>\\n       <li>\\n        <a href="#">\\n         Pellentesque tempus quam quis nulla\\n        </a>\\n       </li>\\n       <li>\\n        <a href="#">\\n         Fusce ultrices fringilla metus\\n        </a>\\n       </li>\\n       <li>\\n        <a href="#">\\n         Praesent mattis condimentum nisl\\n        </a>\\n       </li>\\n      </ul>\\n     </li>\\n    </ul>\\n    -->\\n   </div>\\n   \\n   <p id="legal">\\n     &bull;&nbsp;&nbsp;\\n    &copy;2013 All Rights Reserved\\n\\t\\t&nbsp;&nbsp;&bull;&nbsp;&nbsp;\\n\\t\\tDesign by :\\n    Abhinav Pandey, Ankit Kotak, Nazrul Haque Athar, Anubhav Srivastava, Jayanth Katuri\\n    &nbsp;&nbsp;&bull;&nbsp;&nbsp;\\n    <!--\\n\\t\\tIcons by\\n    <a href="http://famfamfam.com/">\\n     FAMFAMFAM\\n    </a>\\n    .\\n    <a href="http://validator.w3.org/check/referer" class="xhtml" title="This page validates as XHTML">\\n     Valid\\n     <abbr title="eXtensible HyperText Markup Language">\\n      XHTML\\n     </abbr>\\n    </a>\\n    &nbsp;&nbsp;&bull;&nbsp;&nbsp;\\n    <a href="http://jigsaw.w3.org/css-validator/check/referer" class="css" title="This page validates as CSS">\\n     Valid\\n     <abbr title="Cascading Style Sheets">\\n      CSS\\n     </abbr>\\n    </a>-->\\n   </p>\\n  </div>\\n  <!-- end footer -->\\n </body>\\n</html>\\n\', escape=False)'
p7
sS'snapshot'
p8
(dp9
S'exception'
p10
(dp11
S'__hash__'
p12
S"<method-wrapper '__hash__' of exceptions.TypeError object>"
p13
sS'__setattr__'
p14
S"<method-wrapper '__setattr__' of exceptions.TypeError object>"
p15
sS'__reduce_ex__'
p16
S'<built-in method __reduce_ex__ of exceptions.TypeError object>'
p17
sS'__getslice__'
p18
S"<method-wrapper '__getslice__' of exceptions.TypeError object>"
p19
sS'__getitem__'
p20
S"<method-wrapper '__getitem__' of exceptions.TypeError object>"
p21
sS'__setstate__'
p22
S'<built-in method __setstate__ of exceptions.TypeError object>'
p23
sS'__reduce__'
p24
S'<built-in method __reduce__ of exceptions.TypeError object>'
p25
sS'__str__'
p26
S"<method-wrapper '__str__' of exceptions.TypeError object>"
p27
sS'__format__'
p28
S'<built-in method __format__ of exceptions.TypeError object>'
p29
sS'__getattribute__'
p30
S"<method-wrapper '__getattribute__' of exceptions.TypeError object>"
p31
sS'__class__'
p32
S"<type 'exceptions.TypeError'>"
p33
sS'__unicode__'
p34
S'<built-in method __unicode__ of exceptions.TypeError object>'
p35
sS'__delattr__'
p36
S"<method-wrapper '__delattr__' of exceptions.TypeError object>"
p37
sS'__subclasshook__'
p38
S'<built-in method __subclasshook__ of type object>'
p39
sS'__repr__'
p40
S"<method-wrapper '__repr__' of exceptions.TypeError object>"
p41
sS'args'
p42
S'("int() argument must be a string or a number, not \'NoneType\'",)'
p43
sS'__dict__'
p44
S'{}'
p45
sS'__sizeof__'
p46
S'<built-in method __sizeof__ of exceptions.TypeError object>'
p47
sS'__doc__'
p48
S"'Inappropriate argument type.'"
p49
sS'__init__'
p50
S"<method-wrapper '__init__' of exceptions.TypeError object>"
p51
sS'__new__'
p52
S'<built-in method __new__ of type object>'
p53
ssS'evalue'
p54
S"int() argument must be a string or a number, not 'NoneType'"
p55
sS'request'
p56
ccopy_reg
_reconstructor
p57
(cgluon.html
BEAUTIFY
p58
c__builtin__
object
p59
NtRp60
(dp61
S'attributes'
p62
(dp63
sS'components'
p64
(lp65
g57
(cgluon.html
TABLE
p66
g59
NtRp67
(dp68
g62
(dp69
S'level'
p70
I5
ssS'parent'
p71
Nsg64
(lp72
g57
(cgluon.html
TR
p73
g59
NtRp74
(dp75
g62
(dp76
sg71
g67
sg64
(lp77
g57
(cgluon.html
TD
p78
g59
NtRp79
(dp80
g62
(dp81
S'_style'
p82
S'font-weight:bold;vertical-align:top'
p83
ssg71
g74
sg64
(lp84
S'ajax'
p85
asbag57
(g78
g59
NtRp86
(dp87
g62
(dp88
S'_valign'
p89
S'top'
p90
ssg71
g74
sg64
(lp91
S':'
asbag57
(g78
g59
NtRp92
(dp93
g62
(dp94
sg71
g74
sg64
(lp95
g57
(g58
g59
NtRp96
(dp97
g62
(dp98
g70
I5
ssg71
g92
sg64
(lp99
S'False'
p100
asbasbasbag57
(g73
g59
NtRp101
(dp102
g62
(dp103
sg71
g67
sg64
(lp104
g57
(g78
g59
NtRp105
(dp106
g62
(dp107
g82
g83
ssg71
g101
sg64
(lp108
S'application'
p109
asbag57
(g78
g59
NtRp110
(dp111
g62
(dp112
g89
g90
ssg71
g101
sg64
(lp113
S':'
asbag57
(g78
g59
NtRp114
(dp115
g62
(dp116
sg71
g101
sg64
(lp117
g57
(g58
g59
NtRp118
(dp119
g62
(dp120
g70
I5
ssg71
g114
sg64
(lp121
S'WSD'
p122
asbasbasbag57
(g73
g59
NtRp123
(dp124
g62
(dp125
sg71
g67
sg64
(lp126
g57
(g78
g59
NtRp127
(dp128
g62
(dp129
g82
g83
ssg71
g123
sg64
(lp130
g42
asbag57
(g78
g59
NtRp131
(dp132
g62
(dp133
g89
g90
ssg71
g123
sg64
(lp134
S':'
asbag57
(g78
g59
NtRp135
(dp136
g62
(dp137
sg71
g123
sg64
(lp138
g57
(g58
g59
NtRp139
(dp140
g62
(dp141
g70
I5
ssg71
g135
sg64
(lp142
g57
(g66
g59
NtRp143
(dp144
g62
(dp145
g70
I4
ssg71
Nsg64
(lp146
sbasbasbasbag57
(g73
g59
NtRp147
(dp148
g62
(dp149
sg71
g67
sg64
(lp150
g57
(g78
g59
NtRp151
(dp152
g62
(dp153
g82
g83
ssg71
g147
sg64
(lp154
S'body'
p155
asbag57
(g78
g59
NtRp156
(dp157
g62
(dp158
g89
g90
ssg71
g147
sg64
(lp159
S':'
asbag57
(g78
g59
NtRp160
(dp161
g62
(dp162
sg71
g147
sg64
(lp163
g57
(g58
g59
NtRp164
(dp165
g62
(dp166
g70
I5
ssg71
g160
sg64
(lp167
S'<cStringIO.StringO object at 0xadb7b560>'
p168
asbasbasbag57
(g73
g59
NtRp169
(dp170
g62
(dp171
sg71
g67
sg64
(lp172
g57
(g78
g59
NtRp173
(dp174
g62
(dp175
g82
g83
ssg71
g169
sg64
(lp176
S'cid'
p177
asbag57
(g78
g59
NtRp178
(dp179
g62
(dp180
g89
g90
ssg71
g169
sg64
(lp181
S':'
asbag57
(g78
g59
NtRp182
(dp183
g62
(dp184
sg71
g169
sg64
(lp185
g57
(g58
g59
NtRp186
(dp187
g62
(dp188
g70
I5
ssg71
g182
sg64
(lp189
S'None'
p190
asbasbasbag57
(g73
g59
NtRp191
(dp192
g62
(dp193
sg71
g67
sg64
(lp194
g57
(g78
g59
NtRp195
(dp196
g62
(dp197
g82
g83
ssg71
g191
sg64
(lp198
S'client'
p199
asbag57
(g78
g59
NtRp200
(dp201
g62
(dp202
g89
g90
ssg71
g191
sg64
(lp203
S':'
asbag57
(g78
g59
NtRp204
(dp205
g62
(dp206
sg71
g191
sg64
(lp207
g57
(g58
g59
NtRp208
(dp209
g62
(dp210
g70
I5
ssg71
g204
sg64
(lp211
S'127.0.0.1'
p212
asbasbasbag57
(g73
g59
NtRp213
(dp214
g62
(dp215
sg71
g67
sg64
(lp216
g57
(g78
g59
NtRp217
(dp218
g62
(dp219
g82
g83
ssg71
g213
sg64
(lp220
S'controller'
p221
asbag57
(g78
g59
NtRp222
(dp223
g62
(dp224
g89
g90
ssg71
g213
sg64
(lp225
S':'
asbag57
(g78
g59
NtRp226
(dp227
g62
(dp228
sg71
g213
sg64
(lp229
g57
(g58
g59
NtRp230
(dp231
g62
(dp232
g70
I5
ssg71
g226
sg64
(lp233
S'default'
p234
asbasbasbag57
(g73
g59
NtRp235
(dp236
g62
(dp237
sg71
g67
sg64
(lp238
g57
(g78
g59
NtRp239
(dp240
g62
(dp241
g82
g83
ssg71
g235
sg64
(lp242
S'cookies'
p243
asbag57
(g78
g59
NtRp244
(dp245
g62
(dp246
g89
g90
ssg71
g235
sg64
(lp247
S':'
asbag57
(g78
g59
NtRp248
(dp249
g62
(dp250
sg71
g235
sg64
(lp251
g57
(g58
g59
NtRp252
(dp253
g62
(dp254
g70
I5
ssg71
g248
sg64
(lp255
g57
(g66
g59
NtRp256
(dp257
g62
(dp258
g70
I4
ssg71
Nsg64
(lp259
g57
(g73
g59
NtRp260
(dp261
g62
(dp262
sg71
g256
sg64
(lp263
g57
(g78
g59
NtRp264
(dp265
g62
(dp266
g82
g83
ssg71
g260
sg64
(lp267
S'KBD'
p268
asbag57
(g78
g59
NtRp269
(dp270
g62
(dp271
g89
g90
ssg71
g260
sg64
(lp272
S':'
asbag57
(g78
g59
NtRp273
(dp274
g62
(dp275
sg71
g260
sg64
(lp276
g57
(g58
g59
NtRp277
(dp278
g62
(dp279
g70
I4
ssg71
g273
sg64
(lp280
S'0hi-0'
p281
ag57
(g66
g59
NtRp282
(dp283
g62
(dp284
g70
I3
ssg71
Nsg64
(lp285
g57
(g73
g59
NtRp286
(dp287
g62
(dp288
sg71
g282
sg64
(lp289
g57
(g78
g59
NtRp290
(dp291
g62
(dp292
g82
g83
ssg71
g286
sg64
(lp293
S'comment'
p294
asbag57
(g78
g59
NtRp295
(dp296
g62
(dp297
g89
g90
ssg71
g286
sg64
(lp298
S':'
asbag57
(g78
g59
NtRp299
(dp300
g62
(dp301
sg71
g286
sg64
(lp302
g57
(g58
g59
NtRp303
(dp304
g62
(dp305
g70
I3
ssg71
g299
sg64
(lp306
S''
asbasbasbag57
(g73
g59
NtRp307
(dp308
g62
(dp309
sg71
g282
sg64
(lp310
g57
(g78
g59
NtRp311
(dp312
g62
(dp313
g82
g83
ssg71
g307
sg64
(lp314
S'domain'
p315
asbag57
(g78
g59
NtRp316
(dp317
g62
(dp318
g89
g90
ssg71
g307
sg64
(lp319
S':'
asbag57
(g78
g59
NtRp320
(dp321
g62
(dp322
sg71
g307
sg64
(lp323
g57
(g58
g59
NtRp324
(dp325
g62
(dp326
g70
I3
ssg71
g320
sg64
(lp327
S''
asbasbasbag57
(g73
g59
NtRp328
(dp329
g62
(dp330
sg71
g282
sg64
(lp331
g57
(g78
g59
NtRp332
(dp333
g62
(dp334
g82
g83
ssg71
g328
sg64
(lp335
S'expires'
p336
asbag57
(g78
g59
NtRp337
(dp338
g62
(dp339
g89
g90
ssg71
g328
sg64
(lp340
S':'
asbag57
(g78
g59
NtRp341
(dp342
g62
(dp343
sg71
g328
sg64
(lp344
g57
(g58
g59
NtRp345
(dp346
g62
(dp347
g70
I3
ssg71
g341
sg64
(lp348
S''
asbasbasbag57
(g73
g59
NtRp349
(dp350
g62
(dp351
sg71
g282
sg64
(lp352
g57
(g78
g59
NtRp353
(dp354
g62
(dp355
g82
g83
ssg71
g349
sg64
(lp356
S'httponly'
p357
asbag57
(g78
g59
NtRp358
(dp359
g62
(dp360
g89
g90
ssg71
g349
sg64
(lp361
S':'
asbag57
(g78
g59
NtRp362
(dp363
g62
(dp364
sg71
g349
sg64
(lp365
g57
(g58
g59
NtRp366
(dp367
g62
(dp368
g70
I3
ssg71
g362
sg64
(lp369
S''
asbasbasbag57
(g73
g59
NtRp370
(dp371
g62
(dp372
sg71
g282
sg64
(lp373
g57
(g78
g59
NtRp374
(dp375
g62
(dp376
g82
g83
ssg71
g370
sg64
(lp377
S'max-age'
p378
asbag57
(g78
g59
NtRp379
(dp380
g62
(dp381
g89
g90
ssg71
g370
sg64
(lp382
S':'
asbag57
(g78
g59
NtRp383
(dp384
g62
(dp385
sg71
g370
sg64
(lp386
g57
(g58
g59
NtRp387
(dp388
g62
(dp389
g70
I3
ssg71
g383
sg64
(lp390
S''
asbasbasbag57
(g73
g59
NtRp391
(dp392
g62
(dp393
sg71
g282
sg64
(lp394
g57
(g78
g59
NtRp395
(dp396
g62
(dp397
g82
g83
ssg71
g391
sg64
(lp398
S'path'
p399
asbag57
(g78
g59
NtRp400
(dp401
g62
(dp402
g89
g90
ssg71
g391
sg64
(lp403
S':'
asbag57
(g78
g59
NtRp404
(dp405
g62
(dp406
sg71
g391
sg64
(lp407
g57
(g58
g59
NtRp408
(dp409
g62
(dp410
g70
I3
ssg71
g404
sg64
(lp411
S''
asbasbasbag57
(g73
g59
NtRp412
(dp413
g62
(dp414
sg71
g282
sg64
(lp415
g57
(g78
g59
NtRp416
(dp417
g62
(dp418
g82
g83
ssg71
g412
sg64
(lp419
S'secure'
p420
asbag57
(g78
g59
NtRp421
(dp422
g62
(dp423
g89
g90
ssg71
g412
sg64
(lp424
S':'
asbag57
(g78
g59
NtRp425
(dp426
g62
(dp427
sg71
g412
sg64
(lp428
g57
(g58
g59
NtRp429
(dp430
g62
(dp431
g70
I3
ssg71
g425
sg64
(lp432
S''
asbasbasbag57
(g73
g59
NtRp433
(dp434
g62
(dp435
sg71
g282
sg64
(lp436
g57
(g78
g59
NtRp437
(dp438
g62
(dp439
g82
g83
ssg71
g433
sg64
(lp440
S'version'
p441
asbag57
(g78
g59
NtRp442
(dp443
g62
(dp444
g89
g90
ssg71
g433
sg64
(lp445
S':'
asbag57
(g78
g59
NtRp446
(dp447
g62
(dp448
sg71
g433
sg64
(lp449
g57
(g58
g59
NtRp450
(dp451
g62
(dp452
g70
I3
ssg71
g446
sg64
(lp453
S''
asbasbasbasbasbasbasbag57
(g73
g59
NtRp454
(dp455
g62
(dp456
sg71
g256
sg64
(lp457
g57
(g78
g59
NtRp458
(dp459
g62
(dp460
g82
g83
ssg71
g454
sg64
(lp461
S'session_id_admin'
p462
asbag57
(g78
g59
NtRp463
(dp464
g62
(dp465
g89
g90
ssg71
g454
sg64
(lp466
S':'
asbag57
(g78
g59
NtRp467
(dp468
g62
(dp469
sg71
g454
sg64
(lp470
g57
(g58
g59
NtRp471
(dp472
g62
(dp473
g70
I4
ssg71
g467
sg64
(lp474
S'127.0.0.1-451e400d-95c6-4798-aa5b-0b8737d4b703'
p475
ag57
(g66
g59
NtRp476
(dp477
g62
(dp478
g70
I3
ssg71
Nsg64
(lp479
g57
(g73
g59
NtRp480
(dp481
g62
(dp482
sg71
g476
sg64
(lp483
g57
(g78
g59
NtRp484
(dp485
g62
(dp486
g82
g83
ssg71
g480
sg64
(lp487
g294
asbag57
(g78
g59
NtRp488
(dp489
g62
(dp490
g89
g90
ssg71
g480
sg64
(lp491
S':'
asbag57
(g78
g59
NtRp492
(dp493
g62
(dp494
sg71
g480
sg64
(lp495
g57
(g58
g59
NtRp496
(dp497
g62
(dp498
g70
I3
ssg71
g492
sg64
(lp499
S''
asbasbasbag57
(g73
g59
NtRp500
(dp501
g62
(dp502
sg71
g476
sg64
(lp503
g57
(g78
g59
NtRp504
(dp505
g62
(dp506
g82
g83
ssg71
g500
sg64
(lp507
g315
asbag57
(g78
g59
NtRp508
(dp509
g62
(dp510
g89
g90
ssg71
g500
sg64
(lp511
S':'
asbag57
(g78
g59
NtRp512
(dp513
g62
(dp514
sg71
g500
sg64
(lp515
g57
(g58
g59
NtRp516
(dp517
g62
(dp518
g70
I3
ssg71
g512
sg64
(lp519
S''
asbasbasbag57
(g73
g59
NtRp520
(dp521
g62
(dp522
sg71
g476
sg64
(lp523
g57
(g78
g59
NtRp524
(dp525
g62
(dp526
g82
g83
ssg71
g520
sg64
(lp527
g336
asbag57
(g78
g59
NtRp528
(dp529
g62
(dp530
g89
g90
ssg71
g520
sg64
(lp531
S':'
asbag57
(g78
g59
NtRp532
(dp533
g62
(dp534
sg71
g520
sg64
(lp535
g57
(g58
g59
NtRp536
(dp537
g62
(dp538
g70
I3
ssg71
g532
sg64
(lp539
S''
asbasbasbag57
(g73
g59
NtRp540
(dp541
g62
(dp542
sg71
g476
sg64
(lp543
g57
(g78
g59
NtRp544
(dp545
g62
(dp546
g82
g83
ssg71
g540
sg64
(lp547
g357
asbag57
(g78
g59
NtRp548
(dp549
g62
(dp550
g89
g90
ssg71
g540
sg64
(lp551
S':'
asbag57
(g78
g59
NtRp552
(dp553
g62
(dp554
sg71
g540
sg64
(lp555
g57
(g58
g59
NtRp556
(dp557
g62
(dp558
g70
I3
ssg71
g552
sg64
(lp559
S''
asbasbasbag57
(g73
g59
NtRp560
(dp561
g62
(dp562
sg71
g476
sg64
(lp563
g57
(g78
g59
NtRp564
(dp565
g62
(dp566
g82
g83
ssg71
g560
sg64
(lp567
g378
asbag57
(g78
g59
NtRp568
(dp569
g62
(dp570
g89
g90
ssg71
g560
sg64
(lp571
S':'
asbag57
(g78
g59
NtRp572
(dp573
g62
(dp574
sg71
g560
sg64
(lp575
g57
(g58
g59
NtRp576
(dp577
g62
(dp578
g70
I3
ssg71
g572
sg64
(lp579
S''
asbasbasbag57
(g73
g59
NtRp580
(dp581
g62
(dp582
sg71
g476
sg64
(lp583
g57
(g78
g59
NtRp584
(dp585
g62
(dp586
g82
g83
ssg71
g580
sg64
(lp587
g399
asbag57
(g78
g59
NtRp588
(dp589
g62
(dp590
g89
g90
ssg71
g580
sg64
(lp591
S':'
asbag57
(g78
g59
NtRp592
(dp593
g62
(dp594
sg71
g580
sg64
(lp595
g57
(g58
g59
NtRp596
(dp597
g62
(dp598
g70
I3
ssg71
g592
sg64
(lp599
S''
asbasbasbag57
(g73
g59
NtRp600
(dp601
g62
(dp602
sg71
g476
sg64
(lp603
g57
(g78
g59
NtRp604
(dp605
g62
(dp606
g82
g83
ssg71
g600
sg64
(lp607
g420
asbag57
(g78
g59
NtRp608
(dp609
g62
(dp610
g89
g90
ssg71
g600
sg64
(lp611
S':'
asbag57
(g78
g59
NtRp612
(dp613
g62
(dp614
sg71
g600
sg64
(lp615
g57
(g58
g59
NtRp616
(dp617
g62
(dp618
g70
I3
ssg71
g612
sg64
(lp619
S''
asbasbasbag57
(g73
g59
NtRp620
(dp621
g62
(dp622
sg71
g476
sg64
(lp623
g57
(g78
g59
NtRp624
(dp625
g62
(dp626
g82
g83
ssg71
g620
sg64
(lp627
g441
asbag57
(g78
g59
NtRp628
(dp629
g62
(dp630
g89
g90
ssg71
g620
sg64
(lp631
S':'
asbag57
(g78
g59
NtRp632
(dp633
g62
(dp634
sg71
g620
sg64
(lp635
g57
(g58
g59
NtRp636
(dp637
g62
(dp638
g70
I3
ssg71
g632
sg64
(lp639
S''
asbasbasbasbasbasbasbag57
(g73
g59
NtRp640
(dp641
g62
(dp642
sg71
g256
sg64
(lp643
g57
(g78
g59
NtRp644
(dp645
g62
(dp646
g82
g83
ssg71
g640
sg64
(lp647
S'session_id_welcome'
p648
asbag57
(g78
g59
NtRp649
(dp650
g62
(dp651
g89
g90
ssg71
g640
sg64
(lp652
S':'
asbag57
(g78
g59
NtRp653
(dp654
g62
(dp655
sg71
g640
sg64
(lp656
g57
(g58
g59
NtRp657
(dp658
g62
(dp659
g70
I4
ssg71
g653
sg64
(lp660
S'127.0.0.1-95c46222-74b7-463f-9016-75c6960e2569'
p661
ag57
(g66
g59
NtRp662
(dp663
g62
(dp664
g70
I3
ssg71
Nsg64
(lp665
g57
(g73
g59
NtRp666
(dp667
g62
(dp668
sg71
g662
sg64
(lp669
g57
(g78
g59
NtRp670
(dp671
g62
(dp672
g82
g83
ssg71
g666
sg64
(lp673
g294
asbag57
(g78
g59
NtRp674
(dp675
g62
(dp676
g89
g90
ssg71
g666
sg64
(lp677
S':'
asbag57
(g78
g59
NtRp678
(dp679
g62
(dp680
sg71
g666
sg64
(lp681
g57
(g58
g59
NtRp682
(dp683
g62
(dp684
g70
I3
ssg71
g678
sg64
(lp685
S''
asbasbasbag57
(g73
g59
NtRp686
(dp687
g62
(dp688
sg71
g662
sg64
(lp689
g57
(g78
g59
NtRp690
(dp691
g62
(dp692
g82
g83
ssg71
g686
sg64
(lp693
g315
asbag57
(g78
g59
NtRp694
(dp695
g62
(dp696
g89
g90
ssg71
g686
sg64
(lp697
S':'
asbag57
(g78
g59
NtRp698
(dp699
g62
(dp700
sg71
g686
sg64
(lp701
g57
(g58
g59
NtRp702
(dp703
g62
(dp704
g70
I3
ssg71
g698
sg64
(lp705
S''
asbasbasbag57
(g73
g59
NtRp706
(dp707
g62
(dp708
sg71
g662
sg64
(lp709
g57
(g78
g59
NtRp710
(dp711
g62
(dp712
g82
g83
ssg71
g706
sg64
(lp713
g336
asbag57
(g78
g59
NtRp714
(dp715
g62
(dp716
g89
g90
ssg71
g706
sg64
(lp717
S':'
asbag57
(g78
g59
NtRp718
(dp719
g62
(dp720
sg71
g706
sg64
(lp721
g57
(g58
g59
NtRp722
(dp723
g62
(dp724
g70
I3
ssg71
g718
sg64
(lp725
S''
asbasbasbag57
(g73
g59
NtRp726
(dp727
g62
(dp728
sg71
g662
sg64
(lp729
g57
(g78
g59
NtRp730
(dp731
g62
(dp732
g82
g83
ssg71
g726
sg64
(lp733
g357
asbag57
(g78
g59
NtRp734
(dp735
g62
(dp736
g89
g90
ssg71
g726
sg64
(lp737
S':'
asbag57
(g78
g59
NtRp738
(dp739
g62
(dp740
sg71
g726
sg64
(lp741
g57
(g58
g59
NtRp742
(dp743
g62
(dp744
g70
I3
ssg71
g738
sg64
(lp745
S''
asbasbasbag57
(g73
g59
NtRp746
(dp747
g62
(dp748
sg71
g662
sg64
(lp749
g57
(g78
g59
NtRp750
(dp751
g62
(dp752
g82
g83
ssg71
g746
sg64
(lp753
g378
asbag57
(g78
g59
NtRp754
(dp755
g62
(dp756
g89
g90
ssg71
g746
sg64
(lp757
S':'
asbag57
(g78
g59
NtRp758
(dp759
g62
(dp760
sg71
g746
sg64
(lp761
g57
(g58
g59
NtRp762
(dp763
g62
(dp764
g70
I3
ssg71
g758
sg64
(lp765
S''
asbasbasbag57
(g73
g59
NtRp766
(dp767
g62
(dp768
sg71
g662
sg64
(lp769
g57
(g78
g59
NtRp770
(dp771
g62
(dp772
g82
g83
ssg71
g766
sg64
(lp773
g399
asbag57
(g78
g59
NtRp774
(dp775
g62
(dp776
g89
g90
ssg71
g766
sg64
(lp777
S':'
asbag57
(g78
g59
NtRp778
(dp779
g62
(dp780
sg71
g766
sg64
(lp781
g57
(g58
g59
NtRp782
(dp783
g62
(dp784
g70
I3
ssg71
g778
sg64
(lp785
S''
asbasbasbag57
(g73
g59
NtRp786
(dp787
g62
(dp788
sg71
g662
sg64
(lp789
g57
(g78
g59
NtRp790
(dp791
g62
(dp792
g82
g83
ssg71
g786
sg64
(lp793
g420
asbag57
(g78
g59
NtRp794
(dp795
g62
(dp796
g89
g90
ssg71
g786
sg64
(lp797
S':'
asbag57
(g78
g59
NtRp798
(dp799
g62
(dp800
sg71
g786
sg64
(lp801
g57
(g58
g59
NtRp802
(dp803
g62
(dp804
g70
I3
ssg71
g798
sg64
(lp805
S''
asbasbasbag57
(g73
g59
NtRp806
(dp807
g62
(dp808
sg71
g662
sg64
(lp809
g57
(g78
g59
NtRp810
(dp811
g62
(dp812
g82
g83
ssg71
g806
sg64
(lp813
g441
asbag57
(g78
g59
NtRp814
(dp815
g62
(dp816
g89
g90
ssg71
g806
sg64
(lp817
S':'
asbag57
(g78
g59
NtRp818
(dp819
g62
(dp820
sg71
g806
sg64
(lp821
g57
(g58
g59
NtRp822
(dp823
g62
(dp824
g70
I3
ssg71
g818
sg64
(lp825
S''
asbasbasbasbasbasbasbag57
(g73
g59
NtRp826
(dp827
g62
(dp828
sg71
g256
sg64
(lp829
g57
(g78
g59
NtRp830
(dp831
g62
(dp832
g82
g83
ssg71
g826
sg64
(lp833
S'session_id_wsd'
p834
asbag57
(g78
g59
NtRp835
(dp836
g62
(dp837
g89
g90
ssg71
g826
sg64
(lp838
S':'
asbag57
(g78
g59
NtRp839
(dp840
g62
(dp841
sg71
g826
sg64
(lp842
g57
(g58
g59
NtRp843
(dp844
g62
(dp845
g70
I4
ssg71
g839
sg64
(lp846
S'127.0.0.1-6a7c3401-059b-4dac-aafc-9a0a37e89b81'
p847
ag57
(g66
g59
NtRp848
(dp849
g62
(dp850
g70
I3
ssg71
Nsg64
(lp851
g57
(g73
g59
NtRp852
(dp853
g62
(dp854
sg71
g848
sg64
(lp855
g57
(g78
g59
NtRp856
(dp857
g62
(dp858
g82
g83
ssg71
g852
sg64
(lp859
g294
asbag57
(g78
g59
NtRp860
(dp861
g62
(dp862
g89
g90
ssg71
g852
sg64
(lp863
S':'
asbag57
(g78
g59
NtRp864
(dp865
g62
(dp866
sg71
g852
sg64
(lp867
g57
(g58
g59
NtRp868
(dp869
g62
(dp870
g70
I3
ssg71
g864
sg64
(lp871
S''
asbasbasbag57
(g73
g59
NtRp872
(dp873
g62
(dp874
sg71
g848
sg64
(lp875
g57
(g78
g59
NtRp876
(dp877
g62
(dp878
g82
g83
ssg71
g872
sg64
(lp879
g315
asbag57
(g78
g59
NtRp880
(dp881
g62
(dp882
g89
g90
ssg71
g872
sg64
(lp883
S':'
asbag57
(g78
g59
NtRp884
(dp885
g62
(dp886
sg71
g872
sg64
(lp887
g57
(g58
g59
NtRp888
(dp889
g62
(dp890
g70
I3
ssg71
g884
sg64
(lp891
S''
asbasbasbag57
(g73
g59
NtRp892
(dp893
g62
(dp894
sg71
g848
sg64
(lp895
g57
(g78
g59
NtRp896
(dp897
g62
(dp898
g82
g83
ssg71
g892
sg64
(lp899
g336
asbag57
(g78
g59
NtRp900
(dp901
g62
(dp902
g89
g90
ssg71
g892
sg64
(lp903
S':'
asbag57
(g78
g59
NtRp904
(dp905
g62
(dp906
sg71
g892
sg64
(lp907
g57
(g58
g59
NtRp908
(dp909
g62
(dp910
g70
I3
ssg71
g904
sg64
(lp911
S''
asbasbasbag57
(g73
g59
NtRp912
(dp913
g62
(dp914
sg71
g848
sg64
(lp915
g57
(g78
g59
NtRp916
(dp917
g62
(dp918
g82
g83
ssg71
g912
sg64
(lp919
g357
asbag57
(g78
g59
NtRp920
(dp921
g62
(dp922
g89
g90
ssg71
g912
sg64
(lp923
S':'
asbag57
(g78
g59
NtRp924
(dp925
g62
(dp926
sg71
g912
sg64
(lp927
g57
(g58
g59
NtRp928
(dp929
g62
(dp930
g70
I3
ssg71
g924
sg64
(lp931
S''
asbasbasbag57
(g73
g59
NtRp932
(dp933
g62
(dp934
sg71
g848
sg64
(lp935
g57
(g78
g59
NtRp936
(dp937
g62
(dp938
g82
g83
ssg71
g932
sg64
(lp939
g378
asbag57
(g78
g59
NtRp940
(dp941
g62
(dp942
g89
g90
ssg71
g932
sg64
(lp943
S':'
asbag57
(g78
g59
NtRp944
(dp945
g62
(dp946
sg71
g932
sg64
(lp947
g57
(g58
g59
NtRp948
(dp949
g62
(dp950
g70
I3
ssg71
g944
sg64
(lp951
S''
asbasbasbag57
(g73
g59
NtRp952
(dp953
g62
(dp954
sg71
g848
sg64
(lp955
g57
(g78
g59
NtRp956
(dp957
g62
(dp958
g82
g83
ssg71
g952
sg64
(lp959
g399
asbag57
(g78
g59
NtRp960
(dp961
g62
(dp962
g89
g90
ssg71
g952
sg64
(lp963
S':'
asbag57
(g78
g59
NtRp964
(dp965
g62
(dp966
sg71
g952
sg64
(lp967
g57
(g58
g59
NtRp968
(dp969
g62
(dp970
g70
I3
ssg71
g964
sg64
(lp971
S''
asbasbasbag57
(g73
g59
NtRp972
(dp973
g62
(dp974
sg71
g848
sg64
(lp975
g57
(g78
g59
NtRp976
(dp977
g62
(dp978
g82
g83
ssg71
g972
sg64
(lp979
g420
asbag57
(g78
g59
NtRp980
(dp981
g62
(dp982
g89
g90
ssg71
g972
sg64
(lp983
S':'
asbag57
(g78
g59
NtRp984
(dp985
g62
(dp986
sg71
g972
sg64
(lp987
g57
(g58
g59
NtRp988
(dp989
g62
(dp990
g70
I3
ssg71
g984
sg64
(lp991
S''
asbasbasbag57
(g73
g59
NtRp992
(dp993
g62
(dp994
sg71
g848
sg64
(lp995
g57
(g78
g59
NtRp996
(dp997
g62
(dp998
g82
g83
ssg71
g992
sg64
(lp999
g441
asbag57
(g78
g59
NtRp1000
(dp1001
g62
(dp1002
g89
g90
ssg71
g992
sg64
(lp1003
S':'
asbag57
(g78
g59
NtRp1004
(dp1005
g62
(dp1006
sg71
g992
sg64
(lp1007
g57
(g58
g59
NtRp1008
(dp1009
g62
(dp1010
g70
I3
ssg71
g1004
sg64
(lp1011
S''
asbasbasbasbasbasbasbag57
(g73
g59
NtRp1012
(dp1013
g62
(dp1014
sg71
g256
sg64
(lp1015
g57
(g78
g59
NtRp1016
(dp1017
g62
(dp1018
g82
g83
ssg71
g1012
sg64
(lp1019
S'session_id_wsd_tool'
p1020
asbag57
(g78
g59
NtRp1021
(dp1022
g62
(dp1023
g89
g90
ssg71
g1012
sg64
(lp1024
S':'
asbag57
(g78
g59
NtRp1025
(dp1026
g62
(dp1027
sg71
g1012
sg64
(lp1028
g57
(g58
g59
NtRp1029
(dp1030
g62
(dp1031
g70
I4
ssg71
g1025
sg64
(lp1032
S'127.0.0.1-8aee5378-76ff-46f8-b728-b1bcd2634b28'
p1033
ag57
(g66
g59
NtRp1034
(dp1035
g62
(dp1036
g70
I3
ssg71
Nsg64
(lp1037
g57
(g73
g59
NtRp1038
(dp1039
g62
(dp1040
sg71
g1034
sg64
(lp1041
g57
(g78
g59
NtRp1042
(dp1043
g62
(dp1044
g82
g83
ssg71
g1038
sg64
(lp1045
g294
asbag57
(g78
g59
NtRp1046
(dp1047
g62
(dp1048
g89
g90
ssg71
g1038
sg64
(lp1049
S':'
asbag57
(g78
g59
NtRp1050
(dp1051
g62
(dp1052
sg71
g1038
sg64
(lp1053
g57
(g58
g59
NtRp1054
(dp1055
g62
(dp1056
g70
I3
ssg71
g1050
sg64
(lp1057
S''
asbasbasbag57
(g73
g59
NtRp1058
(dp1059
g62
(dp1060
sg71
g1034
sg64
(lp1061
g57
(g78
g59
NtRp1062
(dp1063
g62
(dp1064
g82
g83
ssg71
g1058
sg64
(lp1065
g315
asbag57
(g78
g59
NtRp1066
(dp1067
g62
(dp1068
g89
g90
ssg71
g1058
sg64
(lp1069
S':'
asbag57
(g78
g59
NtRp1070
(dp1071
g62
(dp1072
sg71
g1058
sg64
(lp1073
g57
(g58
g59
NtRp1074
(dp1075
g62
(dp1076
g70
I3
ssg71
g1070
sg64
(lp1077
S''
asbasbasbag57
(g73
g59
NtRp1078
(dp1079
g62
(dp1080
sg71
g1034
sg64
(lp1081
g57
(g78
g59
NtRp1082
(dp1083
g62
(dp1084
g82
g83
ssg71
g1078
sg64
(lp1085
g336
asbag57
(g78
g59
NtRp1086
(dp1087
g62
(dp1088
g89
g90
ssg71
g1078
sg64
(lp1089
S':'
asbag57
(g78
g59
NtRp1090
(dp1091
g62
(dp1092
sg71
g1078
sg64
(lp1093
g57
(g58
g59
NtRp1094
(dp1095
g62
(dp1096
g70
I3
ssg71
g1090
sg64
(lp1097
S''
asbasbasbag57
(g73
g59
NtRp1098
(dp1099
g62
(dp1100
sg71
g1034
sg64
(lp1101
g57
(g78
g59
NtRp1102
(dp1103
g62
(dp1104
g82
g83
ssg71
g1098
sg64
(lp1105
g357
asbag57
(g78
g59
NtRp1106
(dp1107
g62
(dp1108
g89
g90
ssg71
g1098
sg64
(lp1109
S':'
asbag57
(g78
g59
NtRp1110
(dp1111
g62
(dp1112
sg71
g1098
sg64
(lp1113
g57
(g58
g59
NtRp1114
(dp1115
g62
(dp1116
g70
I3
ssg71
g1110
sg64
(lp1117
S''
asbasbasbag57
(g73
g59
NtRp1118
(dp1119
g62
(dp1120
sg71
g1034
sg64
(lp1121
g57
(g78
g59
NtRp1122
(dp1123
g62
(dp1124
g82
g83
ssg71
g1118
sg64
(lp1125
g378
asbag57
(g78
g59
NtRp1126
(dp1127
g62
(dp1128
g89
g90
ssg71
g1118
sg64
(lp1129
S':'
asbag57
(g78
g59
NtRp1130
(dp1131
g62
(dp1132
sg71
g1118
sg64
(lp1133
g57
(g58
g59
NtRp1134
(dp1135
g62
(dp1136
g70
I3
ssg71
g1130
sg64
(lp1137
S''
asbasbasbag57
(g73
g59
NtRp1138
(dp1139
g62
(dp1140
sg71
g1034
sg64
(lp1141
g57
(g78
g59
NtRp1142
(dp1143
g62
(dp1144
g82
g83
ssg71
g1138
sg64
(lp1145
g399
asbag57
(g78
g59
NtRp1146
(dp1147
g62
(dp1148
g89
g90
ssg71
g1138
sg64
(lp1149
S':'
asbag57
(g78
g59
NtRp1150
(dp1151
g62
(dp1152
sg71
g1138
sg64
(lp1153
g57
(g58
g59
NtRp1154
(dp1155
g62
(dp1156
g70
I3
ssg71
g1150
sg64
(lp1157
S''
asbasbasbag57
(g73
g59
NtRp1158
(dp1159
g62
(dp1160
sg71
g1034
sg64
(lp1161
g57
(g78
g59
NtRp1162
(dp1163
g62
(dp1164
g82
g83
ssg71
g1158
sg64
(lp1165
g420
asbag57
(g78
g59
NtRp1166
(dp1167
g62
(dp1168
g89
g90
ssg71
g1158
sg64
(lp1169
S':'
asbag57
(g78
g59
NtRp1170
(dp1171
g62
(dp1172
sg71
g1158
sg64
(lp1173
g57
(g58
g59
NtRp1174
(dp1175
g62
(dp1176
g70
I3
ssg71
g1170
sg64
(lp1177
S''
asbasbasbag57
(g73
g59
NtRp1178
(dp1179
g62
(dp1180
sg71
g1034
sg64
(lp1181
g57
(g78
g59
NtRp1182
(dp1183
g62
(dp1184
g82
g83
ssg71
g1178
sg64
(lp1185
g441
asbag57
(g78
g59
NtRp1186
(dp1187
g62
(dp1188
g89
g90
ssg71
g1178
sg64
(lp1189
S':'
asbag57
(g78
g59
NtRp1190
(dp1191
g62
(dp1192
sg71
g1178
sg64
(lp1193
g57
(g58
g59
NtRp1194
(dp1195
g62
(dp1196
g70
I3
ssg71
g1190
sg64
(lp1197
S''
asbasbasbasbasbasbasbasbasbasbasbag57
(g73
g59
NtRp1198
(dp1199
g62
(dp1200
sg71
g67
sg64
(lp1201
g57
(g78
g59
NtRp1202
(dp1203
g62
(dp1204
g82
g83
ssg71
g1198
sg64
(lp1205
S'env'
p1206
asbag57
(g78
g59
NtRp1207
(dp1208
g62
(dp1209
g89
g90
ssg71
g1198
sg64
(lp1210
S':'
asbag57
(g78
g59
NtRp1211
(dp1212
g62
(dp1213
sg71
g1198
sg64
(lp1214
g57
(g58
g59
NtRp1215
(dp1216
g62
(dp1217
g70
I5
ssg71
g1211
sg64
(lp1218
g57
(g66
g59
NtRp1219
(dp1220
g62
(dp1221
g70
I4
ssg71
Nsg64
(lp1222
g57
(g73
g59
NtRp1223
(dp1224
g62
(dp1225
sg71
g1219
sg64
(lp1226
g57
(g78
g59
NtRp1227
(dp1228
g62
(dp1229
g82
g83
ssg71
g1223
sg64
(lp1230
S'app_folders'
p1231
asbag57
(g78
g59
NtRp1232
(dp1233
g62
(dp1234
g89
g90
ssg71
g1223
sg64
(lp1235
S':'
asbag57
(g78
g59
NtRp1236
(dp1237
g62
(dp1238
sg71
g1223
sg64
(lp1239
g57
(g58
g59
NtRp1240
(dp1241
g62
(dp1242
g70
I4
ssg71
g1236
sg64
(lp1243
S"set(['/home/nazrul/web2py/applications/isas/', '/home/nazrul/web2py/applications/welcome/', '/home/nazrul/web2py/applications/WSD_Tool/', '/home/nazrul/web2py/applications/admin/', '/home/nazrul/web2py/applications/WSD/', '/home/nazrul/web2py/applications/news/'])"
p1244
asbasbasbag57
(g73
g59
NtRp1245
(dp1246
g62
(dp1247
sg71
g1219
sg64
(lp1248
g57
(g78
g59
NtRp1249
(dp1250
g62
(dp1251
g82
g83
ssg71
g1245
sg64
(lp1252
S'applications_parent'
p1253
asbag57
(g78
g59
NtRp1254
(dp1255
g62
(dp1256
g89
g90
ssg71
g1245
sg64
(lp1257
S':'
asbag57
(g78
g59
NtRp1258
(dp1259
g62
(dp1260
sg71
g1245
sg64
(lp1261
g57
(g58
g59
NtRp1262
(dp1263
g62
(dp1264
g70
I4
ssg71
g1258
sg64
(lp1265
S'/home/nazrul/web2py'
p1266
asbasbasbag57
(g73
g59
NtRp1267
(dp1268
g62
(dp1269
sg71
g1219
sg64
(lp1270
g57
(g78
g59
NtRp1271
(dp1272
g62
(dp1273
g82
g83
ssg71
g1267
sg64
(lp1274
S'cmd_args'
p1275
asbag57
(g78
g59
NtRp1276
(dp1277
g62
(dp1278
g89
g90
ssg71
g1267
sg64
(lp1279
S':'
asbag57
(g78
g59
NtRp1280
(dp1281
g62
(dp1282
sg71
g1267
sg64
(lp1283
g57
(g58
g59
NtRp1284
(dp1285
g62
(dp1286
g70
I4
ssg71
g1280
sg64
(lp1287
g57
(g66
g59
NtRp1288
(dp1289
g62
(dp1290
g70
I3
ssg71
Nsg64
(lp1291
sbasbasbasbag57
(g73
g59
NtRp1292
(dp1293
g62
(dp1294
sg71
g1219
sg64
(lp1295
g57
(g78
g59
NtRp1296
(dp1297
g62
(dp1298
g82
g83
ssg71
g1292
sg64
(lp1299
S'cmd_options'
p1300
asbag57
(g78
g59
NtRp1301
(dp1302
g62
(dp1303
g89
g90
ssg71
g1292
sg64
(lp1304
S':'
asbag57
(g78
g59
NtRp1305
(dp1306
g62
(dp1307
sg71
g1292
sg64
(lp1308
g57
(g58
g59
NtRp1309
(dp1310
g62
(dp1311
g70
I4
ssg71
g1305
sg64
(lp1312
S"<Values at 0x941394c: {'verbose': False, 'ip': '127.0.0.1', 'with_scheduler': False, 'ips': [], 'shutdown_timeout': 5, 'taskbar': False, 'port': 8000, 'maxthreads': None, 'softcron': False, 'server_name': 'nazrul-Compaq-Presario-CQ40-Notebook-PC', 'bpython': False, 'nogui': False, 'pid_filename': 'httpserver.pid', 'extcron': False, 'runcron': False, 'run_system_tests': False, 'test': None, 'folder': '/home/nazrul/web2py', 'config': '', 'import_models': False, 'winservice': '', 'shell': None, 'run': '', 'log_filename': 'httpserver.log', 'debuglevel': 30, 'args': [''], 'socket_timeout': 5, 'ssl_ca_certificate': None, 'scheduler': None, 'profiler_filename': None, 'ssl_private_key': '', 'scheduler_groups': None, 'password': '<ask>', 'request_queue_size': 5, 'ssl_certificate': '', 'cronjob': False, 'numthreads': None, 'quiet': False, 'interfaces': None, 'minthreads': None, 'timeout': 10, 'plain': False, 'nobanner': False}>"
p1313
asbasbasbag57
(g73
g59
NtRp1314
(dp1315
g62
(dp1316
sg71
g1219
sg64
(lp1317
g57
(g78
g59
NtRp1318
(dp1319
g62
(dp1320
g82
g83
ssg71
g1314
sg64
(lp1321
S'db_sessions'
p1322
asbag57
(g78
g59
NtRp1323
(dp1324
g62
(dp1325
g89
g90
ssg71
g1314
sg64
(lp1326
S':'
asbag57
(g78
g59
NtRp1327
(dp1328
g62
(dp1329
sg71
g1314
sg64
(lp1330
g57
(g58
g59
NtRp1331
(dp1332
g62
(dp1333
g70
I4
ssg71
g1327
sg64
(lp1334
S'set([])'
p1335
asbasbasbag57
(g73
g59
NtRp1336
(dp1337
g62
(dp1338
sg71
g1219
sg64
(lp1339
g57
(g78
g59
NtRp1340
(dp1341
g62
(dp1342
g82
g83
ssg71
g1336
sg64
(lp1343
S'debugging'
p1344
asbag57
(g78
g59
NtRp1345
(dp1346
g62
(dp1347
g89
g90
ssg71
g1336
sg64
(lp1348
S':'
asbag57
(g78
g59
NtRp1349
(dp1350
g62
(dp1351
sg71
g1336
sg64
(lp1352
g57
(g58
g59
NtRp1353
(dp1354
g62
(dp1355
g70
I4
ssg71
g1349
sg64
(lp1356
g100
asbasbasbag57
(g73
g59
NtRp1357
(dp1358
g62
(dp1359
sg71
g1219
sg64
(lp1360
g57
(g78
g59
NtRp1361
(dp1362
g62
(dp1363
g82
g83
ssg71
g1357
sg64
(lp1364
S'gluon_parent'
p1365
asbag57
(g78
g59
NtRp1366
(dp1367
g62
(dp1368
g89
g90
ssg71
g1357
sg64
(lp1369
S':'
asbag57
(g78
g59
NtRp1370
(dp1371
g62
(dp1372
sg71
g1357
sg64
(lp1373
g57
(g58
g59
NtRp1374
(dp1375
g62
(dp1376
g70
I4
ssg71
g1370
sg64
(lp1377
S'/home/nazrul/web2py'
p1378
asbasbasbag57
(g73
g59
NtRp1379
(dp1380
g62
(dp1381
sg71
g1219
sg64
(lp1382
g57
(g78
g59
NtRp1383
(dp1384
g62
(dp1385
g82
g83
ssg71
g1379
sg64
(lp1386
S'http_accept'
p1387
asbag57
(g78
g59
NtRp1388
(dp1389
g62
(dp1390
g89
g90
ssg71
g1379
sg64
(lp1391
S':'
asbag57
(g78
g59
NtRp1392
(dp1393
g62
(dp1394
sg71
g1379
sg64
(lp1395
g57
(g58
g59
NtRp1396
(dp1397
g62
(dp1398
g70
I4
ssg71
g1392
sg64
(lp1399
S'text/html,application/xhtml+xml,application/xml;q=0.9,*/*;q=0.8'
p1400
asbasbasbag57
(g73
g59
NtRp1401
(dp1402
g62
(dp1403
sg71
g1219
sg64
(lp1404
g57
(g78
g59
NtRp1405
(dp1406
g62
(dp1407
g82
g83
ssg71
g1401
sg64
(lp1408
S'http_accept_encoding'
p1409
asbag57
(g78
g59
NtRp1410
(dp1411
g62
(dp1412
g89
g90
ssg71
g1401
sg64
(lp1413
S':'
asbag57
(g78
g59
NtRp1414
(dp1415
g62
(dp1416
sg71
g1401
sg64
(lp1417
g57
(g58
g59
NtRp1418
(dp1419
g62
(dp1420
g70
I4
ssg71
g1414
sg64
(lp1421
S'gzip, deflate'
p1422
asbasbasbag57
(g73
g59
NtRp1423
(dp1424
g62
(dp1425
sg71
g1219
sg64
(lp1426
g57
(g78
g59
NtRp1427
(dp1428
g62
(dp1429
g82
g83
ssg71
g1423
sg64
(lp1430
S'http_accept_language'
p1431
asbag57
(g78
g59
NtRp1432
(dp1433
g62
(dp1434
g89
g90
ssg71
g1423
sg64
(lp1435
S':'
asbag57
(g78
g59
NtRp1436
(dp1437
g62
(dp1438
sg71
g1423
sg64
(lp1439
g57
(g58
g59
NtRp1440
(dp1441
g62
(dp1442
g70
I4
ssg71
g1436
sg64
(lp1443
S'en-US,en;q=0.5'
p1444
asbasbasbag57
(g73
g59
NtRp1445
(dp1446
g62
(dp1447
sg71
g1219
sg64
(lp1448
g57
(g78
g59
NtRp1449
(dp1450
g62
(dp1451
g82
g83
ssg71
g1445
sg64
(lp1452
S'http_connection'
p1453
asbag57
(g78
g59
NtRp1454
(dp1455
g62
(dp1456
g89
g90
ssg71
g1445
sg64
(lp1457
S':'
asbag57
(g78
g59
NtRp1458
(dp1459
g62
(dp1460
sg71
g1445
sg64
(lp1461
g57
(g58
g59
NtRp1462
(dp1463
g62
(dp1464
g70
I4
ssg71
g1458
sg64
(lp1465
S'keep-alive'
p1466
asbasbasbag57
(g73
g59
NtRp1467
(dp1468
g62
(dp1469
sg71
g1219
sg64
(lp1470
g57
(g78
g59
NtRp1471
(dp1472
g62
(dp1473
g82
g83
ssg71
g1467
sg64
(lp1474
S'http_cookie'
p1475
asbag57
(g78
g59
NtRp1476
(dp1477
g62
(dp1478
g89
g90
ssg71
g1467
sg64
(lp1479
S':'
asbag57
(g78
g59
NtRp1480
(dp1481
g62
(dp1482
sg71
g1467
sg64
(lp1483
g57
(g58
g59
NtRp1484
(dp1485
g62
(dp1486
g70
I4
ssg71
g1480
sg64
(lp1487
S'KBD=0hi-0; session_id_welcome=127.0.0.1-95c46222-74b7-463f-9016-75c6960e2569; session_id_admin=127.0.0.1-451e400d-95c6-4798-aa5b-0b8737d4b703; session_id_wsd=127.0.0.1-6a7c3401-059b-4dac-aafc-9a0a37e89b81; session_id_wsd_tool=127.0.0.1-8aee5378-76ff-46f8-b728-b1bcd2634b28'
p1488
asbasbasbag57
(g73
g59
NtRp1489
(dp1490
g62
(dp1491
sg71
g1219
sg64
(lp1492
g57
(g78
g59
NtRp1493
(dp1494
g62
(dp1495
g82
g83
ssg71
g1489
sg64
(lp1496
S'http_host'
p1497
asbag57
(g78
g59
NtRp1498
(dp1499
g62
(dp1500
g89
g90
ssg71
g1489
sg64
(lp1501
S':'
asbag57
(g78
g59
NtRp1502
(dp1503
g62
(dp1504
sg71
g1489
sg64
(lp1505
g57
(g58
g59
NtRp1506
(dp1507
g62
(dp1508
g70
I4
ssg71
g1502
sg64
(lp1509
S'127.0.0.1:8000'
p1510
asbasbasbag57
(g73
g59
NtRp1511
(dp1512
g62
(dp1513
sg71
g1219
sg64
(lp1514
g57
(g78
g59
NtRp1515
(dp1516
g62
(dp1517
g82
g83
ssg71
g1511
sg64
(lp1518
S'http_referer'
p1519
asbag57
(g78
g59
NtRp1520
(dp1521
g62
(dp1522
g89
g90
ssg71
g1511
sg64
(lp1523
S':'
asbag57
(g78
g59
NtRp1524
(dp1525
g62
(dp1526
sg71
g1511
sg64
(lp1527
g57
(g58
g59
NtRp1528
(dp1529
g62
(dp1530
g70
I4
ssg71
g1524
sg64
(lp1531
S'http://127.0.0.1:8000/WSD/default/word_select?check=1'
p1532
asbasbasbag57
(g73
g59
NtRp1533
(dp1534
g62
(dp1535
sg71
g1219
sg64
(lp1536
g57
(g78
g59
NtRp1537
(dp1538
g62
(dp1539
g82
g83
ssg71
g1533
sg64
(lp1540
S'http_user_agent'
p1541
asbag57
(g78
g59
NtRp1542
(dp1543
g62
(dp1544
g89
g90
ssg71
g1533
sg64
(lp1545
S':'
asbag57
(g78
g59
NtRp1546
(dp1547
g62
(dp1548
sg71
g1533
sg64
(lp1549
g57
(g58
g59
NtRp1550
(dp1551
g62
(dp1552
g70
I4
ssg71
g1546
sg64
(lp1553
S'Mozilla/5.0 (X11; Ubuntu; Linux i686; rv:18.0) Gecko/20100101 Firefox/18.0'
p1554
asbasbasbag57
(g73
g59
NtRp1555
(dp1556
g62
(dp1557
sg71
g1219
sg64
(lp1558
g57
(g78
g59
NtRp1559
(dp1560
g62
(dp1561
g82
g83
ssg71
g1555
sg64
(lp1562
S'is_jython'
p1563
asbag57
(g78
g59
NtRp1564
(dp1565
g62
(dp1566
g89
g90
ssg71
g1555
sg64
(lp1567
S':'
asbag57
(g78
g59
NtRp1568
(dp1569
g62
(dp1570
sg71
g1555
sg64
(lp1571
g57
(g58
g59
NtRp1572
(dp1573
g62
(dp1574
g70
I4
ssg71
g1568
sg64
(lp1575
g100
asbasbasbag57
(g73
g59
NtRp1576
(dp1577
g62
(dp1578
sg71
g1219
sg64
(lp1579
g57
(g78
g59
NtRp1580
(dp1581
g62
(dp1582
g82
g83
ssg71
g1576
sg64
(lp1583
S'is_pypy'
p1584
asbag57
(g78
g59
NtRp1585
(dp1586
g62
(dp1587
g89
g90
ssg71
g1576
sg64
(lp1588
S':'
asbag57
(g78
g59
NtRp1589
(dp1590
g62
(dp1591
sg71
g1576
sg64
(lp1592
g57
(g58
g59
NtRp1593
(dp1594
g62
(dp1595
g70
I4
ssg71
g1589
sg64
(lp1596
g100
asbasbasbag57
(g73
g59
NtRp1597
(dp1598
g62
(dp1599
sg71
g1219
sg64
(lp1600
g57
(g78
g59
NtRp1601
(dp1602
g62
(dp1603
g82
g83
ssg71
g1597
sg64
(lp1604
S'local_hosts'
p1605
asbag57
(g78
g59
NtRp1606
(dp1607
g62
(dp1608
g89
g90
ssg71
g1597
sg64
(lp1609
S':'
asbag57
(g78
g59
NtRp1610
(dp1611
g62
(dp1612
sg71
g1597
sg64
(lp1613
g57
(g58
g59
NtRp1614
(dp1615
g62
(dp1616
g70
I4
ssg71
g1610
sg64
(lp1617
g57
(g66
g59
NtRp1618
(dp1619
g62
(dp1620
g70
I3
ssg71
Nsg64
(lp1621
g57
(g73
g59
NtRp1622
(dp1623
g62
(dp1624
sg71
g1618
sg64
(lp1625
g57
(g78
g59
NtRp1626
(dp1627
g62
(dp1628
sg71
g1622
sg64
(lp1629
g57
(g58
g59
NtRp1630
(dp1631
g62
(dp1632
g70
I3
ssg71
g1626
sg64
(lp1633
S'::1'
p1634
asbasbasbag57
(g73
g59
NtRp1635
(dp1636
g62
(dp1637
sg71
g1618
sg64
(lp1638
g57
(g78
g59
NtRp1639
(dp1640
g62
(dp1641
sg71
g1635
sg64
(lp1642
g57
(g58
g59
NtRp1643
(dp1644
g62
(dp1645
g70
I3
ssg71
g1639
sg64
(lp1646
S'127.0.1.1'
p1647
asbasbasbag57
(g73
g59
NtRp1648
(dp1649
g62
(dp1650
sg71
g1618
sg64
(lp1651
g57
(g78
g59
NtRp1652
(dp1653
g62
(dp1654
sg71
g1648
sg64
(lp1655
g57
(g58
g59
NtRp1656
(dp1657
g62
(dp1658
g70
I3
ssg71
g1652
sg64
(lp1659
S'::ffff:127.0.0.1'
p1660
asbasbasbag57
(g73
g59
NtRp1661
(dp1662
g62
(dp1663
sg71
g1618
sg64
(lp1664
g57
(g78
g59
NtRp1665
(dp1666
g62
(dp1667
sg71
g1661
sg64
(lp1668
g57
(g58
g59
NtRp1669
(dp1670
g62
(dp1671
g70
I3
ssg71
g1665
sg64
(lp1672
S'127.0.0.1'
p1673
asbasbasbag57
(g73
g59
NtRp1674
(dp1675
g62
(dp1676
sg71
g1618
sg64
(lp1677
g57
(g78
g59
NtRp1678
(dp1679
g62
(dp1680
sg71
g1674
sg64
(lp1681
g57
(g58
g59
NtRp1682
(dp1683
g62
(dp1684
g70
I3
ssg71
g1678
sg64
(lp1685
S'nazrul-Compaq-Presario-CQ40-Notebook-PC'
p1686
asbasbasbasbasbasbasbag57
(g73
g59
NtRp1687
(dp1688
g62
(dp1689
sg71
g1219
sg64
(lp1690
g57
(g78
g59
NtRp1691
(dp1692
g62
(dp1693
g82
g83
ssg71
g1687
sg64
(lp1694
S'path_info'
p1695
asbag57
(g78
g59
NtRp1696
(dp1697
g62
(dp1698
g89
g90
ssg71
g1687
sg64
(lp1699
S':'
asbag57
(g78
g59
NtRp1700
(dp1701
g62
(dp1702
sg71
g1687
sg64
(lp1703
g57
(g58
g59
NtRp1704
(dp1705
g62
(dp1706
g70
I4
ssg71
g1700
sg64
(lp1707
S'/WSD/default/sentence_select'
p1708
asbasbasbag57
(g73
g59
NtRp1709
(dp1710
g62
(dp1711
sg71
g1219
sg64
(lp1712
g57
(g78
g59
NtRp1713
(dp1714
g62
(dp1715
g82
g83
ssg71
g1709
sg64
(lp1716
S'query_string'
p1717
asbag57
(g78
g59
NtRp1718
(dp1719
g62
(dp1720
g89
g90
ssg71
g1709
sg64
(lp1721
S':'
asbag57
(g78
g59
NtRp1722
(dp1723
g62
(dp1724
sg71
g1709
sg64
(lp1725
g57
(g58
g59
NtRp1726
(dp1727
g62
(dp1728
g70
I4
ssg71
g1722
sg64
(lp1729
S''
asbasbasbag57
(g73
g59
NtRp1730
(dp1731
g62
(dp1732
sg71
g1219
sg64
(lp1733
g57
(g78
g59
NtRp1734
(dp1735
g62
(dp1736
g82
g83
ssg71
g1730
sg64
(lp1737
S'remote_addr'
p1738
asbag57
(g78
g59
NtRp1739
(dp1740
g62
(dp1741
g89
g90
ssg71
g1730
sg64
(lp1742
S':'
asbag57
(g78
g59
NtRp1743
(dp1744
g62
(dp1745
sg71
g1730
sg64
(lp1746
g57
(g58
g59
NtRp1747
(dp1748
g62
(dp1749
g70
I4
ssg71
g1743
sg64
(lp1750
g212
asbasbasbag57
(g73
g59
NtRp1751
(dp1752
g62
(dp1753
sg71
g1219
sg64
(lp1754
g57
(g78
g59
NtRp1755
(dp1756
g62
(dp1757
g82
g83
ssg71
g1751
sg64
(lp1758
S'remote_port'
p1759
asbag57
(g78
g59
NtRp1760
(dp1761
g62
(dp1762
g89
g90
ssg71
g1751
sg64
(lp1763
S':'
asbag57
(g78
g59
NtRp1764
(dp1765
g62
(dp1766
sg71
g1751
sg64
(lp1767
g57
(g58
g59
NtRp1768
(dp1769
g62
(dp1770
g70
I4
ssg71
g1764
sg64
(lp1771
S'60540'
p1772
asbasbasbag57
(g73
g59
NtRp1773
(dp1774
g62
(dp1775
sg71
g1219
sg64
(lp1776
g57
(g78
g59
NtRp1777
(dp1778
g62
(dp1779
g82
g83
ssg71
g1773
sg64
(lp1780
S'request_method'
p1781
asbag57
(g78
g59
NtRp1782
(dp1783
g62
(dp1784
g89
g90
ssg71
g1773
sg64
(lp1785
S':'
asbag57
(g78
g59
NtRp1786
(dp1787
g62
(dp1788
sg71
g1773
sg64
(lp1789
g57
(g58
g59
NtRp1790
(dp1791
g62
(dp1792
g70
I4
ssg71
g1786
sg64
(lp1793
S'GET'
p1794
asbasbasbag57
(g73
g59
NtRp1795
(dp1796
g62
(dp1797
sg71
g1219
sg64
(lp1798
g57
(g78
g59
NtRp1799
(dp1800
g62
(dp1801
g82
g83
ssg71
g1795
sg64
(lp1802
S'request_uri'
p1803
asbag57
(g78
g59
NtRp1804
(dp1805
g62
(dp1806
g89
g90
ssg71
g1795
sg64
(lp1807
S':'
asbag57
(g78
g59
NtRp1808
(dp1809
g62
(dp1810
sg71
g1795
sg64
(lp1811
g57
(g58
g59
NtRp1812
(dp1813
g62
(dp1814
g70
I4
ssg71
g1808
sg64
(lp1815
g1708
asbasbasbag57
(g73
g59
NtRp1816
(dp1817
g62
(dp1818
sg71
g1219
sg64
(lp1819
g57
(g78
g59
NtRp1820
(dp1821
g62
(dp1822
g82
g83
ssg71
g1816
sg64
(lp1823
S'script_name'
p1824
asbag57
(g78
g59
NtRp1825
(dp1826
g62
(dp1827
g89
g90
ssg71
g1816
sg64
(lp1828
S':'
asbag57
(g78
g59
NtRp1829
(dp1830
g62
(dp1831
sg71
g1816
sg64
(lp1832
g57
(g58
g59
NtRp1833
(dp1834
g62
(dp1835
g70
I4
ssg71
g1829
sg64
(lp1836
S''
asbasbasbag57
(g73
g59
NtRp1837
(dp1838
g62
(dp1839
sg71
g1219
sg64
(lp1840
g57
(g78
g59
NtRp1841
(dp1842
g62
(dp1843
g82
g83
ssg71
g1837
sg64
(lp1844
S'server_name'
p1845
asbag57
(g78
g59
NtRp1846
(dp1847
g62
(dp1848
g89
g90
ssg71
g1837
sg64
(lp1849
S':'
asbag57
(g78
g59
NtRp1850
(dp1851
g62
(dp1852
sg71
g1837
sg64
(lp1853
g57
(g58
g59
NtRp1854
(dp1855
g62
(dp1856
g70
I4
ssg71
g1850
sg64
(lp1857
S'nazrul-Compaq-Presario-CQ40-Notebook-PC'
p1858
asbasbasbag57
(g73
g59
NtRp1859
(dp1860
g62
(dp1861
sg71
g1219
sg64
(lp1862
g57
(g78
g59
NtRp1863
(dp1864
g62
(dp1865
g82
g83
ssg71
g1859
sg64
(lp1866
S'server_port'
p1867
asbag57
(g78
g59
NtRp1868
(dp1869
g62
(dp1870
g89
g90
ssg71
g1859
sg64
(lp1871
S':'
asbag57
(g78
g59
NtRp1872
(dp1873
g62
(dp1874
sg71
g1859
sg64
(lp1875
g57
(g58
g59
NtRp1876
(dp1877
g62
(dp1878
g70
I4
ssg71
g1872
sg64
(lp1879
S'8000'
p1880
asbasbasbag57
(g73
g59
NtRp1881
(dp1882
g62
(dp1883
sg71
g1219
sg64
(lp1884
g57
(g78
g59
NtRp1885
(dp1886
g62
(dp1887
g82
g83
ssg71
g1881
sg64
(lp1888
S'server_protocol'
p1889
asbag57
(g78
g59
NtRp1890
(dp1891
g62
(dp1892
g89
g90
ssg71
g1881
sg64
(lp1893
S':'
asbag57
(g78
g59
NtRp1894
(dp1895
g62
(dp1896
sg71
g1881
sg64
(lp1897
g57
(g58
g59
NtRp1898
(dp1899
g62
(dp1900
g70
I4
ssg71
g1894
sg64
(lp1901
S'HTTP/1.1'
p1902
asbasbasbag57
(g73
g59
NtRp1903
(dp1904
g62
(dp1905
sg71
g1219
sg64
(lp1906
g57
(g78
g59
NtRp1907
(dp1908
g62
(dp1909
g82
g83
ssg71
g1903
sg64
(lp1910
S'server_software'
p1911
asbag57
(g78
g59
NtRp1912
(dp1913
g62
(dp1914
g89
g90
ssg71
g1903
sg64
(lp1915
S':'
asbag57
(g78
g59
NtRp1916
(dp1917
g62
(dp1918
sg71
g1903
sg64
(lp1919
g57
(g58
g59
NtRp1920
(dp1921
g62
(dp1922
g70
I4
ssg71
g1916
sg64
(lp1923
S'Rocket 1.2.6'
p1924
asbasbasbag57
(g73
g59
NtRp1925
(dp1926
g62
(dp1927
sg71
g1219
sg64
(lp1928
g57
(g78
g59
NtRp1929
(dp1930
g62
(dp1931
g82
g83
ssg71
g1925
sg64
(lp1932
S'web2py_path'
p1933
asbag57
(g78
g59
NtRp1934
(dp1935
g62
(dp1936
g89
g90
ssg71
g1925
sg64
(lp1937
S':'
asbag57
(g78
g59
NtRp1938
(dp1939
g62
(dp1940
sg71
g1925
sg64
(lp1941
g57
(g58
g59
NtRp1942
(dp1943
g62
(dp1944
g70
I4
ssg71
g1938
sg64
(lp1945
g1266
asbasbasbag57
(g73
g59
NtRp1946
(dp1947
g62
(dp1948
sg71
g1219
sg64
(lp1949
g57
(g78
g59
NtRp1950
(dp1951
g62
(dp1952
g82
g83
ssg71
g1946
sg64
(lp1953
S'web2py_version'
p1954
asbag57
(g78
g59
NtRp1955
(dp1956
g62
(dp1957
g89
g90
ssg71
g1946
sg64
(lp1958
S':'
asbag57
(g78
g59
NtRp1959
(dp1960
g62
(dp1961
sg71
g1946
sg64
(lp1962
g57
(g58
g59
NtRp1963
(dp1964
g62
(dp1965
g70
I4
ssg71
g1959
sg64
(lp1966
g57
(g66
g59
NtRp1967
(dp1968
g62
(dp1969
g70
I3
ssg71
Nsg64
(lp1970
g57
(g73
g59
NtRp1971
(dp1972
g62
(dp1973
sg71
g1967
sg64
(lp1974
g57
(g78
g59
NtRp1975
(dp1976
g62
(dp1977
sg71
g1971
sg64
(lp1978
g57
(g58
g59
NtRp1979
(dp1980
g62
(dp1981
g70
I3
ssg71
g1975
sg64
(lp1982
S'2'
asbasbasbag57
(g73
g59
NtRp1983
(dp1984
g62
(dp1985
sg71
g1967
sg64
(lp1986
g57
(g78
g59
NtRp1987
(dp1988
g62
(dp1989
sg71
g1983
sg64
(lp1990
g57
(g58
g59
NtRp1991
(dp1992
g62
(dp1993
g70
I3
ssg71
g1987
sg64
(lp1994
S'3'
asbasbasbag57
(g73
g59
NtRp1995
(dp1996
g62
(dp1997
sg71
g1967
sg64
(lp1998
g57
(g78
g59
NtRp1999
(dp2000
g62
(dp2001
sg71
g1995
sg64
(lp2002
g57
(g58
g59
NtRp2003
(dp2004
g62
(dp2005
g70
I3
ssg71
g1999
sg64
(lp2006
S'2'
asbasbasbag57
(g73
g59
NtRp2007
(dp2008
g62
(dp2009
sg71
g1967
sg64
(lp2010
g57
(g78
g59
NtRp2011
(dp2012
g62
(dp2013
sg71
g2007
sg64
(lp2014
g57
(g58
g59
NtRp2015
(dp2016
g62
(dp2017
g70
I3
ssg71
g2011
sg64
(lp2018
S'datetime.datetime(2012, 12, 17, 15, 3, 30)'
p2019
asbasbasbag57
(g73
g59
NtRp2020
(dp2021
g62
(dp2022
sg71
g1967
sg64
(lp2023
g57
(g78
g59
NtRp2024
(dp2025
g62
(dp2026
sg71
g2020
sg64
(lp2027
g57
(g58
g59
NtRp2028
(dp2029
g62
(dp2030
g70
I3
ssg71
g2024
sg64
(lp2031
S'stable'
p2032
asbasbasbasbasbasbasbag57
(g73
g59
NtRp2033
(dp2034
g62
(dp2035
sg71
g1219
sg64
(lp2036
g57
(g78
g59
NtRp2037
(dp2038
g62
(dp2039
g82
g83
ssg71
g2033
sg64
(lp2040
S'wsgi_errors'
p2041
asbag57
(g78
g59
NtRp2042
(dp2043
g62
(dp2044
g89
g90
ssg71
g2033
sg64
(lp2045
S':'
asbag57
(g78
g59
NtRp2046
(dp2047
g62
(dp2048
sg71
g2033
sg64
(lp2049
g57
(g58
g59
NtRp2050
(dp2051
g62
(dp2052
g70
I4
ssg71
g2046
sg64
(lp2053
S"<open file '<stderr>', mode 'w' at 0xb72da0d0>"
p2054
asbasbasbag57
(g73
g59
NtRp2055
(dp2056
g62
(dp2057
sg71
g1219
sg64
(lp2058
g57
(g78
g59
NtRp2059
(dp2060
g62
(dp2061
g82
g83
ssg71
g2055
sg64
(lp2062
S'wsgi_file_wrapper'
p2063
asbag57
(g78
g59
NtRp2064
(dp2065
g62
(dp2066
g89
g90
ssg71
g2055
sg64
(lp2067
S':'
asbag57
(g78
g59
NtRp2068
(dp2069
g62
(dp2070
sg71
g2055
sg64
(lp2071
g57
(g58
g59
NtRp2072
(dp2073
g62
(dp2074
g70
I4
ssg71
g2068
sg64
(lp2075
S'<class wsgiref.util.FileWrapper at 0x93d347c>'
p2076
asbasbasbag57
(g73
g59
NtRp2077
(dp2078
g62
(dp2079
sg71
g1219
sg64
(lp2080
g57
(g78
g59
NtRp2081
(dp2082
g62
(dp2083
g82
g83
ssg71
g2077
sg64
(lp2084
S'wsgi_input'
p2085
asbag57
(g78
g59
NtRp2086
(dp2087
g62
(dp2088
g89
g90
ssg71
g2077
sg64
(lp2089
S':'
asbag57
(g78
g59
NtRp2090
(dp2091
g62
(dp2092
sg71
g2077
sg64
(lp2093
g57
(g58
g59
NtRp2094
(dp2095
g62
(dp2096
g70
I4
ssg71
g2090
sg64
(lp2097
S'<socket._fileobject object at 0xad75a6ac>'
p2098
asbasbasbag57
(g73
g59
NtRp2099
(dp2100
g62
(dp2101
sg71
g1219
sg64
(lp2102
g57
(g78
g59
NtRp2103
(dp2104
g62
(dp2105
g82
g83
ssg71
g2099
sg64
(lp2106
S'wsgi_multiprocess'
p2107
asbag57
(g78
g59
NtRp2108
(dp2109
g62
(dp2110
g89
g90
ssg71
g2099
sg64
(lp2111
S':'
asbag57
(g78
g59
NtRp2112
(dp2113
g62
(dp2114
sg71
g2099
sg64
(lp2115
g57
(g58
g59
NtRp2116
(dp2117
g62
(dp2118
g70
I4
ssg71
g2112
sg64
(lp2119
g100
asbasbasbag57
(g73
g59
NtRp2120
(dp2121
g62
(dp2122
sg71
g1219
sg64
(lp2123
g57
(g78
g59
NtRp2124
(dp2125
g62
(dp2126
g82
g83
ssg71
g2120
sg64
(lp2127
S'wsgi_multithread'
p2128
asbag57
(g78
g59
NtRp2129
(dp2130
g62
(dp2131
g89
g90
ssg71
g2120
sg64
(lp2132
S':'
asbag57
(g78
g59
NtRp2133
(dp2134
g62
(dp2135
sg71
g2120
sg64
(lp2136
g57
(g58
g59
NtRp2137
(dp2138
g62
(dp2139
g70
I4
ssg71
g2133
sg64
(lp2140
S'True'
p2141
asbasbasbag57
(g73
g59
NtRp2142
(dp2143
g62
(dp2144
sg71
g1219
sg64
(lp2145
g57
(g78
g59
NtRp2146
(dp2147
g62
(dp2148
g82
g83
ssg71
g2142
sg64
(lp2149
S'wsgi_run_once'
p2150
asbag57
(g78
g59
NtRp2151
(dp2152
g62
(dp2153
g89
g90
ssg71
g2142
sg64
(lp2154
S':'
asbag57
(g78
g59
NtRp2155
(dp2156
g62
(dp2157
sg71
g2142
sg64
(lp2158
g57
(g58
g59
NtRp2159
(dp2160
g62
(dp2161
g70
I4
ssg71
g2155
sg64
(lp2162
g100
asbasbasbag57
(g73
g59
NtRp2163
(dp2164
g62
(dp2165
sg71
g1219
sg64
(lp2166
g57
(g78
g59
NtRp2167
(dp2168
g62
(dp2169
g82
g83
ssg71
g2163
sg64
(lp2170
S'wsgi_url_scheme'
p2171
asbag57
(g78
g59
NtRp2172
(dp2173
g62
(dp2174
g89
g90
ssg71
g2163
sg64
(lp2175
S':'
asbag57
(g78
g59
NtRp2176
(dp2177
g62
(dp2178
sg71
g2163
sg64
(lp2179
g57
(g58
g59
NtRp2180
(dp2181
g62
(dp2182
g70
I4
ssg71
g2176
sg64
(lp2183
S'http'
p2184
asbasbasbag57
(g73
g59
NtRp2185
(dp2186
g62
(dp2187
sg71
g1219
sg64
(lp2188
g57
(g78
g59
NtRp2189
(dp2190
g62
(dp2191
g82
g83
ssg71
g2185
sg64
(lp2192
S'wsgi_version'
p2193
asbag57
(g78
g59
NtRp2194
(dp2195
g62
(dp2196
g89
g90
ssg71
g2185
sg64
(lp2197
S':'
asbag57
(g78
g59
NtRp2198
(dp2199
g62
(dp2200
sg71
g2185
sg64
(lp2201
g57
(g58
g59
NtRp2202
(dp2203
g62
(dp2204
g70
I4
ssg71
g2198
sg64
(lp2205
g57
(g66
g59
NtRp2206
(dp2207
g62
(dp2208
g70
I3
ssg71
Nsg64
(lp2209
g57
(g73
g59
NtRp2210
(dp2211
g62
(dp2212
sg71
g2206
sg64
(lp2213
g57
(g78
g59
NtRp2214
(dp2215
g62
(dp2216
sg71
g2210
sg64
(lp2217
g57
(g58
g59
NtRp2218
(dp2219
g62
(dp2220
g70
I3
ssg71
g2214
sg64
(lp2221
S'1'
asbasbasbag57
(g73
g59
NtRp2222
(dp2223
g62
(dp2224
sg71
g2206
sg64
(lp2225
g57
(g78
g59
NtRp2226
(dp2227
g62
(dp2228
sg71
g2222
sg64
(lp2229
g57
(g58
g59
NtRp2230
(dp2231
g62
(dp2232
g70
I3
ssg71
g2226
sg64
(lp2233
S'0'
asbasbasbasbasbasbasbasbasbasbasbag57
(g73
g59
NtRp2234
(dp2235
g62
(dp2236
sg71
g67
sg64
(lp2237
g57
(g78
g59
NtRp2238
(dp2239
g62
(dp2240
g82
g83
ssg71
g2234
sg64
(lp2241
S'extension'
p2242
asbag57
(g78
g59
NtRp2243
(dp2244
g62
(dp2245
g89
g90
ssg71
g2234
sg64
(lp2246
S':'
asbag57
(g78
g59
NtRp2247
(dp2248
g62
(dp2249
sg71
g2234
sg64
(lp2250
g57
(g58
g59
NtRp2251
(dp2252
g62
(dp2253
g70
I5
ssg71
g2247
sg64
(lp2254
S'html'
p2255
asbasbasbag57
(g73
g59
NtRp2256
(dp2257
g62
(dp2258
sg71
g67
sg64
(lp2259
g57
(g78
g59
NtRp2260
(dp2261
g62
(dp2262
g82
g83
ssg71
g2256
sg64
(lp2263
S'folder'
p2264
asbag57
(g78
g59
NtRp2265
(dp2266
g62
(dp2267
g89
g90
ssg71
g2256
sg64
(lp2268
S':'
asbag57
(g78
g59
NtRp2269
(dp2270
g62
(dp2271
sg71
g2256
sg64
(lp2272
g57
(g58
g59
NtRp2273
(dp2274
g62
(dp2275
g70
I5
ssg71
g2269
sg64
(lp2276
S'/home/nazrul/web2py/applications/WSD/'
p2277
asbasbasbag57
(g73
g59
NtRp2278
(dp2279
g62
(dp2280
sg71
g67
sg64
(lp2281
g57
(g78
g59
NtRp2282
(dp2283
g62
(dp2284
g82
g83
ssg71
g2278
sg64
(lp2285
S'function'
p2286
asbag57
(g78
g59
NtRp2287
(dp2288
g62
(dp2289
g89
g90
ssg71
g2278
sg64
(lp2290
S':'
asbag57
(g78
g59
NtRp2291
(dp2292
g62
(dp2293
sg71
g2278
sg64
(lp2294
g57
(g58
g59
NtRp2295
(dp2296
g62
(dp2297
g70
I5
ssg71
g2291
sg64
(lp2298
S'sentence_select'
p2299
asbasbasbag57
(g73
g59
NtRp2300
(dp2301
g62
(dp2302
sg71
g67
sg64
(lp2303
g57
(g78
g59
NtRp2304
(dp2305
g62
(dp2306
g82
g83
ssg71
g2300
sg64
(lp2307
S'get_vars'
p2308
asbag57
(g78
g59
NtRp2309
(dp2310
g62
(dp2311
g89
g90
ssg71
g2300
sg64
(lp2312
S':'
asbag57
(g78
g59
NtRp2313
(dp2314
g62
(dp2315
sg71
g2300
sg64
(lp2316
g57
(g58
g59
NtRp2317
(dp2318
g62
(dp2319
g70
I5
ssg71
g2313
sg64
(lp2320
g57
(g66
g59
NtRp2321
(dp2322
g62
(dp2323
g70
I4
ssg71
Nsg64
(lp2324
sbasbasbasbag57
(g73
g59
NtRp2325
(dp2326
g62
(dp2327
sg71
g67
sg64
(lp2328
g57
(g78
g59
NtRp2329
(dp2330
g62
(dp2331
g82
g83
ssg71
g2325
sg64
(lp2332
S'global_settings'
p2333
asbag57
(g78
g59
NtRp2334
(dp2335
g62
(dp2336
g89
g90
ssg71
g2325
sg64
(lp2337
S':'
asbag57
(g78
g59
NtRp2338
(dp2339
g62
(dp2340
sg71
g2325
sg64
(lp2341
g57
(g58
g59
NtRp2342
(dp2343
g62
(dp2344
g70
I5
ssg71
g2338
sg64
(lp2345
g57
(g66
g59
NtRp2346
(dp2347
g62
(dp2348
g70
I4
ssg71
Nsg64
(lp2349
g57
(g73
g59
NtRp2350
(dp2351
g62
(dp2352
sg71
g2346
sg64
(lp2353
g57
(g78
g59
NtRp2354
(dp2355
g62
(dp2356
g82
g83
ssg71
g2350
sg64
(lp2357
g1231
asbag57
(g78
g59
NtRp2358
(dp2359
g62
(dp2360
g89
g90
ssg71
g2350
sg64
(lp2361
S':'
asbag57
(g78
g59
NtRp2362
(dp2363
g62
(dp2364
sg71
g2350
sg64
(lp2365
g57
(g58
g59
NtRp2366
(dp2367
g62
(dp2368
g70
I4
ssg71
g2362
sg64
(lp2369
S"set(['/home/nazrul/web2py/applications/isas/', '/home/nazrul/web2py/applications/welcome/', '/home/nazrul/web2py/applications/WSD_Tool/', '/home/nazrul/web2py/applications/admin/', '/home/nazrul/web2py/applications/WSD/', '/home/nazrul/web2py/applications/news/'])"
p2370
asbasbasbag57
(g73
g59
NtRp2371
(dp2372
g62
(dp2373
sg71
g2346
sg64
(lp2374
g57
(g78
g59
NtRp2375
(dp2376
g62
(dp2377
g82
g83
ssg71
g2371
sg64
(lp2378
g1253
asbag57
(g78
g59
NtRp2379
(dp2380
g62
(dp2381
g89
g90
ssg71
g2371
sg64
(lp2382
S':'
asbag57
(g78
g59
NtRp2383
(dp2384
g62
(dp2385
sg71
g2371
sg64
(lp2386
g57
(g58
g59
NtRp2387
(dp2388
g62
(dp2389
g70
I4
ssg71
g2383
sg64
(lp2390
g1266
asbasbasbag57
(g73
g59
NtRp2391
(dp2392
g62
(dp2393
sg71
g2346
sg64
(lp2394
g57
(g78
g59
NtRp2395
(dp2396
g62
(dp2397
g82
g83
ssg71
g2391
sg64
(lp2398
g1275
asbag57
(g78
g59
NtRp2399
(dp2400
g62
(dp2401
g89
g90
ssg71
g2391
sg64
(lp2402
S':'
asbag57
(g78
g59
NtRp2403
(dp2404
g62
(dp2405
sg71
g2391
sg64
(lp2406
g57
(g58
g59
NtRp2407
(dp2408
g62
(dp2409
g70
I4
ssg71
g2403
sg64
(lp2410
g57
(g66
g59
NtRp2411
(dp2412
g62
(dp2413
g70
I3
ssg71
Nsg64
(lp2414
sbasbasbasbag57
(g73
g59
NtRp2415
(dp2416
g62
(dp2417
sg71
g2346
sg64
(lp2418
g57
(g78
g59
NtRp2419
(dp2420
g62
(dp2421
g82
g83
ssg71
g2415
sg64
(lp2422
g1300
asbag57
(g78
g59
NtRp2423
(dp2424
g62
(dp2425
g89
g90
ssg71
g2415
sg64
(lp2426
S':'
asbag57
(g78
g59
NtRp2427
(dp2428
g62
(dp2429
sg71
g2415
sg64
(lp2430
g57
(g58
g59
NtRp2431
(dp2432
g62
(dp2433
g70
I4
ssg71
g2427
sg64
(lp2434
S"<Values at 0x941394c: {'verbose': False, 'ip': '127.0.0.1', 'with_scheduler': False, 'ips': [], 'shutdown_timeout': 5, 'taskbar': False, 'port': 8000, 'maxthreads': None, 'softcron': False, 'server_name': 'nazrul-Compaq-Presario-CQ40-Notebook-PC', 'bpython': False, 'nogui': False, 'pid_filename': 'httpserver.pid', 'extcron': False, 'runcron': False, 'run_system_tests': False, 'test': None, 'folder': '/home/nazrul/web2py', 'config': '', 'import_models': False, 'winservice': '', 'shell': None, 'run': '', 'log_filename': 'httpserver.log', 'debuglevel': 30, 'args': [''], 'socket_timeout': 5, 'ssl_ca_certificate': None, 'scheduler': None, 'profiler_filename': None, 'ssl_private_key': '', 'scheduler_groups': None, 'password': '<ask>', 'request_queue_size': 5, 'ssl_certificate': '', 'cronjob': False, 'numthreads': None, 'quiet': False, 'interfaces': None, 'minthreads': None, 'timeout': 10, 'plain': False, 'nobanner': False}>"
p2435
asbasbasbag57
(g73
g59
NtRp2436
(dp2437
g62
(dp2438
sg71
g2346
sg64
(lp2439
g57
(g78
g59
NtRp2440
(dp2441
g62
(dp2442
g82
g83
ssg71
g2436
sg64
(lp2443
g1322
asbag57
(g78
g59
NtRp2444
(dp2445
g62
(dp2446
g89
g90
ssg71
g2436
sg64
(lp2447
S':'
asbag57
(g78
g59
NtRp2448
(dp2449
g62
(dp2450
sg71
g2436
sg64
(lp2451
g57
(g58
g59
NtRp2452
(dp2453
g62
(dp2454
g70
I4
ssg71
g2448
sg64
(lp2455
S'set([])'
p2456
asbasbasbag57
(g73
g59
NtRp2457
(dp2458
g62
(dp2459
sg71
g2346
sg64
(lp2460
g57
(g78
g59
NtRp2461
(dp2462
g62
(dp2463
g82
g83
ssg71
g2457
sg64
(lp2464
g1344
asbag57
(g78
g59
NtRp2465
(dp2466
g62
(dp2467
g89
g90
ssg71
g2457
sg64
(lp2468
S':'
asbag57
(g78
g59
NtRp2469
(dp2470
g62
(dp2471
sg71
g2457
sg64
(lp2472
g57
(g58
g59
NtRp2473
(dp2474
g62
(dp2475
g70
I4
ssg71
g2469
sg64
(lp2476
g100
asbasbasbag57
(g73
g59
NtRp2477
(dp2478
g62
(dp2479
sg71
g2346
sg64
(lp2480
g57
(g78
g59
NtRp2481
(dp2482
g62
(dp2483
g82
g83
ssg71
g2477
sg64
(lp2484
g1365
asbag57
(g78
g59
NtRp2485
(dp2486
g62
(dp2487
g89
g90
ssg71
g2477
sg64
(lp2488
S':'
asbag57
(g78
g59
NtRp2489
(dp2490
g62
(dp2491
sg71
g2477
sg64
(lp2492
g57
(g58
g59
NtRp2493
(dp2494
g62
(dp2495
g70
I4
ssg71
g2489
sg64
(lp2496
g1378
asbasbasbag57
(g73
g59
NtRp2497
(dp2498
g62
(dp2499
sg71
g2346
sg64
(lp2500
g57
(g78
g59
NtRp2501
(dp2502
g62
(dp2503
g82
g83
ssg71
g2497
sg64
(lp2504
g1563
asbag57
(g78
g59
NtRp2505
(dp2506
g62
(dp2507
g89
g90
ssg71
g2497
sg64
(lp2508
S':'
asbag57
(g78
g59
NtRp2509
(dp2510
g62
(dp2511
sg71
g2497
sg64
(lp2512
g57
(g58
g59
NtRp2513
(dp2514
g62
(dp2515
g70
I4
ssg71
g2509
sg64
(lp2516
g100
asbasbasbag57
(g73
g59
NtRp2517
(dp2518
g62
(dp2519
sg71
g2346
sg64
(lp2520
g57
(g78
g59
NtRp2521
(dp2522
g62
(dp2523
g82
g83
ssg71
g2517
sg64
(lp2524
g1584
asbag57
(g78
g59
NtRp2525
(dp2526
g62
(dp2527
g89
g90
ssg71
g2517
sg64
(lp2528
S':'
asbag57
(g78
g59
NtRp2529
(dp2530
g62
(dp2531
sg71
g2517
sg64
(lp2532
g57
(g58
g59
NtRp2533
(dp2534
g62
(dp2535
g70
I4
ssg71
g2529
sg64
(lp2536
g100
asbasbasbag57
(g73
g59
NtRp2537
(dp2538
g62
(dp2539
sg71
g2346
sg64
(lp2540
g57
(g78
g59
NtRp2541
(dp2542
g62
(dp2543
g82
g83
ssg71
g2537
sg64
(lp2544
g1605
asbag57
(g78
g59
NtRp2545
(dp2546
g62
(dp2547
g89
g90
ssg71
g2537
sg64
(lp2548
S':'
asbag57
(g78
g59
NtRp2549
(dp2550
g62
(dp2551
sg71
g2537
sg64
(lp2552
g57
(g58
g59
NtRp2553
(dp2554
g62
(dp2555
g70
I4
ssg71
g2549
sg64
(lp2556
g57
(g66
g59
NtRp2557
(dp2558
g62
(dp2559
g70
I3
ssg71
Nsg64
(lp2560
g57
(g73
g59
NtRp2561
(dp2562
g62
(dp2563
sg71
g2557
sg64
(lp2564
g57
(g78
g59
NtRp2565
(dp2566
g62
(dp2567
sg71
g2561
sg64
(lp2568
g57
(g58
g59
NtRp2569
(dp2570
g62
(dp2571
g70
I3
ssg71
g2565
sg64
(lp2572
g1634
asbasbasbag57
(g73
g59
NtRp2573
(dp2574
g62
(dp2575
sg71
g2557
sg64
(lp2576
g57
(g78
g59
NtRp2577
(dp2578
g62
(dp2579
sg71
g2573
sg64
(lp2580
g57
(g58
g59
NtRp2581
(dp2582
g62
(dp2583
g70
I3
ssg71
g2577
sg64
(lp2584
g1647
asbasbasbag57
(g73
g59
NtRp2585
(dp2586
g62
(dp2587
sg71
g2557
sg64
(lp2588
g57
(g78
g59
NtRp2589
(dp2590
g62
(dp2591
sg71
g2585
sg64
(lp2592
g57
(g58
g59
NtRp2593
(dp2594
g62
(dp2595
g70
I3
ssg71
g2589
sg64
(lp2596
g1660
asbasbasbag57
(g73
g59
NtRp2597
(dp2598
g62
(dp2599
sg71
g2557
sg64
(lp2600
g57
(g78
g59
NtRp2601
(dp2602
g62
(dp2603
sg71
g2597
sg64
(lp2604
g57
(g58
g59
NtRp2605
(dp2606
g62
(dp2607
g70
I3
ssg71
g2601
sg64
(lp2608
g1673
asbasbasbag57
(g73
g59
NtRp2609
(dp2610
g62
(dp2611
sg71
g2557
sg64
(lp2612
g57
(g78
g59
NtRp2613
(dp2614
g62
(dp2615
sg71
g2609
sg64
(lp2616
g57
(g58
g59
NtRp2617
(dp2618
g62
(dp2619
g70
I3
ssg71
g2613
sg64
(lp2620
g1686
asbasbasbasbasbasbasbag57
(g73
g59
NtRp2621
(dp2622
g62
(dp2623
sg71
g2346
sg64
(lp2624
g57
(g78
g59
NtRp2625
(dp2626
g62
(dp2627
g82
g83
ssg71
g2621
sg64
(lp2628
g1954
asbag57
(g78
g59
NtRp2629
(dp2630
g62
(dp2631
g89
g90
ssg71
g2621
sg64
(lp2632
S':'
asbag57
(g78
g59
NtRp2633
(dp2634
g62
(dp2635
sg71
g2621
sg64
(lp2636
g57
(g58
g59
NtRp2637
(dp2638
g62
(dp2639
g70
I4
ssg71
g2633
sg64
(lp2640
g57
(g66
g59
NtRp2641
(dp2642
g62
(dp2643
g70
I3
ssg71
Nsg64
(lp2644
g57
(g73
g59
NtRp2645
(dp2646
g62
(dp2647
sg71
g2641
sg64
(lp2648
g57
(g78
g59
NtRp2649
(dp2650
g62
(dp2651
sg71
g2645
sg64
(lp2652
g57
(g58
g59
NtRp2653
(dp2654
g62
(dp2655
g70
I3
ssg71
g2649
sg64
(lp2656
S'2'
asbasbasbag57
(g73
g59
NtRp2657
(dp2658
g62
(dp2659
sg71
g2641
sg64
(lp2660
g57
(g78
g59
NtRp2661
(dp2662
g62
(dp2663
sg71
g2657
sg64
(lp2664
g57
(g58
g59
NtRp2665
(dp2666
g62
(dp2667
g70
I3
ssg71
g2661
sg64
(lp2668
S'3'
asbasbasbag57
(g73
g59
NtRp2669
(dp2670
g62
(dp2671
sg71
g2641
sg64
(lp2672
g57
(g78
g59
NtRp2673
(dp2674
g62
(dp2675
sg71
g2669
sg64
(lp2676
g57
(g58
g59
NtRp2677
(dp2678
g62
(dp2679
g70
I3
ssg71
g2673
sg64
(lp2680
S'2'
asbasbasbag57
(g73
g59
NtRp2681
(dp2682
g62
(dp2683
sg71
g2641
sg64
(lp2684
g57
(g78
g59
NtRp2685
(dp2686
g62
(dp2687
sg71
g2681
sg64
(lp2688
g57
(g58
g59
NtRp2689
(dp2690
g62
(dp2691
g70
I3
ssg71
g2685
sg64
(lp2692
S'datetime.datetime(2012, 12, 17, 15, 3, 30)'
p2693
asbasbasbag57
(g73
g59
NtRp2694
(dp2695
g62
(dp2696
sg71
g2641
sg64
(lp2697
g57
(g78
g59
NtRp2698
(dp2699
g62
(dp2700
sg71
g2694
sg64
(lp2701
g57
(g58
g59
NtRp2702
(dp2703
g62
(dp2704
g70
I3
ssg71
g2698
sg64
(lp2705
g2032
asbasbasbasbasbasbasbasbasbasbasbag57
(g73
g59
NtRp2706
(dp2707
g62
(dp2708
sg71
g67
sg64
(lp2709
g57
(g78
g59
NtRp2710
(dp2711
g62
(dp2712
g82
g83
ssg71
g2706
sg64
(lp2713
S'is_https'
p2714
asbag57
(g78
g59
NtRp2715
(dp2716
g62
(dp2717
g89
g90
ssg71
g2706
sg64
(lp2718
S':'
asbag57
(g78
g59
NtRp2719
(dp2720
g62
(dp2721
sg71
g2706
sg64
(lp2722
g57
(g58
g59
NtRp2723
(dp2724
g62
(dp2725
g70
I5
ssg71
g2719
sg64
(lp2726
g100
asbasbasbag57
(g73
g59
NtRp2727
(dp2728
g62
(dp2729
sg71
g67
sg64
(lp2730
g57
(g78
g59
NtRp2731
(dp2732
g62
(dp2733
g82
g83
ssg71
g2727
sg64
(lp2734
S'is_local'
p2735
asbag57
(g78
g59
NtRp2736
(dp2737
g62
(dp2738
g89
g90
ssg71
g2727
sg64
(lp2739
S':'
asbag57
(g78
g59
NtRp2740
(dp2741
g62
(dp2742
sg71
g2727
sg64
(lp2743
g57
(g58
g59
NtRp2744
(dp2745
g62
(dp2746
g70
I5
ssg71
g2740
sg64
(lp2747
g2141
asbasbasbag57
(g73
g59
NtRp2748
(dp2749
g62
(dp2750
sg71
g67
sg64
(lp2751
g57
(g78
g59
NtRp2752
(dp2753
g62
(dp2754
g82
g83
ssg71
g2748
sg64
(lp2755
S'is_restful'
p2756
asbag57
(g78
g59
NtRp2757
(dp2758
g62
(dp2759
g89
g90
ssg71
g2748
sg64
(lp2760
S':'
asbag57
(g78
g59
NtRp2761
(dp2762
g62
(dp2763
sg71
g2748
sg64
(lp2764
g57
(g58
g59
NtRp2765
(dp2766
g62
(dp2767
g70
I5
ssg71
g2761
sg64
(lp2768
g100
asbasbasbag57
(g73
g59
NtRp2769
(dp2770
g62
(dp2771
sg71
g67
sg64
(lp2772
g57
(g78
g59
NtRp2773
(dp2774
g62
(dp2775
g82
g83
ssg71
g2769
sg64
(lp2776
S'now'
p2777
asbag57
(g78
g59
NtRp2778
(dp2779
g62
(dp2780
g89
g90
ssg71
g2769
sg64
(lp2781
S':'
asbag57
(g78
g59
NtRp2782
(dp2783
g62
(dp2784
sg71
g2769
sg64
(lp2785
g57
(g58
g59
NtRp2786
(dp2787
g62
(dp2788
g70
I5
ssg71
g2782
sg64
(lp2789
S'datetime.datetime(2013, 11, 15, 18, 53, 44, 668699)'
p2790
asbasbasbag57
(g73
g59
NtRp2791
(dp2792
g62
(dp2793
sg71
g67
sg64
(lp2794
g57
(g78
g59
NtRp2795
(dp2796
g62
(dp2797
g82
g83
ssg71
g2791
sg64
(lp2798
S'post_vars'
p2799
asbag57
(g78
g59
NtRp2800
(dp2801
g62
(dp2802
g89
g90
ssg71
g2791
sg64
(lp2803
S':'
asbag57
(g78
g59
NtRp2804
(dp2805
g62
(dp2806
sg71
g2791
sg64
(lp2807
g57
(g58
g59
NtRp2808
(dp2809
g62
(dp2810
g70
I5
ssg71
g2804
sg64
(lp2811
g57
(g66
g59
NtRp2812
(dp2813
g62
(dp2814
g70
I4
ssg71
Nsg64
(lp2815
sbasbasbasbag57
(g73
g59
NtRp2816
(dp2817
g62
(dp2818
sg71
g67
sg64
(lp2819
g57
(g78
g59
NtRp2820
(dp2821
g62
(dp2822
g82
g83
ssg71
g2816
sg64
(lp2823
S'raw_args'
p2824
asbag57
(g78
g59
NtRp2825
(dp2826
g62
(dp2827
g89
g90
ssg71
g2816
sg64
(lp2828
S':'
asbag57
(g78
g59
NtRp2829
(dp2830
g62
(dp2831
sg71
g2816
sg64
(lp2832
g57
(g58
g59
NtRp2833
(dp2834
g62
(dp2835
g70
I5
ssg71
g2829
sg64
(lp2836
S''
asbasbasbag57
(g73
g59
NtRp2837
(dp2838
g62
(dp2839
sg71
g67
sg64
(lp2840
g57
(g78
g59
NtRp2841
(dp2842
g62
(dp2843
g82
g83
ssg71
g2837
sg64
(lp2844
S'raw_extension'
p2845
asbag57
(g78
g59
NtRp2846
(dp2847
g62
(dp2848
g89
g90
ssg71
g2837
sg64
(lp2849
S':'
asbag57
(g78
g59
NtRp2850
(dp2851
g62
(dp2852
sg71
g2837
sg64
(lp2853
g57
(g58
g59
NtRp2854
(dp2855
g62
(dp2856
g70
I5
ssg71
g2850
sg64
(lp2857
S'None'
p2858
asbasbasbag57
(g73
g59
NtRp2859
(dp2860
g62
(dp2861
sg71
g67
sg64
(lp2862
g57
(g78
g59
NtRp2863
(dp2864
g62
(dp2865
g82
g83
ssg71
g2859
sg64
(lp2866
S'url'
p2867
asbag57
(g78
g59
NtRp2868
(dp2869
g62
(dp2870
g89
g90
ssg71
g2859
sg64
(lp2871
S':'
asbag57
(g78
g59
NtRp2872
(dp2873
g62
(dp2874
sg71
g2859
sg64
(lp2875
g57
(g58
g59
NtRp2876
(dp2877
g62
(dp2878
g70
I5
ssg71
g2872
sg64
(lp2879
g1708
asbasbasbag57
(g73
g59
NtRp2880
(dp2881
g62
(dp2882
sg71
g67
sg64
(lp2883
g57
(g78
g59
NtRp2884
(dp2885
g62
(dp2886
g82
g83
ssg71
g2880
sg64
(lp2887
S'utcnow'
p2888
asbag57
(g78
g59
NtRp2889
(dp2890
g62
(dp2891
g89
g90
ssg71
g2880
sg64
(lp2892
S':'
asbag57
(g78
g59
NtRp2893
(dp2894
g62
(dp2895
sg71
g2880
sg64
(lp2896
g57
(g58
g59
NtRp2897
(dp2898
g62
(dp2899
g70
I5
ssg71
g2893
sg64
(lp2900
S'datetime.datetime(2013, 11, 15, 13, 23, 44, 668730)'
p2901
asbasbasbag57
(g73
g59
NtRp2902
(dp2903
g62
(dp2904
sg71
g67
sg64
(lp2905
g57
(g78
g59
NtRp2906
(dp2907
g62
(dp2908
g82
g83
ssg71
g2902
sg64
(lp2909
S'uuid'
p2910
asbag57
(g78
g59
NtRp2911
(dp2912
g62
(dp2913
g89
g90
ssg71
g2902
sg64
(lp2914
S':'
asbag57
(g78
g59
NtRp2915
(dp2916
g62
(dp2917
sg71
g2902
sg64
(lp2918
g57
(g58
g59
NtRp2919
(dp2920
g62
(dp2921
g70
I5
ssg71
g2915
sg64
(lp2922
S'WSD/127.0.0.1.2013-11-15.18-53-44.061cbd87-3635-40da-87a6-ec0c2bfc3b69'
p2923
asbasbasbag57
(g73
g59
NtRp2924
(dp2925
g62
(dp2926
sg71
g67
sg64
(lp2927
g57
(g78
g59
NtRp2928
(dp2929
g62
(dp2930
g82
g83
ssg71
g2924
sg64
(lp2931
S'vars'
p2932
asbag57
(g78
g59
NtRp2933
(dp2934
g62
(dp2935
g89
g90
ssg71
g2924
sg64
(lp2936
S':'
asbag57
(g78
g59
NtRp2937
(dp2938
g62
(dp2939
sg71
g2924
sg64
(lp2940
g57
(g58
g59
NtRp2941
(dp2942
g62
(dp2943
g70
I5
ssg71
g2937
sg64
(lp2944
g57
(g66
g59
NtRp2945
(dp2946
g62
(dp2947
g70
I4
ssg71
Nsg64
(lp2948
sbasbasbasbag57
(g73
g59
NtRp2949
(dp2950
g62
(dp2951
sg71
g67
sg64
(lp2952
g57
(g78
g59
NtRp2953
(dp2954
g62
(dp2955
g82
g83
ssg71
g2949
sg64
(lp2956
S'wsgi'
p2957
asbag57
(g78
g59
NtRp2958
(dp2959
g62
(dp2960
g89
g90
ssg71
g2949
sg64
(lp2961
S':'
asbag57
(g78
g59
NtRp2962
(dp2963
g62
(dp2964
sg71
g2949
sg64
(lp2965
g57
(g58
g59
NtRp2966
(dp2967
g62
(dp2968
g70
I5
ssg71
g2962
sg64
(lp2969
g57
(g66
g59
NtRp2970
(dp2971
g62
(dp2972
g70
I4
ssg71
Nsg64
(lp2973
g57
(g73
g59
NtRp2974
(dp2975
g62
(dp2976
sg71
g2970
sg64
(lp2977
g57
(g78
g59
NtRp2978
(dp2979
g62
(dp2980
g82
g83
ssg71
g2974
sg64
(lp2981
S'environ'
p2982
asbag57
(g78
g59
NtRp2983
(dp2984
g62
(dp2985
g89
g90
ssg71
g2974
sg64
(lp2986
S':'
asbag57
(g78
g59
NtRp2987
(dp2988
g62
(dp2989
sg71
g2974
sg64
(lp2990
g57
(g58
g59
NtRp2991
(dp2992
g62
(dp2993
g70
I4
ssg71
g2987
sg64
(lp2994
g57
(g66
g59
NtRp2995
(dp2996
g62
(dp2997
g70
I3
ssg71
Nsg64
(lp2998
g57
(g73
g59
NtRp2999
(dp3000
g62
(dp3001
sg71
g2995
sg64
(lp3002
g57
(g78
g59
NtRp3003
(dp3004
g62
(dp3005
g82
g83
ssg71
g2999
sg64
(lp3006
S'HTTP_ACCEPT'
p3007
asbag57
(g78
g59
NtRp3008
(dp3009
g62
(dp3010
g89
g90
ssg71
g2999
sg64
(lp3011
S':'
asbag57
(g78
g59
NtRp3012
(dp3013
g62
(dp3014
sg71
g2999
sg64
(lp3015
g57
(g58
g59
NtRp3016
(dp3017
g62
(dp3018
g70
I3
ssg71
g3012
sg64
(lp3019
g1400
asbasbasbag57
(g73
g59
NtRp3020
(dp3021
g62
(dp3022
sg71
g2995
sg64
(lp3023
g57
(g78
g59
NtRp3024
(dp3025
g62
(dp3026
g82
g83
ssg71
g3020
sg64
(lp3027
S'HTTP_ACCEPT_ENCODING'
p3028
asbag57
(g78
g59
NtRp3029
(dp3030
g62
(dp3031
g89
g90
ssg71
g3020
sg64
(lp3032
S':'
asbag57
(g78
g59
NtRp3033
(dp3034
g62
(dp3035
sg71
g3020
sg64
(lp3036
g57
(g58
g59
NtRp3037
(dp3038
g62
(dp3039
g70
I3
ssg71
g3033
sg64
(lp3040
g1422
asbasbasbag57
(g73
g59
NtRp3041
(dp3042
g62
(dp3043
sg71
g2995
sg64
(lp3044
g57
(g78
g59
NtRp3045
(dp3046
g62
(dp3047
g82
g83
ssg71
g3041
sg64
(lp3048
S'HTTP_ACCEPT_LANGUAGE'
p3049
asbag57
(g78
g59
NtRp3050
(dp3051
g62
(dp3052
g89
g90
ssg71
g3041
sg64
(lp3053
S':'
asbag57
(g78
g59
NtRp3054
(dp3055
g62
(dp3056
sg71
g3041
sg64
(lp3057
g57
(g58
g59
NtRp3058
(dp3059
g62
(dp3060
g70
I3
ssg71
g3054
sg64
(lp3061
g1444
asbasbasbag57
(g73
g59
NtRp3062
(dp3063
g62
(dp3064
sg71
g2995
sg64
(lp3065
g57
(g78
g59
NtRp3066
(dp3067
g62
(dp3068
g82
g83
ssg71
g3062
sg64
(lp3069
S'HTTP_CONNECTION'
p3070
asbag57
(g78
g59
NtRp3071
(dp3072
g62
(dp3073
g89
g90
ssg71
g3062
sg64
(lp3074
S':'
asbag57
(g78
g59
NtRp3075
(dp3076
g62
(dp3077
sg71
g3062
sg64
(lp3078
g57
(g58
g59
NtRp3079
(dp3080
g62
(dp3081
g70
I3
ssg71
g3075
sg64
(lp3082
g1466
asbasbasbag57
(g73
g59
NtRp3083
(dp3084
g62
(dp3085
sg71
g2995
sg64
(lp3086
g57
(g78
g59
NtRp3087
(dp3088
g62
(dp3089
g82
g83
ssg71
g3083
sg64
(lp3090
S'HTTP_COOKIE'
p3091
asbag57
(g78
g59
NtRp3092
(dp3093
g62
(dp3094
g89
g90
ssg71
g3083
sg64
(lp3095
S':'
asbag57
(g78
g59
NtRp3096
(dp3097
g62
(dp3098
sg71
g3083
sg64
(lp3099
g57
(g58
g59
NtRp3100
(dp3101
g62
(dp3102
g70
I3
ssg71
g3096
sg64
(lp3103
g1488
asbasbasbag57
(g73
g59
NtRp3104
(dp3105
g62
(dp3106
sg71
g2995
sg64
(lp3107
g57
(g78
g59
NtRp3108
(dp3109
g62
(dp3110
g82
g83
ssg71
g3104
sg64
(lp3111
S'HTTP_HOST'
p3112
asbag57
(g78
g59
NtRp3113
(dp3114
g62
(dp3115
g89
g90
ssg71
g3104
sg64
(lp3116
S':'
asbag57
(g78
g59
NtRp3117
(dp3118
g62
(dp3119
sg71
g3104
sg64
(lp3120
g57
(g58
g59
NtRp3121
(dp3122
g62
(dp3123
g70
I3
ssg71
g3117
sg64
(lp3124
g1510
asbasbasbag57
(g73
g59
NtRp3125
(dp3126
g62
(dp3127
sg71
g2995
sg64
(lp3128
g57
(g78
g59
NtRp3129
(dp3130
g62
(dp3131
g82
g83
ssg71
g3125
sg64
(lp3132
S'HTTP_REFERER'
p3133
asbag57
(g78
g59
NtRp3134
(dp3135
g62
(dp3136
g89
g90
ssg71
g3125
sg64
(lp3137
S':'
asbag57
(g78
g59
NtRp3138
(dp3139
g62
(dp3140
sg71
g3125
sg64
(lp3141
g57
(g58
g59
NtRp3142
(dp3143
g62
(dp3144
g70
I3
ssg71
g3138
sg64
(lp3145
g1532
asbasbasbag57
(g73
g59
NtRp3146
(dp3147
g62
(dp3148
sg71
g2995
sg64
(lp3149
g57
(g78
g59
NtRp3150
(dp3151
g62
(dp3152
g82
g83
ssg71
g3146
sg64
(lp3153
S'HTTP_USER_AGENT'
p3154
asbag57
(g78
g59
NtRp3155
(dp3156
g62
(dp3157
g89
g90
ssg71
g3146
sg64
(lp3158
S':'
asbag57
(g78
g59
NtRp3159
(dp3160
g62
(dp3161
sg71
g3146
sg64
(lp3162
g57
(g58
g59
NtRp3163
(dp3164
g62
(dp3165
g70
I3
ssg71
g3159
sg64
(lp3166
g1554
asbasbasbag57
(g73
g59
NtRp3167
(dp3168
g62
(dp3169
sg71
g2995
sg64
(lp3170
g57
(g78
g59
NtRp3171
(dp3172
g62
(dp3173
g82
g83
ssg71
g3167
sg64
(lp3174
S'PATH_INFO'
p3175
asbag57
(g78
g59
NtRp3176
(dp3177
g62
(dp3178
g89
g90
ssg71
g3167
sg64
(lp3179
S':'
asbag57
(g78
g59
NtRp3180
(dp3181
g62
(dp3182
sg71
g3167
sg64
(lp3183
g57
(g58
g59
NtRp3184
(dp3185
g62
(dp3186
g70
I3
ssg71
g3180
sg64
(lp3187
g1708
asbasbasbag57
(g73
g59
NtRp3188
(dp3189
g62
(dp3190
sg71
g2995
sg64
(lp3191
g57
(g78
g59
NtRp3192
(dp3193
g62
(dp3194
g82
g83
ssg71
g3188
sg64
(lp3195
S'QUERY_STRING'
p3196
asbag57
(g78
g59
NtRp3197
(dp3198
g62
(dp3199
g89
g90
ssg71
g3188
sg64
(lp3200
S':'
asbag57
(g78
g59
NtRp3201
(dp3202
g62
(dp3203
sg71
g3188
sg64
(lp3204
g57
(g58
g59
NtRp3205
(dp3206
g62
(dp3207
g70
I3
ssg71
g3201
sg64
(lp3208
S''
asbasbasbag57
(g73
g59
NtRp3209
(dp3210
g62
(dp3211
sg71
g2995
sg64
(lp3212
g57
(g78
g59
NtRp3213
(dp3214
g62
(dp3215
g82
g83
ssg71
g3209
sg64
(lp3216
S'REMOTE_ADDR'
p3217
asbag57
(g78
g59
NtRp3218
(dp3219
g62
(dp3220
g89
g90
ssg71
g3209
sg64
(lp3221
S':'
asbag57
(g78
g59
NtRp3222
(dp3223
g62
(dp3224
sg71
g3209
sg64
(lp3225
g57
(g58
g59
NtRp3226
(dp3227
g62
(dp3228
g70
I3
ssg71
g3222
sg64
(lp3229
g212
asbasbasbag57
(g73
g59
NtRp3230
(dp3231
g62
(dp3232
sg71
g2995
sg64
(lp3233
g57
(g78
g59
NtRp3234
(dp3235
g62
(dp3236
g82
g83
ssg71
g3230
sg64
(lp3237
S'REMOTE_PORT'
p3238
asbag57
(g78
g59
NtRp3239
(dp3240
g62
(dp3241
g89
g90
ssg71
g3230
sg64
(lp3242
S':'
asbag57
(g78
g59
NtRp3243
(dp3244
g62
(dp3245
sg71
g3230
sg64
(lp3246
g57
(g58
g59
NtRp3247
(dp3248
g62
(dp3249
g70
I3
ssg71
g3243
sg64
(lp3250
g1772
asbasbasbag57
(g73
g59
NtRp3251
(dp3252
g62
(dp3253
sg71
g2995
sg64
(lp3254
g57
(g78
g59
NtRp3255
(dp3256
g62
(dp3257
g82
g83
ssg71
g3251
sg64
(lp3258
S'REQUEST_METHOD'
p3259
asbag57
(g78
g59
NtRp3260
(dp3261
g62
(dp3262
g89
g90
ssg71
g3251
sg64
(lp3263
S':'
asbag57
(g78
g59
NtRp3264
(dp3265
g62
(dp3266
sg71
g3251
sg64
(lp3267
g57
(g58
g59
NtRp3268
(dp3269
g62
(dp3270
g70
I3
ssg71
g3264
sg64
(lp3271
g1794
asbasbasbag57
(g73
g59
NtRp3272
(dp3273
g62
(dp3274
sg71
g2995
sg64
(lp3275
g57
(g78
g59
NtRp3276
(dp3277
g62
(dp3278
g82
g83
ssg71
g3272
sg64
(lp3279
S'REQUEST_URI'
p3280
asbag57
(g78
g59
NtRp3281
(dp3282
g62
(dp3283
g89
g90
ssg71
g3272
sg64
(lp3284
S':'
asbag57
(g78
g59
NtRp3285
(dp3286
g62
(dp3287
sg71
g3272
sg64
(lp3288
g57
(g58
g59
NtRp3289
(dp3290
g62
(dp3291
g70
I3
ssg71
g3285
sg64
(lp3292
g1708
asbasbasbag57
(g73
g59
NtRp3293
(dp3294
g62
(dp3295
sg71
g2995
sg64
(lp3296
g57
(g78
g59
NtRp3297
(dp3298
g62
(dp3299
g82
g83
ssg71
g3293
sg64
(lp3300
S'SCRIPT_NAME'
p3301
asbag57
(g78
g59
NtRp3302
(dp3303
g62
(dp3304
g89
g90
ssg71
g3293
sg64
(lp3305
S':'
asbag57
(g78
g59
NtRp3306
(dp3307
g62
(dp3308
sg71
g3293
sg64
(lp3309
g57
(g58
g59
NtRp3310
(dp3311
g62
(dp3312
g70
I3
ssg71
g3306
sg64
(lp3313
S''
asbasbasbag57
(g73
g59
NtRp3314
(dp3315
g62
(dp3316
sg71
g2995
sg64
(lp3317
g57
(g78
g59
NtRp3318
(dp3319
g62
(dp3320
g82
g83
ssg71
g3314
sg64
(lp3321
S'SERVER_NAME'
p3322
asbag57
(g78
g59
NtRp3323
(dp3324
g62
(dp3325
g89
g90
ssg71
g3314
sg64
(lp3326
S':'
asbag57
(g78
g59
NtRp3327
(dp3328
g62
(dp3329
sg71
g3314
sg64
(lp3330
g57
(g58
g59
NtRp3331
(dp3332
g62
(dp3333
g70
I3
ssg71
g3327
sg64
(lp3334
g1858
asbasbasbag57
(g73
g59
NtRp3335
(dp3336
g62
(dp3337
sg71
g2995
sg64
(lp3338
g57
(g78
g59
NtRp3339
(dp3340
g62
(dp3341
g82
g83
ssg71
g3335
sg64
(lp3342
S'SERVER_PORT'
p3343
asbag57
(g78
g59
NtRp3344
(dp3345
g62
(dp3346
g89
g90
ssg71
g3335
sg64
(lp3347
S':'
asbag57
(g78
g59
NtRp3348
(dp3349
g62
(dp3350
sg71
g3335
sg64
(lp3351
g57
(g58
g59
NtRp3352
(dp3353
g62
(dp3354
g70
I3
ssg71
g3348
sg64
(lp3355
g1880
asbasbasbag57
(g73
g59
NtRp3356
(dp3357
g62
(dp3358
sg71
g2995
sg64
(lp3359
g57
(g78
g59
NtRp3360
(dp3361
g62
(dp3362
g82
g83
ssg71
g3356
sg64
(lp3363
S'SERVER_PROTOCOL'
p3364
asbag57
(g78
g59
NtRp3365
(dp3366
g62
(dp3367
g89
g90
ssg71
g3356
sg64
(lp3368
S':'
asbag57
(g78
g59
NtRp3369
(dp3370
g62
(dp3371
sg71
g3356
sg64
(lp3372
g57
(g58
g59
NtRp3373
(dp3374
g62
(dp3375
g70
I3
ssg71
g3369
sg64
(lp3376
g1902
asbasbasbag57
(g73
g59
NtRp3377
(dp3378
g62
(dp3379
sg71
g2995
sg64
(lp3380
g57
(g78
g59
NtRp3381
(dp3382
g62
(dp3383
g82
g83
ssg71
g3377
sg64
(lp3384
S'SERVER_SOFTWARE'
p3385
asbag57
(g78
g59
NtRp3386
(dp3387
g62
(dp3388
g89
g90
ssg71
g3377
sg64
(lp3389
S':'
asbag57
(g78
g59
NtRp3390
(dp3391
g62
(dp3392
sg71
g3377
sg64
(lp3393
g57
(g58
g59
NtRp3394
(dp3395
g62
(dp3396
g70
I3
ssg71
g3390
sg64
(lp3397
g1924
asbasbasbag57
(g73
g59
NtRp3398
(dp3399
g62
(dp3400
sg71
g2995
sg64
(lp3401
g57
(g78
g59
NtRp3402
(dp3403
g62
(dp3404
g82
g83
ssg71
g3398
sg64
(lp3405
S'wsgi.errors'
p3406
asbag57
(g78
g59
NtRp3407
(dp3408
g62
(dp3409
g89
g90
ssg71
g3398
sg64
(lp3410
S':'
asbag57
(g78
g59
NtRp3411
(dp3412
g62
(dp3413
sg71
g3398
sg64
(lp3414
g57
(g58
g59
NtRp3415
(dp3416
g62
(dp3417
g70
I3
ssg71
g3411
sg64
(lp3418
S"<open file '<stderr>', mode 'w' at 0xb72da0d0>"
p3419
asbasbasbag57
(g73
g59
NtRp3420
(dp3421
g62
(dp3422
sg71
g2995
sg64
(lp3423
g57
(g78
g59
NtRp3424
(dp3425
g62
(dp3426
g82
g83
ssg71
g3420
sg64
(lp3427
S'wsgi.file_wrapper'
p3428
asbag57
(g78
g59
NtRp3429
(dp3430
g62
(dp3431
g89
g90
ssg71
g3420
sg64
(lp3432
S':'
asbag57
(g78
g59
NtRp3433
(dp3434
g62
(dp3435
sg71
g3420
sg64
(lp3436
g57
(g58
g59
NtRp3437
(dp3438
g62
(dp3439
g70
I3
ssg71
g3433
sg64
(lp3440
S'<class wsgiref.util.FileWrapper at 0x93d347c>'
p3441
asbasbasbag57
(g73
g59
NtRp3442
(dp3443
g62
(dp3444
sg71
g2995
sg64
(lp3445
g57
(g78
g59
NtRp3446
(dp3447
g62
(dp3448
g82
g83
ssg71
g3442
sg64
(lp3449
S'wsgi.input'
p3450
asbag57
(g78
g59
NtRp3451
(dp3452
g62
(dp3453
g89
g90
ssg71
g3442
sg64
(lp3454
S':'
asbag57
(g78
g59
NtRp3455
(dp3456
g62
(dp3457
sg71
g3442
sg64
(lp3458
g57
(g58
g59
NtRp3459
(dp3460
g62
(dp3461
g70
I3
ssg71
g3455
sg64
(lp3462
S'<cStringIO.StringO object at 0xadb7b560>'
p3463
asbasbasbag57
(g73
g59
NtRp3464
(dp3465
g62
(dp3466
sg71
g2995
sg64
(lp3467
g57
(g78
g59
NtRp3468
(dp3469
g62
(dp3470
g82
g83
ssg71
g3464
sg64
(lp3471
S'wsgi.multiprocess'
p3472
asbag57
(g78
g59
NtRp3473
(dp3474
g62
(dp3475
g89
g90
ssg71
g3464
sg64
(lp3476
S':'
asbag57
(g78
g59
NtRp3477
(dp3478
g62
(dp3479
sg71
g3464
sg64
(lp3480
g57
(g58
g59
NtRp3481
(dp3482
g62
(dp3483
g70
I3
ssg71
g3477
sg64
(lp3484
g100
asbasbasbag57
(g73
g59
NtRp3485
(dp3486
g62
(dp3487
sg71
g2995
sg64
(lp3488
g57
(g78
g59
NtRp3489
(dp3490
g62
(dp3491
g82
g83
ssg71
g3485
sg64
(lp3492
S'wsgi.multithread'
p3493
asbag57
(g78
g59
NtRp3494
(dp3495
g62
(dp3496
g89
g90
ssg71
g3485
sg64
(lp3497
S':'
asbag57
(g78
g59
NtRp3498
(dp3499
g62
(dp3500
sg71
g3485
sg64
(lp3501
g57
(g58
g59
NtRp3502
(dp3503
g62
(dp3504
g70
I3
ssg71
g3498
sg64
(lp3505
g2141
asbasbasbag57
(g73
g59
NtRp3506
(dp3507
g62
(dp3508
sg71
g2995
sg64
(lp3509
g57
(g78
g59
NtRp3510
(dp3511
g62
(dp3512
g82
g83
ssg71
g3506
sg64
(lp3513
S'wsgi.run_once'
p3514
asbag57
(g78
g59
NtRp3515
(dp3516
g62
(dp3517
g89
g90
ssg71
g3506
sg64
(lp3518
S':'
asbag57
(g78
g59
NtRp3519
(dp3520
g62
(dp3521
sg71
g3506
sg64
(lp3522
g57
(g58
g59
NtRp3523
(dp3524
g62
(dp3525
g70
I3
ssg71
g3519
sg64
(lp3526
g100
asbasbasbag57
(g73
g59
NtRp3527
(dp3528
g62
(dp3529
sg71
g2995
sg64
(lp3530
g57
(g78
g59
NtRp3531
(dp3532
g62
(dp3533
g82
g83
ssg71
g3527
sg64
(lp3534
S'wsgi.url_scheme'
p3535
asbag57
(g78
g59
NtRp3536
(dp3537
g62
(dp3538
g89
g90
ssg71
g3527
sg64
(lp3539
S':'
asbag57
(g78
g59
NtRp3540
(dp3541
g62
(dp3542
sg71
g3527
sg64
(lp3543
g57
(g58
g59
NtRp3544
(dp3545
g62
(dp3546
g70
I3
ssg71
g3540
sg64
(lp3547
g2184
asbasbasbag57
(g73
g59
NtRp3548
(dp3549
g62
(dp3550
sg71
g2995
sg64
(lp3551
g57
(g78
g59
NtRp3552
(dp3553
g62
(dp3554
g82
g83
ssg71
g3548
sg64
(lp3555
S'wsgi.version'
p3556
asbag57
(g78
g59
NtRp3557
(dp3558
g62
(dp3559
g89
g90
ssg71
g3548
sg64
(lp3560
S':'
asbag57
(g78
g59
NtRp3561
(dp3562
g62
(dp3563
sg71
g3548
sg64
(lp3564
g57
(g58
g59
NtRp3565
(dp3566
g62
(dp3567
g70
I3
ssg71
g3561
sg64
(lp3568
S'1'
asbasbasbasbasbasbasbasbasbasbasbasbasbsS'frames'
p3569
(lp3570
(dp3571
S'file'
p3572
S'/home/nazrul/web2py/gluon/restricted.py'
p3573
sS'dump'
p3574
(dp3575
S'environment'
p3576
S"{'A': <class 'gluon.html.A'>, 'Auth': <class 'gluon.tools.Auth'>, 'B': <class 'gluon.html.B'>, 'BEAUTIFY': <class 'gluon.html.BEAUTIFY'>, 'BODY': <class 'gluon.html.BODY'>, 'BR': <class 'gluon.html.BR'>, 'BUTTON': <class 'gluon.html.BUTTON'>, 'CAT': <class 'gluon.html.CAT'>, 'CENTER': <class 'gluon.html.CENTER'>, 'CLEANUP': <class 'gluon.validators.CLEANUP'>, ...}"
p3577
sS'ccode'
p3578
S'<code object <module> at 0xae037e30, file "/home.../WSD/views/default/sentence_select.html", line 1>'
p3579
ssS'lnum'
p3580
I212
sS'lines'
p3581
(dp3582
I207
S'    try:'
p3583
sI208
S'        if isinstance(code, types.CodeType):'
p3584
sI209
S'            ccode = code'
p3585
sI210
S'        else:'
p3586
sI211
S'            ccode = compile2(code, layer)'
p3587
sI212
S'        exec ccode in environment'
p3588
sI213
S'    except HTTP:'
p3589
sI214
S'        raise'
p3590
sI215
S'    except RestrictedError:'
p3591
sI216
S'        # do not encapsulate (obfuscate) the original RestrictedError'
p3592
ssS'call'
p3593
S'(code=\'response.write(\\\'<!DOCTYPE html PUBLIC "-//W3C//D...d footer -->\\\\n </body>\\\\n</html>\\\\n\\\', escape=False)\', environment={\'A\': <class \'gluon.html.A\'>, \'Auth\': <class \'gluon.tools.Auth\'>, \'B\': <class \'gluon.html.B\'>, \'BEAUTIFY\': <class \'gluon.html.BEAUTIFY\'>, \'BODY\': <class \'gluon.html.BODY\'>, \'BR\': <class \'gluon.html.BR\'>, \'BUTTON\': <class \'gluon.html.BUTTON\'>, \'CAT\': <class \'gluon.html.CAT\'>, \'CENTER\': <class \'gluon.html.CENTER\'>, \'CLEANUP\': <class \'gluon.validators.CLEANUP\'>, ...}, layer=\'/home/nazrul/web2py/applications/WSD/views/default/sentence_select.html\')'
p3594
sS'func'
p3595
S'restricted'
p3596
sa(dp3597
g3572
S'/home/nazrul/web2py/applications/WSD/views/default/sentence_select.html'
p3598
sg3574
(dp3599
sg3580
I52
sg3581
(dp3600
I43
S"response.write('\\n', escape=False)"
p3601
sI44
S'r = db(db.links.wid==int(d)).select(db.links.sid)'
p3602
sI45
S"response.write('\\n', escape=False)"
p3603
sI46
S'for i in r:'
p3604
sI47
S"    response.write('\\n', escape=False)"
p3605
sI48
S'    x =db(db.sentences.id==i.sid).select()'
p3606
sI49
S"    response.write('\\n', escape=False)"
p3607
sI50
S'    for er in x:'
p3608
sI51
S"        response.write('\\n', escape=False)"
p3609
sI52
S'        if int(er.level) == int(level_set):'
p3610
sI53
S"            response.write('\\n', escape=False)"
p3611
sI54
S'            s.append(er.esentence)'
p3612
sI55
S"            response.write('\\n', escape=False)"
p3613
sI56
S'            pass'
p3614
sI57
S"        response.write('\\n', escape=False)"
p3615
sI58
S'        pass'
p3616
sI59
S"    response.write('\\n', escape=False)"
p3617
sI60
S'    pass'
p3618
sI61
S"response.write('\\n<br>\\n', escape=False)"
p3619
sI62
S'if s:'
p3620
ssg3593
S'()'
p3621
sg3595
S'<module>'
p3622
sasS'pyver'
p3623
S'Python 2.7.3: /usr/bin/python'
p3624
sS'session'
p3625
g57
(g58
g59
NtRp3626
(dp3627
g62
(dp3628
sg64
(lp3629
g57
(g66
g59
NtRp3630
(dp3631
g62
(dp3632
g70
I5
ssg71
Nsg64
(lp3633
g57
(g73
g59
NtRp3634
(dp3635
g62
(dp3636
sg71
g3630
sg64
(lp3637
g57
(g78
g59
NtRp3638
(dp3639
g62
(dp3640
g82
g83
ssg71
g3634
sg64
(lp3641
S'auth'
p3642
asbag57
(g78
g59
NtRp3643
(dp3644
g62
(dp3645
g89
g90
ssg71
g3634
sg64
(lp3646
S':'
asbag57
(g78
g59
NtRp3647
(dp3648
g62
(dp3649
sg71
g3634
sg64
(lp3650
g57
(g58
g59
NtRp3651
(dp3652
g62
(dp3653
g70
I5
ssg71
g3647
sg64
(lp3654
g57
(g66
g59
NtRp3655
(dp3656
g62
(dp3657
g70
I4
ssg71
Nsg64
(lp3658
g57
(g73
g59
NtRp3659
(dp3660
g62
(dp3661
sg71
g3655
sg64
(lp3662
g57
(g78
g59
NtRp3663
(dp3664
g62
(dp3665
g82
g83
ssg71
g3659
sg64
(lp3666
S'expiration'
p3667
asbag57
(g78
g59
NtRp3668
(dp3669
g62
(dp3670
g89
g90
ssg71
g3659
sg64
(lp3671
S':'
asbag57
(g78
g59
NtRp3672
(dp3673
g62
(dp3674
sg71
g3659
sg64
(lp3675
g57
(g58
g59
NtRp3676
(dp3677
g62
(dp3678
g70
I4
ssg71
g3672
sg64
(lp3679
S'3600'
p3680
asbasbasbag57
(g73
g59
NtRp3681
(dp3682
g62
(dp3683
sg71
g3655
sg64
(lp3684
g57
(g78
g59
NtRp3685
(dp3686
g62
(dp3687
g82
g83
ssg71
g3681
sg64
(lp3688
S'hmac_key'
p3689
asbag57
(g78
g59
NtRp3690
(dp3691
g62
(dp3692
g89
g90
ssg71
g3681
sg64
(lp3693
S':'
asbag57
(g78
g59
NtRp3694
(dp3695
g62
(dp3696
sg71
g3681
sg64
(lp3697
g57
(g58
g59
NtRp3698
(dp3699
g62
(dp3700
g70
I4
ssg71
g3694
sg64
(lp3701
S'1454b12c-2420-46dd-8a4d-f02f05d086ab'
p3702
asbasbasbag57
(g73
g59
NtRp3703
(dp3704
g62
(dp3705
sg71
g3655
sg64
(lp3706
g57
(g78
g59
NtRp3707
(dp3708
g62
(dp3709
g82
g83
ssg71
g3703
sg64
(lp3710
S'last_visit'
p3711
asbag57
(g78
g59
NtRp3712
(dp3713
g62
(dp3714
g89
g90
ssg71
g3703
sg64
(lp3715
S':'
asbag57
(g78
g59
NtRp3716
(dp3717
g62
(dp3718
sg71
g3703
sg64
(lp3719
g57
(g58
g59
NtRp3720
(dp3721
g62
(dp3722
g70
I4
ssg71
g3716
sg64
(lp3723
S'datetime.datetime(2013, 11, 15, 18, 50, 25, 798440)'
p3724
asbasbasbag57
(g73
g59
NtRp3725
(dp3726
g62
(dp3727
sg71
g3655
sg64
(lp3728
g57
(g78
g59
NtRp3729
(dp3730
g62
(dp3731
g82
g83
ssg71
g3725
sg64
(lp3732
S'remember'
p3733
asbag57
(g78
g59
NtRp3734
(dp3735
g62
(dp3736
g89
g90
ssg71
g3725
sg64
(lp3737
S':'
asbag57
(g78
g59
NtRp3738
(dp3739
g62
(dp3740
sg71
g3725
sg64
(lp3741
g57
(g58
g59
NtRp3742
(dp3743
g62
(dp3744
g70
I4
ssg71
g3738
sg64
(lp3745
g100
asbasbasbag57
(g73
g59
NtRp3746
(dp3747
g62
(dp3748
sg71
g3655
sg64
(lp3749
g57
(g78
g59
NtRp3750
(dp3751
g62
(dp3752
g82
g83
ssg71
g3746
sg64
(lp3753
S'user'
p3754
asbag57
(g78
g59
NtRp3755
(dp3756
g62
(dp3757
g89
g90
ssg71
g3746
sg64
(lp3758
S':'
asbag57
(g78
g59
NtRp3759
(dp3760
g62
(dp3761
sg71
g3746
sg64
(lp3762
g57
(g58
g59
NtRp3763
(dp3764
g62
(dp3765
g70
I4
ssg71
g3759
sg64
(lp3766
g57
(g66
g59
NtRp3767
(dp3768
g62
(dp3769
g70
I3
ssg71
Nsg64
(lp3770
g57
(g73
g59
NtRp3771
(dp3772
g62
(dp3773
sg71
g3767
sg64
(lp3774
g57
(g78
g59
NtRp3775
(dp3776
g62
(dp3777
g82
g83
ssg71
g3771
sg64
(lp3778
S'email'
p3779
asbag57
(g78
g59
NtRp3780
(dp3781
g62
(dp3782
g89
g90
ssg71
g3771
sg64
(lp3783
S':'
asbag57
(g78
g59
NtRp3784
(dp3785
g62
(dp3786
sg71
g3771
sg64
(lp3787
g57
(g58
g59
NtRp3788
(dp3789
g62
(dp3790
g70
I3
ssg71
g3784
sg64
(lp3791
S'root@sys.com'
p3792
asbasbasbag57
(g73
g59
NtRp3793
(dp3794
g62
(dp3795
sg71
g3767
sg64
(lp3796
g57
(g78
g59
NtRp3797
(dp3798
g62
(dp3799
g82
g83
ssg71
g3793
sg64
(lp3800
S'first_name'
p3801
asbag57
(g78
g59
NtRp3802
(dp3803
g62
(dp3804
g89
g90
ssg71
g3793
sg64
(lp3805
S':'
asbag57
(g78
g59
NtRp3806
(dp3807
g62
(dp3808
sg71
g3793
sg64
(lp3809
g57
(g58
g59
NtRp3810
(dp3811
g62
(dp3812
g70
I3
ssg71
g3806
sg64
(lp3813
S'root'
p3814
asbasbasbag57
(g73
g59
NtRp3815
(dp3816
g62
(dp3817
sg71
g3767
sg64
(lp3818
g57
(g78
g59
NtRp3819
(dp3820
g62
(dp3821
g82
g83
ssg71
g3815
sg64
(lp3822
S'id'
p3823
asbag57
(g78
g59
NtRp3824
(dp3825
g62
(dp3826
g89
g90
ssg71
g3815
sg64
(lp3827
S':'
asbag57
(g78
g59
NtRp3828
(dp3829
g62
(dp3830
sg71
g3815
sg64
(lp3831
g57
(g58
g59
NtRp3832
(dp3833
g62
(dp3834
g70
I3
ssg71
g3828
sg64
(lp3835
S'4'
asbasbasbag57
(g73
g59
NtRp3836
(dp3837
g62
(dp3838
sg71
g3767
sg64
(lp3839
g57
(g78
g59
NtRp3840
(dp3841
g62
(dp3842
g82
g83
ssg71
g3836
sg64
(lp3843
S'last_name'
p3844
asbag57
(g78
g59
NtRp3845
(dp3846
g62
(dp3847
g89
g90
ssg71
g3836
sg64
(lp3848
S':'
asbag57
(g78
g59
NtRp3849
(dp3850
g62
(dp3851
sg71
g3836
sg64
(lp3852
g57
(g58
g59
NtRp3853
(dp3854
g62
(dp3855
g70
I3
ssg71
g3849
sg64
(lp3856
S'root'
p3857
asbasbasbag57
(g73
g59
NtRp3858
(dp3859
g62
(dp3860
sg71
g3767
sg64
(lp3861
g57
(g78
g59
NtRp3862
(dp3863
g62
(dp3864
g82
g83
ssg71
g3858
sg64
(lp3865
S'registration_id'
p3866
asbag57
(g78
g59
NtRp3867
(dp3868
g62
(dp3869
g89
g90
ssg71
g3858
sg64
(lp3870
S':'
asbag57
(g78
g59
NtRp3871
(dp3872
g62
(dp3873
sg71
g3858
sg64
(lp3874
g57
(g58
g59
NtRp3875
(dp3876
g62
(dp3877
g70
I3
ssg71
g3871
sg64
(lp3878
S''
asbasbasbag57
(g73
g59
NtRp3879
(dp3880
g62
(dp3881
sg71
g3767
sg64
(lp3882
g57
(g78
g59
NtRp3883
(dp3884
g62
(dp3885
g82
g83
ssg71
g3879
sg64
(lp3886
S'registration_key'
p3887
asbag57
(g78
g59
NtRp3888
(dp3889
g62
(dp3890
g89
g90
ssg71
g3879
sg64
(lp3891
S':'
asbag57
(g78
g59
NtRp3892
(dp3893
g62
(dp3894
sg71
g3879
sg64
(lp3895
g57
(g58
g59
NtRp3896
(dp3897
g62
(dp3898
g70
I3
ssg71
g3892
sg64
(lp3899
S''
asbasbasbag57
(g73
g59
NtRp3900
(dp3901
g62
(dp3902
sg71
g3767
sg64
(lp3903
g57
(g78
g59
NtRp3904
(dp3905
g62
(dp3906
g82
g83
ssg71
g3900
sg64
(lp3907
S'reset_password_key'
p3908
asbag57
(g78
g59
NtRp3909
(dp3910
g62
(dp3911
g89
g90
ssg71
g3900
sg64
(lp3912
S':'
asbag57
(g78
g59
NtRp3913
(dp3914
g62
(dp3915
sg71
g3900
sg64
(lp3916
g57
(g58
g59
NtRp3917
(dp3918
g62
(dp3919
g70
I3
ssg71
g3913
sg64
(lp3920
S''
asbasbasbasbasbasbasbag57
(g73
g59
NtRp3921
(dp3922
g62
(dp3923
sg71
g3655
sg64
(lp3924
g57
(g78
g59
NtRp3925
(dp3926
g62
(dp3927
g82
g83
ssg71
g3921
sg64
(lp3928
S'user_groups'
p3929
asbag57
(g78
g59
NtRp3930
(dp3931
g62
(dp3932
g89
g90
ssg71
g3921
sg64
(lp3933
S':'
asbag57
(g78
g59
NtRp3934
(dp3935
g62
(dp3936
sg71
g3921
sg64
(lp3937
g57
(g58
g59
NtRp3938
(dp3939
g62
(dp3940
g70
I4
ssg71
g3934
sg64
(lp3941
g57
(g66
g59
NtRp3942
(dp3943
g62
(dp3944
g70
I3
ssg71
Nsg64
(lp3945
sbasbasbasbasbasbasbasbag57
(g73
g59
NtRp3946
(dp3947
g62
(dp3948
sg71
g3630
sg64
(lp3949
g57
(g78
g59
NtRp3950
(dp3951
g62
(dp3952
g82
g83
ssg71
g3946
sg64
(lp3953
S'f'
asbag57
(g78
g59
NtRp3954
(dp3955
g62
(dp3956
g89
g90
ssg71
g3946
sg64
(lp3957
S':'
asbag57
(g78
g59
NtRp3958
(dp3959
g62
(dp3960
sg71
g3946
sg64
(lp3961
g57
(g58
g59
NtRp3962
(dp3963
g62
(dp3964
g70
I5
ssg71
g3958
sg64
(lp3965
S'0'
asbasbasbag57
(g73
g59
NtRp3966
(dp3967
g62
(dp3968
sg71
g3630
sg64
(lp3969
g57
(g78
g59
NtRp3970
(dp3971
g62
(dp3972
g82
g83
ssg71
g3966
sg64
(lp3973
S'fields'
p3974
asbag57
(g78
g59
NtRp3975
(dp3976
g62
(dp3977
g89
g90
ssg71
g3966
sg64
(lp3978
S':'
asbag57
(g78
g59
NtRp3979
(dp3980
g62
(dp3981
sg71
g3966
sg64
(lp3982
g57
(g58
g59
NtRp3983
(dp3984
g62
(dp3985
g70
I5
ssg71
g3979
sg64
(lp3986
g57
(g66
g59
NtRp3987
(dp3988
g62
(dp3989
g70
I4
ssg71
Nsg64
(lp3990
sbasbasbasbag57
(g73
g59
NtRp3991
(dp3992
g62
(dp3993
sg71
g3630
sg64
(lp3994
g57
(g78
g59
NtRp3995
(dp3996
g62
(dp3997
g82
g83
ssg71
g3991
sg64
(lp3998
S'flash'
p3999
asbag57
(g78
g59
NtRp4000
(dp4001
g62
(dp4002
g89
g90
ssg71
g3991
sg64
(lp4003
S':'
asbag57
(g78
g59
NtRp4004
(dp4005
g62
(dp4006
sg71
g3991
sg64
(lp4007
g57
(g58
g59
NtRp4008
(dp4009
g62
(dp4010
g70
I5
ssg71
g4004
sg64
(lp4011
S'None'
p4012
asbasbasbag57
(g73
g59
NtRp4013
(dp4014
g62
(dp4015
sg71
g3630
sg64
(lp4016
g57
(g78
g59
NtRp4017
(dp4018
g62
(dp4019
g82
g83
ssg71
g4013
sg64
(lp4020
S'ide'
p4021
asbag57
(g78
g59
NtRp4022
(dp4023
g62
(dp4024
g89
g90
ssg71
g4013
sg64
(lp4025
S':'
asbag57
(g78
g59
NtRp4026
(dp4027
g62
(dp4028
sg71
g4013
sg64
(lp4029
g57
(g58
g59
NtRp4030
(dp4031
g62
(dp4032
g70
I5
ssg71
g4026
sg64
(lp4033
S'9'
asbasbasbag57
(g73
g59
NtRp4034
(dp4035
g62
(dp4036
sg71
g3630
sg64
(lp4037
g57
(g78
g59
NtRp4038
(dp4039
g62
(dp4040
g82
g83
ssg71
g4034
sg64
(lp4041
S'last_orderby'
p4042
asbag57
(g78
g59
NtRp4043
(dp4044
g62
(dp4045
g89
g90
ssg71
g4034
sg64
(lp4046
S':'
asbag57
(g78
g59
NtRp4047
(dp4048
g62
(dp4049
sg71
g4034
sg64
(lp4050
g57
(g58
g59
NtRp4051
(dp4052
g62
(dp4053
g70
I5
ssg71
g4047
sg64
(lp4054
S'None'
p4055
asbasbasbag57
(g73
g59
NtRp4056
(dp4057
g62
(dp4058
sg71
g3630
sg64
(lp4059
g57
(g78
g59
NtRp4060
(dp4061
g62
(dp4062
g82
g83
ssg71
g4056
sg64
(lp4063
S'last_query'
p4064
asbag57
(g78
g59
NtRp4065
(dp4066
g62
(dp4067
g89
g90
ssg71
g4056
sg64
(lp4068
S':'
asbag57
(g78
g59
NtRp4069
(dp4070
g62
(dp4071
sg71
g4056
sg64
(lp4072
g57
(g58
g59
NtRp4073
(dp4074
g62
(dp4075
g70
I5
ssg71
g4069
sg64
(lp4076
S'db.words.id>0'
p4077
asbasbasbag57
(g73
g59
NtRp4078
(dp4079
g62
(dp4080
sg71
g3630
sg64
(lp4081
g57
(g78
g59
NtRp4082
(dp4083
g62
(dp4084
g82
g83
ssg71
g4078
sg64
(lp4085
S'level'
p4086
asbag57
(g78
g59
NtRp4087
(dp4088
g62
(dp4089
g89
g90
ssg71
g4078
sg64
(lp4090
S':'
asbag57
(g78
g59
NtRp4091
(dp4092
g62
(dp4093
sg71
g4078
sg64
(lp4094
g57
(g58
g59
NtRp4095
(dp4096
g62
(dp4097
g70
I5
ssg71
g4091
sg64
(lp4098
S'1'
asbasbasbag57
(g73
g59
NtRp4099
(dp4100
g62
(dp4101
sg71
g3630
sg64
(lp4102
g57
(g78
g59
NtRp4103
(dp4104
g62
(dp4105
g82
g83
ssg71
g4099
sg64
(lp4106
S'psp'
p4107
asbag57
(g78
g59
NtRp4108
(dp4109
g62
(dp4110
g89
g90
ssg71
g4099
sg64
(lp4111
S':'
asbag57
(g78
g59
NtRp4112
(dp4113
g62
(dp4114
sg71
g4099
sg64
(lp4115
g57
(g58
g59
NtRp4116
(dp4117
g62
(dp4118
g70
I5
ssg71
g4112
sg64
(lp4119
S'noun'
p4120
asbasbasbag57
(g73
g59
NtRp4121
(dp4122
g62
(dp4123
sg71
g3630
sg64
(lp4124
g57
(g78
g59
NtRp4125
(dp4126
g62
(dp4127
g82
g83
ssg71
g4121
sg64
(lp4128
S'sid'
p4129
asbag57
(g78
g59
NtRp4130
(dp4131
g62
(dp4132
g89
g90
ssg71
g4121
sg64
(lp4133
S':'
asbag57
(g78
g59
NtRp4134
(dp4135
g62
(dp4136
sg71
g4121
sg64
(lp4137
g57
(g58
g59
NtRp4138
(dp4139
g62
(dp4140
g70
I5
ssg71
g4134
sg64
(lp4141
S'36'
p4142
asbasbasbag57
(g73
g59
NtRp4143
(dp4144
g62
(dp4145
sg71
g3630
sg64
(lp4146
g57
(g78
g59
NtRp4147
(dp4148
g62
(dp4149
g82
g83
ssg71
g4143
sg64
(lp4150
S'word'
p4151
asbag57
(g78
g59
NtRp4152
(dp4153
g62
(dp4154
g89
g90
ssg71
g4143
sg64
(lp4155
S':'
asbag57
(g78
g59
NtRp4156
(dp4157
g62
(dp4158
sg71
g4143
sg64
(lp4159
g57
(g58
g59
NtRp4160
(dp4161
g62
(dp4162
g70
I5
ssg71
g4156
sg64
(lp4163
S'old'
p4164
asbasbasbasbasbsS'etype'
p4165
S"<type 'exceptions.TypeError'>"
p4166
sS'date'
p4167
S'Fri Nov 15 18:53:44 2013'
p4168
sS'response'
p4169
g57
(g58
g59
NtRp4170
(dp4171
g62
(dp4172
sg64
(lp4173
g57
(g66
g59
NtRp4174
(dp4175
g62
(dp4176
g70
I5
ssg71
Nsg64
(lp4177
g57
(g73
g59
NtRp4178
(dp4179
g62
(dp4180
sg71
g4174
sg64
(lp4181
g57
(g78
g59
NtRp4182
(dp4183
g62
(dp4184
g82
g83
ssg71
g4178
sg64
(lp4185
g155
asbag57
(g78
g59
NtRp4186
(dp4187
g62
(dp4188
g89
g90
ssg71
g4178
sg64
(lp4189
S':'
asbag57
(g78
g59
NtRp4190
(dp4191
g62
(dp4192
sg71
g4178
sg64
(lp4193
g57
(g58
g59
NtRp4194
(dp4195
g62
(dp4196
g70
I5
ssg71
g4190
sg64
(lp4197
S'<cStringIO.StringO object at 0xad01cb00>'
p4198
asbasbasbag57
(g73
g59
NtRp4199
(dp4200
g62
(dp4201
sg71
g4174
sg64
(lp4202
g57
(g78
g59
NtRp4203
(dp4204
g62
(dp4205
g82
g83
ssg71
g4199
sg64
(lp4206
g243
asbag57
(g78
g59
NtRp4207
(dp4208
g62
(dp4209
g89
g90
ssg71
g4199
sg64
(lp4210
S':'
asbag57
(g78
g59
NtRp4211
(dp4212
g62
(dp4213
sg71
g4199
sg64
(lp4214
g57
(g58
g59
NtRp4215
(dp4216
g62
(dp4217
g70
I5
ssg71
g4211
sg64
(lp4218
g57
(g66
g59
NtRp4219
(dp4220
g62
(dp4221
g70
I4
ssg71
Nsg64
(lp4222
g57
(g73
g59
NtRp4223
(dp4224
g62
(dp4225
sg71
g4219
sg64
(lp4226
g57
(g78
g59
NtRp4227
(dp4228
g62
(dp4229
g82
g83
ssg71
g4223
sg64
(lp4230
S'session_id_wsd'
p4231
asbag57
(g78
g59
NtRp4232
(dp4233
g62
(dp4234
g89
g90
ssg71
g4223
sg64
(lp4235
S':'
asbag57
(g78
g59
NtRp4236
(dp4237
g62
(dp4238
sg71
g4223
sg64
(lp4239
g57
(g58
g59
NtRp4240
(dp4241
g62
(dp4242
g70
I4
ssg71
g4236
sg64
(lp4243
g847
ag57
(g66
g59
NtRp4244
(dp4245
g62
(dp4246
g70
I3
ssg71
Nsg64
(lp4247
g57
(g73
g59
NtRp4248
(dp4249
g62
(dp4250
sg71
g4244
sg64
(lp4251
g57
(g78
g59
NtRp4252
(dp4253
g62
(dp4254
g82
g83
ssg71
g4248
sg64
(lp4255
g294
asbag57
(g78
g59
NtRp4256
(dp4257
g62
(dp4258
g89
g90
ssg71
g4248
sg64
(lp4259
S':'
asbag57
(g78
g59
NtRp4260
(dp4261
g62
(dp4262
sg71
g4248
sg64
(lp4263
g57
(g58
g59
NtRp4264
(dp4265
g62
(dp4266
g70
I3
ssg71
g4260
sg64
(lp4267
S''
asbasbasbag57
(g73
g59
NtRp4268
(dp4269
g62
(dp4270
sg71
g4244
sg64
(lp4271
g57
(g78
g59
NtRp4272
(dp4273
g62
(dp4274
g82
g83
ssg71
g4268
sg64
(lp4275
g315
asbag57
(g78
g59
NtRp4276
(dp4277
g62
(dp4278
g89
g90
ssg71
g4268
sg64
(lp4279
S':'
asbag57
(g78
g59
NtRp4280
(dp4281
g62
(dp4282
sg71
g4268
sg64
(lp4283
g57
(g58
g59
NtRp4284
(dp4285
g62
(dp4286
g70
I3
ssg71
g4280
sg64
(lp4287
S''
asbasbasbag57
(g73
g59
NtRp4288
(dp4289
g62
(dp4290
sg71
g4244
sg64
(lp4291
g57
(g78
g59
NtRp4292
(dp4293
g62
(dp4294
g82
g83
ssg71
g4288
sg64
(lp4295
g336
asbag57
(g78
g59
NtRp4296
(dp4297
g62
(dp4298
g89
g90
ssg71
g4288
sg64
(lp4299
S':'
asbag57
(g78
g59
NtRp4300
(dp4301
g62
(dp4302
sg71
g4288
sg64
(lp4303
g57
(g58
g59
NtRp4304
(dp4305
g62
(dp4306
g70
I3
ssg71
g4300
sg64
(lp4307
S''
asbasbasbag57
(g73
g59
NtRp4308
(dp4309
g62
(dp4310
sg71
g4244
sg64
(lp4311
g57
(g78
g59
NtRp4312
(dp4313
g62
(dp4314
g82
g83
ssg71
g4308
sg64
(lp4315
g357
asbag57
(g78
g59
NtRp4316
(dp4317
g62
(dp4318
g89
g90
ssg71
g4308
sg64
(lp4319
S':'
asbag57
(g78
g59
NtRp4320
(dp4321
g62
(dp4322
sg71
g4308
sg64
(lp4323
g57
(g58
g59
NtRp4324
(dp4325
g62
(dp4326
g70
I3
ssg71
g4320
sg64
(lp4327
S''
asbasbasbag57
(g73
g59
NtRp4328
(dp4329
g62
(dp4330
sg71
g4244
sg64
(lp4331
g57
(g78
g59
NtRp4332
(dp4333
g62
(dp4334
g82
g83
ssg71
g4328
sg64
(lp4335
g378
asbag57
(g78
g59
NtRp4336
(dp4337
g62
(dp4338
g89
g90
ssg71
g4328
sg64
(lp4339
S':'
asbag57
(g78
g59
NtRp4340
(dp4341
g62
(dp4342
sg71
g4328
sg64
(lp4343
g57
(g58
g59
NtRp4344
(dp4345
g62
(dp4346
g70
I3
ssg71
g4340
sg64
(lp4347
S''
asbasbasbag57
(g73
g59
NtRp4348
(dp4349
g62
(dp4350
sg71
g4244
sg64
(lp4351
g57
(g78
g59
NtRp4352
(dp4353
g62
(dp4354
g82
g83
ssg71
g4348
sg64
(lp4355
g399
asbag57
(g78
g59
NtRp4356
(dp4357
g62
(dp4358
g89
g90
ssg71
g4348
sg64
(lp4359
S':'
asbag57
(g78
g59
NtRp4360
(dp4361
g62
(dp4362
sg71
g4348
sg64
(lp4363
g57
(g58
g59
NtRp4364
(dp4365
g62
(dp4366
g70
I3
ssg71
g4360
sg64
(lp4367
S'/'
asbasbasbag57
(g73
g59
NtRp4368
(dp4369
g62
(dp4370
sg71
g4244
sg64
(lp4371
g57
(g78
g59
NtRp4372
(dp4373
g62
(dp4374
g82
g83
ssg71
g4368
sg64
(lp4375
g420
asbag57
(g78
g59
NtRp4376
(dp4377
g62
(dp4378
g89
g90
ssg71
g4368
sg64
(lp4379
S':'
asbag57
(g78
g59
NtRp4380
(dp4381
g62
(dp4382
sg71
g4368
sg64
(lp4383
g57
(g58
g59
NtRp4384
(dp4385
g62
(dp4386
g70
I3
ssg71
g4380
sg64
(lp4387
S''
asbasbasbag57
(g73
g59
NtRp4388
(dp4389
g62
(dp4390
sg71
g4244
sg64
(lp4391
g57
(g78
g59
NtRp4392
(dp4393
g62
(dp4394
g82
g83
ssg71
g4388
sg64
(lp4395
g441
asbag57
(g78
g59
NtRp4396
(dp4397
g62
(dp4398
g89
g90
ssg71
g4388
sg64
(lp4399
S':'
asbag57
(g78
g59
NtRp4400
(dp4401
g62
(dp4402
sg71
g4388
sg64
(lp4403
g57
(g58
g59
NtRp4404
(dp4405
g62
(dp4406
g70
I3
ssg71
g4400
sg64
(lp4407
S''
asbasbasbasbasbasbasbasbasbasbasbag57
(g73
g59
NtRp4408
(dp4409
g62
(dp4410
sg71
g4174
sg64
(lp4411
g57
(g78
g59
NtRp4412
(dp4413
g62
(dp4414
g82
g83
ssg71
g4408
sg64
(lp4415
S'delimiters'
p4416
asbag57
(g78
g59
NtRp4417
(dp4418
g62
(dp4419
g89
g90
ssg71
g4408
sg64
(lp4420
S':'
asbag57
(g78
g59
NtRp4421
(dp4422
g62
(dp4423
sg71
g4408
sg64
(lp4424
g57
(g58
g59
NtRp4425
(dp4426
g62
(dp4427
g70
I5
ssg71
g4421
sg64
(lp4428
g57
(g66
g59
NtRp4429
(dp4430
g62
(dp4431
g70
I4
ssg71
Nsg64
(lp4432
g57
(g73
g59
NtRp4433
(dp4434
g62
(dp4435
sg71
g4429
sg64
(lp4436
g57
(g78
g59
NtRp4437
(dp4438
g62
(dp4439
sg71
g4433
sg64
(lp4440
g57
(g58
g59
NtRp4441
(dp4442
g62
(dp4443
g70
I4
ssg71
g4437
sg64
(lp4444
S'{{'
p4445
asbasbasbag57
(g73
g59
NtRp4446
(dp4447
g62
(dp4448
sg71
g4429
sg64
(lp4449
g57
(g78
g59
NtRp4450
(dp4451
g62
(dp4452
sg71
g4446
sg64
(lp4453
g57
(g58
g59
NtRp4454
(dp4455
g62
(dp4456
g70
I4
ssg71
g4450
sg64
(lp4457
S'}}'
p4458
asbasbasbasbasbasbasbag57
(g73
g59
NtRp4459
(dp4460
g62
(dp4461
sg71
g4174
sg64
(lp4462
g57
(g78
g59
NtRp4463
(dp4464
g62
(dp4465
g82
g83
ssg71
g4459
sg64
(lp4466
S'files'
p4467
asbag57
(g78
g59
NtRp4468
(dp4469
g62
(dp4470
g89
g90
ssg71
g4459
sg64
(lp4471
S':'
asbag57
(g78
g59
NtRp4472
(dp4473
g62
(dp4474
sg71
g4459
sg64
(lp4475
g57
(g58
g59
NtRp4476
(dp4477
g62
(dp4478
g70
I5
ssg71
g4472
sg64
(lp4479
g57
(g66
g59
NtRp4480
(dp4481
g62
(dp4482
g70
I4
ssg71
Nsg64
(lp4483
g57
(g73
g59
NtRp4484
(dp4485
g62
(dp4486
sg71
g4480
sg64
(lp4487
g57
(g78
g59
NtRp4488
(dp4489
g62
(dp4490
sg71
g4484
sg64
(lp4491
g57
(g58
g59
NtRp4492
(dp4493
g62
(dp4494
g70
I4
ssg71
g4488
sg64
(lp4495
S'/WSD/static/js/jquery.js'
p4496
asbasbasbag57
(g73
g59
NtRp4497
(dp4498
g62
(dp4499
sg71
g4480
sg64
(lp4500
g57
(g78
g59
NtRp4501
(dp4502
g62
(dp4503
sg71
g4497
sg64
(lp4504
g57
(g58
g59
NtRp4505
(dp4506
g62
(dp4507
g70
I4
ssg71
g4501
sg64
(lp4508
S'/WSD/static/css/calendar.css'
p4509
asbasbasbag57
(g73
g59
NtRp4510
(dp4511
g62
(dp4512
sg71
g4480
sg64
(lp4513
g57
(g78
g59
NtRp4514
(dp4515
g62
(dp4516
sg71
g4510
sg64
(lp4517
g57
(g58
g59
NtRp4518
(dp4519
g62
(dp4520
g70
I4
ssg71
g4514
sg64
(lp4521
S'/WSD/static/js/calendar.js'
p4522
asbasbasbag57
(g73
g59
NtRp4523
(dp4524
g62
(dp4525
sg71
g4480
sg64
(lp4526
g57
(g78
g59
NtRp4527
(dp4528
g62
(dp4529
sg71
g4523
sg64
(lp4530
g57
(g58
g59
NtRp4531
(dp4532
g62
(dp4533
g70
I4
ssg71
g4527
sg64
(lp4534
S'/WSD/static/js/web2py.js'
p4535
asbasbasbag57
(g73
g59
NtRp4536
(dp4537
g62
(dp4538
sg71
g4480
sg64
(lp4539
g57
(g78
g59
NtRp4540
(dp4541
g62
(dp4542
sg71
g4536
sg64
(lp4543
g57
(g58
g59
NtRp4544
(dp4545
g62
(dp4546
g70
I4
ssg71
g4540
sg64
(lp4547
S'/WSD/static/plugin_layouts/layouts/Interlude/default.css'
p4548
asbasbasbag57
(g73
g59
NtRp4549
(dp4550
g62
(dp4551
sg71
g4480
sg64
(lp4552
g57
(g78
g59
NtRp4553
(dp4554
g62
(dp4555
sg71
g4549
sg64
(lp4556
g57
(g58
g59
NtRp4557
(dp4558
g62
(dp4559
g70
I4
ssg71
g4553
sg64
(lp4560
S'/WSD/static/plugin_layouts/superfish.js'
p4561
asbasbasbasbasbasbasbag57
(g73
g59
NtRp4562
(dp4563
g62
(dp4564
sg71
g4174
sg64
(lp4565
g57
(g78
g59
NtRp4566
(dp4567
g62
(dp4568
g82
g83
ssg71
g4562
sg64
(lp4569
S'flash'
p4570
asbag57
(g78
g59
NtRp4571
(dp4572
g62
(dp4573
g89
g90
ssg71
g4562
sg64
(lp4574
S':'
asbag57
(g78
g59
NtRp4575
(dp4576
g62
(dp4577
sg71
g4562
sg64
(lp4578
g57
(g58
g59
NtRp4579
(dp4580
g62
(dp4581
g70
I5
ssg71
g4575
sg64
(lp4582
S''
asbasbasbag57
(g73
g59
NtRp4583
(dp4584
g62
(dp4585
sg71
g4174
sg64
(lp4586
g57
(g78
g59
NtRp4587
(dp4588
g62
(dp4589
g82
g83
ssg71
g4583
sg64
(lp4590
S'generic_patterns'
p4591
asbag57
(g78
g59
NtRp4592
(dp4593
g62
(dp4594
g89
g90
ssg71
g4583
sg64
(lp4595
S':'
asbag57
(g78
g59
NtRp4596
(dp4597
g62
(dp4598
sg71
g4583
sg64
(lp4599
g57
(g58
g59
NtRp4600
(dp4601
g62
(dp4602
g70
I5
ssg71
g4596
sg64
(lp4603
g57
(g66
g59
NtRp4604
(dp4605
g62
(dp4606
g70
I4
ssg71
Nsg64
(lp4607
g57
(g73
g59
NtRp4608
(dp4609
g62
(dp4610
sg71
g4604
sg64
(lp4611
g57
(g78
g59
NtRp4612
(dp4613
g62
(dp4614
sg71
g4608
sg64
(lp4615
g57
(g58
g59
NtRp4616
(dp4617
g62
(dp4618
g70
I4
ssg71
g4612
sg64
(lp4619
S'*'
asbasbasbasbasbasbasbag57
(g73
g59
NtRp4620
(dp4621
g62
(dp4622
sg71
g4174
sg64
(lp4623
g57
(g78
g59
NtRp4624
(dp4625
g62
(dp4626
g82
g83
ssg71
g4620
sg64
(lp4627
S'google_analytics_id'
p4628
asbag57
(g78
g59
NtRp4629
(dp4630
g62
(dp4631
g89
g90
ssg71
g4620
sg64
(lp4632
S':'
asbag57
(g78
g59
NtRp4633
(dp4634
g62
(dp4635
sg71
g4620
sg64
(lp4636
g57
(g58
g59
NtRp4637
(dp4638
g62
(dp4639
g70
I5
ssg71
g4633
sg64
(lp4640
S'None'
p4641
asbasbasbag57
(g73
g59
NtRp4642
(dp4643
g62
(dp4644
sg71
g4174
sg64
(lp4645
g57
(g78
g59
NtRp4646
(dp4647
g62
(dp4648
g82
g83
ssg71
g4642
sg64
(lp4649
S'headers'
p4650
asbag57
(g78
g59
NtRp4651
(dp4652
g62
(dp4653
g89
g90
ssg71
g4642
sg64
(lp4654
S':'
asbag57
(g78
g59
NtRp4655
(dp4656
g62
(dp4657
sg71
g4642
sg64
(lp4658
g57
(g58
g59
NtRp4659
(dp4660
g62
(dp4661
g70
I5
ssg71
g4655
sg64
(lp4662
g57
(g66
g59
NtRp4663
(dp4664
g62
(dp4665
g70
I4
ssg71
Nsg64
(lp4666
g57
(g73
g59
NtRp4667
(dp4668
g62
(dp4669
sg71
g4663
sg64
(lp4670
g57
(g78
g59
NtRp4671
(dp4672
g62
(dp4673
g82
g83
ssg71
g4667
sg64
(lp4674
S'X-Powered-By'
p4675
asbag57
(g78
g59
NtRp4676
(dp4677
g62
(dp4678
g89
g90
ssg71
g4667
sg64
(lp4679
S':'
asbag57
(g78
g59
NtRp4680
(dp4681
g62
(dp4682
sg71
g4667
sg64
(lp4683
g57
(g58
g59
NtRp4684
(dp4685
g62
(dp4686
g70
I4
ssg71
g4680
sg64
(lp4687
S'web2py'
p4688
asbasbasbasbasbasbasbag57
(g73
g59
NtRp4689
(dp4690
g62
(dp4691
sg71
g4174
sg64
(lp4692
g57
(g78
g59
NtRp4693
(dp4694
g62
(dp4695
g82
g83
ssg71
g4689
sg64
(lp4696
S'menu'
p4697
asbag57
(g78
g59
NtRp4698
(dp4699
g62
(dp4700
g89
g90
ssg71
g4689
sg64
(lp4701
S':'
asbag57
(g78
g59
NtRp4702
(dp4703
g62
(dp4704
sg71
g4689
sg64
(lp4705
g57
(g58
g59
NtRp4706
(dp4707
g62
(dp4708
g70
I5
ssg71
g4702
sg64
(lp4709
g57
(g66
g59
NtRp4710
(dp4711
g62
(dp4712
g70
I4
ssg71
Nsg64
(lp4713
g57
(g73
g59
NtRp4714
(dp4715
g62
(dp4716
sg71
g4710
sg64
(lp4717
g57
(g78
g59
NtRp4718
(dp4719
g62
(dp4720
sg71
g4714
sg64
(lp4721
g57
(g58
g59
NtRp4722
(dp4723
g62
(dp4724
g70
I4
ssg71
g4718
sg64
(lp4725
g57
(g66
g59
NtRp4726
(dp4727
g62
(dp4728
g70
I3
ssg71
Nsg64
(lp4729
g57
(g73
g59
NtRp4730
(dp4731
g62
(dp4732
sg71
g4726
sg64
(lp4733
g57
(g78
g59
NtRp4734
(dp4735
g62
(dp4736
sg71
g4730
sg64
(lp4737
g57
(g58
g59
NtRp4738
(dp4739
g62
(dp4740
g70
I3
ssg71
g4734
sg64
(lp4741
cgluon.languages
lazyT_unpickle
p4742
(S't\x04\x00\x00\x00Home'
tRp4743
asbasbasbag57
(g73
g59
NtRp4744
(dp4745
g62
(dp4746
sg71
g4726
sg64
(lp4747
g57
(g78
g59
NtRp4748
(dp4749
g62
(dp4750
sg71
g4744
sg64
(lp4751
g57
(g58
g59
NtRp4752
(dp4753
g62
(dp4754
g70
I3
ssg71
g4748
sg64
(lp4755
g100
asbasbasbag57
(g73
g59
NtRp4756
(dp4757
g62
(dp4758
sg71
g4726
sg64
(lp4759
g57
(g78
g59
NtRp4760
(dp4761
g62
(dp4762
sg71
g4756
sg64
(lp4763
g57
(g58
g59
NtRp4764
(dp4765
g62
(dp4766
g70
I3
ssg71
g4760
sg64
(lp4767
S'/WSD/default/index'
p4768
asbasbasbag57
(g73
g59
NtRp4769
(dp4770
g62
(dp4771
sg71
g4726
sg64
(lp4772
g57
(g78
g59
NtRp4773
(dp4774
g62
(dp4775
sg71
g4769
sg64
(lp4776
g57
(g58
g59
NtRp4777
(dp4778
g62
(dp4779
g70
I3
ssg71
g4773
sg64
(lp4780
g57
(g66
g59
NtRp4781
(dp4782
g62
(dp4783
g70
I2
ssg71
Nsg64
(lp4784
sbasbasbasbasbasbasbasbag57
(g73
g59
NtRp4785
(dp4786
g62
(dp4787
sg71
g4710
sg64
(lp4788
g57
(g78
g59
NtRp4789
(dp4790
g62
(dp4791
sg71
g4785
sg64
(lp4792
g57
(g58
g59
NtRp4793
(dp4794
g62
(dp4795
g70
I4
ssg71
g4789
sg64
(lp4796
g57
(g66
g59
NtRp4797
(dp4798
g62
(dp4799
g70
I3
ssg71
Nsg64
(lp4800
g57
(g73
g59
NtRp4801
(dp4802
g62
(dp4803
sg71
g4797
sg64
(lp4804
g57
(g78
g59
NtRp4805
(dp4806
g62
(dp4807
sg71
g4801
sg64
(lp4808
g57
(g58
g59
NtRp4809
(dp4810
g62
(dp4811
g70
I3
ssg71
g4805
sg64
(lp4812
g57
(cgluon.html
SPAN
p4813
g59
NtRp4814
(dp4815
g62
(dp4816
g82
S'color:yellow'
p4817
ssg71
g57
(cgluon.html
A
p4818
g59
NtRp4819
(dp4820
g62
(dp4821
S'_onclick'
p4822
S'javascript:void(0);return false;'
p4823
sS'_href'
p4824
S'#'
ssg71
g57
(cgluon.html
LI
p4825
g59
NtRp4826
(dp4827
g62
(dp4828
S'_class'
p4829
S'web2py-menu-expand'
p4830
ssg71
g57
(cgluon.html
UL
p4831
g59
NtRp4832
(dp4833
g62
(dp4834
S'mobile'
p4835
I00
sS'ul_class'
p4836
S'web2py-menu-vertical'
p4837
sS'li_active'
p4838
S'web2py-menu-active'
p4839
sS'li_class'
p4840
g4830
sS'li_first'
p4841
S'web2py-menu-first'
p4842
sg4829
S'web2py-menu'
p4843
sS'li_last'
p4844
S'web2py-menu-last'
p4845
ssg71
Nsg64
(lp4846
g57
(g4825
g59
NtRp4847
(dp4848
g62
(dp4849
g4829
g4842
ssg71
g4832
sg64
(lp4850
g57
(g4818
g59
NtRp4851
(dp4852
g62
(dp4853
g4824
g4768
ssg71
g4847
sg64
(lp4854
g4743
asbasbag4826
asbsg64
(lp4855
g4819
ag57
(g4831
g59
NtRp4856
(dp4857
g62
(dp4858
g4829
g4837
ssg71
g4826
sg64
(lp4859
g57
(g4825
g59
NtRp4860
(dp4861
g62
(dp4862
sg71
g4856
sg64
(lp4863
g57
(g4818
g59
NtRp4864
(dp4865
g62
(dp4866
g4824
S'/admin/default/site'
p4867
ssg71
g4860
sg64
(lp4868
g4742
(S's\x08\x00\x00\x00My Sites'
tRp4869
asbasbag57
(g4825
g59
NtRp4870
(dp4871
g62
(dp4872
g4829
g4830
ssg71
g4856
sg64
(lp4873
g57
(g4818
g59
NtRp4874
(dp4875
g62
(dp4876
g4824
S'/admin/default/design/WSD'
p4877
ssg71
g4870
sg64
(lp4878
g4742
(S's\x08\x00\x00\x00This App'
tRp4879
asbag57
(g4831
g59
NtRp4880
(dp4881
g62
(dp4882
g4829
g4837
ssg71
g4870
sg64
(lp4883
g57
(g4825
g59
NtRp4884
(dp4885
g62
(dp4886
sg71
g4880
sg64
(lp4887
g57
(g4818
g59
NtRp4888
(dp4889
g62
(dp4890
g4824
S'/admin/default/edit/WSD/controllers/default.py'
p4891
ssg71
g4884
sg64
(lp4892
g4742
(S't\n\x00\x00\x00Controller'
tRp4893
asbasbag57
(g4825
g59
NtRp4894
(dp4895
g62
(dp4896
sg71
g4880
sg64
(lp4897
g57
(g4818
g59
NtRp4898
(dp4899
g62
(dp4900
g4824
S'/admin/default/edit/WSD/views/default/sentence_select.html'
p4901
ssg71
g4894
sg64
(lp4902
g4742
(S't\x04\x00\x00\x00View'
tRp4903
asbasbag57
(g4825
g59
NtRp4904
(dp4905
g62
(dp4906
sg71
g4880
sg64
(lp4907
g57
(g4818
g59
NtRp4908
(dp4909
g62
(dp4910
g4824
S'/admin/default/edit/WSD/views/layout.html'
p4911
ssg71
g4904
sg64
(lp4912
g4742
(S't\x06\x00\x00\x00Layout'
tRp4913
asbasbag57
(g4825
g59
NtRp4914
(dp4915
g62
(dp4916
sg71
g4880
sg64
(lp4917
g57
(g4818
g59
NtRp4918
(dp4919
g62
(dp4920
g4824
S'/admin/default/edit/WSD/static/css/web2py.css'
p4921
ssg71
g4914
sg64
(lp4922
g4742
(S't\n\x00\x00\x00Stylesheet'
tRp4923
asbasbag57
(g4825
g59
NtRp4924
(dp4925
g62
(dp4926
sg71
g4880
sg64
(lp4927
g57
(g4818
g59
NtRp4928
(dp4929
g62
(dp4930
g4824
S'/admin/default/edit/WSD/models/db.py'
p4931
ssg71
g4924
sg64
(lp4932
g4742
(S's\x08\x00\x00\x00DB Model'
tRp4933
asbasbag57
(g4825
g59
NtRp4934
(dp4935
g62
(dp4936
sg71
g4880
sg64
(lp4937
g57
(g4818
g59
NtRp4938
(dp4939
g62
(dp4940
g4824
S'/admin/default/edit/WSD/models/menu.py'
p4941
ssg71
g4934
sg64
(lp4942
g4742
(S's\n\x00\x00\x00Menu Model'
tRp4943
asbasbag57
(g4825
g59
NtRp4944
(dp4945
g62
(dp4946
sg71
g4880
sg64
(lp4947
g57
(g4818
g59
NtRp4948
(dp4949
g62
(dp4950
g4824
S'/WSD/appadmin/index'
p4951
ssg71
g4944
sg64
(lp4952
g4742
(S't\x08\x00\x00\x00Database'
tRp4953
asbasbag57
(g4825
g59
NtRp4954
(dp4955
g62
(dp4956
sg71
g4880
sg64
(lp4957
g57
(g4818
g59
NtRp4958
(dp4959
g62
(dp4960
g4824
S'/admin/default/errors/WSD'
p4961
ssg71
g4954
sg64
(lp4962
g4742
(S't\x06\x00\x00\x00Errors'
tRp4963
asbasbag57
(g4825
g59
NtRp4964
(dp4965
g62
(dp4966
sg71
g4880
sg64
(lp4967
g57
(g4818
g59
NtRp4968
(dp4969
g62
(dp4970
g4824
S'/admin/default/about/WSD'
p4971
ssg71
g4964
sg64
(lp4972
g4742
(S't\x05\x00\x00\x00About'
tRp4973
asbasbasbasbag57
(g4825
g59
NtRp4974
(dp4975
g62
(dp4976
g4829
g4830
ssg71
g4856
sg64
(lp4977
g57
(g4818
g59
NtRp4978
(dp4979
g62
(dp4980
g4824
S'http://www.web2py.com'
p4981
ssg71
g4974
sg64
(lp4982
S'web2py.com'
p4983
asbag57
(g4831
g59
NtRp4984
(dp4985
g62
(dp4986
g4829
g4837
ssg71
g4974
sg64
(lp4987
g57
(g4825
g59
NtRp4988
(dp4989
g62
(dp4990
sg71
g4984
sg64
(lp4991
g57
(g4818
g59
NtRp4992
(dp4993
g62
(dp4994
g4824
S'http://www.web2py.com/examples/default/download'
p4995
ssg71
g4988
sg64
(lp4996
g4742
(S't\x08\x00\x00\x00Download'
tRp4997
asbasbag57
(g4825
g59
NtRp4998
(dp4999
g62
(dp5000
sg71
g4984
sg64
(lp5001
g57
(g4818
g59
NtRp5002
(dp5003
g62
(dp5004
g4824
S'http://www.web2py.com/examples/default/support'
p5005
ssg71
g4998
sg64
(lp5006
g4742
(S't\x07\x00\x00\x00Support'
tRp5007
asbasbag57
(g4825
g59
NtRp5008
(dp5009
g62
(dp5010
sg71
g4984
sg64
(lp5011
g57
(g4818
g59
NtRp5012
(dp5013
g62
(dp5014
g4824
S'http://web2py.com/demo_admin'
p5015
ssg71
g5008
sg64
(lp5016
g4742
(S't\x04\x00\x00\x00Demo'
tRp5017
asbasbag57
(g4825
g59
NtRp5018
(dp5019
g62
(dp5020
sg71
g4984
sg64
(lp5021
g57
(g4818
g59
NtRp5022
(dp5023
g62
(dp5024
g4824
S'http://web2py.com/examples/default/examples'
p5025
ssg71
g5018
sg64
(lp5026
g4742
(S's\x0e\x00\x00\x00Quick Examples'
tRp5027
asbasbag57
(g4825
g59
NtRp5028
(dp5029
g62
(dp5030
sg71
g4984
sg64
(lp5031
g57
(g4818
g59
NtRp5032
(dp5033
g62
(dp5034
g4824
S'http://web2py.com/AlterEgo'
p5035
ssg71
g5028
sg64
(lp5036
g4742
(S't\x03\x00\x00\x00FAQ'
tRp5037
asbasbag57
(g4825
g59
NtRp5038
(dp5039
g62
(dp5040
sg71
g4984
sg64
(lp5041
g57
(g4818
g59
NtRp5042
(dp5043
g62
(dp5044
g4824
S'http://www.web2py.com/examples/default/videos/'
p5045
ssg71
g5038
sg64
(lp5046
g4742
(S't\x06\x00\x00\x00Videos'
tRp5047
asbasbag57
(g4825
g59
NtRp5048
(dp5049
g62
(dp5050
sg71
g4984
sg64
(lp5051
g57
(g4818
g59
NtRp5052
(dp5053
g62
(dp5054
g4824
S'http://web2py.com/appliances'
p5055
ssg71
g5048
sg64
(lp5056
g4742
(S's\x11\x00\x00\x00Free Applications'
tRp5057
asbasbag57
(g4825
g59
NtRp5058
(dp5059
g62
(dp5060
sg71
g4984
sg64
(lp5061
g57
(g4818
g59
NtRp5062
(dp5063
g62
(dp5064
g4824
S'http://web2py.com/plugins'
p5065
ssg71
g5058
sg64
(lp5066
g4742
(S't\x07\x00\x00\x00Plugins'
tRp5067
asbasbag57
(g4825
g59
NtRp5068
(dp5069
g62
(dp5070
sg71
g4984
sg64
(lp5071
g57
(g4818
g59
NtRp5072
(dp5073
g62
(dp5074
g4824
S'http://web2py.com/layouts'
p5075
ssg71
g5068
sg64
(lp5076
g4742
(S't\x07\x00\x00\x00Layouts'
tRp5077
asbasbag57
(g4825
g59
NtRp5078
(dp5079
g62
(dp5080
sg71
g4984
sg64
(lp5081
g57
(g4818
g59
NtRp5082
(dp5083
g62
(dp5084
g4824
S'http://web2pyslices.com/'
p5085
ssg71
g5078
sg64
(lp5086
g4742
(S't\x07\x00\x00\x00Recipes'
tRp5087
asbasbag57
(g4825
g59
NtRp5088
(dp5089
g62
(dp5090
sg71
g4984
sg64
(lp5091
g57
(g4818
g59
NtRp5092
(dp5093
g62
(dp5094
g4824
S'http://web2py.com/semantic'
p5095
ssg71
g5088
sg64
(lp5096
g4742
(S't\x08\x00\x00\x00Semantic'
tRp5097
asbasbasbasbag57
(g4825
g59
NtRp5098
(dp5099
g62
(dp5100
g4829
g4830
ssg71
g4856
sg64
(lp5101
g57
(g4818
g59
NtRp5102
(dp5103
g62
(dp5104
g4824
S'http://www.web2py.com/book'
p5105
ssg71
g5098
sg64
(lp5106
g4742
(S't\r\x00\x00\x00Documentation'
tRp5107
asbag57
(g4831
g59
NtRp5108
(dp5109
g62
(dp5110
g4829
g4837
ssg71
g5098
sg64
(lp5111
g57
(g4825
g59
NtRp5112
(dp5113
g62
(dp5114
sg71
g5108
sg64
(lp5115
g57
(g4818
g59
NtRp5116
(dp5117
g62
(dp5118
g4824
S'http://www.web2py.com/book/default/chapter/00'
p5119
ssg71
g5112
sg64
(lp5120
g4742
(S't\x07\x00\x00\x00Preface'
tRp5121
asbasbag57
(g4825
g59
NtRp5122
(dp5123
g62
(dp5124
sg71
g5108
sg64
(lp5125
g57
(g4818
g59
NtRp5126
(dp5127
g62
(dp5128
g4824
S'http://www.web2py.com/book/default/chapter/01'
p5129
ssg71
g5122
sg64
(lp5130
g4742
(S't\x0c\x00\x00\x00Introduction'
tRp5131
asbasbag57
(g4825
g59
NtRp5132
(dp5133
g62
(dp5134
sg71
g5108
sg64
(lp5135
g57
(g4818
g59
NtRp5136
(dp5137
g62
(dp5138
g4824
S'http://www.web2py.com/book/default/chapter/02'
p5139
ssg71
g5132
sg64
(lp5140
g4742
(S't\x06\x00\x00\x00Python'
tRp5141
asbasbag57
(g4825
g59
NtRp5142
(dp5143
g62
(dp5144
sg71
g5108
sg64
(lp5145
g57
(g4818
g59
NtRp5146
(dp5147
g62
(dp5148
g4824
S'http://www.web2py.com/book/default/chapter/03'
p5149
ssg71
g5142
sg64
(lp5150
g4742
(S't\x08\x00\x00\x00Overview'
tRp5151
asbasbag57
(g4825
g59
NtRp5152
(dp5153
g62
(dp5154
sg71
g5108
sg64
(lp5155
g57
(g4818
g59
NtRp5156
(dp5157
g62
(dp5158
g4824
S'http://www.web2py.com/book/default/chapter/04'
p5159
ssg71
g5152
sg64
(lp5160
g4742
(S's\x08\x00\x00\x00The Core'
tRp5161
asbasbag57
(g4825
g59
NtRp5162
(dp5163
g62
(dp5164
sg71
g5108
sg64
(lp5165
g57
(g4818
g59
NtRp5166
(dp5167
g62
(dp5168
g4824
S'http://www.web2py.com/book/default/chapter/05'
p5169
ssg71
g5162
sg64
(lp5170
g4742
(S's\t\x00\x00\x00The Views'
tRp5171
asbasbag57
(g4825
g59
NtRp5172
(dp5173
g62
(dp5174
sg71
g5108
sg64
(lp5175
g57
(g4818
g59
NtRp5176
(dp5177
g62
(dp5178
g4824
S'http://www.web2py.com/book/default/chapter/06'
p5179
ssg71
g5172
sg64
(lp5180
g4742
(S't\x08\x00\x00\x00Database'
tRp5181
asbasbag57
(g4825
g59
NtRp5182
(dp5183
g62
(dp5184
sg71
g5108
sg64
(lp5185
g57
(g4818
g59
NtRp5186
(dp5187
g62
(dp5188
g4824
S'http://www.web2py.com/book/default/chapter/07'
p5189
ssg71
g5182
sg64
(lp5190
g4742
(S's\x14\x00\x00\x00Forms and Validators'
tRp5191
asbasbag57
(g4825
g59
NtRp5192
(dp5193
g62
(dp5194
sg71
g5108
sg64
(lp5195
g57
(g4818
g59
NtRp5196
(dp5197
g62
(dp5198
g4824
S'http://www.web2py.com/book/default/chapter/08'
p5199
ssg71
g5192
sg64
(lp5200
g4742
(S's\r\x00\x00\x00Email and SMS'
tRp5201
asbasbag57
(g4825
g59
NtRp5202
(dp5203
g62
(dp5204
sg71
g5108
sg64
(lp5205
g57
(g4818
g59
NtRp5206
(dp5207
g62
(dp5208
g4824
S'http://www.web2py.com/book/default/chapter/09'
p5209
ssg71
g5202
sg64
(lp5210
g4742
(S's\x0e\x00\x00\x00Access Control'
tRp5211
asbasbag57
(g4825
g59
NtRp5212
(dp5213
g62
(dp5214
sg71
g5108
sg64
(lp5215
g57
(g4818
g59
NtRp5216
(dp5217
g62
(dp5218
g4824
S'http://www.web2py.com/book/default/chapter/10'
p5219
ssg71
g5212
sg64
(lp5220
g4742
(S't\x08\x00\x00\x00Services'
tRp5221
asbasbag57
(g4825
g59
NtRp5222
(dp5223
g62
(dp5224
sg71
g5108
sg64
(lp5225
g57
(g4818
g59
NtRp5226
(dp5227
g62
(dp5228
g4824
S'http://www.web2py.com/book/default/chapter/11'
p5229
ssg71
g5222
sg64
(lp5230
g4742
(S's\x0c\x00\x00\x00Ajax Recipes'
tRp5231
asbasbag57
(g4825
g59
NtRp5232
(dp5233
g62
(dp5234
sg71
g5108
sg64
(lp5235
g57
(g4818
g59
NtRp5236
(dp5237
g62
(dp5238
g4824
S'http://www.web2py.com/book/default/chapter/12'
p5239
ssg71
g5232
sg64
(lp5240
g4742
(S's\x16\x00\x00\x00Components and Plugins'
tRp5241
asbasbag57
(g4825
g59
NtRp5242
(dp5243
g62
(dp5244
sg71
g5108
sg64
(lp5245
g57
(g4818
g59
NtRp5246
(dp5247
g62
(dp5248
g4824
S'http://www.web2py.com/book/default/chapter/13'
p5249
ssg71
g5242
sg64
(lp5250
g4742
(S's\x12\x00\x00\x00Deployment Recipes'
tRp5251
asbasbag57
(g4825
g59
NtRp5252
(dp5253
g62
(dp5254
sg71
g5108
sg64
(lp5255
g57
(g4818
g59
NtRp5256
(dp5257
g62
(dp5258
g4824
S'http://www.web2py.com/book/default/chapter/14'
p5259
ssg71
g5252
sg64
(lp5260
g4742
(S's\r\x00\x00\x00Other Recipes'
tRp5261
asbasbag57
(g4825
g59
NtRp5262
(dp5263
g62
(dp5264
sg71
g5108
sg64
(lp5265
g57
(g4818
g59
NtRp5266
(dp5267
g62
(dp5268
g4824
S'http://stores.lulu.com/web2py'
p5269
ssg71
g5262
sg64
(lp5270
g4742
(S's\r\x00\x00\x00Buy this book'
tRp5271
asbasbasbasbag57
(g4825
g59
NtRp5272
(dp5273
g62
(dp5274
g4829
g4830
ssg71
g4856
sg64
(lp5275
g57
(g4818
g59
NtRp5276
(dp5277
g62
(dp5278
g4822
g4823
sg4824
S'#'
ssg71
g5272
sg64
(lp5279
g4742
(S't\t\x00\x00\x00Community'
tRp5280
asbag57
(g4831
g59
NtRp5281
(dp5282
g62
(dp5283
g4829
g4837
ssg71
g5272
sg64
(lp5284
g57
(g4825
g59
NtRp5285
(dp5286
g62
(dp5287
sg71
g5281
sg64
(lp5288
g57
(g4818
g59
NtRp5289
(dp5290
g62
(dp5291
g4824
S'http://www.web2py.com/examples/default/usergroups'
p5292
ssg71
g5285
sg64
(lp5293
g4742
(S't\x06\x00\x00\x00Groups'
tRp5294
asbasbag57
(g4825
g59
NtRp5295
(dp5296
g62
(dp5297
sg71
g5281
sg64
(lp5298
g57
(g4818
g59
NtRp5299
(dp5300
g62
(dp5301
g4824
S'http://twitter.com/web2py'
p5302
ssg71
g5295
sg64
(lp5303
g4742
(S't\x07\x00\x00\x00Twitter'
tRp5304
asbasbag57
(g4825
g59
NtRp5305
(dp5306
g62
(dp5307
sg71
g5281
sg64
(lp5308
g57
(g4818
g59
NtRp5309
(dp5310
g62
(dp5311
g4824
S'http://webchat.freenode.net/?channels=web2py'
p5312
ssg71
g5305
sg64
(lp5313
g4742
(S's\t\x00\x00\x00Live Chat'
tRp5314
asbasbasbasbag57
(g4825
g59
NtRp5315
(dp5316
g62
(dp5317
g4829
g4830
ssg71
g4856
sg64
(lp5318
g57
(g4818
g59
NtRp5319
(dp5320
g62
(dp5321
g4822
g4823
sg4824
S'#'
ssg71
g5315
sg64
(lp5322
g4742
(S't\x07\x00\x00\x00Plugins'
tRp5323
asbag57
(g4831
g59
NtRp5324
(dp5325
g62
(dp5326
g4829
g4837
ssg71
g5315
sg64
(lp5327
g57
(g4825
g59
NtRp5328
(dp5329
g62
(dp5330
sg71
g5324
sg64
(lp5331
g57
(g4818
g59
NtRp5332
(dp5333
g62
(dp5334
g4824
S'http://web2py.com/examples/default/download'
p5335
ssg71
g5328
sg64
(lp5336
S'plugin_wiki'
p5337
asbasbag57
(g4825
g59
NtRp5338
(dp5339
g62
(dp5340
sg71
g5324
sg64
(lp5341
g57
(g4818
g59
NtRp5342
(dp5343
g62
(dp5344
g4824
g5065
ssg71
g5338
sg64
(lp5345
g4742
(S's\r\x00\x00\x00Other Plugins'
tRp5346
asbasbag57
(g4825
g59
NtRp5347
(dp5348
g62
(dp5349
sg71
g5324
sg64
(lp5350
g57
(g4818
g59
NtRp5351
(dp5352
g62
(dp5353
g4824
g5075
ssg71
g5347
sg64
(lp5354
g4742
(S's\x0e\x00\x00\x00Layout Plugins'
tRp5355
asbasbasbasbasbasbsg64
(lp5356
g4814
asbsg64
(lp5357
g4688
asbasbasbasbag57
(g73
g59
NtRp5358
(dp5359
g62
(dp5360
sg71
g4797
sg64
(lp5361
g57
(g78
g59
NtRp5362
(dp5363
g62
(dp5364
sg71
g5358
sg64
(lp5365
g57
(g58
g59
NtRp5366
(dp5367
g62
(dp5368
g70
I3
ssg71
g5362
sg64
(lp5369
g100
asbasbasbag57
(g73
g59
NtRp5370
(dp5371
g62
(dp5372
sg71
g4797
sg64
(lp5373
g57
(g78
g59
NtRp5374
(dp5375
g62
(dp5376
sg71
g5370
sg64
(lp5377
g57
(g58
g59
NtRp5378
(dp5379
g62
(dp5380
g70
I3
ssg71
g5374
sg64
(lp5381
S'None'
p5382
asbasbasbag57
(g73
g59
NtRp5383
(dp5384
g62
(dp5385
sg71
g4797
sg64
(lp5386
g57
(g78
g59
NtRp5387
(dp5388
g62
(dp5389
sg71
g5383
sg64
(lp5390
g57
(g58
g59
NtRp5391
(dp5392
g62
(dp5393
g70
I3
ssg71
g5387
sg64
(lp5394
g57
(g66
g59
NtRp5395
(dp5396
g62
(dp5397
g70
I2
ssg71
Nsg64
(lp5398
g57
(g73
g59
NtRp5399
(dp5400
g62
(dp5401
sg71
g5395
sg64
(lp5402
g57
(g78
g59
NtRp5403
(dp5404
g62
(dp5405
sg71
g5399
sg64
(lp5406
g57
(g58
g59
NtRp5407
(dp5408
g62
(dp5409
g70
I2
ssg71
g5403
sg64
(lp5410
g57
(g66
g59
NtRp5411
(dp5412
g62
(dp5413
g70
I1
ssg71
Nsg64
(lp5414
g57
(g73
g59
NtRp5415
(dp5416
g62
(dp5417
sg71
g5411
sg64
(lp5418
g57
(g78
g59
NtRp5419
(dp5420
g62
(dp5421
sg71
g5415
sg64
(lp5422
g57
(g58
g59
NtRp5423
(dp5424
g62
(dp5425
g70
I1
ssg71
g5419
sg64
(lp5426
g4869
asbasbasbag57
(g73
g59
NtRp5427
(dp5428
g62
(dp5429
sg71
g5411
sg64
(lp5430
g57
(g78
g59
NtRp5431
(dp5432
g62
(dp5433
sg71
g5427
sg64
(lp5434
g57
(g58
g59
NtRp5435
(dp5436
g62
(dp5437
g70
I1
ssg71
g5431
sg64
(lp5438
I00
asbasbasbag57
(g73
g59
NtRp5439
(dp5440
g62
(dp5441
sg71
g5411
sg64
(lp5442
g57
(g78
g59
NtRp5443
(dp5444
g62
(dp5445
sg71
g5439
sg64
(lp5446
g57
(g58
g59
NtRp5447
(dp5448
g62
(dp5449
g70
I1
ssg71
g5443
sg64
(lp5450
g4867
asbasbasbasbasbasbasbag57
(g73
g59
NtRp5451
(dp5452
g62
(dp5453
sg71
g5395
sg64
(lp5454
g57
(g78
g59
NtRp5455
(dp5456
g62
(dp5457
sg71
g5451
sg64
(lp5458
g57
(g58
g59
NtRp5459
(dp5460
g62
(dp5461
g70
I2
ssg71
g5455
sg64
(lp5462
g57
(g66
g59
NtRp5463
(dp5464
g62
(dp5465
g70
I1
ssg71
Nsg64
(lp5466
g57
(g73
g59
NtRp5467
(dp5468
g62
(dp5469
sg71
g5463
sg64
(lp5470
g57
(g78
g59
NtRp5471
(dp5472
g62
(dp5473
sg71
g5467
sg64
(lp5474
g57
(g58
g59
NtRp5475
(dp5476
g62
(dp5477
g70
I1
ssg71
g5471
sg64
(lp5478
g4879
asbasbasbag57
(g73
g59
NtRp5479
(dp5480
g62
(dp5481
sg71
g5463
sg64
(lp5482
g57
(g78
g59
NtRp5483
(dp5484
g62
(dp5485
sg71
g5479
sg64
(lp5486
g57
(g58
g59
NtRp5487
(dp5488
g62
(dp5489
g70
I1
ssg71
g5483
sg64
(lp5490
I00
asbasbasbag57
(g73
g59
NtRp5491
(dp5492
g62
(dp5493
sg71
g5463
sg64
(lp5494
g57
(g78
g59
NtRp5495
(dp5496
g62
(dp5497
sg71
g5491
sg64
(lp5498
g57
(g58
g59
NtRp5499
(dp5500
g62
(dp5501
g70
I1
ssg71
g5495
sg64
(lp5502
g4877
asbasbasbag57
(g73
g59
NtRp5503
(dp5504
g62
(dp5505
sg71
g5463
sg64
(lp5506
g57
(g78
g59
NtRp5507
(dp5508
g62
(dp5509
sg71
g5503
sg64
(lp5510
g57
(g58
g59
NtRp5511
(dp5512
g62
(dp5513
g70
I1
ssg71
g5507
sg64
(lp5514
(lp5515
(g4893
I00
g4891
tp5516
a(g4903
I00
g4901
tp5517
a(g4913
I00
g4911
tp5518
a(g4923
I00
g4921
tp5519
a(g4933
I00
g4931
tp5520
a(g4943
I00
g4941
tp5521
a(g4953
I00
g4951
tp5522
a(g4963
I00
g4961
tp5523
a(g4973
I00
g4971
tp5524
aasbasbasbasbasbasbasbag57
(g73
g59
NtRp5525
(dp5526
g62
(dp5527
sg71
g5395
sg64
(lp5528
g57
(g78
g59
NtRp5529
(dp5530
g62
(dp5531
sg71
g5525
sg64
(lp5532
g57
(g58
g59
NtRp5533
(dp5534
g62
(dp5535
g70
I2
ssg71
g5529
sg64
(lp5536
g57
(g66
g59
NtRp5537
(dp5538
g62
(dp5539
g70
I1
ssg71
Nsg64
(lp5540
g57
(g73
g59
NtRp5541
(dp5542
g62
(dp5543
sg71
g5537
sg64
(lp5544
g57
(g78
g59
NtRp5545
(dp5546
g62
(dp5547
sg71
g5541
sg64
(lp5548
g57
(g58
g59
NtRp5549
(dp5550
g62
(dp5551
g70
I1
ssg71
g5545
sg64
(lp5552
g4983
asbasbasbag57
(g73
g59
NtRp5553
(dp5554
g62
(dp5555
sg71
g5537
sg64
(lp5556
g57
(g78
g59
NtRp5557
(dp5558
g62
(dp5559
sg71
g5553
sg64
(lp5560
g57
(g58
g59
NtRp5561
(dp5562
g62
(dp5563
g70
I1
ssg71
g5557
sg64
(lp5564
I00
asbasbasbag57
(g73
g59
NtRp5565
(dp5566
g62
(dp5567
sg71
g5537
sg64
(lp5568
g57
(g78
g59
NtRp5569
(dp5570
g62
(dp5571
sg71
g5565
sg64
(lp5572
g57
(g58
g59
NtRp5573
(dp5574
g62
(dp5575
g70
I1
ssg71
g5569
sg64
(lp5576
g4981
asbasbasbag57
(g73
g59
NtRp5577
(dp5578
g62
(dp5579
sg71
g5537
sg64
(lp5580
g57
(g78
g59
NtRp5581
(dp5582
g62
(dp5583
sg71
g5577
sg64
(lp5584
g57
(g58
g59
NtRp5585
(dp5586
g62
(dp5587
g70
I1
ssg71
g5581
sg64
(lp5588
(lp5589
(g4997
I00
g4995
tp5590
a(g5007
I00
g5005
tp5591
a(g5017
I00
g5015
tp5592
a(g5027
I00
g5025
tp5593
a(g5037
I00
g5035
tp5594
a(g5047
I00
g5045
tp5595
a(g5057
I00
g5055
tp5596
a(g5067
I00
g5065
tp5597
a(g5077
I00
g5075
tp5598
a(g5087
I00
g5085
tp5599
a(g5097
I00
g5095
tp5600
aasbasbasbasbasbasbasbag57
(g73
g59
NtRp5601
(dp5602
g62
(dp5603
sg71
g5395
sg64
(lp5604
g57
(g78
g59
NtRp5605
(dp5606
g62
(dp5607
sg71
g5601
sg64
(lp5608
g57
(g58
g59
NtRp5609
(dp5610
g62
(dp5611
g70
I2
ssg71
g5605
sg64
(lp5612
g57
(g66
g59
NtRp5613
(dp5614
g62
(dp5615
g70
I1
ssg71
Nsg64
(lp5616
g57
(g73
g59
NtRp5617
(dp5618
g62
(dp5619
sg71
g5613
sg64
(lp5620
g57
(g78
g59
NtRp5621
(dp5622
g62
(dp5623
sg71
g5617
sg64
(lp5624
g57
(g58
g59
NtRp5625
(dp5626
g62
(dp5627
g70
I1
ssg71
g5621
sg64
(lp5628
g5107
asbasbasbag57
(g73
g59
NtRp5629
(dp5630
g62
(dp5631
sg71
g5613
sg64
(lp5632
g57
(g78
g59
NtRp5633
(dp5634
g62
(dp5635
sg71
g5629
sg64
(lp5636
g57
(g58
g59
NtRp5637
(dp5638
g62
(dp5639
g70
I1
ssg71
g5633
sg64
(lp5640
I00
asbasbasbag57
(g73
g59
NtRp5641
(dp5642
g62
(dp5643
sg71
g5613
sg64
(lp5644
g57
(g78
g59
NtRp5645
(dp5646
g62
(dp5647
sg71
g5641
sg64
(lp5648
g57
(g58
g59
NtRp5649
(dp5650
g62
(dp5651
g70
I1
ssg71
g5645
sg64
(lp5652
g5105
asbasbasbag57
(g73
g59
NtRp5653
(dp5654
g62
(dp5655
sg71
g5613
sg64
(lp5656
g57
(g78
g59
NtRp5657
(dp5658
g62
(dp5659
sg71
g5653
sg64
(lp5660
g57
(g58
g59
NtRp5661
(dp5662
g62
(dp5663
g70
I1
ssg71
g5657
sg64
(lp5664
(lp5665
(g5121
I00
g5119
tp5666
a(g5131
I00
g5129
tp5667
a(g5141
I00
g5139
tp5668
a(g5151
I00
g5149
tp5669
a(g5161
I00
g5159
tp5670
a(g5171
I00
g5169
tp5671
a(g5181
I00
g5179
tp5672
a(g5191
I00
g5189
tp5673
a(g5201
I00
g5199
tp5674
a(g5211
I00
g5209
tp5675
a(g5221
I00
g5219
tp5676
a(g5231
I00
g5229
tp5677
a(g5241
I00
g5239
tp5678
a(g5251
I00
g5249
tp5679
a(g5261
I00
g5259
tp5680
a(g5271
I00
g5269
tp5681
aasbasbasbasbasbasbasbag57
(g73
g59
NtRp5682
(dp5683
g62
(dp5684
sg71
g5395
sg64
(lp5685
g57
(g78
g59
NtRp5686
(dp5687
g62
(dp5688
sg71
g5682
sg64
(lp5689
g57
(g58
g59
NtRp5690
(dp5691
g62
(dp5692
g70
I2
ssg71
g5686
sg64
(lp5693
g57
(g66
g59
NtRp5694
(dp5695
g62
(dp5696
g70
I1
ssg71
Nsg64
(lp5697
g57
(g73
g59
NtRp5698
(dp5699
g62
(dp5700
sg71
g5694
sg64
(lp5701
g57
(g78
g59
NtRp5702
(dp5703
g62
(dp5704
sg71
g5698
sg64
(lp5705
g57
(g58
g59
NtRp5706
(dp5707
g62
(dp5708
g70
I1
ssg71
g5702
sg64
(lp5709
g5280
asbasbasbag57
(g73
g59
NtRp5710
(dp5711
g62
(dp5712
sg71
g5694
sg64
(lp5713
g57
(g78
g59
NtRp5714
(dp5715
g62
(dp5716
sg71
g5710
sg64
(lp5717
g57
(g58
g59
NtRp5718
(dp5719
g62
(dp5720
g70
I1
ssg71
g5714
sg64
(lp5721
I00
asbasbasbag57
(g73
g59
NtRp5722
(dp5723
g62
(dp5724
sg71
g5694
sg64
(lp5725
g57
(g78
g59
NtRp5726
(dp5727
g62
(dp5728
sg71
g5722
sg64
(lp5729
g57
(g58
g59
NtRp5730
(dp5731
g62
(dp5732
g70
I1
ssg71
g5726
sg64
(lp5733
Nasbasbasbag57
(g73
g59
NtRp5734
(dp5735
g62
(dp5736
sg71
g5694
sg64
(lp5737
g57
(g78
g59
NtRp5738
(dp5739
g62
(dp5740
sg71
g5734
sg64
(lp5741
g57
(g58
g59
NtRp5742
(dp5743
g62
(dp5744
g70
I1
ssg71
g5738
sg64
(lp5745
(lp5746
(g5294
I00
g5292
tp5747
a(g5304
I00
g5302
tp5748
a(g5314
I00
g5312
tp5749
aasbasbasbasbasbasbasbag57
(g73
g59
NtRp5750
(dp5751
g62
(dp5752
sg71
g5395
sg64
(lp5753
g57
(g78
g59
NtRp5754
(dp5755
g62
(dp5756
sg71
g5750
sg64
(lp5757
g57
(g58
g59
NtRp5758
(dp5759
g62
(dp5760
g70
I2
ssg71
g5754
sg64
(lp5761
g57
(g66
g59
NtRp5762
(dp5763
g62
(dp5764
g70
I1
ssg71
Nsg64
(lp5765
g57
(g73
g59
NtRp5766
(dp5767
g62
(dp5768
sg71
g5762
sg64
(lp5769
g57
(g78
g59
NtRp5770
(dp5771
g62
(dp5772
sg71
g5766
sg64
(lp5773
g57
(g58
g59
NtRp5774
(dp5775
g62
(dp5776
g70
I1
ssg71
g5770
sg64
(lp5777
g5323
asbasbasbag57
(g73
g59
NtRp5778
(dp5779
g62
(dp5780
sg71
g5762
sg64
(lp5781
g57
(g78
g59
NtRp5782
(dp5783
g62
(dp5784
sg71
g5778
sg64
(lp5785
g57
(g58
g59
NtRp5786
(dp5787
g62
(dp5788
g70
I1
ssg71
g5782
sg64
(lp5789
I00
asbasbasbag57
(g73
g59
NtRp5790
(dp5791
g62
(dp5792
sg71
g5762
sg64
(lp5793
g57
(g78
g59
NtRp5794
(dp5795
g62
(dp5796
sg71
g5790
sg64
(lp5797
g57
(g58
g59
NtRp5798
(dp5799
g62
(dp5800
g70
I1
ssg71
g5794
sg64
(lp5801
Nasbasbasbag57
(g73
g59
NtRp5802
(dp5803
g62
(dp5804
sg71
g5762
sg64
(lp5805
g57
(g78
g59
NtRp5806
(dp5807
g62
(dp5808
sg71
g5802
sg64
(lp5809
g57
(g58
g59
NtRp5810
(dp5811
g62
(dp5812
g70
I1
ssg71
g5806
sg64
(lp5813
(lp5814
(g5337
I00
g5335
tp5815
a(g5346
I00
g5065
tp5816
a(g5355
I00
g5075
tp5817
aasbasbasbasbasbasbasbasbasbasbasbasbasbasbasbasbasbasbasbag57
(g73
g59
NtRp5818
(dp5819
g62
(dp5820
sg71
g4174
sg64
(lp5821
g57
(g78
g59
NtRp5822
(dp5823
g62
(dp5824
g82
g83
ssg71
g5818
sg64
(lp5825
S'meta'
p5826
asbag57
(g78
g59
NtRp5827
(dp5828
g62
(dp5829
g89
g90
ssg71
g5818
sg64
(lp5830
S':'
asbag57
(g78
g59
NtRp5831
(dp5832
g62
(dp5833
sg71
g5818
sg64
(lp5834
g57
(g58
g59
NtRp5835
(dp5836
g62
(dp5837
g70
I5
ssg71
g5831
sg64
(lp5838
g57
(g66
g59
NtRp5839
(dp5840
g62
(dp5841
g70
I4
ssg71
Nsg64
(lp5842
g57
(g73
g59
NtRp5843
(dp5844
g62
(dp5845
sg71
g5839
sg64
(lp5846
g57
(g78
g59
NtRp5847
(dp5848
g62
(dp5849
g82
g83
ssg71
g5843
sg64
(lp5850
S'author'
p5851
asbag57
(g78
g59
NtRp5852
(dp5853
g62
(dp5854
g89
g90
ssg71
g5843
sg64
(lp5855
S':'
asbag57
(g78
g59
NtRp5856
(dp5857
g62
(dp5858
sg71
g5843
sg64
(lp5859
g57
(g58
g59
NtRp5860
(dp5861
g62
(dp5862
g70
I4
ssg71
g5856
sg64
(lp5863
S'Your Name <you@example.com>'
p5864
asbasbasbag57
(g73
g59
NtRp5865
(dp5866
g62
(dp5867
sg71
g5839
sg64
(lp5868
g57
(g78
g59
NtRp5869
(dp5870
g62
(dp5871
g82
g83
ssg71
g5865
sg64
(lp5872
S'copyright'
p5873
asbag57
(g78
g59
NtRp5874
(dp5875
g62
(dp5876
g89
g90
ssg71
g5865
sg64
(lp5877
S':'
asbag57
(g78
g59
NtRp5878
(dp5879
g62
(dp5880
sg71
g5865
sg64
(lp5881
g57
(g58
g59
NtRp5882
(dp5883
g62
(dp5884
g70
I4
ssg71
g5878
sg64
(lp5885
S'Copyright 2011'
p5886
asbasbasbag57
(g73
g59
NtRp5887
(dp5888
g62
(dp5889
sg71
g5839
sg64
(lp5890
g57
(g78
g59
NtRp5891
(dp5892
g62
(dp5893
g82
g83
ssg71
g5887
sg64
(lp5894
S'description'
p5895
asbag57
(g78
g59
NtRp5896
(dp5897
g62
(dp5898
g89
g90
ssg71
g5887
sg64
(lp5899
S':'
asbag57
(g78
g59
NtRp5900
(dp5901
g62
(dp5902
sg71
g5887
sg64
(lp5903
g57
(g58
g59
NtRp5904
(dp5905
g62
(dp5906
g70
I4
ssg71
g5900
sg64
(lp5907
S'a cool new app'
p5908
asbasbasbag57
(g73
g59
NtRp5909
(dp5910
g62
(dp5911
sg71
g5839
sg64
(lp5912
g57
(g78
g59
NtRp5913
(dp5914
g62
(dp5915
g82
g83
ssg71
g5909
sg64
(lp5916
S'generator'
p5917
asbag57
(g78
g59
NtRp5918
(dp5919
g62
(dp5920
g89
g90
ssg71
g5909
sg64
(lp5921
S':'
asbag57
(g78
g59
NtRp5922
(dp5923
g62
(dp5924
sg71
g5909
sg64
(lp5925
g57
(g58
g59
NtRp5926
(dp5927
g62
(dp5928
g70
I4
ssg71
g5922
sg64
(lp5929
S'Web2py Web Framework'
p5930
asbasbasbag57
(g73
g59
NtRp5931
(dp5932
g62
(dp5933
sg71
g5839
sg64
(lp5934
g57
(g78
g59
NtRp5935
(dp5936
g62
(dp5937
g82
g83
ssg71
g5931
sg64
(lp5938
S'keywords'
p5939
asbag57
(g78
g59
NtRp5940
(dp5941
g62
(dp5942
g89
g90
ssg71
g5931
sg64
(lp5943
S':'
asbag57
(g78
g59
NtRp5944
(dp5945
g62
(dp5946
sg71
g5931
sg64
(lp5947
g57
(g58
g59
NtRp5948
(dp5949
g62
(dp5950
g70
I4
ssg71
g5944
sg64
(lp5951
S'web2py, python, framework'
p5952
asbasbasbasbasbasbasbag57
(g73
g59
NtRp5953
(dp5954
g62
(dp5955
sg71
g4174
sg64
(lp5956
g57
(g78
g59
NtRp5957
(dp5958
g62
(dp5959
g82
g83
ssg71
g5953
sg64
(lp5960
S'models_to_run'
p5961
asbag57
(g78
g59
NtRp5962
(dp5963
g62
(dp5964
g89
g90
ssg71
g5953
sg64
(lp5965
S':'
asbag57
(g78
g59
NtRp5966
(dp5967
g62
(dp5968
sg71
g5953
sg64
(lp5969
g57
(g58
g59
NtRp5970
(dp5971
g62
(dp5972
g70
I5
ssg71
g5966
sg64
(lp5973
g57
(g66
g59
NtRp5974
(dp5975
g62
(dp5976
g70
I4
ssg71
Nsg64
(lp5977
g57
(g73
g59
NtRp5978
(dp5979
g62
(dp5980
sg71
g5974
sg64
(lp5981
g57
(g78
g59
NtRp5982
(dp5983
g62
(dp5984
sg71
g5978
sg64
(lp5985
g57
(g58
g59
NtRp5986
(dp5987
g62
(dp5988
g70
I4
ssg71
g5982
sg64
(lp5989
S'^\\w+\\.py$'
p5990
asbasbasbag57
(g73
g59
NtRp5991
(dp5992
g62
(dp5993
sg71
g5974
sg64
(lp5994
g57
(g78
g59
NtRp5995
(dp5996
g62
(dp5997
sg71
g5991
sg64
(lp5998
g57
(g58
g59
NtRp5999
(dp6000
g62
(dp6001
g70
I4
ssg71
g5995
sg64
(lp6002
S'^default/\\w+\\.py$'
p6003
asbasbasbag57
(g73
g59
NtRp6004
(dp6005
g62
(dp6006
sg71
g5974
sg64
(lp6007
g57
(g78
g59
NtRp6008
(dp6009
g62
(dp6010
sg71
g6004
sg64
(lp6011
g57
(g58
g59
NtRp6012
(dp6013
g62
(dp6014
g70
I4
ssg71
g6008
sg64
(lp6015
S'^default/sentence_select/\\w+\\.py$'
p6016
asbasbasbasbasbasbasbag57
(g73
g59
NtRp6017
(dp6018
g62
(dp6019
sg71
g4174
sg64
(lp6020
g57
(g78
g59
NtRp6021
(dp6022
g62
(dp6023
g82
g83
ssg71
g6017
sg64
(lp6024
S'postprocessing'
p6025
asbag57
(g78
g59
NtRp6026
(dp6027
g62
(dp6028
g89
g90
ssg71
g6017
sg64
(lp6029
S':'
asbag57
(g78
g59
NtRp6030
(dp6031
g62
(dp6032
sg71
g6017
sg64
(lp6033
g57
(g58
g59
NtRp6034
(dp6035
g62
(dp6036
g70
I5
ssg71
g6030
sg64
(lp6037
g57
(g66
g59
NtRp6038
(dp6039
g62
(dp6040
g70
I4
ssg71
Nsg64
(lp6041
sbasbasbasbag57
(g73
g59
NtRp6042
(dp6043
g62
(dp6044
sg71
g4174
sg64
(lp6045
g57
(g78
g59
NtRp6046
(dp6047
g62
(dp6048
g82
g83
ssg71
g6042
sg64
(lp6049
S'session_cookie_expires'
p6050
asbag57
(g78
g59
NtRp6051
(dp6052
g62
(dp6053
g89
g90
ssg71
g6042
sg64
(lp6054
S':'
asbag57
(g78
g59
NtRp6055
(dp6056
g62
(dp6057
sg71
g6042
sg64
(lp6058
g57
(g58
g59
NtRp6059
(dp6060
g62
(dp6061
g70
I5
ssg71
g6055
sg64
(lp6062
S'None'
p6063
asbasbasbag57
(g73
g59
NtRp6064
(dp6065
g62
(dp6066
sg71
g4174
sg64
(lp6067
g57
(g78
g59
NtRp6068
(dp6069
g62
(dp6070
g82
g83
ssg71
g6064
sg64
(lp6071
S'session_data_name'
p6072
asbag57
(g78
g59
NtRp6073
(dp6074
g62
(dp6075
g89
g90
ssg71
g6064
sg64
(lp6076
S':'
asbag57
(g78
g59
NtRp6077
(dp6078
g62
(dp6079
sg71
g6064
sg64
(lp6080
g57
(g58
g59
NtRp6081
(dp6082
g62
(dp6083
g70
I5
ssg71
g6077
sg64
(lp6084
S'session_data_wsd'
p6085
asbasbasbag57
(g73
g59
NtRp6086
(dp6087
g62
(dp6088
sg71
g4174
sg64
(lp6089
g57
(g78
g59
NtRp6090
(dp6091
g62
(dp6092
g82
g83
ssg71
g6086
sg64
(lp6093
S'session_file'
p6094
asbag57
(g78
g59
NtRp6095
(dp6096
g62
(dp6097
g89
g90
ssg71
g6086
sg64
(lp6098
S':'
asbag57
(g78
g59
NtRp6099
(dp6100
g62
(dp6101
sg71
g6086
sg64
(lp6102
g57
(g58
g59
NtRp6103
(dp6104
g62
(dp6105
g70
I5
ssg71
g6099
sg64
(lp6106
S"<open file '/home/nazrul/web2py/applications/WSD/sessions/127.0.0.1-6a7c3401-059b-4dac-aafc-9a0a37e89b81', mode 'rb+' at 0xae02c0d0>"
p6107
asbasbasbag57
(g73
g59
NtRp6108
(dp6109
g62
(dp6110
sg71
g4174
sg64
(lp6111
g57
(g78
g59
NtRp6112
(dp6113
g62
(dp6114
g82
g83
ssg71
g6108
sg64
(lp6115
S'session_filename'
p6116
asbag57
(g78
g59
NtRp6117
(dp6118
g62
(dp6119
g89
g90
ssg71
g6108
sg64
(lp6120
S':'
asbag57
(g78
g59
NtRp6121
(dp6122
g62
(dp6123
sg71
g6108
sg64
(lp6124
g57
(g58
g59
NtRp6125
(dp6126
g62
(dp6127
g70
I5
ssg71
g6121
sg64
(lp6128
S'/home/nazrul/web2py/applications/WSD/sessions/127.0.0.1-6a7c3401-059b-4dac-aafc-9a0a37e89b81'
p6129
asbasbasbag57
(g73
g59
NtRp6130
(dp6131
g62
(dp6132
sg71
g4174
sg64
(lp6133
g57
(g78
g59
NtRp6134
(dp6135
g62
(dp6136
g82
g83
ssg71
g6130
sg64
(lp6137
S'session_id'
p6138
asbag57
(g78
g59
NtRp6139
(dp6140
g62
(dp6141
g89
g90
ssg71
g6130
sg64
(lp6142
S':'
asbag57
(g78
g59
NtRp6143
(dp6144
g62
(dp6145
sg71
g6130
sg64
(lp6146
g57
(g58
g59
NtRp6147
(dp6148
g62
(dp6149
g70
I5
ssg71
g6143
sg64
(lp6150
g847
asbasbasbag57
(g73
g59
NtRp6151
(dp6152
g62
(dp6153
sg71
g4174
sg64
(lp6154
g57
(g78
g59
NtRp6155
(dp6156
g62
(dp6157
g82
g83
ssg71
g6151
sg64
(lp6158
S'session_id_name'
p6159
asbag57
(g78
g59
NtRp6160
(dp6161
g62
(dp6162
g89
g90
ssg71
g6151
sg64
(lp6163
S':'
asbag57
(g78
g59
NtRp6164
(dp6165
g62
(dp6166
sg71
g6151
sg64
(lp6167
g57
(g58
g59
NtRp6168
(dp6169
g62
(dp6170
g70
I5
ssg71
g6164
sg64
(lp6171
g4231
asbasbasbag57
(g73
g59
NtRp6172
(dp6173
g62
(dp6174
sg71
g4174
sg64
(lp6175
g57
(g78
g59
NtRp6176
(dp6177
g62
(dp6178
g82
g83
ssg71
g6172
sg64
(lp6179
S'session_locked'
p6180
asbag57
(g78
g59
NtRp6181
(dp6182
g62
(dp6183
g89
g90
ssg71
g6172
sg64
(lp6184
S':'
asbag57
(g78
g59
NtRp6185
(dp6186
g62
(dp6187
sg71
g6172
sg64
(lp6188
g57
(g58
g59
NtRp6189
(dp6190
g62
(dp6191
g70
I5
ssg71
g6185
sg64
(lp6192
g2141
asbasbasbag57
(g73
g59
NtRp6193
(dp6194
g62
(dp6195
sg71
g4174
sg64
(lp6196
g57
(g78
g59
NtRp6197
(dp6198
g62
(dp6199
g82
g83
ssg71
g6193
sg64
(lp6200
S'session_new'
p6201
asbag57
(g78
g59
NtRp6202
(dp6203
g62
(dp6204
g89
g90
ssg71
g6193
sg64
(lp6205
S':'
asbag57
(g78
g59
NtRp6206
(dp6207
g62
(dp6208
sg71
g6193
sg64
(lp6209
g57
(g58
g59
NtRp6210
(dp6211
g62
(dp6212
g70
I5
ssg71
g6206
sg64
(lp6213
g100
asbasbasbag57
(g73
g59
NtRp6214
(dp6215
g62
(dp6216
sg71
g4174
sg64
(lp6217
g57
(g78
g59
NtRp6218
(dp6219
g62
(dp6220
g82
g83
ssg71
g6214
sg64
(lp6221
S'session_storage_type'
p6222
asbag57
(g78
g59
NtRp6223
(dp6224
g62
(dp6225
g89
g90
ssg71
g6214
sg64
(lp6226
S':'
asbag57
(g78
g59
NtRp6227
(dp6228
g62
(dp6229
sg71
g6214
sg64
(lp6230
g57
(g58
g59
NtRp6231
(dp6232
g62
(dp6233
g70
I5
ssg71
g6227
sg64
(lp6234
g3572
asbasbasbag57
(g73
g59
NtRp6235
(dp6236
g62
(dp6237
sg71
g4174
sg64
(lp6238
g57
(g78
g59
NtRp6239
(dp6240
g62
(dp6241
g82
g83
ssg71
g6235
sg64
(lp6242
S'status'
p6243
asbag57
(g78
g59
NtRp6244
(dp6245
g62
(dp6246
g89
g90
ssg71
g6235
sg64
(lp6247
S':'
asbag57
(g78
g59
NtRp6248
(dp6249
g62
(dp6250
sg71
g6235
sg64
(lp6251
g57
(g58
g59
NtRp6252
(dp6253
g62
(dp6254
g70
I5
ssg71
g6248
sg64
(lp6255
S'200'
p6256
asbasbasbag57
(g73
g59
NtRp6257
(dp6258
g62
(dp6259
sg71
g4174
sg64
(lp6260
g57
(g78
g59
NtRp6261
(dp6262
g62
(dp6263
g82
g83
ssg71
g6257
sg64
(lp6264
S'subtitle'
p6265
asbag57
(g78
g59
NtRp6266
(dp6267
g62
(dp6268
g89
g90
ssg71
g6257
sg64
(lp6269
S':'
asbag57
(g78
g59
NtRp6270
(dp6271
g62
(dp6272
sg71
g6257
sg64
(lp6273
g57
(g58
g59
NtRp6274
(dp6275
g62
(dp6276
g70
I5
ssg71
g6270
sg64
(lp6277
g4742
(S's\r\x00\x00\x00customize me!'
tRp6278
asbasbasbag57
(g73
g59
NtRp6279
(dp6280
g62
(dp6281
sg71
g4174
sg64
(lp6282
g57
(g78
g59
NtRp6283
(dp6284
g62
(dp6285
g82
g83
ssg71
g6279
sg64
(lp6286
S'title'
p6287
asbag57
(g78
g59
NtRp6288
(dp6289
g62
(dp6290
g89
g90
ssg71
g6279
sg64
(lp6291
S':'
asbag57
(g78
g59
NtRp6292
(dp6293
g62
(dp6294
sg71
g6279
sg64
(lp6295
g57
(g58
g59
NtRp6296
(dp6297
g62
(dp6298
g70
I5
ssg71
g6292
sg64
(lp6299
S'Wsd'
p6300
asbasbasbag57
(g73
g59
NtRp6301
(dp6302
g62
(dp6303
sg71
g4174
sg64
(lp6304
g57
(g78
g59
NtRp6305
(dp6306
g62
(dp6307
g82
g83
ssg71
g6301
sg64
(lp6308
S'view'
p6309
asbag57
(g78
g59
NtRp6310
(dp6311
g62
(dp6312
g89
g90
ssg71
g6301
sg64
(lp6313
S':'
asbag57
(g78
g59
NtRp6314
(dp6315
g62
(dp6316
sg71
g6301
sg64
(lp6317
g57
(g58
g59
NtRp6318
(dp6319
g62
(dp6320
g70
I5
ssg71
g6314
sg64
(lp6321
S'default/sentence_select.html'
p6322
asbasbasbasbasbsS'locals'
p6323
(dp6324
S'Service'
p6325
S"<class 'gluon.tools.Service'>"
p6326
sS'OBJECT'
p6327
S"<class 'gluon.html.OBJECT'>"
p6328
sS'SQLDB'
p6329
S"<class 'gluon.dal.DAL'>"
p6330
sg3625
S"<Storage {'flash': None, 'sid': 36, 'auth': <Sto...ssion_hash': '5339b18d57c92d386bedc3357f16c300'}>"
p6331
sS'LINK'
p6332
S"<class 'gluon.html.LINK'>"
p6333
sS'BR'
p6334
S"<class 'gluon.html.BR'>"
p6335
sS'local_import'
p6336
S'<function <lambda>>'
p6337
sS'OPTGROUP'
p6338
S"<class 'gluon.html.OPTGROUP'>"
p6339
sS'__package__'
p6340
S'None'
p6341
sS'PRE'
p6342
S"<class 'gluon.html.PRE'>"
p6343
sS'IS_INT_IN_RANGE'
p6344
S"<class 'gluon.validators.IS_INT_IN_RANGE'>"
p6345
sS'IS_LOWER'
p6346
S"<class 'gluon.validators.IS_LOWER'>"
p6347
sS'IS_STRONG'
p6348
S"<class 'gluon.validators.IS_STRONG'>"
p6349
sS'cache'
p6350
S'<gluon.cache.Cache object>'
p6351
sS'IS_IN_DB'
p6352
S"<class 'gluon.validators.IS_IN_DB'>"
p6353
sS'TAG'
p6354
S'<gluon.html.__TAG__ object>'
p6355
sS'SQLField'
p6356
S"<class 'gluon.dal.Field'>"
p6357
sS'mail'
p6358
S'<gluon.tools.Mail object>'
p6359
sS'BODY'
p6360
S"<class 'gluon.html.BODY'>"
p6361
sS'IS_DATE_IN_RANGE'
p6362
S"<class 'gluon.validators.IS_DATE_IN_RANGE'>"
p6363
sS'IFRAME'
p6364
S"<class 'gluon.html.IFRAME'>"
p6365
sS'URL'
p6366
S'<function URL>'
p6367
sS'__file__'
p6368
S"'/home/nazrul/web2py/applications/WSD/views/default/sentence_select.html'"
p6369
sS'db'
p6370
S'<DAL uri="sqlite://storage.sqlite">'
p6371
sS'auth'
p6372
S'<gluon.tools.Auth object>'
p6373
sS'P'
S"<class 'gluon.html.P'>"
p6374
sS'TFOOT'
p6375
S"<class 'gluon.html.TFOOT'>"
p6376
sS'XHTML'
p6377
S"<class 'gluon.html.XHTML'>"
p6378
sS'ON'
p6379
g2141
sS'OL'
p6380
S"<class 'gluon.html.OL'>"
p6381
sS'd'
S'9'
sS'TEXTAREA'
p6382
S"<class 'gluon.html.TEXTAREA'>"
p6383
sS'MENU'
p6384
S"<class 'gluon.html.MENU'>"
p6385
sS'IS_IMAGE'
p6386
S"<class 'gluon.validators.IS_IMAGE'>"
p6387
sS'x'
S'<Rows (1)>'
p6388
sS'EM'
p6389
S"<class 'gluon.html.EM'>"
p6390
sS'CODE'
p6391
S"<class 'gluon.html.CODE'>"
p6392
sS'HTTP'
p6393
S"<class 'gluon.http.HTTP'>"
p6394
sS'HR'
p6395
S"<class 'gluon.html.HR'>"
p6396
sS'IS_DATETIME'
p6397
S"<class 'gluon.validators.IS_DATETIME'>"
p6398
sS'STYLE'
p6399
S"<class 'gluon.html.STYLE'>"
p6400
sS'LABEL'
p6401
S"<class 'gluon.html.LABEL'>"
p6402
sS'CLEANUP'
p6403
S"<class 'gluon.validators.CLEANUP'>"
p6404
sS'plugins'
p6405
S'<gluon.tools.PluginManager object>'
p6406
sS'SELECT'
p6407
S"<class 'gluon.html.SELECT'>"
p6408
sS'er'
p6409
S'<Row {\'category\': None, \'level\': None, \'hsentenc...kewoman said, "This is an old story.\', \'id\': 10}>'
p6410
sS'use_janrain'
p6411
S'<function use_janrain>'
p6412
sS'CENTER'
p6413
S"<class 'gluon.html.CENTER'>"
p6414
sS'prettydate'
p6415
S'<function prettydate>'
p6416
sS'Crud'
p6417
S"<class 'gluon.tools.Crud'>"
p6418
sS'Auth'
p6419
S"<class 'gluon.tools.Auth'>"
p6420
sS'__builtins__'
p6421
S"{'ArithmeticError': <type 'exceptions.ArithmeticError'>, 'AssertionError': <type 'exceptions.AssertionError'>, 'AttributeError': <type 'exceptions.AttributeError'>, 'BaseException': <type 'exceptions.BaseException'>, 'BufferError': <type 'exceptions.BufferError'>, 'BytesWarning': <type 'exceptions.BytesWarning'>, 'DeprecationWarning': <type 'exceptions.DeprecationWarning'>, 'EOFError': <type 'exceptions.EOFError'>, 'Ellipsis': Ellipsis, 'EnvironmentError': <type 'exceptions.EnvironmentError'>, ...}"
p6422
sS'HTML'
p6423
S"<class 'gluon.html.HTML'>"
p6424
sS'SQLFORM'
p6425
S"<class 'gluon.sqlhtml.SQLFORM'>"
p6426
sS'LOAD'
p6427
S'<function LOAD>'
p6428
sS'redirect'
p6429
S'<function redirect>'
p6430
sS'FIELDSET'
p6431
S"<class 'gluon.html.FIELDSET'>"
p6432
sS'IS_EQUAL_TO'
p6433
S"<class 'gluon.validators.IS_EQUAL_TO'>"
p6434
sS'embed64'
p6435
S'<function embed64>'
p6436
sS'IS_LIST_OF'
p6437
S"<class 'gluon.validators.IS_LIST_OF'>"
p6438
sS'INPUT'
p6439
S"<class 'gluon.html.INPUT'>"
p6440
sS'EMBED'
p6441
S"<class 'gluon.html.EMBED'>"
p6442
sS'_'
S'<function _>'
p6443
sS'H2'
p6444
S"<class 'gluon.html.H2'>"
p6445
sS'H3'
p6446
S"<class 'gluon.html.H3'>"
p6447
sS'BUTTON'
p6448
S"<class 'gluon.html.BUTTON'>"
p6449
sS'H1'
p6450
S"<class 'gluon.html.H1'>"
p6451
sS'H6'
p6452
S"<class 'gluon.html.H6'>"
p6453
sS'H4'
p6454
S"<class 'gluon.html.H4'>"
p6455
sS'H5'
p6456
S"<class 'gluon.html.H5'>"
p6457
sS'UL'
p6458
S"<class 'gluon.html.UL'>"
p6459
sS's'
S'[]'
p6460
sS'IS_UPPER'
p6461
S"<class 'gluon.validators.IS_UPPER'>"
p6462
sS'w'
S"'old'"
p6463
sS'xmlescape'
p6464
S'<function xmlescape>'
p6465
sS'IS_TIME'
p6466
S"<class 'gluon.validators.IS_TIME'>"
p6467
sS'OPTION'
p6468
S"<class 'gluon.html.OPTION'>"
p6469
sS'TITLE'
p6470
S"<class 'gluon.html.TITLE'>"
p6471
sS'CRYPT'
p6472
S"<class 'gluon.validators.CRYPT'>"
p6473
sS'IS_EMPTY_OR'
p6474
S"<class 'gluon.validators.IS_EMPTY_OR'>"
p6475
sS'MARKMIN'
p6476
S"<class 'gluon.html.MARKMIN'>"
p6477
sS'__name__'
p6478
S"'__restricted__'"
p6479
sS'STRONG'
p6480
S"<class 'gluon.html.STRONG'>"
p6481
sS'COL'
p6482
S"<class 'gluon.html.COL'>"
p6483
sS'service'
p6484
S'<gluon.tools.Service object>'
p6485
sS'SCRIPT'
p6486
S"<class 'gluon.html.SCRIPT'>"
p6487
sS'TABLE'
p6488
S"<class 'gluon.html.TABLE'>"
p6489
sS'IS_IPV4'
p6490
S"<class 'gluon.validators.IS_IPV4'>"
p6491
sS'IS_LENGTH'
p6492
S"<class 'gluon.validators.IS_LENGTH'>"
p6493
sS'XML'
p6494
S"<class 'gluon.html.XML'>"
p6495
sS'B'
S"<class 'gluon.html.B'>"
p6496
sS'IMG'
p6497
S"<class 'gluon.html.IMG'>"
p6498
sS'SQLTABLE'
p6499
S"<class 'gluon.sqlhtml.SQLTABLE'>"
p6500
sS'IS_MATCH'
p6501
S"<class 'gluon.validators.IS_MATCH'>"
p6502
sS'IS_ALPHANUMERIC'
p6503
S"<class 'gluon.validators.IS_ALPHANUMERIC'>"
p6504
sS'SPAN'
p6505
S"<class 'gluon.html.SPAN'>"
p6506
sS'f'
S"''"
p6507
sS'IS_SLUG'
p6508
S"<class 'gluon.validators.IS_SLUG'>"
p6509
sS'r'
S'<Rows (1)>'
p6510
sS'META'
p6511
S"<class 'gluon.html.META'>"
p6512
sS'IS_DATE'
p6513
S"<class 'gluon.validators.IS_DATE'>"
p6514
sS'IS_EMAIL'
p6515
S"<class 'gluon.validators.IS_EMAIL'>"
p6516
sS'IS_NOT_EMPTY'
p6517
S"<class 'gluon.validators.IS_NOT_EMPTY'>"
p6518
sS'IS_FLOAT_IN_RANGE'
p6519
S"<class 'gluon.validators.IS_FLOAT_IN_RANGE'>"
p6520
sS'BEAUTIFY'
p6521
S"<class 'gluon.html.BEAUTIFY'>"
p6522
sS'TBODY'
p6523
S"<class 'gluon.html.TBODY'>"
p6524
sS'CAT'
p6525
S"<class 'gluon.html.CAT'>"
p6526
sS'Field'
p6527
S"<class 'gluon.dal.Field'>"
p6528
sS'DIV'
p6529
S"<class 'gluon.html.DIV'>"
p6530
sS'LEGEND'
p6531
S"<class 'gluon.html.LEGEND'>"
p6532
sS'COLGROUP'
p6533
S"<class 'gluon.html.COLGROUP'>"
p6534
sS'DAL'
p6535
S"<class 'gluon.dal.DAL'>"
p6536
sS'TT'
p6537
S"<class 'gluon.html.TT'>"
p6538
sS'TR'
p6539
S"<class 'gluon.html.TR'>"
p6540
sS'LI'
p6541
S"<class 'gluon.html.LI'>"
p6542
sS'TH'
p6543
S"<class 'gluon.html.TH'>"
p6544
sS'TD'
p6545
S"<class 'gluon.html.TD'>"
p6546
sS'PluginManager'
p6547
S"<class 'gluon.tools.PluginManager'>"
p6548
sS'IS_URL'
p6549
S"<class 'gluon.validators.IS_URL'>"
p6550
sS'A'
S"<class 'gluon.html.A'>"
p6551
sS'HEAD'
p6552
S"<class 'gluon.html.HEAD'>"
p6553
sS'IS_DATETIME_IN_RANGE'
p6554
S"<class 'gluon.validators.IS_DATETIME_IN_RANGE'>"
p6555
sS'FORM'
p6556
S"<class 'gluon.html.FORM'>"
p6557
sS'I'
S"<class 'gluon.html.I'>"
p6558
sS'crud'
p6559
S'<gluon.tools.Crud object>'
p6560
sS'IS_NOT_IN_DB'
p6561
S"<class 'gluon.validators.IS_NOT_IN_DB'>"
p6562
sg4169
S"<Storage {'body': <cStringIO.StringO object at 0...22d33c>, 'view': 'default/sentence_select.html'}>"
p6563
sS'THEAD'
p6564
S"<class 'gluon.html.THEAD'>"
p6565
sS'IS_NULL_OR'
p6566
S"<class 'gluon.validators.IS_EMPTY_OR'>"
p6567
sS'i'
S"<Row {'sid': '10'}>"
p6568
sg56
S"<Storage {'function': 'sentence_select', 'body':...y/applications/WSD/', 'post_vars': <Storage {}>}>"
p6569
sS'IS_EXPR'
p6570
S"<class 'gluon.validators.IS_EXPR'>"
p6571
sS'T'
S'<gluon.languages.translator object>'
p6572
sS'IS_IN_SET'
p6573
S"<class 'gluon.validators.IS_IN_SET'>"
p6574
sS'IS_UPLOAD_FILENAME'
p6575
S"<class 'gluon.validators.IS_UPLOAD_FILENAME'>"
p6576
sS'level_set'
p6577
S"'1'"
p6578
sS'IS_DECIMAL_IN_RANGE'
p6579
S"<class 'gluon.validators.IS_DECIMAL_IN_RANGE'>"
p6580
sssS'traceback'
p6581
S'Traceback (most recent call last):\n  File "/home/nazrul/web2py/gluon/restricted.py", line 212, in restricted\n    exec ccode in environment\n  File "/home/nazrul/web2py/applications/WSD/views/default/sentence_select.html", line 52, in <module>\n    }\nTypeError: int() argument must be a string or a number, not \'NoneType\'\n'
p6582
s.