(dp1
S'output'
p2
S"<type 'exceptions.TypeError'> int() argument must be a string or a number, not 'NoneType'"
p3
sS'layer'
p4
S'/home/abhinav/Desktop/iiit/web2py/applications/WSD/views/default/sentence_selectc.html'
p5
sS'code'
p6
S'response.write(\'<!DOCTYPE html PUBLIC "-//W3C//DTD XHTML 1.0 Strict//EN" "http://www.w3.org/TR/xhtml1/DTD/xhtml1-strict.dtd">\\n<!--\\n\\nDesign by Free CSS Templates\\nhttp://www.freecsstemplates.org\\nReleased for free under a Creative Commons Attribution 2.5 License\\n\\nTitle      : Interlude\\nVersion    : 1.0\\nReleased   : 20080903\\nDescription: A multi-column, fixed-width design for 800x600 resolutions.\\n\\n-->\\n<html xmlns="http://www.w3.org/1999/xhtml">\\n <head>\\n  <title>\\n   \', escape=False)\nresponse.write(response.title or request.application)\nresponse.write(\'\\n  </title>\\n  \', escape=False)\nresponse.files.append(URL(request.application,\'static\',\'plugin_layouts/layouts/Interlude/default.css\'))\nresponse.write(\'\\n  \', escape=False)\nresponse.files.append(URL(\'static\',\'plugin_layouts/superfish.js\'))\nresponse.write(\'\\n  \', escape=False)\nresponse.write(\'<script type="text/javascript"><!--\\n    // These variables are used by the web2py_ajax_init function in web2py_ajax.js (which is loaded below).\\n    var w2p_ajax_confirm_message = "\', escape=False)\nresponse.write(T(\'Are you sure you want to delete this object?\'))\nresponse.write(\'";\\n    var w2p_ajax_date_format = "\', escape=False)\nresponse.write(T(\'%Y-%m-%d\'))\nresponse.write(\'";\\n    var w2p_ajax_datetime_format = "\', escape=False)\nresponse.write(T(\'%Y-%m-%d %H:%M:%S\'))\nresponse.write(\'";\\n    //--></script>\\n\', escape=False)\nresponse.files.insert(0,URL(\'static\',\'js/jquery.js\'))\nresponse.files.insert(1,URL(\'static\',\'css/calendar.css\'))\nresponse.files.insert(2,URL(\'static\',\'js/calendar.js\'))\nresponse.files.insert(3,URL(\'static\',\'js/web2py.js\'))\nresponse.include_meta()\nresponse.include_files()\nresponse.write(\'\\n\', escape=False)\nresponse.write(\'\\n\\n  <style>\\n<!--ul.web2py-menu-vertical { width: 150px; position: relative; top:1em; left:1em;  z-index:30; border:0; margin:0; padding: 0; list-style: none; text-decoration: none;}\\nul.web2py-menu-vertical li { margin:0; padding:0; border:0; width: 150px; background: black; text-align:left;}\\nul.web2py-menu-vertical li a { margin:0; padding: 1px 3px 1px 3px; border:0; width: 144px; color: white; font-size:12px;}\\n\\ndiv.flash { position: fixed; float: right; padding: 10px; top: 10px; right: 30px; opacity: 0.75; margin: 10px 10px 10px 10px; text-align: center; clear: both; color: #fff; font-size: 11pt; text-align: center; vertical-align: middle; cursor: pointer; background: black; border: 2px solid #fff; -moz-border-radius: 5px; -webkit-border-radius: 5px; z-index: 2; }-->\\n<!--\\ndiv.error { background-color: red; color: white; padding: 3px; }\\n.auth_navbar { text-align:right; z-index:20; position: absolute; top: 2px; right:30px; border:0; padding:0 }-->\\n#basic_login{position:relative;top:230px;right=-2px;}\\n  </style>\\n  \\n </head>\\n <body>\\n  <!-- start header -->\\n  <div id="header">\\n   <div id="logo">\\n    <h1>\\n     \', escape=False)\nresponse.write(response.title or request.application)\nresponse.write(\'\\n    </h1>\\n<!--    <p>\\n     <a href="http://www.freecsstemplates.org/">\\n      Design by Free CSS Templates\\n     </a>\\n    </p>-->\\n   </div>\\n   <!--\\n   <div id="menu">\\n   \\n    \', escape=False)\nresponse.write(MENU(response.menu,_class=\'web2py-menu\'))\nresponse.write(\'\\n   \\n    <script>\\n      jQuery(document).ready(function(){jQuery(\\\'ul.web2py-menu\\\').superfish({delay:400});});\\n    </script>\\n    \\n   </div>\\n   -->\\n   <div id="basic_login">\\n       \', escape=False)\nif auth.user:\n    response.write(\'\\n       <a style="position:relative;left:-370px;text-decoration:none;font-weight:bold"href="\', escape=False)\n    response.write(URL(\'home\'))\n    response.write(\'">HOME</a>\\n       \', escape=False)\n    pass\nresponse.write(\'\\n  <!-- start header -->\\n  \', escape=False)\ntry:\n    response.write(auth.navbar(action=URL(\'default\',\'user\')))\nexcept:pass\nresponse.write(\'\\n</div>\\n\\n\\n\\n\\n  </div>\\n\\n\\n  <hr />\\n\\n  <!-- end header -->\\n  <!-- start page -->\\n  <div id="wrapper">\\n   <div id="page">\\n    <!-- start content -->\\n    <div id="content">\\n<!--     <div class="flash">\', escape=False)\nresponse.write(response.flash or \'\')\nresponse.write(\'</div>-->\\n     \', escape=False)\nresponse.write(\'\\n<style>\\n\\n    .myButton {\\n        \\n        -moz-box-shadow:inset 0px 0px 15px 3px #23395e;\\n        -webkit-box-shadow:inset 0px 0px 15px 3px #23395e;\\n        box-shadow:inset 0px 0px 15px 3px #23395e;\\n        \\n        background:-webkit-gradient(linear, left top, left bottom, color-stop(0.05, #2e466e), color-stop(1, #415989));\\n        background:-moz-linear-gradient(top, #2e466e 5%, #415989 100%);\\n        background:-webkit-linear-gradient(top, #2e466e 5%, #415989 100%);\\n        background:-o-linear-gradient(top, #2e466e 5%, #415989 100%);\\n        background:-ms-linear-gradient(top, #2e466e 5%, #415989 100%);\\n        background:linear-gradient(to bottom, #2e466e 5%, #415989 100%);\\n        filter:progid:DXImageTransform.Microsoft.gradient(startColorstr=\\\'#2e466e\\\', endColorstr=\\\'#415989\\\',GradientType=0);\\n        \\n        background-color:#2e466e;\\n        \\n        -moz-border-radius:17px;\\n        -webkit-border-radius:17px;\\n        border-radius:17px;\\n        \\n        border:1px solid #1f2f47;\\n        \\n        display:inline-block;\\n        color:#ffffff;\\n        font-family:arial;\\n        font-size:15px;\\n        font-weight:normal;\\n        padding:6px 13px;\\n        text-decoration:none;\\n        \\n        text-shadow:0px 1px 0px #263666;\\n        \\n    }\\n    .myButton:hover {\\n        \\n        background:-webkit-gradient(linear, left top, left bottom, color-stop(0.05, #415989), color-stop(1, #2e466e));\\n        background:-moz-linear-gradient(top, #415989 5%, #2e466e 100%);\\n        background:-webkit-linear-gradient(top, #415989 5%, #2e466e 100%);\\n        background:-o-linear-gradient(top, #415989 5%, #2e466e 100%);\\n        background:-ms-linear-gradient(top, #415989 5%, #2e466e 100%);\\n        background:linear-gradient(to bottom, #415989 5%, #2e466e 100%);\\n        filter:progid:DXImageTransform.Microsoft.gradient(startColorstr=\\\'#415989\\\', endColorstr=\\\'#2e466e\\\',GradientType=0);\\n        \\n        background-color:#415989;\\n    }\\n    .myButton:active {\\n        position:relative;\\n        top:1px;\\n    }\\n\\n</style>\\n<br/><br/><br/>\\n<div  style="font-weight:bold;font-size:15px">Selected Word: &nbsp;&nbsp;<input type=\\\'text\\\' value="\', escape=False)\nresponse.write(w)\nresponse.write(\'"><br></div>\\n\', escape=False)\ns = []\nresponse.write(\'\\n\', escape=False)\nr = db(db.links.wid==int(d)).select(db.links.sid)\nresponse.write(\'\\n\', escape=False)\nfor i in r:\n    response.write(\'\\n\', escape=False)\n    x =db(db.sentences.id==i.sid).select()\n    response.write(\'\\n\', escape=False)\n    for j in x:\n        response.write(\'\\n\', escape=False)\n        if j.hsentence and int(level_set)==int(j.level):\n            response.write(\'\\n\', escape=False)\n            s.append(j.esentence)\n            response.write(\'\\n\', escape=False)\n            pass\n        response.write(\'\\n\', escape=False)\n        pass\n    response.write(\'\\n\', escape=False)\n    pass\nresponse.write(\'\\n<br>\\n\', escape=False)\nif s:\n    response.write(\'\\n<form method="POST">\\n    <div  style="font-weight:bold;font-size:15px" >Select Sentence: &nbsp;&nbsp;\\n<select name="sentence">\\n\', escape=False)\n    for i in s:\n        response.write(\'\\n<option value="\', escape=False)\n        response.write(i)\n        response.write(\'">\', escape=False)\n        response.write(i)\n        response.write(\'</option>\\n\', escape=False)\n        pass\n    response.write(\'\\n        </select><br></div>\\n<br><br>\\n\\n    <input class="myButton" style="font-weight:bold;position:relative;left:250px;top:0px" type="submit" name="submit" value="next"><br><br>\\n\', escape=False)\nelse:\n    response.write(\'\\n\', escape=False)\n    redirect(\'word_select\')\n    response.write(\'\\n\', escape=False)\n    pass\nresponse.write(\'\\n\', escape=False)\nresponse.write(\'\\n     <br />\\n     <br />\\n     <br />\\n     <br />\\n     <br />\\n     <br />\\n     <br />\\n     <br />\\n    </div>\\n    <!-- end content -->\\n    <!-- start sidebar -->\\n<!--    <div id="sidebar">\\n     <ul>\\n      <li id="categories">\\n       <h2>\\n        Categories\\n       </h2>\\n       <ul>\\n        <li>\\n         <a href="#">\\n          Lorem Ipsum\\n         </a>\\n         (1)\\n        </li>\\n        <li>\\n         <a href="#">\\n          Uncategorized\\n         </a>\\n         (4)\\n        </li>\\n        <li>\\n         <a href="#">\\n          Nulla luctus eleifend\\n         </a>\\n         (1)\\n        </li>\\n        <li>\\n         <a href="#">\\n          Pellentesque tempus\\n         </a>\\n         (4)\\n        </li>\\n        <li>\\n         <a href="#">\\n          Donec dictum metus\\n         </a>\\n         (1)\\n        </li>\\n        <li>\\n         <a href="#">\\n          Etiam posuere augue\\n         </a>\\n         (4)\\n        </li>\\n       </ul>\\n      </li>\\n      <li id="calendar">\\n       <h2>\\n        Calendar\\n       </h2>\\n       <div id="calendar_wrap">\\n        <table id="wp-calendar" summary="Calendar">\\n         <caption>\\n          September 2008\\n         </caption>\\n         <thead>\\n          <tr>\\n           <th abbr="Monday" scope="col" title="Monday">\\n            M\\n           </th>\\n           <th abbr="Tuesday" scope="col" title="Tuesday">\\n            T\\n           </th>\\n           <th abbr="Wednesday" scope="col" title="Wednesday">\\n            W\\n           </th>\\n           <th abbr="Thursday" scope="col" title="Thursday">\\n            T\\n           </th>\\n           <th abbr="Friday" scope="col" title="Friday">\\n            F\\n           </th>\\n           <th abbr="Saturday" scope="col" title="Saturday">\\n            S\\n           </th>\\n           <th abbr="Sunday" scope="col" title="Sunday">\\n            S\\n           </th>\\n          </tr>\\n         </thead>\\n         <tfoot>\\n          <tr>\\n           <td abbr="July" colspan="3" id="prev">\\n            <a href="#">\\n             &laquo; Jul\\n            </a>\\n           </td>\\n           <td class="pad">\\n            &nbsp;\\n           </td>\\n           <td abbr="September" colspan="3" id="next" class="pad">\\n            <a href="#">\\n             Sep &raquo;\\n            </a>\\n           </td>\\n          </tr>\\n         </tfoot>\\n         <tbody>\\n          <tr>\\n           <td colspan="2" class="pad">\\n            &nbsp;\\n           </td>\\n           <td>\\n            1\\n           </td>\\n           <td>\\n            2\\n           </td>\\n           <td>\\n            3\\n           </td>\\n           <td>\\n            4\\n           </td>\\n           <td>\\n            5\\n           </td>\\n          </tr>\\n          <tr>\\n           <td>\\n            6\\n           </td>\\n           <td>\\n            7\\n           </td>\\n           <td>\\n            8\\n           </td>\\n           <td>\\n            9\\n           </td>\\n           <td>\\n            10\\n           </td>\\n           <td>\\n            11\\n           </td>\\n           <td>\\n            12\\n           </td>\\n          </tr>\\n          <tr>\\n           <td>\\n            13\\n           </td>\\n           <td>\\n            14\\n           </td>\\n           <td>\\n            15\\n           </td>\\n           <td>\\n            16\\n           </td>\\n           <td>\\n            17\\n           </td>\\n           <td>\\n            18\\n           </td>\\n           <td>\\n            19\\n           </td>\\n          </tr>\\n          <tr>\\n           <td>\\n            20\\n           </td>\\n           <td id="today">\\n            21\\n           </td>\\n           <td>\\n            22\\n           </td>\\n           <td>\\n            23\\n           </td>\\n           <td>\\n            24\\n           </td>\\n           <td>\\n            25\\n           </td>\\n           <td>\\n            26\\n           </td>\\n          </tr>\\n          <tr>\\n           <td>\\n            27\\n           </td>\\n           <td>\\n            28\\n           </td>\\n           <td>\\n            29\\n           </td>\\n           <td>\\n            30\\n           </td>\\n           <td>\\n            31\\n           </td>\\n           <td class="pad" colspan="2">\\n            &nbsp;\\n           </td>\\n          </tr>\\n         </tbody>\\n        </table>\\n       </div>\\n      </li>\\n      <li>\\n       <h2>\\n        Lorem Ipsum Dolor\\n       </h2>\\n       <ul>\\n        <li>\\n         <a href="#">\\n          Nulla luctus eleifend purus\\n         </a>\\n        </li>\\n        <li>\\n         <a href="#">\\n          Praesent scelerisque scelerisque erat\\n         </a>\\n        </li>\\n        <li>\\n         <a href="#">\\n          Ut nonummy rutrum sem\\n         </a>\\n        </li>\\n        <li>\\n         <a href="#">\\n          Pellentesque tempus quam quis nulla\\n         </a>\\n        </li>\\n        <li>\\n         <a href="#">\\n          Fusce ultrices fringilla metus\\n         </a>\\n        </li>\\n        <li>\\n         <a href="#">\\n          Praesent mattis condimentum nisl\\n         </a>\\n        </li>\\n       </ul>\\n      </li>\\n     </ul>\\n    </div>-->\\n    <!-- end sidebar -->\\n    <br style="clear: both;" />\\n   </div>\\n  </div>\\n  <!-- end page -->\\n  <!-- start footer -->\\n  <div id="wrapper2">\\n    \\n\\n   <div id="footer">\\n<!--\\n    <ul>\\n     <li class="first">\\n      <h2>\\n       Mauris vulputate dolor\\n      </h2>\\n      <ul>\\n       <li>\\n        <a href="#">\\n         Nulla luctus eleifend purus\\n        </a>\\n       </li>\\n       <li>\\n        <a href="#">\\n         Praesent scelerisque scelerisque erat\\n        </a>\\n       </li>\\n       <li>\\n        <a href="#">\\n         Ut nonummy rutrum sem\\n        </a>\\n       </li>\\n       <li>\\n        <a href="#">\\n         Pellentesque tempus quam quis nulla\\n        </a>\\n       </li>\\n       <li>\\n        <a href="#">\\n         Fusce ultrices fringilla metus\\n        </a>\\n       </li>\\n       <li>\\n        <a href="#">\\n         Praesent mattis condimentum nisl\\n        </a>\\n       </li>\\n      </ul>\\n     </li>\\n     <li>\\n      <h2>\\n       Praesent scelerisque sceler\\n      </h2>\\n      <ul>\\n       <li>\\n        <a href="#">\\n         Nulla luctus eleifend purus\\n        </a>\\n       </li>\\n       <li>\\n        <a href="#">\\n         Praesent scelerisque scelerisque erat\\n        </a>\\n       </li>\\n       <li>\\n        <a href="#">\\n         Ut nonummy rutrum sem\\n        </a>\\n       </li>\\n       <li>\\n        <a href="#">\\n         Pellentesque tempus quam quis nulla\\n        </a>\\n       </li>\\n       <li>\\n        <a href="#">\\n         Fusce ultrices fringilla metus\\n        </a>\\n       </li>\\n       <li>\\n        <a href="#">\\n         Praesent mattis condimentum nisl\\n        </a>\\n       </li>\\n      </ul>\\n     </li>\\n     <li>\\n      <h2>\\n       Fusce ultrices fringilla\\n      </h2>\\n      <ul>\\n       <li>\\n        <a href="#">\\n         Nulla luctus eleifend purus\\n        </a>\\n       </li>\\n       <li>\\n        <a href="#">\\n         Praesent scelerisque scelerisque erat\\n        </a>\\n       </li>\\n       <li>\\n        <a href="#">\\n         Ut nonummy rutrum sem\\n        </a>\\n       </li>\\n       <li>\\n        <a href="#">\\n         Pellentesque tempus quam quis nulla\\n        </a>\\n       </li>\\n       <li>\\n        <a href="#">\\n         Fusce ultrices fringilla metus\\n        </a>\\n       </li>\\n       <li>\\n        <a href="#">\\n         Praesent mattis condimentum nisl\\n        </a>\\n       </li>\\n      </ul>\\n     </li>\\n    </ul>\\n    -->\\n   </div>\\n   \\n   <p id="legal">\\n     &bull;&nbsp;&nbsp;\\n    &copy;2013 All Rights Reserved\\n\\t\\t&nbsp;&nbsp;&bull;&nbsp;&nbsp;\\n\\t\\tDesign by :\\n    Abhinav Pandey, Ankit Kotak, Nazrul Haque Athar, Anubhav Srivastava, Jayanth Katuri\\n    &nbsp;&nbsp;&bull;&nbsp;&nbsp;\\n    <!--\\n\\t\\tIcons by\\n    <a href="http://famfamfam.com/">\\n     FAMFAMFAM\\n    </a>\\n    .\\n    <a href="http://validator.w3.org/check/referer" class="xhtml" title="This page validates as XHTML">\\n     Valid\\n     <abbr title="eXtensible HyperText Markup Language">\\n      XHTML\\n     </abbr>\\n    </a>\\n    &nbsp;&nbsp;&bull;&nbsp;&nbsp;\\n    <a href="http://jigsaw.w3.org/css-validator/check/referer" class="css" title="This page validates as CSS">\\n     Valid\\n     <abbr title="Cascading Style Sheets">\\n      CSS\\n     </abbr>\\n    </a>-->\\n   </p>\\n  </div>\\n  <!-- end footer -->\\n </body>\\n</html>\\n\', escape=False)'
p7
sS'snapshot'
p8
(dp9
S'exception'
p10
(dp11
S'__hash__'
p12
S"<method-wrapper '__hash__' of exceptions.TypeError object>"
p13
sS'__setattr__'
p14
S"<method-wrapper '__setattr__' of exceptions.TypeError object>"
p15
sS'__reduce_ex__'
p16
S'<built-in method __reduce_ex__ of exceptions.TypeError object>'
p17
sS'__getslice__'
p18
S"<method-wrapper '__getslice__' of exceptions.TypeError object>"
p19
sS'__getitem__'
p20
S"<method-wrapper '__getitem__' of exceptions.TypeError object>"
p21
sS'__setstate__'
p22
S'<built-in method __setstate__ of exceptions.TypeError object>'
p23
sS'__reduce__'
p24
S'<built-in method __reduce__ of exceptions.TypeError object>'
p25
sS'__str__'
p26
S"<method-wrapper '__str__' of exceptions.TypeError object>"
p27
sS'__format__'
p28
S'<built-in method __format__ of exceptions.TypeError object>'
p29
sS'__getattribute__'
p30
S"<method-wrapper '__getattribute__' of exceptions.TypeError object>"
p31
sS'__class__'
p32
S"<type 'exceptions.TypeError'>"
p33
sS'__unicode__'
p34
S'<built-in method __unicode__ of exceptions.TypeError object>'
p35
sS'__delattr__'
p36
S"<method-wrapper '__delattr__' of exceptions.TypeError object>"
p37
sS'__subclasshook__'
p38
S'<built-in method __subclasshook__ of type object>'
p39
sS'__repr__'
p40
S"<method-wrapper '__repr__' of exceptions.TypeError object>"
p41
sS'args'
p42
S'("int() argument must be a string or a number, not \'NoneType\'",)'
p43
sS'__dict__'
p44
S'{}'
p45
sS'__sizeof__'
p46
S'<built-in method __sizeof__ of exceptions.TypeError object>'
p47
sS'__doc__'
p48
S"'Inappropriate argument type.'"
p49
sS'__init__'
p50
S"<method-wrapper '__init__' of exceptions.TypeError object>"
p51
sS'__new__'
p52
S'<built-in method __new__ of type object>'
p53
ssS'evalue'
p54
S"int() argument must be a string or a number, not 'NoneType'"
p55
sS'request'
p56
ccopy_reg
_reconstructor
p57
(cgluon.html
BEAUTIFY
p58
c__builtin__
object
p59
NtRp60
(dp61
S'attributes'
p62
(dp63
sS'components'
p64
(lp65
g57
(cgluon.html
TABLE
p66
g59
NtRp67
(dp68
g62
(dp69
S'level'
p70
I5
ssS'parent'
p71
Nsg64
(lp72
g57
(cgluon.html
TR
p73
g59
NtRp74
(dp75
g62
(dp76
sg71
g67
sg64
(lp77
g57
(cgluon.html
TD
p78
g59
NtRp79
(dp80
g62
(dp81
S'_style'
p82
S'font-weight:bold;vertical-align:top'
p83
ssg71
g74
sg64
(lp84
S'ajax'
p85
asbag57
(g78
g59
NtRp86
(dp87
g62
(dp88
S'_valign'
p89
S'top'
p90
ssg71
g74
sg64
(lp91
S':'
asbag57
(g78
g59
NtRp92
(dp93
g62
(dp94
sg71
g74
sg64
(lp95
g57
(g58
g59
NtRp96
(dp97
g62
(dp98
g70
I5
ssg71
g92
sg64
(lp99
S'False'
p100
asbasbasbag57
(g73
g59
NtRp101
(dp102
g62
(dp103
sg71
g67
sg64
(lp104
g57
(g78
g59
NtRp105
(dp106
g62
(dp107
g82
g83
ssg71
g101
sg64
(lp108
S'application'
p109
asbag57
(g78
g59
NtRp110
(dp111
g62
(dp112
g89
g90
ssg71
g101
sg64
(lp113
S':'
asbag57
(g78
g59
NtRp114
(dp115
g62
(dp116
sg71
g101
sg64
(lp117
g57
(g58
g59
NtRp118
(dp119
g62
(dp120
g70
I5
ssg71
g114
sg64
(lp121
S'WSD'
p122
asbasbasbag57
(g73
g59
NtRp123
(dp124
g62
(dp125
sg71
g67
sg64
(lp126
g57
(g78
g59
NtRp127
(dp128
g62
(dp129
g82
g83
ssg71
g123
sg64
(lp130
g42
asbag57
(g78
g59
NtRp131
(dp132
g62
(dp133
g89
g90
ssg71
g123
sg64
(lp134
S':'
asbag57
(g78
g59
NtRp135
(dp136
g62
(dp137
sg71
g123
sg64
(lp138
g57
(g58
g59
NtRp139
(dp140
g62
(dp141
g70
I5
ssg71
g135
sg64
(lp142
g57
(g66
g59
NtRp143
(dp144
g62
(dp145
g70
I4
ssg71
Nsg64
(lp146
sbasbasbasbag57
(g73
g59
NtRp147
(dp148
g62
(dp149
sg71
g67
sg64
(lp150
g57
(g78
g59
NtRp151
(dp152
g62
(dp153
g82
g83
ssg71
g147
sg64
(lp154
S'body'
p155
asbag57
(g78
g59
NtRp156
(dp157
g62
(dp158
g89
g90
ssg71
g147
sg64
(lp159
S':'
asbag57
(g78
g59
NtRp160
(dp161
g62
(dp162
sg71
g147
sg64
(lp163
g57
(g58
g59
NtRp164
(dp165
g62
(dp166
g70
I5
ssg71
g160
sg64
(lp167
S'<cStringIO.StringO object at 0x91aa6c0>'
p168
asbasbasbag57
(g73
g59
NtRp169
(dp170
g62
(dp171
sg71
g67
sg64
(lp172
g57
(g78
g59
NtRp173
(dp174
g62
(dp175
g82
g83
ssg71
g169
sg64
(lp176
S'cid'
p177
asbag57
(g78
g59
NtRp178
(dp179
g62
(dp180
g89
g90
ssg71
g169
sg64
(lp181
S':'
asbag57
(g78
g59
NtRp182
(dp183
g62
(dp184
sg71
g169
sg64
(lp185
g57
(g58
g59
NtRp186
(dp187
g62
(dp188
g70
I5
ssg71
g182
sg64
(lp189
S'None'
p190
asbasbasbag57
(g73
g59
NtRp191
(dp192
g62
(dp193
sg71
g67
sg64
(lp194
g57
(g78
g59
NtRp195
(dp196
g62
(dp197
g82
g83
ssg71
g191
sg64
(lp198
S'client'
p199
asbag57
(g78
g59
NtRp200
(dp201
g62
(dp202
g89
g90
ssg71
g191
sg64
(lp203
S':'
asbag57
(g78
g59
NtRp204
(dp205
g62
(dp206
sg71
g191
sg64
(lp207
g57
(g58
g59
NtRp208
(dp209
g62
(dp210
g70
I5
ssg71
g204
sg64
(lp211
S'127.0.0.1'
p212
asbasbasbag57
(g73
g59
NtRp213
(dp214
g62
(dp215
sg71
g67
sg64
(lp216
g57
(g78
g59
NtRp217
(dp218
g62
(dp219
g82
g83
ssg71
g213
sg64
(lp220
S'controller'
p221
asbag57
(g78
g59
NtRp222
(dp223
g62
(dp224
g89
g90
ssg71
g213
sg64
(lp225
S':'
asbag57
(g78
g59
NtRp226
(dp227
g62
(dp228
sg71
g213
sg64
(lp229
g57
(g58
g59
NtRp230
(dp231
g62
(dp232
g70
I5
ssg71
g226
sg64
(lp233
S'default'
p234
asbasbasbag57
(g73
g59
NtRp235
(dp236
g62
(dp237
sg71
g67
sg64
(lp238
g57
(g78
g59
NtRp239
(dp240
g62
(dp241
g82
g83
ssg71
g235
sg64
(lp242
S'cookies'
p243
asbag57
(g78
g59
NtRp244
(dp245
g62
(dp246
g89
g90
ssg71
g235
sg64
(lp247
S':'
asbag57
(g78
g59
NtRp248
(dp249
g62
(dp250
sg71
g235
sg64
(lp251
g57
(g58
g59
NtRp252
(dp253
g62
(dp254
g70
I5
ssg71
g248
sg64
(lp255
g57
(g66
g59
NtRp256
(dp257
g62
(dp258
g70
I4
ssg71
Nsg64
(lp259
g57
(g73
g59
NtRp260
(dp261
g62
(dp262
sg71
g256
sg64
(lp263
g57
(g78
g59
NtRp264
(dp265
g62
(dp266
g82
g83
ssg71
g260
sg64
(lp267
S'session_id_admin'
p268
asbag57
(g78
g59
NtRp269
(dp270
g62
(dp271
g89
g90
ssg71
g260
sg64
(lp272
S':'
asbag57
(g78
g59
NtRp273
(dp274
g62
(dp275
sg71
g260
sg64
(lp276
g57
(g58
g59
NtRp277
(dp278
g62
(dp279
g70
I4
ssg71
g273
sg64
(lp280
S'127.0.0.1-db70cc2c-34a4-435d-8f25-ddbc8f6ad95d'
p281
ag57
(g66
g59
NtRp282
(dp283
g62
(dp284
g70
I3
ssg71
Nsg64
(lp285
g57
(g73
g59
NtRp286
(dp287
g62
(dp288
sg71
g282
sg64
(lp289
g57
(g78
g59
NtRp290
(dp291
g62
(dp292
g82
g83
ssg71
g286
sg64
(lp293
S'comment'
p294
asbag57
(g78
g59
NtRp295
(dp296
g62
(dp297
g89
g90
ssg71
g286
sg64
(lp298
S':'
asbag57
(g78
g59
NtRp299
(dp300
g62
(dp301
sg71
g286
sg64
(lp302
g57
(g58
g59
NtRp303
(dp304
g62
(dp305
g70
I3
ssg71
g299
sg64
(lp306
S''
asbasbasbag57
(g73
g59
NtRp307
(dp308
g62
(dp309
sg71
g282
sg64
(lp310
g57
(g78
g59
NtRp311
(dp312
g62
(dp313
g82
g83
ssg71
g307
sg64
(lp314
S'domain'
p315
asbag57
(g78
g59
NtRp316
(dp317
g62
(dp318
g89
g90
ssg71
g307
sg64
(lp319
S':'
asbag57
(g78
g59
NtRp320
(dp321
g62
(dp322
sg71
g307
sg64
(lp323
g57
(g58
g59
NtRp324
(dp325
g62
(dp326
g70
I3
ssg71
g320
sg64
(lp327
S''
asbasbasbag57
(g73
g59
NtRp328
(dp329
g62
(dp330
sg71
g282
sg64
(lp331
g57
(g78
g59
NtRp332
(dp333
g62
(dp334
g82
g83
ssg71
g328
sg64
(lp335
S'expires'
p336
asbag57
(g78
g59
NtRp337
(dp338
g62
(dp339
g89
g90
ssg71
g328
sg64
(lp340
S':'
asbag57
(g78
g59
NtRp341
(dp342
g62
(dp343
sg71
g328
sg64
(lp344
g57
(g58
g59
NtRp345
(dp346
g62
(dp347
g70
I3
ssg71
g341
sg64
(lp348
S''
asbasbasbag57
(g73
g59
NtRp349
(dp350
g62
(dp351
sg71
g282
sg64
(lp352
g57
(g78
g59
NtRp353
(dp354
g62
(dp355
g82
g83
ssg71
g349
sg64
(lp356
S'httponly'
p357
asbag57
(g78
g59
NtRp358
(dp359
g62
(dp360
g89
g90
ssg71
g349
sg64
(lp361
S':'
asbag57
(g78
g59
NtRp362
(dp363
g62
(dp364
sg71
g349
sg64
(lp365
g57
(g58
g59
NtRp366
(dp367
g62
(dp368
g70
I3
ssg71
g362
sg64
(lp369
S''
asbasbasbag57
(g73
g59
NtRp370
(dp371
g62
(dp372
sg71
g282
sg64
(lp373
g57
(g78
g59
NtRp374
(dp375
g62
(dp376
g82
g83
ssg71
g370
sg64
(lp377
S'max-age'
p378
asbag57
(g78
g59
NtRp379
(dp380
g62
(dp381
g89
g90
ssg71
g370
sg64
(lp382
S':'
asbag57
(g78
g59
NtRp383
(dp384
g62
(dp385
sg71
g370
sg64
(lp386
g57
(g58
g59
NtRp387
(dp388
g62
(dp389
g70
I3
ssg71
g383
sg64
(lp390
S''
asbasbasbag57
(g73
g59
NtRp391
(dp392
g62
(dp393
sg71
g282
sg64
(lp394
g57
(g78
g59
NtRp395
(dp396
g62
(dp397
g82
g83
ssg71
g391
sg64
(lp398
S'path'
p399
asbag57
(g78
g59
NtRp400
(dp401
g62
(dp402
g89
g90
ssg71
g391
sg64
(lp403
S':'
asbag57
(g78
g59
NtRp404
(dp405
g62
(dp406
sg71
g391
sg64
(lp407
g57
(g58
g59
NtRp408
(dp409
g62
(dp410
g70
I3
ssg71
g404
sg64
(lp411
S''
asbasbasbag57
(g73
g59
NtRp412
(dp413
g62
(dp414
sg71
g282
sg64
(lp415
g57
(g78
g59
NtRp416
(dp417
g62
(dp418
g82
g83
ssg71
g412
sg64
(lp419
S'secure'
p420
asbag57
(g78
g59
NtRp421
(dp422
g62
(dp423
g89
g90
ssg71
g412
sg64
(lp424
S':'
asbag57
(g78
g59
NtRp425
(dp426
g62
(dp427
sg71
g412
sg64
(lp428
g57
(g58
g59
NtRp429
(dp430
g62
(dp431
g70
I3
ssg71
g425
sg64
(lp432
S''
asbasbasbag57
(g73
g59
NtRp433
(dp434
g62
(dp435
sg71
g282
sg64
(lp436
g57
(g78
g59
NtRp437
(dp438
g62
(dp439
g82
g83
ssg71
g433
sg64
(lp440
S'version'
p441
asbag57
(g78
g59
NtRp442
(dp443
g62
(dp444
g89
g90
ssg71
g433
sg64
(lp445
S':'
asbag57
(g78
g59
NtRp446
(dp447
g62
(dp448
sg71
g433
sg64
(lp449
g57
(g58
g59
NtRp450
(dp451
g62
(dp452
g70
I3
ssg71
g446
sg64
(lp453
S''
asbasbasbasbasbasbasbag57
(g73
g59
NtRp454
(dp455
g62
(dp456
sg71
g256
sg64
(lp457
g57
(g78
g59
NtRp458
(dp459
g62
(dp460
g82
g83
ssg71
g454
sg64
(lp461
S'session_id_welcome'
p462
asbag57
(g78
g59
NtRp463
(dp464
g62
(dp465
g89
g90
ssg71
g454
sg64
(lp466
S':'
asbag57
(g78
g59
NtRp467
(dp468
g62
(dp469
sg71
g454
sg64
(lp470
g57
(g58
g59
NtRp471
(dp472
g62
(dp473
g70
I4
ssg71
g467
sg64
(lp474
S'127.0.0.1-a42ae726-a54d-4507-8ade-486bc6807151'
p475
ag57
(g66
g59
NtRp476
(dp477
g62
(dp478
g70
I3
ssg71
Nsg64
(lp479
g57
(g73
g59
NtRp480
(dp481
g62
(dp482
sg71
g476
sg64
(lp483
g57
(g78
g59
NtRp484
(dp485
g62
(dp486
g82
g83
ssg71
g480
sg64
(lp487
g294
asbag57
(g78
g59
NtRp488
(dp489
g62
(dp490
g89
g90
ssg71
g480
sg64
(lp491
S':'
asbag57
(g78
g59
NtRp492
(dp493
g62
(dp494
sg71
g480
sg64
(lp495
g57
(g58
g59
NtRp496
(dp497
g62
(dp498
g70
I3
ssg71
g492
sg64
(lp499
S''
asbasbasbag57
(g73
g59
NtRp500
(dp501
g62
(dp502
sg71
g476
sg64
(lp503
g57
(g78
g59
NtRp504
(dp505
g62
(dp506
g82
g83
ssg71
g500
sg64
(lp507
g315
asbag57
(g78
g59
NtRp508
(dp509
g62
(dp510
g89
g90
ssg71
g500
sg64
(lp511
S':'
asbag57
(g78
g59
NtRp512
(dp513
g62
(dp514
sg71
g500
sg64
(lp515
g57
(g58
g59
NtRp516
(dp517
g62
(dp518
g70
I3
ssg71
g512
sg64
(lp519
S''
asbasbasbag57
(g73
g59
NtRp520
(dp521
g62
(dp522
sg71
g476
sg64
(lp523
g57
(g78
g59
NtRp524
(dp525
g62
(dp526
g82
g83
ssg71
g520
sg64
(lp527
g336
asbag57
(g78
g59
NtRp528
(dp529
g62
(dp530
g89
g90
ssg71
g520
sg64
(lp531
S':'
asbag57
(g78
g59
NtRp532
(dp533
g62
(dp534
sg71
g520
sg64
(lp535
g57
(g58
g59
NtRp536
(dp537
g62
(dp538
g70
I3
ssg71
g532
sg64
(lp539
S''
asbasbasbag57
(g73
g59
NtRp540
(dp541
g62
(dp542
sg71
g476
sg64
(lp543
g57
(g78
g59
NtRp544
(dp545
g62
(dp546
g82
g83
ssg71
g540
sg64
(lp547
g357
asbag57
(g78
g59
NtRp548
(dp549
g62
(dp550
g89
g90
ssg71
g540
sg64
(lp551
S':'
asbag57
(g78
g59
NtRp552
(dp553
g62
(dp554
sg71
g540
sg64
(lp555
g57
(g58
g59
NtRp556
(dp557
g62
(dp558
g70
I3
ssg71
g552
sg64
(lp559
S''
asbasbasbag57
(g73
g59
NtRp560
(dp561
g62
(dp562
sg71
g476
sg64
(lp563
g57
(g78
g59
NtRp564
(dp565
g62
(dp566
g82
g83
ssg71
g560
sg64
(lp567
g378
asbag57
(g78
g59
NtRp568
(dp569
g62
(dp570
g89
g90
ssg71
g560
sg64
(lp571
S':'
asbag57
(g78
g59
NtRp572
(dp573
g62
(dp574
sg71
g560
sg64
(lp575
g57
(g58
g59
NtRp576
(dp577
g62
(dp578
g70
I3
ssg71
g572
sg64
(lp579
S''
asbasbasbag57
(g73
g59
NtRp580
(dp581
g62
(dp582
sg71
g476
sg64
(lp583
g57
(g78
g59
NtRp584
(dp585
g62
(dp586
g82
g83
ssg71
g580
sg64
(lp587
g399
asbag57
(g78
g59
NtRp588
(dp589
g62
(dp590
g89
g90
ssg71
g580
sg64
(lp591
S':'
asbag57
(g78
g59
NtRp592
(dp593
g62
(dp594
sg71
g580
sg64
(lp595
g57
(g58
g59
NtRp596
(dp597
g62
(dp598
g70
I3
ssg71
g592
sg64
(lp599
S''
asbasbasbag57
(g73
g59
NtRp600
(dp601
g62
(dp602
sg71
g476
sg64
(lp603
g57
(g78
g59
NtRp604
(dp605
g62
(dp606
g82
g83
ssg71
g600
sg64
(lp607
g420
asbag57
(g78
g59
NtRp608
(dp609
g62
(dp610
g89
g90
ssg71
g600
sg64
(lp611
S':'
asbag57
(g78
g59
NtRp612
(dp613
g62
(dp614
sg71
g600
sg64
(lp615
g57
(g58
g59
NtRp616
(dp617
g62
(dp618
g70
I3
ssg71
g612
sg64
(lp619
S''
asbasbasbag57
(g73
g59
NtRp620
(dp621
g62
(dp622
sg71
g476
sg64
(lp623
g57
(g78
g59
NtRp624
(dp625
g62
(dp626
g82
g83
ssg71
g620
sg64
(lp627
g441
asbag57
(g78
g59
NtRp628
(dp629
g62
(dp630
g89
g90
ssg71
g620
sg64
(lp631
S':'
asbag57
(g78
g59
NtRp632
(dp633
g62
(dp634
sg71
g620
sg64
(lp635
g57
(g58
g59
NtRp636
(dp637
g62
(dp638
g70
I3
ssg71
g632
sg64
(lp639
S''
asbasbasbasbasbasbasbag57
(g73
g59
NtRp640
(dp641
g62
(dp642
sg71
g256
sg64
(lp643
g57
(g78
g59
NtRp644
(dp645
g62
(dp646
g82
g83
ssg71
g640
sg64
(lp647
S'session_id_wsd'
p648
asbag57
(g78
g59
NtRp649
(dp650
g62
(dp651
g89
g90
ssg71
g640
sg64
(lp652
S':'
asbag57
(g78
g59
NtRp653
(dp654
g62
(dp655
sg71
g640
sg64
(lp656
g57
(g58
g59
NtRp657
(dp658
g62
(dp659
g70
I4
ssg71
g653
sg64
(lp660
S'127.0.0.1-d5f14651-a801-400e-9d5f-efe41af2210b'
p661
ag57
(g66
g59
NtRp662
(dp663
g62
(dp664
g70
I3
ssg71
Nsg64
(lp665
g57
(g73
g59
NtRp666
(dp667
g62
(dp668
sg71
g662
sg64
(lp669
g57
(g78
g59
NtRp670
(dp671
g62
(dp672
g82
g83
ssg71
g666
sg64
(lp673
g294
asbag57
(g78
g59
NtRp674
(dp675
g62
(dp676
g89
g90
ssg71
g666
sg64
(lp677
S':'
asbag57
(g78
g59
NtRp678
(dp679
g62
(dp680
sg71
g666
sg64
(lp681
g57
(g58
g59
NtRp682
(dp683
g62
(dp684
g70
I3
ssg71
g678
sg64
(lp685
S''
asbasbasbag57
(g73
g59
NtRp686
(dp687
g62
(dp688
sg71
g662
sg64
(lp689
g57
(g78
g59
NtRp690
(dp691
g62
(dp692
g82
g83
ssg71
g686
sg64
(lp693
g315
asbag57
(g78
g59
NtRp694
(dp695
g62
(dp696
g89
g90
ssg71
g686
sg64
(lp697
S':'
asbag57
(g78
g59
NtRp698
(dp699
g62
(dp700
sg71
g686
sg64
(lp701
g57
(g58
g59
NtRp702
(dp703
g62
(dp704
g70
I3
ssg71
g698
sg64
(lp705
S''
asbasbasbag57
(g73
g59
NtRp706
(dp707
g62
(dp708
sg71
g662
sg64
(lp709
g57
(g78
g59
NtRp710
(dp711
g62
(dp712
g82
g83
ssg71
g706
sg64
(lp713
g336
asbag57
(g78
g59
NtRp714
(dp715
g62
(dp716
g89
g90
ssg71
g706
sg64
(lp717
S':'
asbag57
(g78
g59
NtRp718
(dp719
g62
(dp720
sg71
g706
sg64
(lp721
g57
(g58
g59
NtRp722
(dp723
g62
(dp724
g70
I3
ssg71
g718
sg64
(lp725
S''
asbasbasbag57
(g73
g59
NtRp726
(dp727
g62
(dp728
sg71
g662
sg64
(lp729
g57
(g78
g59
NtRp730
(dp731
g62
(dp732
g82
g83
ssg71
g726
sg64
(lp733
g357
asbag57
(g78
g59
NtRp734
(dp735
g62
(dp736
g89
g90
ssg71
g726
sg64
(lp737
S':'
asbag57
(g78
g59
NtRp738
(dp739
g62
(dp740
sg71
g726
sg64
(lp741
g57
(g58
g59
NtRp742
(dp743
g62
(dp744
g70
I3
ssg71
g738
sg64
(lp745
S''
asbasbasbag57
(g73
g59
NtRp746
(dp747
g62
(dp748
sg71
g662
sg64
(lp749
g57
(g78
g59
NtRp750
(dp751
g62
(dp752
g82
g83
ssg71
g746
sg64
(lp753
g378
asbag57
(g78
g59
NtRp754
(dp755
g62
(dp756
g89
g90
ssg71
g746
sg64
(lp757
S':'
asbag57
(g78
g59
NtRp758
(dp759
g62
(dp760
sg71
g746
sg64
(lp761
g57
(g58
g59
NtRp762
(dp763
g62
(dp764
g70
I3
ssg71
g758
sg64
(lp765
S''
asbasbasbag57
(g73
g59
NtRp766
(dp767
g62
(dp768
sg71
g662
sg64
(lp769
g57
(g78
g59
NtRp770
(dp771
g62
(dp772
g82
g83
ssg71
g766
sg64
(lp773
g399
asbag57
(g78
g59
NtRp774
(dp775
g62
(dp776
g89
g90
ssg71
g766
sg64
(lp777
S':'
asbag57
(g78
g59
NtRp778
(dp779
g62
(dp780
sg71
g766
sg64
(lp781
g57
(g58
g59
NtRp782
(dp783
g62
(dp784
g70
I3
ssg71
g778
sg64
(lp785
S''
asbasbasbag57
(g73
g59
NtRp786
(dp787
g62
(dp788
sg71
g662
sg64
(lp789
g57
(g78
g59
NtRp790
(dp791
g62
(dp792
g82
g83
ssg71
g786
sg64
(lp793
g420
asbag57
(g78
g59
NtRp794
(dp795
g62
(dp796
g89
g90
ssg71
g786
sg64
(lp797
S':'
asbag57
(g78
g59
NtRp798
(dp799
g62
(dp800
sg71
g786
sg64
(lp801
g57
(g58
g59
NtRp802
(dp803
g62
(dp804
g70
I3
ssg71
g798
sg64
(lp805
S''
asbasbasbag57
(g73
g59
NtRp806
(dp807
g62
(dp808
sg71
g662
sg64
(lp809
g57
(g78
g59
NtRp810
(dp811
g62
(dp812
g82
g83
ssg71
g806
sg64
(lp813
g441
asbag57
(g78
g59
NtRp814
(dp815
g62
(dp816
g89
g90
ssg71
g806
sg64
(lp817
S':'
asbag57
(g78
g59
NtRp818
(dp819
g62
(dp820
sg71
g806
sg64
(lp821
g57
(g58
g59
NtRp822
(dp823
g62
(dp824
g70
I3
ssg71
g818
sg64
(lp825
S''
asbasbasbasbasbasbasbasbasbasbasbag57
(g73
g59
NtRp826
(dp827
g62
(dp828
sg71
g67
sg64
(lp829
g57
(g78
g59
NtRp830
(dp831
g62
(dp832
g82
g83
ssg71
g826
sg64
(lp833
S'env'
p834
asbag57
(g78
g59
NtRp835
(dp836
g62
(dp837
g89
g90
ssg71
g826
sg64
(lp838
S':'
asbag57
(g78
g59
NtRp839
(dp840
g62
(dp841
sg71
g826
sg64
(lp842
g57
(g58
g59
NtRp843
(dp844
g62
(dp845
g70
I5
ssg71
g839
sg64
(lp846
g57
(g66
g59
NtRp847
(dp848
g62
(dp849
g70
I4
ssg71
Nsg64
(lp850
g57
(g73
g59
NtRp851
(dp852
g62
(dp853
sg71
g847
sg64
(lp854
g57
(g78
g59
NtRp855
(dp856
g62
(dp857
g82
g83
ssg71
g851
sg64
(lp858
S'app_folders'
p859
asbag57
(g78
g59
NtRp860
(dp861
g62
(dp862
g89
g90
ssg71
g851
sg64
(lp863
S':'
asbag57
(g78
g59
NtRp864
(dp865
g62
(dp866
sg71
g851
sg64
(lp867
g57
(g58
g59
NtRp868
(dp869
g62
(dp870
g70
I4
ssg71
g864
sg64
(lp871
S"set(['/home/abhinav/Desktop/iiit/web2py/applications/welcome/', '/home/abhinav/Desktop/iiit/web2py/applications/admin/', '/home/abhinav/Desktop/iiit/web2py/applications/WSD/'])"
p872
asbasbasbag57
(g73
g59
NtRp873
(dp874
g62
(dp875
sg71
g847
sg64
(lp876
g57
(g78
g59
NtRp877
(dp878
g62
(dp879
g82
g83
ssg71
g873
sg64
(lp880
S'applications_parent'
p881
asbag57
(g78
g59
NtRp882
(dp883
g62
(dp884
g89
g90
ssg71
g873
sg64
(lp885
S':'
asbag57
(g78
g59
NtRp886
(dp887
g62
(dp888
sg71
g873
sg64
(lp889
g57
(g58
g59
NtRp890
(dp891
g62
(dp892
g70
I4
ssg71
g886
sg64
(lp893
S'/home/abhinav/Desktop/iiit/web2py'
p894
asbasbasbag57
(g73
g59
NtRp895
(dp896
g62
(dp897
sg71
g847
sg64
(lp898
g57
(g78
g59
NtRp899
(dp900
g62
(dp901
g82
g83
ssg71
g895
sg64
(lp902
S'cmd_args'
p903
asbag57
(g78
g59
NtRp904
(dp905
g62
(dp906
g89
g90
ssg71
g895
sg64
(lp907
S':'
asbag57
(g78
g59
NtRp908
(dp909
g62
(dp910
sg71
g895
sg64
(lp911
g57
(g58
g59
NtRp912
(dp913
g62
(dp914
g70
I4
ssg71
g908
sg64
(lp915
g57
(g66
g59
NtRp916
(dp917
g62
(dp918
g70
I3
ssg71
Nsg64
(lp919
sbasbasbasbag57
(g73
g59
NtRp920
(dp921
g62
(dp922
sg71
g847
sg64
(lp923
g57
(g78
g59
NtRp924
(dp925
g62
(dp926
g82
g83
ssg71
g920
sg64
(lp927
S'cmd_options'
p928
asbag57
(g78
g59
NtRp929
(dp930
g62
(dp931
g89
g90
ssg71
g920
sg64
(lp932
S':'
asbag57
(g78
g59
NtRp933
(dp934
g62
(dp935
sg71
g920
sg64
(lp936
g57
(g58
g59
NtRp937
(dp938
g62
(dp939
g70
I4
ssg71
g933
sg64
(lp940
S"<Values at 0x8ed4aac: {'verbose': False, 'ip': '127.0.0.1', 'with_scheduler': False, 'ips': [], 'shutdown_timeout': 5, 'taskbar': False, 'port': 8000, 'maxthreads': None, 'softcron': False, 'server_name': 'abhinav-HP-Pavilion-dv6-Notebook-PC', 'bpython': False, 'nogui': False, 'pid_filename': 'httpserver.pid', 'extcron': False, 'runcron': False, 'run_system_tests': False, 'test': None, 'folder': '/home/abhinav/Desktop/iiit/web2py', 'config': '', 'import_models': False, 'winservice': '', 'shell': None, 'run': '', 'log_filename': 'httpserver.log', 'debuglevel': 30, 'args': [''], 'socket_timeout': 5, 'ssl_ca_certificate': None, 'scheduler': None, 'profiler_filename': None, 'ssl_private_key': '', 'scheduler_groups': None, 'password': '<ask>', 'request_queue_size': 5, 'ssl_certificate': '', 'cronjob': False, 'numthreads': None, 'quiet': False, 'interfaces': None, 'minthreads': None, 'timeout': 10, 'plain': False, 'nobanner': False}>"
p941
asbasbasbag57
(g73
g59
NtRp942
(dp943
g62
(dp944
sg71
g847
sg64
(lp945
g57
(g78
g59
NtRp946
(dp947
g62
(dp948
g82
g83
ssg71
g942
sg64
(lp949
S'db_sessions'
p950
asbag57
(g78
g59
NtRp951
(dp952
g62
(dp953
g89
g90
ssg71
g942
sg64
(lp954
S':'
asbag57
(g78
g59
NtRp955
(dp956
g62
(dp957
sg71
g942
sg64
(lp958
g57
(g58
g59
NtRp959
(dp960
g62
(dp961
g70
I4
ssg71
g955
sg64
(lp962
S'set([])'
p963
asbasbasbag57
(g73
g59
NtRp964
(dp965
g62
(dp966
sg71
g847
sg64
(lp967
g57
(g78
g59
NtRp968
(dp969
g62
(dp970
g82
g83
ssg71
g964
sg64
(lp971
S'debugging'
p972
asbag57
(g78
g59
NtRp973
(dp974
g62
(dp975
g89
g90
ssg71
g964
sg64
(lp976
S':'
asbag57
(g78
g59
NtRp977
(dp978
g62
(dp979
sg71
g964
sg64
(lp980
g57
(g58
g59
NtRp981
(dp982
g62
(dp983
g70
I4
ssg71
g977
sg64
(lp984
g100
asbasbasbag57
(g73
g59
NtRp985
(dp986
g62
(dp987
sg71
g847
sg64
(lp988
g57
(g78
g59
NtRp989
(dp990
g62
(dp991
g82
g83
ssg71
g985
sg64
(lp992
S'gluon_parent'
p993
asbag57
(g78
g59
NtRp994
(dp995
g62
(dp996
g89
g90
ssg71
g985
sg64
(lp997
S':'
asbag57
(g78
g59
NtRp998
(dp999
g62
(dp1000
sg71
g985
sg64
(lp1001
g57
(g58
g59
NtRp1002
(dp1003
g62
(dp1004
g70
I4
ssg71
g998
sg64
(lp1005
S'/home/abhinav/Desktop/iiit/web2py'
p1006
asbasbasbag57
(g73
g59
NtRp1007
(dp1008
g62
(dp1009
sg71
g847
sg64
(lp1010
g57
(g78
g59
NtRp1011
(dp1012
g62
(dp1013
g82
g83
ssg71
g1007
sg64
(lp1014
S'http_accept'
p1015
asbag57
(g78
g59
NtRp1016
(dp1017
g62
(dp1018
g89
g90
ssg71
g1007
sg64
(lp1019
S':'
asbag57
(g78
g59
NtRp1020
(dp1021
g62
(dp1022
sg71
g1007
sg64
(lp1023
g57
(g58
g59
NtRp1024
(dp1025
g62
(dp1026
g70
I4
ssg71
g1020
sg64
(lp1027
S'text/html,application/xhtml+xml,application/xml;q=0.9,image/webp,*/*;q=0.8'
p1028
asbasbasbag57
(g73
g59
NtRp1029
(dp1030
g62
(dp1031
sg71
g847
sg64
(lp1032
g57
(g78
g59
NtRp1033
(dp1034
g62
(dp1035
g82
g83
ssg71
g1029
sg64
(lp1036
S'http_accept_encoding'
p1037
asbag57
(g78
g59
NtRp1038
(dp1039
g62
(dp1040
g89
g90
ssg71
g1029
sg64
(lp1041
S':'
asbag57
(g78
g59
NtRp1042
(dp1043
g62
(dp1044
sg71
g1029
sg64
(lp1045
g57
(g58
g59
NtRp1046
(dp1047
g62
(dp1048
g70
I4
ssg71
g1042
sg64
(lp1049
S'gzip,deflate,sdch'
p1050
asbasbasbag57
(g73
g59
NtRp1051
(dp1052
g62
(dp1053
sg71
g847
sg64
(lp1054
g57
(g78
g59
NtRp1055
(dp1056
g62
(dp1057
g82
g83
ssg71
g1051
sg64
(lp1058
S'http_accept_language'
p1059
asbag57
(g78
g59
NtRp1060
(dp1061
g62
(dp1062
g89
g90
ssg71
g1051
sg64
(lp1063
S':'
asbag57
(g78
g59
NtRp1064
(dp1065
g62
(dp1066
sg71
g1051
sg64
(lp1067
g57
(g58
g59
NtRp1068
(dp1069
g62
(dp1070
g70
I4
ssg71
g1064
sg64
(lp1071
S'en-US,en;q=0.8'
p1072
asbasbasbag57
(g73
g59
NtRp1073
(dp1074
g62
(dp1075
sg71
g847
sg64
(lp1076
g57
(g78
g59
NtRp1077
(dp1078
g62
(dp1079
g82
g83
ssg71
g1073
sg64
(lp1080
S'http_connection'
p1081
asbag57
(g78
g59
NtRp1082
(dp1083
g62
(dp1084
g89
g90
ssg71
g1073
sg64
(lp1085
S':'
asbag57
(g78
g59
NtRp1086
(dp1087
g62
(dp1088
sg71
g1073
sg64
(lp1089
g57
(g58
g59
NtRp1090
(dp1091
g62
(dp1092
g70
I4
ssg71
g1086
sg64
(lp1093
S'keep-alive'
p1094
asbasbasbag57
(g73
g59
NtRp1095
(dp1096
g62
(dp1097
sg71
g847
sg64
(lp1098
g57
(g78
g59
NtRp1099
(dp1100
g62
(dp1101
g82
g83
ssg71
g1095
sg64
(lp1102
S'http_cookie'
p1103
asbag57
(g78
g59
NtRp1104
(dp1105
g62
(dp1106
g89
g90
ssg71
g1095
sg64
(lp1107
S':'
asbag57
(g78
g59
NtRp1108
(dp1109
g62
(dp1110
sg71
g1095
sg64
(lp1111
g57
(g58
g59
NtRp1112
(dp1113
g62
(dp1114
g70
I4
ssg71
g1108
sg64
(lp1115
S'session_id_welcome=127.0.0.1-a42ae726-a54d-4507-8ade-486bc6807151; session_id_admin=127.0.0.1-db70cc2c-34a4-435d-8f25-ddbc8f6ad95d; session_id_wsd=127.0.0.1-d5f14651-a801-400e-9d5f-efe41af2210b'
p1116
asbasbasbag57
(g73
g59
NtRp1117
(dp1118
g62
(dp1119
sg71
g847
sg64
(lp1120
g57
(g78
g59
NtRp1121
(dp1122
g62
(dp1123
g82
g83
ssg71
g1117
sg64
(lp1124
S'http_host'
p1125
asbag57
(g78
g59
NtRp1126
(dp1127
g62
(dp1128
g89
g90
ssg71
g1117
sg64
(lp1129
S':'
asbag57
(g78
g59
NtRp1130
(dp1131
g62
(dp1132
sg71
g1117
sg64
(lp1133
g57
(g58
g59
NtRp1134
(dp1135
g62
(dp1136
g70
I4
ssg71
g1130
sg64
(lp1137
S'127.0.0.1:8000'
p1138
asbasbasbag57
(g73
g59
NtRp1139
(dp1140
g62
(dp1141
sg71
g847
sg64
(lp1142
g57
(g78
g59
NtRp1143
(dp1144
g62
(dp1145
g82
g83
ssg71
g1139
sg64
(lp1146
S'http_referer'
p1147
asbag57
(g78
g59
NtRp1148
(dp1149
g62
(dp1150
g89
g90
ssg71
g1139
sg64
(lp1151
S':'
asbag57
(g78
g59
NtRp1152
(dp1153
g62
(dp1154
sg71
g1139
sg64
(lp1155
g57
(g58
g59
NtRp1156
(dp1157
g62
(dp1158
g70
I4
ssg71
g1152
sg64
(lp1159
S'http://127.0.0.1:8000/WSD/default/word_selectc?check=1&second=1'
p1160
asbasbasbag57
(g73
g59
NtRp1161
(dp1162
g62
(dp1163
sg71
g847
sg64
(lp1164
g57
(g78
g59
NtRp1165
(dp1166
g62
(dp1167
g82
g83
ssg71
g1161
sg64
(lp1168
S'http_user_agent'
p1169
asbag57
(g78
g59
NtRp1170
(dp1171
g62
(dp1172
g89
g90
ssg71
g1161
sg64
(lp1173
S':'
asbag57
(g78
g59
NtRp1174
(dp1175
g62
(dp1176
sg71
g1161
sg64
(lp1177
g57
(g58
g59
NtRp1178
(dp1179
g62
(dp1180
g70
I4
ssg71
g1174
sg64
(lp1181
S'Mozilla/5.0 (X11; Linux i686) AppleWebKit/537.36 (KHTML, like Gecko) Chrome/30.0.1599.114 Safari/537.36'
p1182
asbasbasbag57
(g73
g59
NtRp1183
(dp1184
g62
(dp1185
sg71
g847
sg64
(lp1186
g57
(g78
g59
NtRp1187
(dp1188
g62
(dp1189
g82
g83
ssg71
g1183
sg64
(lp1190
S'is_jython'
p1191
asbag57
(g78
g59
NtRp1192
(dp1193
g62
(dp1194
g89
g90
ssg71
g1183
sg64
(lp1195
S':'
asbag57
(g78
g59
NtRp1196
(dp1197
g62
(dp1198
sg71
g1183
sg64
(lp1199
g57
(g58
g59
NtRp1200
(dp1201
g62
(dp1202
g70
I4
ssg71
g1196
sg64
(lp1203
g100
asbasbasbag57
(g73
g59
NtRp1204
(dp1205
g62
(dp1206
sg71
g847
sg64
(lp1207
g57
(g78
g59
NtRp1208
(dp1209
g62
(dp1210
g82
g83
ssg71
g1204
sg64
(lp1211
S'is_pypy'
p1212
asbag57
(g78
g59
NtRp1213
(dp1214
g62
(dp1215
g89
g90
ssg71
g1204
sg64
(lp1216
S':'
asbag57
(g78
g59
NtRp1217
(dp1218
g62
(dp1219
sg71
g1204
sg64
(lp1220
g57
(g58
g59
NtRp1221
(dp1222
g62
(dp1223
g70
I4
ssg71
g1217
sg64
(lp1224
g100
asbasbasbag57
(g73
g59
NtRp1225
(dp1226
g62
(dp1227
sg71
g847
sg64
(lp1228
g57
(g78
g59
NtRp1229
(dp1230
g62
(dp1231
g82
g83
ssg71
g1225
sg64
(lp1232
S'local_hosts'
p1233
asbag57
(g78
g59
NtRp1234
(dp1235
g62
(dp1236
g89
g90
ssg71
g1225
sg64
(lp1237
S':'
asbag57
(g78
g59
NtRp1238
(dp1239
g62
(dp1240
sg71
g1225
sg64
(lp1241
g57
(g58
g59
NtRp1242
(dp1243
g62
(dp1244
g70
I4
ssg71
g1238
sg64
(lp1245
g57
(g66
g59
NtRp1246
(dp1247
g62
(dp1248
g70
I3
ssg71
Nsg64
(lp1249
g57
(g73
g59
NtRp1250
(dp1251
g62
(dp1252
sg71
g1246
sg64
(lp1253
g57
(g78
g59
NtRp1254
(dp1255
g62
(dp1256
sg71
g1250
sg64
(lp1257
g57
(g58
g59
NtRp1258
(dp1259
g62
(dp1260
g70
I3
ssg71
g1254
sg64
(lp1261
S'::1'
p1262
asbasbasbag57
(g73
g59
NtRp1263
(dp1264
g62
(dp1265
sg71
g1246
sg64
(lp1266
g57
(g78
g59
NtRp1267
(dp1268
g62
(dp1269
sg71
g1263
sg64
(lp1270
g57
(g58
g59
NtRp1271
(dp1272
g62
(dp1273
g70
I3
ssg71
g1267
sg64
(lp1274
S'127.0.1.1'
p1275
asbasbasbag57
(g73
g59
NtRp1276
(dp1277
g62
(dp1278
sg71
g1246
sg64
(lp1279
g57
(g78
g59
NtRp1280
(dp1281
g62
(dp1282
sg71
g1276
sg64
(lp1283
g57
(g58
g59
NtRp1284
(dp1285
g62
(dp1286
g70
I3
ssg71
g1280
sg64
(lp1287
S'::ffff:127.0.0.1'
p1288
asbasbasbag57
(g73
g59
NtRp1289
(dp1290
g62
(dp1291
sg71
g1246
sg64
(lp1292
g57
(g78
g59
NtRp1293
(dp1294
g62
(dp1295
sg71
g1289
sg64
(lp1296
g57
(g58
g59
NtRp1297
(dp1298
g62
(dp1299
g70
I3
ssg71
g1293
sg64
(lp1300
S'127.0.0.1'
p1301
asbasbasbag57
(g73
g59
NtRp1302
(dp1303
g62
(dp1304
sg71
g1246
sg64
(lp1305
g57
(g78
g59
NtRp1306
(dp1307
g62
(dp1308
sg71
g1302
sg64
(lp1309
g57
(g58
g59
NtRp1310
(dp1311
g62
(dp1312
g70
I3
ssg71
g1306
sg64
(lp1313
S'abhinav-HP-Pavilion-dv6-Notebook-PC'
p1314
asbasbasbasbasbasbasbag57
(g73
g59
NtRp1315
(dp1316
g62
(dp1317
sg71
g847
sg64
(lp1318
g57
(g78
g59
NtRp1319
(dp1320
g62
(dp1321
g82
g83
ssg71
g1315
sg64
(lp1322
S'path_info'
p1323
asbag57
(g78
g59
NtRp1324
(dp1325
g62
(dp1326
g89
g90
ssg71
g1315
sg64
(lp1327
S':'
asbag57
(g78
g59
NtRp1328
(dp1329
g62
(dp1330
sg71
g1315
sg64
(lp1331
g57
(g58
g59
NtRp1332
(dp1333
g62
(dp1334
g70
I4
ssg71
g1328
sg64
(lp1335
S'/WSD/default/sentence_selectc'
p1336
asbasbasbag57
(g73
g59
NtRp1337
(dp1338
g62
(dp1339
sg71
g847
sg64
(lp1340
g57
(g78
g59
NtRp1341
(dp1342
g62
(dp1343
g82
g83
ssg71
g1337
sg64
(lp1344
S'query_string'
p1345
asbag57
(g78
g59
NtRp1346
(dp1347
g62
(dp1348
g89
g90
ssg71
g1337
sg64
(lp1349
S':'
asbag57
(g78
g59
NtRp1350
(dp1351
g62
(dp1352
sg71
g1337
sg64
(lp1353
g57
(g58
g59
NtRp1354
(dp1355
g62
(dp1356
g70
I4
ssg71
g1350
sg64
(lp1357
S'second=1'
p1358
asbasbasbag57
(g73
g59
NtRp1359
(dp1360
g62
(dp1361
sg71
g847
sg64
(lp1362
g57
(g78
g59
NtRp1363
(dp1364
g62
(dp1365
g82
g83
ssg71
g1359
sg64
(lp1366
S'remote_addr'
p1367
asbag57
(g78
g59
NtRp1368
(dp1369
g62
(dp1370
g89
g90
ssg71
g1359
sg64
(lp1371
S':'
asbag57
(g78
g59
NtRp1372
(dp1373
g62
(dp1374
sg71
g1359
sg64
(lp1375
g57
(g58
g59
NtRp1376
(dp1377
g62
(dp1378
g70
I4
ssg71
g1372
sg64
(lp1379
g212
asbasbasbag57
(g73
g59
NtRp1380
(dp1381
g62
(dp1382
sg71
g847
sg64
(lp1383
g57
(g78
g59
NtRp1384
(dp1385
g62
(dp1386
g82
g83
ssg71
g1380
sg64
(lp1387
S'remote_port'
p1388
asbag57
(g78
g59
NtRp1389
(dp1390
g62
(dp1391
g89
g90
ssg71
g1380
sg64
(lp1392
S':'
asbag57
(g78
g59
NtRp1393
(dp1394
g62
(dp1395
sg71
g1380
sg64
(lp1396
g57
(g58
g59
NtRp1397
(dp1398
g62
(dp1399
g70
I4
ssg71
g1393
sg64
(lp1400
S'52774'
p1401
asbasbasbag57
(g73
g59
NtRp1402
(dp1403
g62
(dp1404
sg71
g847
sg64
(lp1405
g57
(g78
g59
NtRp1406
(dp1407
g62
(dp1408
g82
g83
ssg71
g1402
sg64
(lp1409
S'request_method'
p1410
asbag57
(g78
g59
NtRp1411
(dp1412
g62
(dp1413
g89
g90
ssg71
g1402
sg64
(lp1414
S':'
asbag57
(g78
g59
NtRp1415
(dp1416
g62
(dp1417
sg71
g1402
sg64
(lp1418
g57
(g58
g59
NtRp1419
(dp1420
g62
(dp1421
g70
I4
ssg71
g1415
sg64
(lp1422
S'GET'
p1423
asbasbasbag57
(g73
g59
NtRp1424
(dp1425
g62
(dp1426
sg71
g847
sg64
(lp1427
g57
(g78
g59
NtRp1428
(dp1429
g62
(dp1430
g82
g83
ssg71
g1424
sg64
(lp1431
S'request_uri'
p1432
asbag57
(g78
g59
NtRp1433
(dp1434
g62
(dp1435
g89
g90
ssg71
g1424
sg64
(lp1436
S':'
asbag57
(g78
g59
NtRp1437
(dp1438
g62
(dp1439
sg71
g1424
sg64
(lp1440
g57
(g58
g59
NtRp1441
(dp1442
g62
(dp1443
g70
I4
ssg71
g1437
sg64
(lp1444
S'/WSD/default/sentence_selectc?second=1'
p1445
asbasbasbag57
(g73
g59
NtRp1446
(dp1447
g62
(dp1448
sg71
g847
sg64
(lp1449
g57
(g78
g59
NtRp1450
(dp1451
g62
(dp1452
g82
g83
ssg71
g1446
sg64
(lp1453
S'script_name'
p1454
asbag57
(g78
g59
NtRp1455
(dp1456
g62
(dp1457
g89
g90
ssg71
g1446
sg64
(lp1458
S':'
asbag57
(g78
g59
NtRp1459
(dp1460
g62
(dp1461
sg71
g1446
sg64
(lp1462
g57
(g58
g59
NtRp1463
(dp1464
g62
(dp1465
g70
I4
ssg71
g1459
sg64
(lp1466
S''
asbasbasbag57
(g73
g59
NtRp1467
(dp1468
g62
(dp1469
sg71
g847
sg64
(lp1470
g57
(g78
g59
NtRp1471
(dp1472
g62
(dp1473
g82
g83
ssg71
g1467
sg64
(lp1474
S'server_name'
p1475
asbag57
(g78
g59
NtRp1476
(dp1477
g62
(dp1478
g89
g90
ssg71
g1467
sg64
(lp1479
S':'
asbag57
(g78
g59
NtRp1480
(dp1481
g62
(dp1482
sg71
g1467
sg64
(lp1483
g57
(g58
g59
NtRp1484
(dp1485
g62
(dp1486
g70
I4
ssg71
g1480
sg64
(lp1487
S'abhinav-HP-Pavilion-dv6-Notebook-PC'
p1488
asbasbasbag57
(g73
g59
NtRp1489
(dp1490
g62
(dp1491
sg71
g847
sg64
(lp1492
g57
(g78
g59
NtRp1493
(dp1494
g62
(dp1495
g82
g83
ssg71
g1489
sg64
(lp1496
S'server_port'
p1497
asbag57
(g78
g59
NtRp1498
(dp1499
g62
(dp1500
g89
g90
ssg71
g1489
sg64
(lp1501
S':'
asbag57
(g78
g59
NtRp1502
(dp1503
g62
(dp1504
sg71
g1489
sg64
(lp1505
g57
(g58
g59
NtRp1506
(dp1507
g62
(dp1508
g70
I4
ssg71
g1502
sg64
(lp1509
S'8000'
p1510
asbasbasbag57
(g73
g59
NtRp1511
(dp1512
g62
(dp1513
sg71
g847
sg64
(lp1514
g57
(g78
g59
NtRp1515
(dp1516
g62
(dp1517
g82
g83
ssg71
g1511
sg64
(lp1518
S'server_protocol'
p1519
asbag57
(g78
g59
NtRp1520
(dp1521
g62
(dp1522
g89
g90
ssg71
g1511
sg64
(lp1523
S':'
asbag57
(g78
g59
NtRp1524
(dp1525
g62
(dp1526
sg71
g1511
sg64
(lp1527
g57
(g58
g59
NtRp1528
(dp1529
g62
(dp1530
g70
I4
ssg71
g1524
sg64
(lp1531
S'HTTP/1.1'
p1532
asbasbasbag57
(g73
g59
NtRp1533
(dp1534
g62
(dp1535
sg71
g847
sg64
(lp1536
g57
(g78
g59
NtRp1537
(dp1538
g62
(dp1539
g82
g83
ssg71
g1533
sg64
(lp1540
S'server_software'
p1541
asbag57
(g78
g59
NtRp1542
(dp1543
g62
(dp1544
g89
g90
ssg71
g1533
sg64
(lp1545
S':'
asbag57
(g78
g59
NtRp1546
(dp1547
g62
(dp1548
sg71
g1533
sg64
(lp1549
g57
(g58
g59
NtRp1550
(dp1551
g62
(dp1552
g70
I4
ssg71
g1546
sg64
(lp1553
S'Rocket 1.2.6'
p1554
asbasbasbag57
(g73
g59
NtRp1555
(dp1556
g62
(dp1557
sg71
g847
sg64
(lp1558
g57
(g78
g59
NtRp1559
(dp1560
g62
(dp1561
g82
g83
ssg71
g1555
sg64
(lp1562
S'web2py_path'
p1563
asbag57
(g78
g59
NtRp1564
(dp1565
g62
(dp1566
g89
g90
ssg71
g1555
sg64
(lp1567
S':'
asbag57
(g78
g59
NtRp1568
(dp1569
g62
(dp1570
sg71
g1555
sg64
(lp1571
g57
(g58
g59
NtRp1572
(dp1573
g62
(dp1574
g70
I4
ssg71
g1568
sg64
(lp1575
g894
asbasbasbag57
(g73
g59
NtRp1576
(dp1577
g62
(dp1578
sg71
g847
sg64
(lp1579
g57
(g78
g59
NtRp1580
(dp1581
g62
(dp1582
g82
g83
ssg71
g1576
sg64
(lp1583
S'web2py_version'
p1584
asbag57
(g78
g59
NtRp1585
(dp1586
g62
(dp1587
g89
g90
ssg71
g1576
sg64
(lp1588
S':'
asbag57
(g78
g59
NtRp1589
(dp1590
g62
(dp1591
sg71
g1576
sg64
(lp1592
g57
(g58
g59
NtRp1593
(dp1594
g62
(dp1595
g70
I4
ssg71
g1589
sg64
(lp1596
g57
(g66
g59
NtRp1597
(dp1598
g62
(dp1599
g70
I3
ssg71
Nsg64
(lp1600
g57
(g73
g59
NtRp1601
(dp1602
g62
(dp1603
sg71
g1597
sg64
(lp1604
g57
(g78
g59
NtRp1605
(dp1606
g62
(dp1607
sg71
g1601
sg64
(lp1608
g57
(g58
g59
NtRp1609
(dp1610
g62
(dp1611
g70
I3
ssg71
g1605
sg64
(lp1612
S'2'
asbasbasbag57
(g73
g59
NtRp1613
(dp1614
g62
(dp1615
sg71
g1597
sg64
(lp1616
g57
(g78
g59
NtRp1617
(dp1618
g62
(dp1619
sg71
g1613
sg64
(lp1620
g57
(g58
g59
NtRp1621
(dp1622
g62
(dp1623
g70
I3
ssg71
g1617
sg64
(lp1624
S'3'
asbasbasbag57
(g73
g59
NtRp1625
(dp1626
g62
(dp1627
sg71
g1597
sg64
(lp1628
g57
(g78
g59
NtRp1629
(dp1630
g62
(dp1631
sg71
g1625
sg64
(lp1632
g57
(g58
g59
NtRp1633
(dp1634
g62
(dp1635
g70
I3
ssg71
g1629
sg64
(lp1636
S'2'
asbasbasbag57
(g73
g59
NtRp1637
(dp1638
g62
(dp1639
sg71
g1597
sg64
(lp1640
g57
(g78
g59
NtRp1641
(dp1642
g62
(dp1643
sg71
g1637
sg64
(lp1644
g57
(g58
g59
NtRp1645
(dp1646
g62
(dp1647
g70
I3
ssg71
g1641
sg64
(lp1648
S'datetime.datetime(2012, 12, 17, 15, 3, 30)'
p1649
asbasbasbag57
(g73
g59
NtRp1650
(dp1651
g62
(dp1652
sg71
g1597
sg64
(lp1653
g57
(g78
g59
NtRp1654
(dp1655
g62
(dp1656
sg71
g1650
sg64
(lp1657
g57
(g58
g59
NtRp1658
(dp1659
g62
(dp1660
g70
I3
ssg71
g1654
sg64
(lp1661
S'stable'
p1662
asbasbasbasbasbasbasbag57
(g73
g59
NtRp1663
(dp1664
g62
(dp1665
sg71
g847
sg64
(lp1666
g57
(g78
g59
NtRp1667
(dp1668
g62
(dp1669
g82
g83
ssg71
g1663
sg64
(lp1670
S'wsgi_errors'
p1671
asbag57
(g78
g59
NtRp1672
(dp1673
g62
(dp1674
g89
g90
ssg71
g1663
sg64
(lp1675
S':'
asbag57
(g78
g59
NtRp1676
(dp1677
g62
(dp1678
sg71
g1663
sg64
(lp1679
g57
(g58
g59
NtRp1680
(dp1681
g62
(dp1682
g70
I4
ssg71
g1676
sg64
(lp1683
S"<open file '<stderr>', mode 'w' at 0xb73070d0>"
p1684
asbasbasbag57
(g73
g59
NtRp1685
(dp1686
g62
(dp1687
sg71
g847
sg64
(lp1688
g57
(g78
g59
NtRp1689
(dp1690
g62
(dp1691
g82
g83
ssg71
g1685
sg64
(lp1692
S'wsgi_file_wrapper'
p1693
asbag57
(g78
g59
NtRp1694
(dp1695
g62
(dp1696
g89
g90
ssg71
g1685
sg64
(lp1697
S':'
asbag57
(g78
g59
NtRp1698
(dp1699
g62
(dp1700
sg71
g1685
sg64
(lp1701
g57
(g58
g59
NtRp1702
(dp1703
g62
(dp1704
g70
I4
ssg71
g1698
sg64
(lp1705
S'<class wsgiref.util.FileWrapper at 0x8e946bc>'
p1706
asbasbasbag57
(g73
g59
NtRp1707
(dp1708
g62
(dp1709
sg71
g847
sg64
(lp1710
g57
(g78
g59
NtRp1711
(dp1712
g62
(dp1713
g82
g83
ssg71
g1707
sg64
(lp1714
S'wsgi_input'
p1715
asbag57
(g78
g59
NtRp1716
(dp1717
g62
(dp1718
g89
g90
ssg71
g1707
sg64
(lp1719
S':'
asbag57
(g78
g59
NtRp1720
(dp1721
g62
(dp1722
sg71
g1707
sg64
(lp1723
g57
(g58
g59
NtRp1724
(dp1725
g62
(dp1726
g70
I4
ssg71
g1720
sg64
(lp1727
S'<socket._fileobject object at 0xad2d61ec>'
p1728
asbasbasbag57
(g73
g59
NtRp1729
(dp1730
g62
(dp1731
sg71
g847
sg64
(lp1732
g57
(g78
g59
NtRp1733
(dp1734
g62
(dp1735
g82
g83
ssg71
g1729
sg64
(lp1736
S'wsgi_multiprocess'
p1737
asbag57
(g78
g59
NtRp1738
(dp1739
g62
(dp1740
g89
g90
ssg71
g1729
sg64
(lp1741
S':'
asbag57
(g78
g59
NtRp1742
(dp1743
g62
(dp1744
sg71
g1729
sg64
(lp1745
g57
(g58
g59
NtRp1746
(dp1747
g62
(dp1748
g70
I4
ssg71
g1742
sg64
(lp1749
g100
asbasbasbag57
(g73
g59
NtRp1750
(dp1751
g62
(dp1752
sg71
g847
sg64
(lp1753
g57
(g78
g59
NtRp1754
(dp1755
g62
(dp1756
g82
g83
ssg71
g1750
sg64
(lp1757
S'wsgi_multithread'
p1758
asbag57
(g78
g59
NtRp1759
(dp1760
g62
(dp1761
g89
g90
ssg71
g1750
sg64
(lp1762
S':'
asbag57
(g78
g59
NtRp1763
(dp1764
g62
(dp1765
sg71
g1750
sg64
(lp1766
g57
(g58
g59
NtRp1767
(dp1768
g62
(dp1769
g70
I4
ssg71
g1763
sg64
(lp1770
S'True'
p1771
asbasbasbag57
(g73
g59
NtRp1772
(dp1773
g62
(dp1774
sg71
g847
sg64
(lp1775
g57
(g78
g59
NtRp1776
(dp1777
g62
(dp1778
g82
g83
ssg71
g1772
sg64
(lp1779
S'wsgi_run_once'
p1780
asbag57
(g78
g59
NtRp1781
(dp1782
g62
(dp1783
g89
g90
ssg71
g1772
sg64
(lp1784
S':'
asbag57
(g78
g59
NtRp1785
(dp1786
g62
(dp1787
sg71
g1772
sg64
(lp1788
g57
(g58
g59
NtRp1789
(dp1790
g62
(dp1791
g70
I4
ssg71
g1785
sg64
(lp1792
g100
asbasbasbag57
(g73
g59
NtRp1793
(dp1794
g62
(dp1795
sg71
g847
sg64
(lp1796
g57
(g78
g59
NtRp1797
(dp1798
g62
(dp1799
g82
g83
ssg71
g1793
sg64
(lp1800
S'wsgi_url_scheme'
p1801
asbag57
(g78
g59
NtRp1802
(dp1803
g62
(dp1804
g89
g90
ssg71
g1793
sg64
(lp1805
S':'
asbag57
(g78
g59
NtRp1806
(dp1807
g62
(dp1808
sg71
g1793
sg64
(lp1809
g57
(g58
g59
NtRp1810
(dp1811
g62
(dp1812
g70
I4
ssg71
g1806
sg64
(lp1813
S'http'
p1814
asbasbasbag57
(g73
g59
NtRp1815
(dp1816
g62
(dp1817
sg71
g847
sg64
(lp1818
g57
(g78
g59
NtRp1819
(dp1820
g62
(dp1821
g82
g83
ssg71
g1815
sg64
(lp1822
S'wsgi_version'
p1823
asbag57
(g78
g59
NtRp1824
(dp1825
g62
(dp1826
g89
g90
ssg71
g1815
sg64
(lp1827
S':'
asbag57
(g78
g59
NtRp1828
(dp1829
g62
(dp1830
sg71
g1815
sg64
(lp1831
g57
(g58
g59
NtRp1832
(dp1833
g62
(dp1834
g70
I4
ssg71
g1828
sg64
(lp1835
g57
(g66
g59
NtRp1836
(dp1837
g62
(dp1838
g70
I3
ssg71
Nsg64
(lp1839
g57
(g73
g59
NtRp1840
(dp1841
g62
(dp1842
sg71
g1836
sg64
(lp1843
g57
(g78
g59
NtRp1844
(dp1845
g62
(dp1846
sg71
g1840
sg64
(lp1847
g57
(g58
g59
NtRp1848
(dp1849
g62
(dp1850
g70
I3
ssg71
g1844
sg64
(lp1851
S'1'
asbasbasbag57
(g73
g59
NtRp1852
(dp1853
g62
(dp1854
sg71
g1836
sg64
(lp1855
g57
(g78
g59
NtRp1856
(dp1857
g62
(dp1858
sg71
g1852
sg64
(lp1859
g57
(g58
g59
NtRp1860
(dp1861
g62
(dp1862
g70
I3
ssg71
g1856
sg64
(lp1863
S'0'
asbasbasbasbasbasbasbasbasbasbasbag57
(g73
g59
NtRp1864
(dp1865
g62
(dp1866
sg71
g67
sg64
(lp1867
g57
(g78
g59
NtRp1868
(dp1869
g62
(dp1870
g82
g83
ssg71
g1864
sg64
(lp1871
S'extension'
p1872
asbag57
(g78
g59
NtRp1873
(dp1874
g62
(dp1875
g89
g90
ssg71
g1864
sg64
(lp1876
S':'
asbag57
(g78
g59
NtRp1877
(dp1878
g62
(dp1879
sg71
g1864
sg64
(lp1880
g57
(g58
g59
NtRp1881
(dp1882
g62
(dp1883
g70
I5
ssg71
g1877
sg64
(lp1884
S'html'
p1885
asbasbasbag57
(g73
g59
NtRp1886
(dp1887
g62
(dp1888
sg71
g67
sg64
(lp1889
g57
(g78
g59
NtRp1890
(dp1891
g62
(dp1892
g82
g83
ssg71
g1886
sg64
(lp1893
S'folder'
p1894
asbag57
(g78
g59
NtRp1895
(dp1896
g62
(dp1897
g89
g90
ssg71
g1886
sg64
(lp1898
S':'
asbag57
(g78
g59
NtRp1899
(dp1900
g62
(dp1901
sg71
g1886
sg64
(lp1902
g57
(g58
g59
NtRp1903
(dp1904
g62
(dp1905
g70
I5
ssg71
g1899
sg64
(lp1906
S'/home/abhinav/Desktop/iiit/web2py/applications/WSD/'
p1907
asbasbasbag57
(g73
g59
NtRp1908
(dp1909
g62
(dp1910
sg71
g67
sg64
(lp1911
g57
(g78
g59
NtRp1912
(dp1913
g62
(dp1914
g82
g83
ssg71
g1908
sg64
(lp1915
S'function'
p1916
asbag57
(g78
g59
NtRp1917
(dp1918
g62
(dp1919
g89
g90
ssg71
g1908
sg64
(lp1920
S':'
asbag57
(g78
g59
NtRp1921
(dp1922
g62
(dp1923
sg71
g1908
sg64
(lp1924
g57
(g58
g59
NtRp1925
(dp1926
g62
(dp1927
g70
I5
ssg71
g1921
sg64
(lp1928
S'sentence_selectc'
p1929
asbasbasbag57
(g73
g59
NtRp1930
(dp1931
g62
(dp1932
sg71
g67
sg64
(lp1933
g57
(g78
g59
NtRp1934
(dp1935
g62
(dp1936
g82
g83
ssg71
g1930
sg64
(lp1937
S'get_vars'
p1938
asbag57
(g78
g59
NtRp1939
(dp1940
g62
(dp1941
g89
g90
ssg71
g1930
sg64
(lp1942
S':'
asbag57
(g78
g59
NtRp1943
(dp1944
g62
(dp1945
sg71
g1930
sg64
(lp1946
g57
(g58
g59
NtRp1947
(dp1948
g62
(dp1949
g70
I5
ssg71
g1943
sg64
(lp1950
g57
(g66
g59
NtRp1951
(dp1952
g62
(dp1953
g70
I4
ssg71
Nsg64
(lp1954
g57
(g73
g59
NtRp1955
(dp1956
g62
(dp1957
sg71
g1951
sg64
(lp1958
g57
(g78
g59
NtRp1959
(dp1960
g62
(dp1961
g82
g83
ssg71
g1955
sg64
(lp1962
S'second'
p1963
asbag57
(g78
g59
NtRp1964
(dp1965
g62
(dp1966
g89
g90
ssg71
g1955
sg64
(lp1967
S':'
asbag57
(g78
g59
NtRp1968
(dp1969
g62
(dp1970
sg71
g1955
sg64
(lp1971
g57
(g58
g59
NtRp1972
(dp1973
g62
(dp1974
g70
I4
ssg71
g1968
sg64
(lp1975
S'1'
asbasbasbasbasbasbasbag57
(g73
g59
NtRp1976
(dp1977
g62
(dp1978
sg71
g67
sg64
(lp1979
g57
(g78
g59
NtRp1980
(dp1981
g62
(dp1982
g82
g83
ssg71
g1976
sg64
(lp1983
S'global_settings'
p1984
asbag57
(g78
g59
NtRp1985
(dp1986
g62
(dp1987
g89
g90
ssg71
g1976
sg64
(lp1988
S':'
asbag57
(g78
g59
NtRp1989
(dp1990
g62
(dp1991
sg71
g1976
sg64
(lp1992
g57
(g58
g59
NtRp1993
(dp1994
g62
(dp1995
g70
I5
ssg71
g1989
sg64
(lp1996
g57
(g66
g59
NtRp1997
(dp1998
g62
(dp1999
g70
I4
ssg71
Nsg64
(lp2000
g57
(g73
g59
NtRp2001
(dp2002
g62
(dp2003
sg71
g1997
sg64
(lp2004
g57
(g78
g59
NtRp2005
(dp2006
g62
(dp2007
g82
g83
ssg71
g2001
sg64
(lp2008
g859
asbag57
(g78
g59
NtRp2009
(dp2010
g62
(dp2011
g89
g90
ssg71
g2001
sg64
(lp2012
S':'
asbag57
(g78
g59
NtRp2013
(dp2014
g62
(dp2015
sg71
g2001
sg64
(lp2016
g57
(g58
g59
NtRp2017
(dp2018
g62
(dp2019
g70
I4
ssg71
g2013
sg64
(lp2020
S"set(['/home/abhinav/Desktop/iiit/web2py/applications/welcome/', '/home/abhinav/Desktop/iiit/web2py/applications/admin/', '/home/abhinav/Desktop/iiit/web2py/applications/WSD/'])"
p2021
asbasbasbag57
(g73
g59
NtRp2022
(dp2023
g62
(dp2024
sg71
g1997
sg64
(lp2025
g57
(g78
g59
NtRp2026
(dp2027
g62
(dp2028
g82
g83
ssg71
g2022
sg64
(lp2029
g881
asbag57
(g78
g59
NtRp2030
(dp2031
g62
(dp2032
g89
g90
ssg71
g2022
sg64
(lp2033
S':'
asbag57
(g78
g59
NtRp2034
(dp2035
g62
(dp2036
sg71
g2022
sg64
(lp2037
g57
(g58
g59
NtRp2038
(dp2039
g62
(dp2040
g70
I4
ssg71
g2034
sg64
(lp2041
g894
asbasbasbag57
(g73
g59
NtRp2042
(dp2043
g62
(dp2044
sg71
g1997
sg64
(lp2045
g57
(g78
g59
NtRp2046
(dp2047
g62
(dp2048
g82
g83
ssg71
g2042
sg64
(lp2049
g903
asbag57
(g78
g59
NtRp2050
(dp2051
g62
(dp2052
g89
g90
ssg71
g2042
sg64
(lp2053
S':'
asbag57
(g78
g59
NtRp2054
(dp2055
g62
(dp2056
sg71
g2042
sg64
(lp2057
g57
(g58
g59
NtRp2058
(dp2059
g62
(dp2060
g70
I4
ssg71
g2054
sg64
(lp2061
g57
(g66
g59
NtRp2062
(dp2063
g62
(dp2064
g70
I3
ssg71
Nsg64
(lp2065
sbasbasbasbag57
(g73
g59
NtRp2066
(dp2067
g62
(dp2068
sg71
g1997
sg64
(lp2069
g57
(g78
g59
NtRp2070
(dp2071
g62
(dp2072
g82
g83
ssg71
g2066
sg64
(lp2073
g928
asbag57
(g78
g59
NtRp2074
(dp2075
g62
(dp2076
g89
g90
ssg71
g2066
sg64
(lp2077
S':'
asbag57
(g78
g59
NtRp2078
(dp2079
g62
(dp2080
sg71
g2066
sg64
(lp2081
g57
(g58
g59
NtRp2082
(dp2083
g62
(dp2084
g70
I4
ssg71
g2078
sg64
(lp2085
S"<Values at 0x8ed4aac: {'verbose': False, 'ip': '127.0.0.1', 'with_scheduler': False, 'ips': [], 'shutdown_timeout': 5, 'taskbar': False, 'port': 8000, 'maxthreads': None, 'softcron': False, 'server_name': 'abhinav-HP-Pavilion-dv6-Notebook-PC', 'bpython': False, 'nogui': False, 'pid_filename': 'httpserver.pid', 'extcron': False, 'runcron': False, 'run_system_tests': False, 'test': None, 'folder': '/home/abhinav/Desktop/iiit/web2py', 'config': '', 'import_models': False, 'winservice': '', 'shell': None, 'run': '', 'log_filename': 'httpserver.log', 'debuglevel': 30, 'args': [''], 'socket_timeout': 5, 'ssl_ca_certificate': None, 'scheduler': None, 'profiler_filename': None, 'ssl_private_key': '', 'scheduler_groups': None, 'password': '<ask>', 'request_queue_size': 5, 'ssl_certificate': '', 'cronjob': False, 'numthreads': None, 'quiet': False, 'interfaces': None, 'minthreads': None, 'timeout': 10, 'plain': False, 'nobanner': False}>"
p2086
asbasbasbag57
(g73
g59
NtRp2087
(dp2088
g62
(dp2089
sg71
g1997
sg64
(lp2090
g57
(g78
g59
NtRp2091
(dp2092
g62
(dp2093
g82
g83
ssg71
g2087
sg64
(lp2094
g950
asbag57
(g78
g59
NtRp2095
(dp2096
g62
(dp2097
g89
g90
ssg71
g2087
sg64
(lp2098
S':'
asbag57
(g78
g59
NtRp2099
(dp2100
g62
(dp2101
sg71
g2087
sg64
(lp2102
g57
(g58
g59
NtRp2103
(dp2104
g62
(dp2105
g70
I4
ssg71
g2099
sg64
(lp2106
S'set([])'
p2107
asbasbasbag57
(g73
g59
NtRp2108
(dp2109
g62
(dp2110
sg71
g1997
sg64
(lp2111
g57
(g78
g59
NtRp2112
(dp2113
g62
(dp2114
g82
g83
ssg71
g2108
sg64
(lp2115
g972
asbag57
(g78
g59
NtRp2116
(dp2117
g62
(dp2118
g89
g90
ssg71
g2108
sg64
(lp2119
S':'
asbag57
(g78
g59
NtRp2120
(dp2121
g62
(dp2122
sg71
g2108
sg64
(lp2123
g57
(g58
g59
NtRp2124
(dp2125
g62
(dp2126
g70
I4
ssg71
g2120
sg64
(lp2127
g100
asbasbasbag57
(g73
g59
NtRp2128
(dp2129
g62
(dp2130
sg71
g1997
sg64
(lp2131
g57
(g78
g59
NtRp2132
(dp2133
g62
(dp2134
g82
g83
ssg71
g2128
sg64
(lp2135
g993
asbag57
(g78
g59
NtRp2136
(dp2137
g62
(dp2138
g89
g90
ssg71
g2128
sg64
(lp2139
S':'
asbag57
(g78
g59
NtRp2140
(dp2141
g62
(dp2142
sg71
g2128
sg64
(lp2143
g57
(g58
g59
NtRp2144
(dp2145
g62
(dp2146
g70
I4
ssg71
g2140
sg64
(lp2147
g1006
asbasbasbag57
(g73
g59
NtRp2148
(dp2149
g62
(dp2150
sg71
g1997
sg64
(lp2151
g57
(g78
g59
NtRp2152
(dp2153
g62
(dp2154
g82
g83
ssg71
g2148
sg64
(lp2155
g1191
asbag57
(g78
g59
NtRp2156
(dp2157
g62
(dp2158
g89
g90
ssg71
g2148
sg64
(lp2159
S':'
asbag57
(g78
g59
NtRp2160
(dp2161
g62
(dp2162
sg71
g2148
sg64
(lp2163
g57
(g58
g59
NtRp2164
(dp2165
g62
(dp2166
g70
I4
ssg71
g2160
sg64
(lp2167
g100
asbasbasbag57
(g73
g59
NtRp2168
(dp2169
g62
(dp2170
sg71
g1997
sg64
(lp2171
g57
(g78
g59
NtRp2172
(dp2173
g62
(dp2174
g82
g83
ssg71
g2168
sg64
(lp2175
g1212
asbag57
(g78
g59
NtRp2176
(dp2177
g62
(dp2178
g89
g90
ssg71
g2168
sg64
(lp2179
S':'
asbag57
(g78
g59
NtRp2180
(dp2181
g62
(dp2182
sg71
g2168
sg64
(lp2183
g57
(g58
g59
NtRp2184
(dp2185
g62
(dp2186
g70
I4
ssg71
g2180
sg64
(lp2187
g100
asbasbasbag57
(g73
g59
NtRp2188
(dp2189
g62
(dp2190
sg71
g1997
sg64
(lp2191
g57
(g78
g59
NtRp2192
(dp2193
g62
(dp2194
g82
g83
ssg71
g2188
sg64
(lp2195
g1233
asbag57
(g78
g59
NtRp2196
(dp2197
g62
(dp2198
g89
g90
ssg71
g2188
sg64
(lp2199
S':'
asbag57
(g78
g59
NtRp2200
(dp2201
g62
(dp2202
sg71
g2188
sg64
(lp2203
g57
(g58
g59
NtRp2204
(dp2205
g62
(dp2206
g70
I4
ssg71
g2200
sg64
(lp2207
g57
(g66
g59
NtRp2208
(dp2209
g62
(dp2210
g70
I3
ssg71
Nsg64
(lp2211
g57
(g73
g59
NtRp2212
(dp2213
g62
(dp2214
sg71
g2208
sg64
(lp2215
g57
(g78
g59
NtRp2216
(dp2217
g62
(dp2218
sg71
g2212
sg64
(lp2219
g57
(g58
g59
NtRp2220
(dp2221
g62
(dp2222
g70
I3
ssg71
g2216
sg64
(lp2223
g1262
asbasbasbag57
(g73
g59
NtRp2224
(dp2225
g62
(dp2226
sg71
g2208
sg64
(lp2227
g57
(g78
g59
NtRp2228
(dp2229
g62
(dp2230
sg71
g2224
sg64
(lp2231
g57
(g58
g59
NtRp2232
(dp2233
g62
(dp2234
g70
I3
ssg71
g2228
sg64
(lp2235
g1275
asbasbasbag57
(g73
g59
NtRp2236
(dp2237
g62
(dp2238
sg71
g2208
sg64
(lp2239
g57
(g78
g59
NtRp2240
(dp2241
g62
(dp2242
sg71
g2236
sg64
(lp2243
g57
(g58
g59
NtRp2244
(dp2245
g62
(dp2246
g70
I3
ssg71
g2240
sg64
(lp2247
g1288
asbasbasbag57
(g73
g59
NtRp2248
(dp2249
g62
(dp2250
sg71
g2208
sg64
(lp2251
g57
(g78
g59
NtRp2252
(dp2253
g62
(dp2254
sg71
g2248
sg64
(lp2255
g57
(g58
g59
NtRp2256
(dp2257
g62
(dp2258
g70
I3
ssg71
g2252
sg64
(lp2259
g1301
asbasbasbag57
(g73
g59
NtRp2260
(dp2261
g62
(dp2262
sg71
g2208
sg64
(lp2263
g57
(g78
g59
NtRp2264
(dp2265
g62
(dp2266
sg71
g2260
sg64
(lp2267
g57
(g58
g59
NtRp2268
(dp2269
g62
(dp2270
g70
I3
ssg71
g2264
sg64
(lp2271
g1314
asbasbasbasbasbasbasbag57
(g73
g59
NtRp2272
(dp2273
g62
(dp2274
sg71
g1997
sg64
(lp2275
g57
(g78
g59
NtRp2276
(dp2277
g62
(dp2278
g82
g83
ssg71
g2272
sg64
(lp2279
g1584
asbag57
(g78
g59
NtRp2280
(dp2281
g62
(dp2282
g89
g90
ssg71
g2272
sg64
(lp2283
S':'
asbag57
(g78
g59
NtRp2284
(dp2285
g62
(dp2286
sg71
g2272
sg64
(lp2287
g57
(g58
g59
NtRp2288
(dp2289
g62
(dp2290
g70
I4
ssg71
g2284
sg64
(lp2291
g57
(g66
g59
NtRp2292
(dp2293
g62
(dp2294
g70
I3
ssg71
Nsg64
(lp2295
g57
(g73
g59
NtRp2296
(dp2297
g62
(dp2298
sg71
g2292
sg64
(lp2299
g57
(g78
g59
NtRp2300
(dp2301
g62
(dp2302
sg71
g2296
sg64
(lp2303
g57
(g58
g59
NtRp2304
(dp2305
g62
(dp2306
g70
I3
ssg71
g2300
sg64
(lp2307
S'2'
asbasbasbag57
(g73
g59
NtRp2308
(dp2309
g62
(dp2310
sg71
g2292
sg64
(lp2311
g57
(g78
g59
NtRp2312
(dp2313
g62
(dp2314
sg71
g2308
sg64
(lp2315
g57
(g58
g59
NtRp2316
(dp2317
g62
(dp2318
g70
I3
ssg71
g2312
sg64
(lp2319
S'3'
asbasbasbag57
(g73
g59
NtRp2320
(dp2321
g62
(dp2322
sg71
g2292
sg64
(lp2323
g57
(g78
g59
NtRp2324
(dp2325
g62
(dp2326
sg71
g2320
sg64
(lp2327
g57
(g58
g59
NtRp2328
(dp2329
g62
(dp2330
g70
I3
ssg71
g2324
sg64
(lp2331
S'2'
asbasbasbag57
(g73
g59
NtRp2332
(dp2333
g62
(dp2334
sg71
g2292
sg64
(lp2335
g57
(g78
g59
NtRp2336
(dp2337
g62
(dp2338
sg71
g2332
sg64
(lp2339
g57
(g58
g59
NtRp2340
(dp2341
g62
(dp2342
g70
I3
ssg71
g2336
sg64
(lp2343
S'datetime.datetime(2012, 12, 17, 15, 3, 30)'
p2344
asbasbasbag57
(g73
g59
NtRp2345
(dp2346
g62
(dp2347
sg71
g2292
sg64
(lp2348
g57
(g78
g59
NtRp2349
(dp2350
g62
(dp2351
sg71
g2345
sg64
(lp2352
g57
(g58
g59
NtRp2353
(dp2354
g62
(dp2355
g70
I3
ssg71
g2349
sg64
(lp2356
g1662
asbasbasbasbasbasbasbasbasbasbasbag57
(g73
g59
NtRp2357
(dp2358
g62
(dp2359
sg71
g67
sg64
(lp2360
g57
(g78
g59
NtRp2361
(dp2362
g62
(dp2363
g82
g83
ssg71
g2357
sg64
(lp2364
S'is_https'
p2365
asbag57
(g78
g59
NtRp2366
(dp2367
g62
(dp2368
g89
g90
ssg71
g2357
sg64
(lp2369
S':'
asbag57
(g78
g59
NtRp2370
(dp2371
g62
(dp2372
sg71
g2357
sg64
(lp2373
g57
(g58
g59
NtRp2374
(dp2375
g62
(dp2376
g70
I5
ssg71
g2370
sg64
(lp2377
g100
asbasbasbag57
(g73
g59
NtRp2378
(dp2379
g62
(dp2380
sg71
g67
sg64
(lp2381
g57
(g78
g59
NtRp2382
(dp2383
g62
(dp2384
g82
g83
ssg71
g2378
sg64
(lp2385
S'is_local'
p2386
asbag57
(g78
g59
NtRp2387
(dp2388
g62
(dp2389
g89
g90
ssg71
g2378
sg64
(lp2390
S':'
asbag57
(g78
g59
NtRp2391
(dp2392
g62
(dp2393
sg71
g2378
sg64
(lp2394
g57
(g58
g59
NtRp2395
(dp2396
g62
(dp2397
g70
I5
ssg71
g2391
sg64
(lp2398
g1771
asbasbasbag57
(g73
g59
NtRp2399
(dp2400
g62
(dp2401
sg71
g67
sg64
(lp2402
g57
(g78
g59
NtRp2403
(dp2404
g62
(dp2405
g82
g83
ssg71
g2399
sg64
(lp2406
S'is_restful'
p2407
asbag57
(g78
g59
NtRp2408
(dp2409
g62
(dp2410
g89
g90
ssg71
g2399
sg64
(lp2411
S':'
asbag57
(g78
g59
NtRp2412
(dp2413
g62
(dp2414
sg71
g2399
sg64
(lp2415
g57
(g58
g59
NtRp2416
(dp2417
g62
(dp2418
g70
I5
ssg71
g2412
sg64
(lp2419
g100
asbasbasbag57
(g73
g59
NtRp2420
(dp2421
g62
(dp2422
sg71
g67
sg64
(lp2423
g57
(g78
g59
NtRp2424
(dp2425
g62
(dp2426
g82
g83
ssg71
g2420
sg64
(lp2427
S'now'
p2428
asbag57
(g78
g59
NtRp2429
(dp2430
g62
(dp2431
g89
g90
ssg71
g2420
sg64
(lp2432
S':'
asbag57
(g78
g59
NtRp2433
(dp2434
g62
(dp2435
sg71
g2420
sg64
(lp2436
g57
(g58
g59
NtRp2437
(dp2438
g62
(dp2439
g70
I5
ssg71
g2433
sg64
(lp2440
S'datetime.datetime(2013, 11, 16, 15, 59, 15, 301416)'
p2441
asbasbasbag57
(g73
g59
NtRp2442
(dp2443
g62
(dp2444
sg71
g67
sg64
(lp2445
g57
(g78
g59
NtRp2446
(dp2447
g62
(dp2448
g82
g83
ssg71
g2442
sg64
(lp2449
S'post_vars'
p2450
asbag57
(g78
g59
NtRp2451
(dp2452
g62
(dp2453
g89
g90
ssg71
g2442
sg64
(lp2454
S':'
asbag57
(g78
g59
NtRp2455
(dp2456
g62
(dp2457
sg71
g2442
sg64
(lp2458
g57
(g58
g59
NtRp2459
(dp2460
g62
(dp2461
g70
I5
ssg71
g2455
sg64
(lp2462
g57
(g66
g59
NtRp2463
(dp2464
g62
(dp2465
g70
I4
ssg71
Nsg64
(lp2466
sbasbasbasbag57
(g73
g59
NtRp2467
(dp2468
g62
(dp2469
sg71
g67
sg64
(lp2470
g57
(g78
g59
NtRp2471
(dp2472
g62
(dp2473
g82
g83
ssg71
g2467
sg64
(lp2474
S'raw_args'
p2475
asbag57
(g78
g59
NtRp2476
(dp2477
g62
(dp2478
g89
g90
ssg71
g2467
sg64
(lp2479
S':'
asbag57
(g78
g59
NtRp2480
(dp2481
g62
(dp2482
sg71
g2467
sg64
(lp2483
g57
(g58
g59
NtRp2484
(dp2485
g62
(dp2486
g70
I5
ssg71
g2480
sg64
(lp2487
S''
asbasbasbag57
(g73
g59
NtRp2488
(dp2489
g62
(dp2490
sg71
g67
sg64
(lp2491
g57
(g78
g59
NtRp2492
(dp2493
g62
(dp2494
g82
g83
ssg71
g2488
sg64
(lp2495
S'raw_extension'
p2496
asbag57
(g78
g59
NtRp2497
(dp2498
g62
(dp2499
g89
g90
ssg71
g2488
sg64
(lp2500
S':'
asbag57
(g78
g59
NtRp2501
(dp2502
g62
(dp2503
sg71
g2488
sg64
(lp2504
g57
(g58
g59
NtRp2505
(dp2506
g62
(dp2507
g70
I5
ssg71
g2501
sg64
(lp2508
S'None'
p2509
asbasbasbag57
(g73
g59
NtRp2510
(dp2511
g62
(dp2512
sg71
g67
sg64
(lp2513
g57
(g78
g59
NtRp2514
(dp2515
g62
(dp2516
g82
g83
ssg71
g2510
sg64
(lp2517
S'url'
p2518
asbag57
(g78
g59
NtRp2519
(dp2520
g62
(dp2521
g89
g90
ssg71
g2510
sg64
(lp2522
S':'
asbag57
(g78
g59
NtRp2523
(dp2524
g62
(dp2525
sg71
g2510
sg64
(lp2526
g57
(g58
g59
NtRp2527
(dp2528
g62
(dp2529
g70
I5
ssg71
g2523
sg64
(lp2530
g1336
asbasbasbag57
(g73
g59
NtRp2531
(dp2532
g62
(dp2533
sg71
g67
sg64
(lp2534
g57
(g78
g59
NtRp2535
(dp2536
g62
(dp2537
g82
g83
ssg71
g2531
sg64
(lp2538
S'utcnow'
p2539
asbag57
(g78
g59
NtRp2540
(dp2541
g62
(dp2542
g89
g90
ssg71
g2531
sg64
(lp2543
S':'
asbag57
(g78
g59
NtRp2544
(dp2545
g62
(dp2546
sg71
g2531
sg64
(lp2547
g57
(g58
g59
NtRp2548
(dp2549
g62
(dp2550
g70
I5
ssg71
g2544
sg64
(lp2551
S'datetime.datetime(2013, 11, 16, 10, 29, 15, 301427)'
p2552
asbasbasbag57
(g73
g59
NtRp2553
(dp2554
g62
(dp2555
sg71
g67
sg64
(lp2556
g57
(g78
g59
NtRp2557
(dp2558
g62
(dp2559
g82
g83
ssg71
g2553
sg64
(lp2560
S'uuid'
p2561
asbag57
(g78
g59
NtRp2562
(dp2563
g62
(dp2564
g89
g90
ssg71
g2553
sg64
(lp2565
S':'
asbag57
(g78
g59
NtRp2566
(dp2567
g62
(dp2568
sg71
g2553
sg64
(lp2569
g57
(g58
g59
NtRp2570
(dp2571
g62
(dp2572
g70
I5
ssg71
g2566
sg64
(lp2573
S'WSD/127.0.0.1.2013-11-16.15-59-15.95baa5f8-0543-4683-a396-f0e12b3856d4'
p2574
asbasbasbag57
(g73
g59
NtRp2575
(dp2576
g62
(dp2577
sg71
g67
sg64
(lp2578
g57
(g78
g59
NtRp2579
(dp2580
g62
(dp2581
g82
g83
ssg71
g2575
sg64
(lp2582
S'vars'
p2583
asbag57
(g78
g59
NtRp2584
(dp2585
g62
(dp2586
g89
g90
ssg71
g2575
sg64
(lp2587
S':'
asbag57
(g78
g59
NtRp2588
(dp2589
g62
(dp2590
sg71
g2575
sg64
(lp2591
g57
(g58
g59
NtRp2592
(dp2593
g62
(dp2594
g70
I5
ssg71
g2588
sg64
(lp2595
g57
(g66
g59
NtRp2596
(dp2597
g62
(dp2598
g70
I4
ssg71
Nsg64
(lp2599
g57
(g73
g59
NtRp2600
(dp2601
g62
(dp2602
sg71
g2596
sg64
(lp2603
g57
(g78
g59
NtRp2604
(dp2605
g62
(dp2606
g82
g83
ssg71
g2600
sg64
(lp2607
g1963
asbag57
(g78
g59
NtRp2608
(dp2609
g62
(dp2610
g89
g90
ssg71
g2600
sg64
(lp2611
S':'
asbag57
(g78
g59
NtRp2612
(dp2613
g62
(dp2614
sg71
g2600
sg64
(lp2615
g57
(g58
g59
NtRp2616
(dp2617
g62
(dp2618
g70
I4
ssg71
g2612
sg64
(lp2619
S'1'
asbasbasbasbasbasbasbag57
(g73
g59
NtRp2620
(dp2621
g62
(dp2622
sg71
g67
sg64
(lp2623
g57
(g78
g59
NtRp2624
(dp2625
g62
(dp2626
g82
g83
ssg71
g2620
sg64
(lp2627
S'wsgi'
p2628
asbag57
(g78
g59
NtRp2629
(dp2630
g62
(dp2631
g89
g90
ssg71
g2620
sg64
(lp2632
S':'
asbag57
(g78
g59
NtRp2633
(dp2634
g62
(dp2635
sg71
g2620
sg64
(lp2636
g57
(g58
g59
NtRp2637
(dp2638
g62
(dp2639
g70
I5
ssg71
g2633
sg64
(lp2640
g57
(g66
g59
NtRp2641
(dp2642
g62
(dp2643
g70
I4
ssg71
Nsg64
(lp2644
g57
(g73
g59
NtRp2645
(dp2646
g62
(dp2647
sg71
g2641
sg64
(lp2648
g57
(g78
g59
NtRp2649
(dp2650
g62
(dp2651
g82
g83
ssg71
g2645
sg64
(lp2652
S'environ'
p2653
asbag57
(g78
g59
NtRp2654
(dp2655
g62
(dp2656
g89
g90
ssg71
g2645
sg64
(lp2657
S':'
asbag57
(g78
g59
NtRp2658
(dp2659
g62
(dp2660
sg71
g2645
sg64
(lp2661
g57
(g58
g59
NtRp2662
(dp2663
g62
(dp2664
g70
I4
ssg71
g2658
sg64
(lp2665
g57
(g66
g59
NtRp2666
(dp2667
g62
(dp2668
g70
I3
ssg71
Nsg64
(lp2669
g57
(g73
g59
NtRp2670
(dp2671
g62
(dp2672
sg71
g2666
sg64
(lp2673
g57
(g78
g59
NtRp2674
(dp2675
g62
(dp2676
g82
g83
ssg71
g2670
sg64
(lp2677
S'HTTP_ACCEPT'
p2678
asbag57
(g78
g59
NtRp2679
(dp2680
g62
(dp2681
g89
g90
ssg71
g2670
sg64
(lp2682
S':'
asbag57
(g78
g59
NtRp2683
(dp2684
g62
(dp2685
sg71
g2670
sg64
(lp2686
g57
(g58
g59
NtRp2687
(dp2688
g62
(dp2689
g70
I3
ssg71
g2683
sg64
(lp2690
g1028
asbasbasbag57
(g73
g59
NtRp2691
(dp2692
g62
(dp2693
sg71
g2666
sg64
(lp2694
g57
(g78
g59
NtRp2695
(dp2696
g62
(dp2697
g82
g83
ssg71
g2691
sg64
(lp2698
S'HTTP_ACCEPT_ENCODING'
p2699
asbag57
(g78
g59
NtRp2700
(dp2701
g62
(dp2702
g89
g90
ssg71
g2691
sg64
(lp2703
S':'
asbag57
(g78
g59
NtRp2704
(dp2705
g62
(dp2706
sg71
g2691
sg64
(lp2707
g57
(g58
g59
NtRp2708
(dp2709
g62
(dp2710
g70
I3
ssg71
g2704
sg64
(lp2711
g1050
asbasbasbag57
(g73
g59
NtRp2712
(dp2713
g62
(dp2714
sg71
g2666
sg64
(lp2715
g57
(g78
g59
NtRp2716
(dp2717
g62
(dp2718
g82
g83
ssg71
g2712
sg64
(lp2719
S'HTTP_ACCEPT_LANGUAGE'
p2720
asbag57
(g78
g59
NtRp2721
(dp2722
g62
(dp2723
g89
g90
ssg71
g2712
sg64
(lp2724
S':'
asbag57
(g78
g59
NtRp2725
(dp2726
g62
(dp2727
sg71
g2712
sg64
(lp2728
g57
(g58
g59
NtRp2729
(dp2730
g62
(dp2731
g70
I3
ssg71
g2725
sg64
(lp2732
g1072
asbasbasbag57
(g73
g59
NtRp2733
(dp2734
g62
(dp2735
sg71
g2666
sg64
(lp2736
g57
(g78
g59
NtRp2737
(dp2738
g62
(dp2739
g82
g83
ssg71
g2733
sg64
(lp2740
S'HTTP_CONNECTION'
p2741
asbag57
(g78
g59
NtRp2742
(dp2743
g62
(dp2744
g89
g90
ssg71
g2733
sg64
(lp2745
S':'
asbag57
(g78
g59
NtRp2746
(dp2747
g62
(dp2748
sg71
g2733
sg64
(lp2749
g57
(g58
g59
NtRp2750
(dp2751
g62
(dp2752
g70
I3
ssg71
g2746
sg64
(lp2753
g1094
asbasbasbag57
(g73
g59
NtRp2754
(dp2755
g62
(dp2756
sg71
g2666
sg64
(lp2757
g57
(g78
g59
NtRp2758
(dp2759
g62
(dp2760
g82
g83
ssg71
g2754
sg64
(lp2761
S'HTTP_COOKIE'
p2762
asbag57
(g78
g59
NtRp2763
(dp2764
g62
(dp2765
g89
g90
ssg71
g2754
sg64
(lp2766
S':'
asbag57
(g78
g59
NtRp2767
(dp2768
g62
(dp2769
sg71
g2754
sg64
(lp2770
g57
(g58
g59
NtRp2771
(dp2772
g62
(dp2773
g70
I3
ssg71
g2767
sg64
(lp2774
g1116
asbasbasbag57
(g73
g59
NtRp2775
(dp2776
g62
(dp2777
sg71
g2666
sg64
(lp2778
g57
(g78
g59
NtRp2779
(dp2780
g62
(dp2781
g82
g83
ssg71
g2775
sg64
(lp2782
S'HTTP_HOST'
p2783
asbag57
(g78
g59
NtRp2784
(dp2785
g62
(dp2786
g89
g90
ssg71
g2775
sg64
(lp2787
S':'
asbag57
(g78
g59
NtRp2788
(dp2789
g62
(dp2790
sg71
g2775
sg64
(lp2791
g57
(g58
g59
NtRp2792
(dp2793
g62
(dp2794
g70
I3
ssg71
g2788
sg64
(lp2795
g1138
asbasbasbag57
(g73
g59
NtRp2796
(dp2797
g62
(dp2798
sg71
g2666
sg64
(lp2799
g57
(g78
g59
NtRp2800
(dp2801
g62
(dp2802
g82
g83
ssg71
g2796
sg64
(lp2803
S'HTTP_REFERER'
p2804
asbag57
(g78
g59
NtRp2805
(dp2806
g62
(dp2807
g89
g90
ssg71
g2796
sg64
(lp2808
S':'
asbag57
(g78
g59
NtRp2809
(dp2810
g62
(dp2811
sg71
g2796
sg64
(lp2812
g57
(g58
g59
NtRp2813
(dp2814
g62
(dp2815
g70
I3
ssg71
g2809
sg64
(lp2816
g1160
asbasbasbag57
(g73
g59
NtRp2817
(dp2818
g62
(dp2819
sg71
g2666
sg64
(lp2820
g57
(g78
g59
NtRp2821
(dp2822
g62
(dp2823
g82
g83
ssg71
g2817
sg64
(lp2824
S'HTTP_USER_AGENT'
p2825
asbag57
(g78
g59
NtRp2826
(dp2827
g62
(dp2828
g89
g90
ssg71
g2817
sg64
(lp2829
S':'
asbag57
(g78
g59
NtRp2830
(dp2831
g62
(dp2832
sg71
g2817
sg64
(lp2833
g57
(g58
g59
NtRp2834
(dp2835
g62
(dp2836
g70
I3
ssg71
g2830
sg64
(lp2837
g1182
asbasbasbag57
(g73
g59
NtRp2838
(dp2839
g62
(dp2840
sg71
g2666
sg64
(lp2841
g57
(g78
g59
NtRp2842
(dp2843
g62
(dp2844
g82
g83
ssg71
g2838
sg64
(lp2845
S'PATH_INFO'
p2846
asbag57
(g78
g59
NtRp2847
(dp2848
g62
(dp2849
g89
g90
ssg71
g2838
sg64
(lp2850
S':'
asbag57
(g78
g59
NtRp2851
(dp2852
g62
(dp2853
sg71
g2838
sg64
(lp2854
g57
(g58
g59
NtRp2855
(dp2856
g62
(dp2857
g70
I3
ssg71
g2851
sg64
(lp2858
g1336
asbasbasbag57
(g73
g59
NtRp2859
(dp2860
g62
(dp2861
sg71
g2666
sg64
(lp2862
g57
(g78
g59
NtRp2863
(dp2864
g62
(dp2865
g82
g83
ssg71
g2859
sg64
(lp2866
S'QUERY_STRING'
p2867
asbag57
(g78
g59
NtRp2868
(dp2869
g62
(dp2870
g89
g90
ssg71
g2859
sg64
(lp2871
S':'
asbag57
(g78
g59
NtRp2872
(dp2873
g62
(dp2874
sg71
g2859
sg64
(lp2875
g57
(g58
g59
NtRp2876
(dp2877
g62
(dp2878
g70
I3
ssg71
g2872
sg64
(lp2879
g1358
asbasbasbag57
(g73
g59
NtRp2880
(dp2881
g62
(dp2882
sg71
g2666
sg64
(lp2883
g57
(g78
g59
NtRp2884
(dp2885
g62
(dp2886
g82
g83
ssg71
g2880
sg64
(lp2887
S'REMOTE_ADDR'
p2888
asbag57
(g78
g59
NtRp2889
(dp2890
g62
(dp2891
g89
g90
ssg71
g2880
sg64
(lp2892
S':'
asbag57
(g78
g59
NtRp2893
(dp2894
g62
(dp2895
sg71
g2880
sg64
(lp2896
g57
(g58
g59
NtRp2897
(dp2898
g62
(dp2899
g70
I3
ssg71
g2893
sg64
(lp2900
g212
asbasbasbag57
(g73
g59
NtRp2901
(dp2902
g62
(dp2903
sg71
g2666
sg64
(lp2904
g57
(g78
g59
NtRp2905
(dp2906
g62
(dp2907
g82
g83
ssg71
g2901
sg64
(lp2908
S'REMOTE_PORT'
p2909
asbag57
(g78
g59
NtRp2910
(dp2911
g62
(dp2912
g89
g90
ssg71
g2901
sg64
(lp2913
S':'
asbag57
(g78
g59
NtRp2914
(dp2915
g62
(dp2916
sg71
g2901
sg64
(lp2917
g57
(g58
g59
NtRp2918
(dp2919
g62
(dp2920
g70
I3
ssg71
g2914
sg64
(lp2921
g1401
asbasbasbag57
(g73
g59
NtRp2922
(dp2923
g62
(dp2924
sg71
g2666
sg64
(lp2925
g57
(g78
g59
NtRp2926
(dp2927
g62
(dp2928
g82
g83
ssg71
g2922
sg64
(lp2929
S'REQUEST_METHOD'
p2930
asbag57
(g78
g59
NtRp2931
(dp2932
g62
(dp2933
g89
g90
ssg71
g2922
sg64
(lp2934
S':'
asbag57
(g78
g59
NtRp2935
(dp2936
g62
(dp2937
sg71
g2922
sg64
(lp2938
g57
(g58
g59
NtRp2939
(dp2940
g62
(dp2941
g70
I3
ssg71
g2935
sg64
(lp2942
g1423
asbasbasbag57
(g73
g59
NtRp2943
(dp2944
g62
(dp2945
sg71
g2666
sg64
(lp2946
g57
(g78
g59
NtRp2947
(dp2948
g62
(dp2949
g82
g83
ssg71
g2943
sg64
(lp2950
S'REQUEST_URI'
p2951
asbag57
(g78
g59
NtRp2952
(dp2953
g62
(dp2954
g89
g90
ssg71
g2943
sg64
(lp2955
S':'
asbag57
(g78
g59
NtRp2956
(dp2957
g62
(dp2958
sg71
g2943
sg64
(lp2959
g57
(g58
g59
NtRp2960
(dp2961
g62
(dp2962
g70
I3
ssg71
g2956
sg64
(lp2963
g1445
asbasbasbag57
(g73
g59
NtRp2964
(dp2965
g62
(dp2966
sg71
g2666
sg64
(lp2967
g57
(g78
g59
NtRp2968
(dp2969
g62
(dp2970
g82
g83
ssg71
g2964
sg64
(lp2971
S'SCRIPT_NAME'
p2972
asbag57
(g78
g59
NtRp2973
(dp2974
g62
(dp2975
g89
g90
ssg71
g2964
sg64
(lp2976
S':'
asbag57
(g78
g59
NtRp2977
(dp2978
g62
(dp2979
sg71
g2964
sg64
(lp2980
g57
(g58
g59
NtRp2981
(dp2982
g62
(dp2983
g70
I3
ssg71
g2977
sg64
(lp2984
S''
asbasbasbag57
(g73
g59
NtRp2985
(dp2986
g62
(dp2987
sg71
g2666
sg64
(lp2988
g57
(g78
g59
NtRp2989
(dp2990
g62
(dp2991
g82
g83
ssg71
g2985
sg64
(lp2992
S'SERVER_NAME'
p2993
asbag57
(g78
g59
NtRp2994
(dp2995
g62
(dp2996
g89
g90
ssg71
g2985
sg64
(lp2997
S':'
asbag57
(g78
g59
NtRp2998
(dp2999
g62
(dp3000
sg71
g2985
sg64
(lp3001
g57
(g58
g59
NtRp3002
(dp3003
g62
(dp3004
g70
I3
ssg71
g2998
sg64
(lp3005
g1488
asbasbasbag57
(g73
g59
NtRp3006
(dp3007
g62
(dp3008
sg71
g2666
sg64
(lp3009
g57
(g78
g59
NtRp3010
(dp3011
g62
(dp3012
g82
g83
ssg71
g3006
sg64
(lp3013
S'SERVER_PORT'
p3014
asbag57
(g78
g59
NtRp3015
(dp3016
g62
(dp3017
g89
g90
ssg71
g3006
sg64
(lp3018
S':'
asbag57
(g78
g59
NtRp3019
(dp3020
g62
(dp3021
sg71
g3006
sg64
(lp3022
g57
(g58
g59
NtRp3023
(dp3024
g62
(dp3025
g70
I3
ssg71
g3019
sg64
(lp3026
g1510
asbasbasbag57
(g73
g59
NtRp3027
(dp3028
g62
(dp3029
sg71
g2666
sg64
(lp3030
g57
(g78
g59
NtRp3031
(dp3032
g62
(dp3033
g82
g83
ssg71
g3027
sg64
(lp3034
S'SERVER_PROTOCOL'
p3035
asbag57
(g78
g59
NtRp3036
(dp3037
g62
(dp3038
g89
g90
ssg71
g3027
sg64
(lp3039
S':'
asbag57
(g78
g59
NtRp3040
(dp3041
g62
(dp3042
sg71
g3027
sg64
(lp3043
g57
(g58
g59
NtRp3044
(dp3045
g62
(dp3046
g70
I3
ssg71
g3040
sg64
(lp3047
g1532
asbasbasbag57
(g73
g59
NtRp3048
(dp3049
g62
(dp3050
sg71
g2666
sg64
(lp3051
g57
(g78
g59
NtRp3052
(dp3053
g62
(dp3054
g82
g83
ssg71
g3048
sg64
(lp3055
S'SERVER_SOFTWARE'
p3056
asbag57
(g78
g59
NtRp3057
(dp3058
g62
(dp3059
g89
g90
ssg71
g3048
sg64
(lp3060
S':'
asbag57
(g78
g59
NtRp3061
(dp3062
g62
(dp3063
sg71
g3048
sg64
(lp3064
g57
(g58
g59
NtRp3065
(dp3066
g62
(dp3067
g70
I3
ssg71
g3061
sg64
(lp3068
g1554
asbasbasbag57
(g73
g59
NtRp3069
(dp3070
g62
(dp3071
sg71
g2666
sg64
(lp3072
g57
(g78
g59
NtRp3073
(dp3074
g62
(dp3075
g82
g83
ssg71
g3069
sg64
(lp3076
S'wsgi.errors'
p3077
asbag57
(g78
g59
NtRp3078
(dp3079
g62
(dp3080
g89
g90
ssg71
g3069
sg64
(lp3081
S':'
asbag57
(g78
g59
NtRp3082
(dp3083
g62
(dp3084
sg71
g3069
sg64
(lp3085
g57
(g58
g59
NtRp3086
(dp3087
g62
(dp3088
g70
I3
ssg71
g3082
sg64
(lp3089
S"<open file '<stderr>', mode 'w' at 0xb73070d0>"
p3090
asbasbasbag57
(g73
g59
NtRp3091
(dp3092
g62
(dp3093
sg71
g2666
sg64
(lp3094
g57
(g78
g59
NtRp3095
(dp3096
g62
(dp3097
g82
g83
ssg71
g3091
sg64
(lp3098
S'wsgi.file_wrapper'
p3099
asbag57
(g78
g59
NtRp3100
(dp3101
g62
(dp3102
g89
g90
ssg71
g3091
sg64
(lp3103
S':'
asbag57
(g78
g59
NtRp3104
(dp3105
g62
(dp3106
sg71
g3091
sg64
(lp3107
g57
(g58
g59
NtRp3108
(dp3109
g62
(dp3110
g70
I3
ssg71
g3104
sg64
(lp3111
S'<class wsgiref.util.FileWrapper at 0x8e946bc>'
p3112
asbasbasbag57
(g73
g59
NtRp3113
(dp3114
g62
(dp3115
sg71
g2666
sg64
(lp3116
g57
(g78
g59
NtRp3117
(dp3118
g62
(dp3119
g82
g83
ssg71
g3113
sg64
(lp3120
S'wsgi.input'
p3121
asbag57
(g78
g59
NtRp3122
(dp3123
g62
(dp3124
g89
g90
ssg71
g3113
sg64
(lp3125
S':'
asbag57
(g78
g59
NtRp3126
(dp3127
g62
(dp3128
sg71
g3113
sg64
(lp3129
g57
(g58
g59
NtRp3130
(dp3131
g62
(dp3132
g70
I3
ssg71
g3126
sg64
(lp3133
S'<cStringIO.StringO object at 0x91aa6c0>'
p3134
asbasbasbag57
(g73
g59
NtRp3135
(dp3136
g62
(dp3137
sg71
g2666
sg64
(lp3138
g57
(g78
g59
NtRp3139
(dp3140
g62
(dp3141
g82
g83
ssg71
g3135
sg64
(lp3142
S'wsgi.multiprocess'
p3143
asbag57
(g78
g59
NtRp3144
(dp3145
g62
(dp3146
g89
g90
ssg71
g3135
sg64
(lp3147
S':'
asbag57
(g78
g59
NtRp3148
(dp3149
g62
(dp3150
sg71
g3135
sg64
(lp3151
g57
(g58
g59
NtRp3152
(dp3153
g62
(dp3154
g70
I3
ssg71
g3148
sg64
(lp3155
g100
asbasbasbag57
(g73
g59
NtRp3156
(dp3157
g62
(dp3158
sg71
g2666
sg64
(lp3159
g57
(g78
g59
NtRp3160
(dp3161
g62
(dp3162
g82
g83
ssg71
g3156
sg64
(lp3163
S'wsgi.multithread'
p3164
asbag57
(g78
g59
NtRp3165
(dp3166
g62
(dp3167
g89
g90
ssg71
g3156
sg64
(lp3168
S':'
asbag57
(g78
g59
NtRp3169
(dp3170
g62
(dp3171
sg71
g3156
sg64
(lp3172
g57
(g58
g59
NtRp3173
(dp3174
g62
(dp3175
g70
I3
ssg71
g3169
sg64
(lp3176
g1771
asbasbasbag57
(g73
g59
NtRp3177
(dp3178
g62
(dp3179
sg71
g2666
sg64
(lp3180
g57
(g78
g59
NtRp3181
(dp3182
g62
(dp3183
g82
g83
ssg71
g3177
sg64
(lp3184
S'wsgi.run_once'
p3185
asbag57
(g78
g59
NtRp3186
(dp3187
g62
(dp3188
g89
g90
ssg71
g3177
sg64
(lp3189
S':'
asbag57
(g78
g59
NtRp3190
(dp3191
g62
(dp3192
sg71
g3177
sg64
(lp3193
g57
(g58
g59
NtRp3194
(dp3195
g62
(dp3196
g70
I3
ssg71
g3190
sg64
(lp3197
g100
asbasbasbag57
(g73
g59
NtRp3198
(dp3199
g62
(dp3200
sg71
g2666
sg64
(lp3201
g57
(g78
g59
NtRp3202
(dp3203
g62
(dp3204
g82
g83
ssg71
g3198
sg64
(lp3205
S'wsgi.url_scheme'
p3206
asbag57
(g78
g59
NtRp3207
(dp3208
g62
(dp3209
g89
g90
ssg71
g3198
sg64
(lp3210
S':'
asbag57
(g78
g59
NtRp3211
(dp3212
g62
(dp3213
sg71
g3198
sg64
(lp3214
g57
(g58
g59
NtRp3215
(dp3216
g62
(dp3217
g70
I3
ssg71
g3211
sg64
(lp3218
g1814
asbasbasbag57
(g73
g59
NtRp3219
(dp3220
g62
(dp3221
sg71
g2666
sg64
(lp3222
g57
(g78
g59
NtRp3223
(dp3224
g62
(dp3225
g82
g83
ssg71
g3219
sg64
(lp3226
S'wsgi.version'
p3227
asbag57
(g78
g59
NtRp3228
(dp3229
g62
(dp3230
g89
g90
ssg71
g3219
sg64
(lp3231
S':'
asbag57
(g78
g59
NtRp3232
(dp3233
g62
(dp3234
sg71
g3219
sg64
(lp3235
g57
(g58
g59
NtRp3236
(dp3237
g62
(dp3238
g70
I3
ssg71
g3232
sg64
(lp3239
S'1'
asbasbasbasbasbasbasbasbasbasbasbasbasbsS'frames'
p3240
(lp3241
(dp3242
S'file'
p3243
S'/home/abhinav/Desktop/iiit/web2py/gluon/restricted.py'
p3244
sS'dump'
p3245
(dp3246
S'environment'
p3247
S"{'A': <class 'gluon.html.A'>, 'Auth': <class 'gluon.tools.Auth'>, 'B': <class 'gluon.html.B'>, 'BEAUTIFY': <class 'gluon.html.BEAUTIFY'>, 'BODY': <class 'gluon.html.BODY'>, 'BR': <class 'gluon.html.BR'>, 'BUTTON': <class 'gluon.html.BUTTON'>, 'CAT': <class 'gluon.html.CAT'>, 'CENTER': <class 'gluon.html.CENTER'>, 'CLEANUP': <class 'gluon.validators.CLEANUP'>, ...}"
p3248
sS'ccode'
p3249
S'<code object <module> at 0xacd6f530, file "/home...WSD/views/default/sentence_selectc.html", line 1>'
p3250
ssS'lnum'
p3251
I212
sS'lines'
p3252
(dp3253
I207
S'    try:'
p3254
sI208
S'        if isinstance(code, types.CodeType):'
p3255
sI209
S'            ccode = code'
p3256
sI210
S'        else:'
p3257
sI211
S'            ccode = compile2(code, layer)'
p3258
sI212
S'        exec ccode in environment'
p3259
sI213
S'    except HTTP:'
p3260
sI214
S'        raise'
p3261
sI215
S'    except RestrictedError:'
p3262
sI216
S'        # do not encapsulate (obfuscate) the original RestrictedError'
p3263
ssS'call'
p3264
S'(code=\'response.write(\\\'<!DOCTYPE html PUBLIC "-//W3C//D...d footer -->\\\\n </body>\\\\n</html>\\\\n\\\', escape=False)\', environment={\'A\': <class \'gluon.html.A\'>, \'Auth\': <class \'gluon.tools.Auth\'>, \'B\': <class \'gluon.html.B\'>, \'BEAUTIFY\': <class \'gluon.html.BEAUTIFY\'>, \'BODY\': <class \'gluon.html.BODY\'>, \'BR\': <class \'gluon.html.BR\'>, \'BUTTON\': <class \'gluon.html.BUTTON\'>, \'CAT\': <class \'gluon.html.CAT\'>, \'CENTER\': <class \'gluon.html.CENTER\'>, \'CLEANUP\': <class \'gluon.validators.CLEANUP\'>, ...}, layer=\'/home/abhinav/Desktop/iiit/web2py/applications/WSD/views/default/sentence_selectc.html\')'
p3265
sS'func'
p3266
S'restricted'
p3267
sa(dp3268
g3243
S'/home/abhinav/Desktop/iiit/web2py/applications/WSD/views/default/sentence_selectc.html'
p3269
sg3245
(dp3270
sg3251
I52
sg3252
(dp3271
I43
S"response.write('\\n', escape=False)"
p3272
sI44
S'r = db(db.links.wid==int(d)).select(db.links.sid)'
p3273
sI45
S"response.write('\\n', escape=False)"
p3274
sI46
S'for i in r:'
p3275
sI47
S"    response.write('\\n', escape=False)"
p3276
sI48
S'    x =db(db.sentences.id==i.sid).select()'
p3277
sI49
S"    response.write('\\n', escape=False)"
p3278
sI50
S'    for j in x:'
p3279
sI51
S"        response.write('\\n', escape=False)"
p3280
sI52
S'        if j.hsentence and int(level_set)==int(j.level):'
p3281
sI53
S"            response.write('\\n', escape=False)"
p3282
sI54
S'            s.append(j.esentence)'
p3283
sI55
S"            response.write('\\n', escape=False)"
p3284
sI56
S'            pass'
p3285
sI57
S"        response.write('\\n', escape=False)"
p3286
sI58
S'        pass'
p3287
sI59
S"    response.write('\\n', escape=False)"
p3288
sI60
S'    pass'
p3289
sI61
S"response.write('\\n<br>\\n', escape=False)"
p3290
sI62
S'if s:'
p3291
ssg3264
S'()'
p3292
sg3266
S'<module>'
p3293
sasS'pyver'
p3294
S'Python 2.7.3: /usr/bin/python'
p3295
sS'session'
p3296
g57
(g58
g59
NtRp3297
(dp3298
g62
(dp3299
sg64
(lp3300
g57
(g66
g59
NtRp3301
(dp3302
g62
(dp3303
g70
I5
ssg71
Nsg64
(lp3304
g57
(g73
g59
NtRp3305
(dp3306
g62
(dp3307
sg71
g3301
sg64
(lp3308
g57
(g78
g59
NtRp3309
(dp3310
g62
(dp3311
g82
g83
ssg71
g3305
sg64
(lp3312
S'auth'
p3313
asbag57
(g78
g59
NtRp3314
(dp3315
g62
(dp3316
g89
g90
ssg71
g3305
sg64
(lp3317
S':'
asbag57
(g78
g59
NtRp3318
(dp3319
g62
(dp3320
sg71
g3305
sg64
(lp3321
g57
(g58
g59
NtRp3322
(dp3323
g62
(dp3324
g70
I5
ssg71
g3318
sg64
(lp3325
g57
(g66
g59
NtRp3326
(dp3327
g62
(dp3328
g70
I4
ssg71
Nsg64
(lp3329
g57
(g73
g59
NtRp3330
(dp3331
g62
(dp3332
sg71
g3326
sg64
(lp3333
g57
(g78
g59
NtRp3334
(dp3335
g62
(dp3336
g82
g83
ssg71
g3330
sg64
(lp3337
S'expiration'
p3338
asbag57
(g78
g59
NtRp3339
(dp3340
g62
(dp3341
g89
g90
ssg71
g3330
sg64
(lp3342
S':'
asbag57
(g78
g59
NtRp3343
(dp3344
g62
(dp3345
sg71
g3330
sg64
(lp3346
g57
(g58
g59
NtRp3347
(dp3348
g62
(dp3349
g70
I4
ssg71
g3343
sg64
(lp3350
S'3600'
p3351
asbasbasbag57
(g73
g59
NtRp3352
(dp3353
g62
(dp3354
sg71
g3326
sg64
(lp3355
g57
(g78
g59
NtRp3356
(dp3357
g62
(dp3358
g82
g83
ssg71
g3352
sg64
(lp3359
S'hmac_key'
p3360
asbag57
(g78
g59
NtRp3361
(dp3362
g62
(dp3363
g89
g90
ssg71
g3352
sg64
(lp3364
S':'
asbag57
(g78
g59
NtRp3365
(dp3366
g62
(dp3367
sg71
g3352
sg64
(lp3368
g57
(g58
g59
NtRp3369
(dp3370
g62
(dp3371
g70
I4
ssg71
g3365
sg64
(lp3372
S'626bbece-033a-404f-86b3-241bc736da6f'
p3373
asbasbasbag57
(g73
g59
NtRp3374
(dp3375
g62
(dp3376
sg71
g3326
sg64
(lp3377
g57
(g78
g59
NtRp3378
(dp3379
g62
(dp3380
g82
g83
ssg71
g3374
sg64
(lp3381
S'last_visit'
p3382
asbag57
(g78
g59
NtRp3383
(dp3384
g62
(dp3385
g89
g90
ssg71
g3374
sg64
(lp3386
S':'
asbag57
(g78
g59
NtRp3387
(dp3388
g62
(dp3389
sg71
g3374
sg64
(lp3390
g57
(g58
g59
NtRp3391
(dp3392
g62
(dp3393
g70
I4
ssg71
g3387
sg64
(lp3394
S'datetime.datetime(2013, 11, 16, 15, 57, 54, 464863)'
p3395
asbasbasbag57
(g73
g59
NtRp3396
(dp3397
g62
(dp3398
sg71
g3326
sg64
(lp3399
g57
(g78
g59
NtRp3400
(dp3401
g62
(dp3402
g82
g83
ssg71
g3396
sg64
(lp3403
S'remember'
p3404
asbag57
(g78
g59
NtRp3405
(dp3406
g62
(dp3407
g89
g90
ssg71
g3396
sg64
(lp3408
S':'
asbag57
(g78
g59
NtRp3409
(dp3410
g62
(dp3411
sg71
g3396
sg64
(lp3412
g57
(g58
g59
NtRp3413
(dp3414
g62
(dp3415
g70
I4
ssg71
g3409
sg64
(lp3416
g100
asbasbasbag57
(g73
g59
NtRp3417
(dp3418
g62
(dp3419
sg71
g3326
sg64
(lp3420
g57
(g78
g59
NtRp3421
(dp3422
g62
(dp3423
g82
g83
ssg71
g3417
sg64
(lp3424
S'user'
p3425
asbag57
(g78
g59
NtRp3426
(dp3427
g62
(dp3428
g89
g90
ssg71
g3417
sg64
(lp3429
S':'
asbag57
(g78
g59
NtRp3430
(dp3431
g62
(dp3432
sg71
g3417
sg64
(lp3433
g57
(g58
g59
NtRp3434
(dp3435
g62
(dp3436
g70
I4
ssg71
g3430
sg64
(lp3437
g57
(g66
g59
NtRp3438
(dp3439
g62
(dp3440
g70
I3
ssg71
Nsg64
(lp3441
g57
(g73
g59
NtRp3442
(dp3443
g62
(dp3444
sg71
g3438
sg64
(lp3445
g57
(g78
g59
NtRp3446
(dp3447
g62
(dp3448
g82
g83
ssg71
g3442
sg64
(lp3449
S'email'
p3450
asbag57
(g78
g59
NtRp3451
(dp3452
g62
(dp3453
g89
g90
ssg71
g3442
sg64
(lp3454
S':'
asbag57
(g78
g59
NtRp3455
(dp3456
g62
(dp3457
sg71
g3442
sg64
(lp3458
g57
(g58
g59
NtRp3459
(dp3460
g62
(dp3461
g70
I3
ssg71
g3455
sg64
(lp3462
S'user@sys.com'
p3463
asbasbasbag57
(g73
g59
NtRp3464
(dp3465
g62
(dp3466
sg71
g3438
sg64
(lp3467
g57
(g78
g59
NtRp3468
(dp3469
g62
(dp3470
g82
g83
ssg71
g3464
sg64
(lp3471
S'first_name'
p3472
asbag57
(g78
g59
NtRp3473
(dp3474
g62
(dp3475
g89
g90
ssg71
g3464
sg64
(lp3476
S':'
asbag57
(g78
g59
NtRp3477
(dp3478
g62
(dp3479
sg71
g3464
sg64
(lp3480
g57
(g58
g59
NtRp3481
(dp3482
g62
(dp3483
g70
I3
ssg71
g3477
sg64
(lp3484
S'user'
p3485
asbasbasbag57
(g73
g59
NtRp3486
(dp3487
g62
(dp3488
sg71
g3438
sg64
(lp3489
g57
(g78
g59
NtRp3490
(dp3491
g62
(dp3492
g82
g83
ssg71
g3486
sg64
(lp3493
S'id'
p3494
asbag57
(g78
g59
NtRp3495
(dp3496
g62
(dp3497
g89
g90
ssg71
g3486
sg64
(lp3498
S':'
asbag57
(g78
g59
NtRp3499
(dp3500
g62
(dp3501
sg71
g3486
sg64
(lp3502
g57
(g58
g59
NtRp3503
(dp3504
g62
(dp3505
g70
I3
ssg71
g3499
sg64
(lp3506
S'7'
asbasbasbag57
(g73
g59
NtRp3507
(dp3508
g62
(dp3509
sg71
g3438
sg64
(lp3510
g57
(g78
g59
NtRp3511
(dp3512
g62
(dp3513
g82
g83
ssg71
g3507
sg64
(lp3514
S'last_name'
p3515
asbag57
(g78
g59
NtRp3516
(dp3517
g62
(dp3518
g89
g90
ssg71
g3507
sg64
(lp3519
S':'
asbag57
(g78
g59
NtRp3520
(dp3521
g62
(dp3522
sg71
g3507
sg64
(lp3523
g57
(g58
g59
NtRp3524
(dp3525
g62
(dp3526
g70
I3
ssg71
g3520
sg64
(lp3527
S'user'
p3528
asbasbasbag57
(g73
g59
NtRp3529
(dp3530
g62
(dp3531
sg71
g3438
sg64
(lp3532
g57
(g78
g59
NtRp3533
(dp3534
g62
(dp3535
g82
g83
ssg71
g3529
sg64
(lp3536
S'registration_id'
p3537
asbag57
(g78
g59
NtRp3538
(dp3539
g62
(dp3540
g89
g90
ssg71
g3529
sg64
(lp3541
S':'
asbag57
(g78
g59
NtRp3542
(dp3543
g62
(dp3544
sg71
g3529
sg64
(lp3545
g57
(g58
g59
NtRp3546
(dp3547
g62
(dp3548
g70
I3
ssg71
g3542
sg64
(lp3549
S''
asbasbasbag57
(g73
g59
NtRp3550
(dp3551
g62
(dp3552
sg71
g3438
sg64
(lp3553
g57
(g78
g59
NtRp3554
(dp3555
g62
(dp3556
g82
g83
ssg71
g3550
sg64
(lp3557
S'registration_key'
p3558
asbag57
(g78
g59
NtRp3559
(dp3560
g62
(dp3561
g89
g90
ssg71
g3550
sg64
(lp3562
S':'
asbag57
(g78
g59
NtRp3563
(dp3564
g62
(dp3565
sg71
g3550
sg64
(lp3566
g57
(g58
g59
NtRp3567
(dp3568
g62
(dp3569
g70
I3
ssg71
g3563
sg64
(lp3570
S''
asbasbasbag57
(g73
g59
NtRp3571
(dp3572
g62
(dp3573
sg71
g3438
sg64
(lp3574
g57
(g78
g59
NtRp3575
(dp3576
g62
(dp3577
g82
g83
ssg71
g3571
sg64
(lp3578
S'reset_password_key'
p3579
asbag57
(g78
g59
NtRp3580
(dp3581
g62
(dp3582
g89
g90
ssg71
g3571
sg64
(lp3583
S':'
asbag57
(g78
g59
NtRp3584
(dp3585
g62
(dp3586
sg71
g3571
sg64
(lp3587
g57
(g58
g59
NtRp3588
(dp3589
g62
(dp3590
g70
I3
ssg71
g3584
sg64
(lp3591
S''
asbasbasbasbasbasbasbag57
(g73
g59
NtRp3592
(dp3593
g62
(dp3594
sg71
g3326
sg64
(lp3595
g57
(g78
g59
NtRp3596
(dp3597
g62
(dp3598
g82
g83
ssg71
g3592
sg64
(lp3599
S'user_groups'
p3600
asbag57
(g78
g59
NtRp3601
(dp3602
g62
(dp3603
g89
g90
ssg71
g3592
sg64
(lp3604
S':'
asbag57
(g78
g59
NtRp3605
(dp3606
g62
(dp3607
sg71
g3592
sg64
(lp3608
g57
(g58
g59
NtRp3609
(dp3610
g62
(dp3611
g70
I4
ssg71
g3605
sg64
(lp3612
g57
(g66
g59
NtRp3613
(dp3614
g62
(dp3615
g70
I3
ssg71
Nsg64
(lp3616
sbasbasbasbasbasbasbasbag57
(g73
g59
NtRp3617
(dp3618
g62
(dp3619
sg71
g3301
sg64
(lp3620
g57
(g78
g59
NtRp3621
(dp3622
g62
(dp3623
g82
g83
ssg71
g3617
sg64
(lp3624
S'flash'
p3625
asbag57
(g78
g59
NtRp3626
(dp3627
g62
(dp3628
g89
g90
ssg71
g3617
sg64
(lp3629
S':'
asbag57
(g78
g59
NtRp3630
(dp3631
g62
(dp3632
sg71
g3617
sg64
(lp3633
g57
(g58
g59
NtRp3634
(dp3635
g62
(dp3636
g70
I5
ssg71
g3630
sg64
(lp3637
S'None'
p3638
asbasbasbag57
(g73
g59
NtRp3639
(dp3640
g62
(dp3641
sg71
g3301
sg64
(lp3642
g57
(g78
g59
NtRp3643
(dp3644
g62
(dp3645
g82
g83
ssg71
g3639
sg64
(lp3646
S'ide'
p3647
asbag57
(g78
g59
NtRp3648
(dp3649
g62
(dp3650
g89
g90
ssg71
g3639
sg64
(lp3651
S':'
asbag57
(g78
g59
NtRp3652
(dp3653
g62
(dp3654
sg71
g3639
sg64
(lp3655
g57
(g58
g59
NtRp3656
(dp3657
g62
(dp3658
g70
I5
ssg71
g3652
sg64
(lp3659
S'9'
asbasbasbag57
(g73
g59
NtRp3660
(dp3661
g62
(dp3662
sg71
g3301
sg64
(lp3663
g57
(g78
g59
NtRp3664
(dp3665
g62
(dp3666
g82
g83
ssg71
g3660
sg64
(lp3667
S'last_orderby'
p3668
asbag57
(g78
g59
NtRp3669
(dp3670
g62
(dp3671
g89
g90
ssg71
g3660
sg64
(lp3672
S':'
asbag57
(g78
g59
NtRp3673
(dp3674
g62
(dp3675
sg71
g3660
sg64
(lp3676
g57
(g58
g59
NtRp3677
(dp3678
g62
(dp3679
g70
I5
ssg71
g3673
sg64
(lp3680
S'None'
p3681
asbasbasbag57
(g73
g59
NtRp3682
(dp3683
g62
(dp3684
sg71
g3301
sg64
(lp3685
g57
(g78
g59
NtRp3686
(dp3687
g62
(dp3688
g82
g83
ssg71
g3682
sg64
(lp3689
S'last_query'
p3690
asbag57
(g78
g59
NtRp3691
(dp3692
g62
(dp3693
g89
g90
ssg71
g3682
sg64
(lp3694
S':'
asbag57
(g78
g59
NtRp3695
(dp3696
g62
(dp3697
sg71
g3682
sg64
(lp3698
g57
(g58
g59
NtRp3699
(dp3700
g62
(dp3701
g70
I5
ssg71
g3695
sg64
(lp3702
S'db.auth_user.id>0'
p3703
asbasbasbag57
(g73
g59
NtRp3704
(dp3705
g62
(dp3706
sg71
g3301
sg64
(lp3707
g57
(g78
g59
NtRp3708
(dp3709
g62
(dp3710
g82
g83
ssg71
g3704
sg64
(lp3711
S'level'
p3712
asbag57
(g78
g59
NtRp3713
(dp3714
g62
(dp3715
g89
g90
ssg71
g3704
sg64
(lp3716
S':'
asbag57
(g78
g59
NtRp3717
(dp3718
g62
(dp3719
sg71
g3704
sg64
(lp3720
g57
(g58
g59
NtRp3721
(dp3722
g62
(dp3723
g70
I5
ssg71
g3717
sg64
(lp3724
S'1'
asbasbasbag57
(g73
g59
NtRp3725
(dp3726
g62
(dp3727
sg71
g3301
sg64
(lp3728
g57
(g78
g59
NtRp3729
(dp3730
g62
(dp3731
g82
g83
ssg71
g3725
sg64
(lp3732
S'word'
p3733
asbag57
(g78
g59
NtRp3734
(dp3735
g62
(dp3736
g89
g90
ssg71
g3725
sg64
(lp3737
S':'
asbag57
(g78
g59
NtRp3738
(dp3739
g62
(dp3740
sg71
g3725
sg64
(lp3741
g57
(g58
g59
NtRp3742
(dp3743
g62
(dp3744
g70
I5
ssg71
g3738
sg64
(lp3745
S'old'
p3746
asbasbasbasbasbsS'etype'
p3747
S"<type 'exceptions.TypeError'>"
p3748
sS'date'
p3749
S'Sat Nov 16 15:59:15 2013'
p3750
sS'response'
p3751
g57
(g58
g59
NtRp3752
(dp3753
g62
(dp3754
sg64
(lp3755
g57
(g66
g59
NtRp3756
(dp3757
g62
(dp3758
g70
I5
ssg71
Nsg64
(lp3759
g57
(g73
g59
NtRp3760
(dp3761
g62
(dp3762
sg71
g3756
sg64
(lp3763
g57
(g78
g59
NtRp3764
(dp3765
g62
(dp3766
g82
g83
ssg71
g3760
sg64
(lp3767
g155
asbag57
(g78
g59
NtRp3768
(dp3769
g62
(dp3770
g89
g90
ssg71
g3760
sg64
(lp3771
S':'
asbag57
(g78
g59
NtRp3772
(dp3773
g62
(dp3774
sg71
g3760
sg64
(lp3775
g57
(g58
g59
NtRp3776
(dp3777
g62
(dp3778
g70
I5
ssg71
g3772
sg64
(lp3779
S'<cStringIO.StringO object at 0x918ed20>'
p3780
asbasbasbag57
(g73
g59
NtRp3781
(dp3782
g62
(dp3783
sg71
g3756
sg64
(lp3784
g57
(g78
g59
NtRp3785
(dp3786
g62
(dp3787
g82
g83
ssg71
g3781
sg64
(lp3788
g243
asbag57
(g78
g59
NtRp3789
(dp3790
g62
(dp3791
g89
g90
ssg71
g3781
sg64
(lp3792
S':'
asbag57
(g78
g59
NtRp3793
(dp3794
g62
(dp3795
sg71
g3781
sg64
(lp3796
g57
(g58
g59
NtRp3797
(dp3798
g62
(dp3799
g70
I5
ssg71
g3793
sg64
(lp3800
g57
(g66
g59
NtRp3801
(dp3802
g62
(dp3803
g70
I4
ssg71
Nsg64
(lp3804
g57
(g73
g59
NtRp3805
(dp3806
g62
(dp3807
sg71
g3801
sg64
(lp3808
g57
(g78
g59
NtRp3809
(dp3810
g62
(dp3811
g82
g83
ssg71
g3805
sg64
(lp3812
S'session_id_wsd'
p3813
asbag57
(g78
g59
NtRp3814
(dp3815
g62
(dp3816
g89
g90
ssg71
g3805
sg64
(lp3817
S':'
asbag57
(g78
g59
NtRp3818
(dp3819
g62
(dp3820
sg71
g3805
sg64
(lp3821
g57
(g58
g59
NtRp3822
(dp3823
g62
(dp3824
g70
I4
ssg71
g3818
sg64
(lp3825
g661
ag57
(g66
g59
NtRp3826
(dp3827
g62
(dp3828
g70
I3
ssg71
Nsg64
(lp3829
g57
(g73
g59
NtRp3830
(dp3831
g62
(dp3832
sg71
g3826
sg64
(lp3833
g57
(g78
g59
NtRp3834
(dp3835
g62
(dp3836
g82
g83
ssg71
g3830
sg64
(lp3837
g294
asbag57
(g78
g59
NtRp3838
(dp3839
g62
(dp3840
g89
g90
ssg71
g3830
sg64
(lp3841
S':'
asbag57
(g78
g59
NtRp3842
(dp3843
g62
(dp3844
sg71
g3830
sg64
(lp3845
g57
(g58
g59
NtRp3846
(dp3847
g62
(dp3848
g70
I3
ssg71
g3842
sg64
(lp3849
S''
asbasbasbag57
(g73
g59
NtRp3850
(dp3851
g62
(dp3852
sg71
g3826
sg64
(lp3853
g57
(g78
g59
NtRp3854
(dp3855
g62
(dp3856
g82
g83
ssg71
g3850
sg64
(lp3857
g315
asbag57
(g78
g59
NtRp3858
(dp3859
g62
(dp3860
g89
g90
ssg71
g3850
sg64
(lp3861
S':'
asbag57
(g78
g59
NtRp3862
(dp3863
g62
(dp3864
sg71
g3850
sg64
(lp3865
g57
(g58
g59
NtRp3866
(dp3867
g62
(dp3868
g70
I3
ssg71
g3862
sg64
(lp3869
S''
asbasbasbag57
(g73
g59
NtRp3870
(dp3871
g62
(dp3872
sg71
g3826
sg64
(lp3873
g57
(g78
g59
NtRp3874
(dp3875
g62
(dp3876
g82
g83
ssg71
g3870
sg64
(lp3877
g336
asbag57
(g78
g59
NtRp3878
(dp3879
g62
(dp3880
g89
g90
ssg71
g3870
sg64
(lp3881
S':'
asbag57
(g78
g59
NtRp3882
(dp3883
g62
(dp3884
sg71
g3870
sg64
(lp3885
g57
(g58
g59
NtRp3886
(dp3887
g62
(dp3888
g70
I3
ssg71
g3882
sg64
(lp3889
S''
asbasbasbag57
(g73
g59
NtRp3890
(dp3891
g62
(dp3892
sg71
g3826
sg64
(lp3893
g57
(g78
g59
NtRp3894
(dp3895
g62
(dp3896
g82
g83
ssg71
g3890
sg64
(lp3897
g357
asbag57
(g78
g59
NtRp3898
(dp3899
g62
(dp3900
g89
g90
ssg71
g3890
sg64
(lp3901
S':'
asbag57
(g78
g59
NtRp3902
(dp3903
g62
(dp3904
sg71
g3890
sg64
(lp3905
g57
(g58
g59
NtRp3906
(dp3907
g62
(dp3908
g70
I3
ssg71
g3902
sg64
(lp3909
S''
asbasbasbag57
(g73
g59
NtRp3910
(dp3911
g62
(dp3912
sg71
g3826
sg64
(lp3913
g57
(g78
g59
NtRp3914
(dp3915
g62
(dp3916
g82
g83
ssg71
g3910
sg64
(lp3917
g378
asbag57
(g78
g59
NtRp3918
(dp3919
g62
(dp3920
g89
g90
ssg71
g3910
sg64
(lp3921
S':'
asbag57
(g78
g59
NtRp3922
(dp3923
g62
(dp3924
sg71
g3910
sg64
(lp3925
g57
(g58
g59
NtRp3926
(dp3927
g62
(dp3928
g70
I3
ssg71
g3922
sg64
(lp3929
S''
asbasbasbag57
(g73
g59
NtRp3930
(dp3931
g62
(dp3932
sg71
g3826
sg64
(lp3933
g57
(g78
g59
NtRp3934
(dp3935
g62
(dp3936
g82
g83
ssg71
g3930
sg64
(lp3937
g399
asbag57
(g78
g59
NtRp3938
(dp3939
g62
(dp3940
g89
g90
ssg71
g3930
sg64
(lp3941
S':'
asbag57
(g78
g59
NtRp3942
(dp3943
g62
(dp3944
sg71
g3930
sg64
(lp3945
g57
(g58
g59
NtRp3946
(dp3947
g62
(dp3948
g70
I3
ssg71
g3942
sg64
(lp3949
S'/'
asbasbasbag57
(g73
g59
NtRp3950
(dp3951
g62
(dp3952
sg71
g3826
sg64
(lp3953
g57
(g78
g59
NtRp3954
(dp3955
g62
(dp3956
g82
g83
ssg71
g3950
sg64
(lp3957
g420
asbag57
(g78
g59
NtRp3958
(dp3959
g62
(dp3960
g89
g90
ssg71
g3950
sg64
(lp3961
S':'
asbag57
(g78
g59
NtRp3962
(dp3963
g62
(dp3964
sg71
g3950
sg64
(lp3965
g57
(g58
g59
NtRp3966
(dp3967
g62
(dp3968
g70
I3
ssg71
g3962
sg64
(lp3969
S''
asbasbasbag57
(g73
g59
NtRp3970
(dp3971
g62
(dp3972
sg71
g3826
sg64
(lp3973
g57
(g78
g59
NtRp3974
(dp3975
g62
(dp3976
g82
g83
ssg71
g3970
sg64
(lp3977
g441
asbag57
(g78
g59
NtRp3978
(dp3979
g62
(dp3980
g89
g90
ssg71
g3970
sg64
(lp3981
S':'
asbag57
(g78
g59
NtRp3982
(dp3983
g62
(dp3984
sg71
g3970
sg64
(lp3985
g57
(g58
g59
NtRp3986
(dp3987
g62
(dp3988
g70
I3
ssg71
g3982
sg64
(lp3989
S''
asbasbasbasbasbasbasbasbasbasbasbag57
(g73
g59
NtRp3990
(dp3991
g62
(dp3992
sg71
g3756
sg64
(lp3993
g57
(g78
g59
NtRp3994
(dp3995
g62
(dp3996
g82
g83
ssg71
g3990
sg64
(lp3997
S'delimiters'
p3998
asbag57
(g78
g59
NtRp3999
(dp4000
g62
(dp4001
g89
g90
ssg71
g3990
sg64
(lp4002
S':'
asbag57
(g78
g59
NtRp4003
(dp4004
g62
(dp4005
sg71
g3990
sg64
(lp4006
g57
(g58
g59
NtRp4007
(dp4008
g62
(dp4009
g70
I5
ssg71
g4003
sg64
(lp4010
g57
(g66
g59
NtRp4011
(dp4012
g62
(dp4013
g70
I4
ssg71
Nsg64
(lp4014
g57
(g73
g59
NtRp4015
(dp4016
g62
(dp4017
sg71
g4011
sg64
(lp4018
g57
(g78
g59
NtRp4019
(dp4020
g62
(dp4021
sg71
g4015
sg64
(lp4022
g57
(g58
g59
NtRp4023
(dp4024
g62
(dp4025
g70
I4
ssg71
g4019
sg64
(lp4026
S'{{'
p4027
asbasbasbag57
(g73
g59
NtRp4028
(dp4029
g62
(dp4030
sg71
g4011
sg64
(lp4031
g57
(g78
g59
NtRp4032
(dp4033
g62
(dp4034
sg71
g4028
sg64
(lp4035
g57
(g58
g59
NtRp4036
(dp4037
g62
(dp4038
g70
I4
ssg71
g4032
sg64
(lp4039
S'}}'
p4040
asbasbasbasbasbasbasbag57
(g73
g59
NtRp4041
(dp4042
g62
(dp4043
sg71
g3756
sg64
(lp4044
g57
(g78
g59
NtRp4045
(dp4046
g62
(dp4047
g82
g83
ssg71
g4041
sg64
(lp4048
S'files'
p4049
asbag57
(g78
g59
NtRp4050
(dp4051
g62
(dp4052
g89
g90
ssg71
g4041
sg64
(lp4053
S':'
asbag57
(g78
g59
NtRp4054
(dp4055
g62
(dp4056
sg71
g4041
sg64
(lp4057
g57
(g58
g59
NtRp4058
(dp4059
g62
(dp4060
g70
I5
ssg71
g4054
sg64
(lp4061
g57
(g66
g59
NtRp4062
(dp4063
g62
(dp4064
g70
I4
ssg71
Nsg64
(lp4065
g57
(g73
g59
NtRp4066
(dp4067
g62
(dp4068
sg71
g4062
sg64
(lp4069
g57
(g78
g59
NtRp4070
(dp4071
g62
(dp4072
sg71
g4066
sg64
(lp4073
g57
(g58
g59
NtRp4074
(dp4075
g62
(dp4076
g70
I4
ssg71
g4070
sg64
(lp4077
S'/WSD/static/js/jquery.js'
p4078
asbasbasbag57
(g73
g59
NtRp4079
(dp4080
g62
(dp4081
sg71
g4062
sg64
(lp4082
g57
(g78
g59
NtRp4083
(dp4084
g62
(dp4085
sg71
g4079
sg64
(lp4086
g57
(g58
g59
NtRp4087
(dp4088
g62
(dp4089
g70
I4
ssg71
g4083
sg64
(lp4090
S'/WSD/static/css/calendar.css'
p4091
asbasbasbag57
(g73
g59
NtRp4092
(dp4093
g62
(dp4094
sg71
g4062
sg64
(lp4095
g57
(g78
g59
NtRp4096
(dp4097
g62
(dp4098
sg71
g4092
sg64
(lp4099
g57
(g58
g59
NtRp4100
(dp4101
g62
(dp4102
g70
I4
ssg71
g4096
sg64
(lp4103
S'/WSD/static/js/calendar.js'
p4104
asbasbasbag57
(g73
g59
NtRp4105
(dp4106
g62
(dp4107
sg71
g4062
sg64
(lp4108
g57
(g78
g59
NtRp4109
(dp4110
g62
(dp4111
sg71
g4105
sg64
(lp4112
g57
(g58
g59
NtRp4113
(dp4114
g62
(dp4115
g70
I4
ssg71
g4109
sg64
(lp4116
S'/WSD/static/js/web2py.js'
p4117
asbasbasbag57
(g73
g59
NtRp4118
(dp4119
g62
(dp4120
sg71
g4062
sg64
(lp4121
g57
(g78
g59
NtRp4122
(dp4123
g62
(dp4124
sg71
g4118
sg64
(lp4125
g57
(g58
g59
NtRp4126
(dp4127
g62
(dp4128
g70
I4
ssg71
g4122
sg64
(lp4129
S'/WSD/static/plugin_layouts/layouts/Interlude/default.css'
p4130
asbasbasbag57
(g73
g59
NtRp4131
(dp4132
g62
(dp4133
sg71
g4062
sg64
(lp4134
g57
(g78
g59
NtRp4135
(dp4136
g62
(dp4137
sg71
g4131
sg64
(lp4138
g57
(g58
g59
NtRp4139
(dp4140
g62
(dp4141
g70
I4
ssg71
g4135
sg64
(lp4142
S'/WSD/static/plugin_layouts/superfish.js'
p4143
asbasbasbasbasbasbasbag57
(g73
g59
NtRp4144
(dp4145
g62
(dp4146
sg71
g3756
sg64
(lp4147
g57
(g78
g59
NtRp4148
(dp4149
g62
(dp4150
g82
g83
ssg71
g4144
sg64
(lp4151
S'flash'
p4152
asbag57
(g78
g59
NtRp4153
(dp4154
g62
(dp4155
g89
g90
ssg71
g4144
sg64
(lp4156
S':'
asbag57
(g78
g59
NtRp4157
(dp4158
g62
(dp4159
sg71
g4144
sg64
(lp4160
g57
(g58
g59
NtRp4161
(dp4162
g62
(dp4163
g70
I5
ssg71
g4157
sg64
(lp4164
S''
asbasbasbag57
(g73
g59
NtRp4165
(dp4166
g62
(dp4167
sg71
g3756
sg64
(lp4168
g57
(g78
g59
NtRp4169
(dp4170
g62
(dp4171
g82
g83
ssg71
g4165
sg64
(lp4172
S'generic_patterns'
p4173
asbag57
(g78
g59
NtRp4174
(dp4175
g62
(dp4176
g89
g90
ssg71
g4165
sg64
(lp4177
S':'
asbag57
(g78
g59
NtRp4178
(dp4179
g62
(dp4180
sg71
g4165
sg64
(lp4181
g57
(g58
g59
NtRp4182
(dp4183
g62
(dp4184
g70
I5
ssg71
g4178
sg64
(lp4185
g57
(g66
g59
NtRp4186
(dp4187
g62
(dp4188
g70
I4
ssg71
Nsg64
(lp4189
g57
(g73
g59
NtRp4190
(dp4191
g62
(dp4192
sg71
g4186
sg64
(lp4193
g57
(g78
g59
NtRp4194
(dp4195
g62
(dp4196
sg71
g4190
sg64
(lp4197
g57
(g58
g59
NtRp4198
(dp4199
g62
(dp4200
g70
I4
ssg71
g4194
sg64
(lp4201
S'*'
asbasbasbasbasbasbasbag57
(g73
g59
NtRp4202
(dp4203
g62
(dp4204
sg71
g3756
sg64
(lp4205
g57
(g78
g59
NtRp4206
(dp4207
g62
(dp4208
g82
g83
ssg71
g4202
sg64
(lp4209
S'google_analytics_id'
p4210
asbag57
(g78
g59
NtRp4211
(dp4212
g62
(dp4213
g89
g90
ssg71
g4202
sg64
(lp4214
S':'
asbag57
(g78
g59
NtRp4215
(dp4216
g62
(dp4217
sg71
g4202
sg64
(lp4218
g57
(g58
g59
NtRp4219
(dp4220
g62
(dp4221
g70
I5
ssg71
g4215
sg64
(lp4222
S'None'
p4223
asbasbasbag57
(g73
g59
NtRp4224
(dp4225
g62
(dp4226
sg71
g3756
sg64
(lp4227
g57
(g78
g59
NtRp4228
(dp4229
g62
(dp4230
g82
g83
ssg71
g4224
sg64
(lp4231
S'headers'
p4232
asbag57
(g78
g59
NtRp4233
(dp4234
g62
(dp4235
g89
g90
ssg71
g4224
sg64
(lp4236
S':'
asbag57
(g78
g59
NtRp4237
(dp4238
g62
(dp4239
sg71
g4224
sg64
(lp4240
g57
(g58
g59
NtRp4241
(dp4242
g62
(dp4243
g70
I5
ssg71
g4237
sg64
(lp4244
g57
(g66
g59
NtRp4245
(dp4246
g62
(dp4247
g70
I4
ssg71
Nsg64
(lp4248
g57
(g73
g59
NtRp4249
(dp4250
g62
(dp4251
sg71
g4245
sg64
(lp4252
g57
(g78
g59
NtRp4253
(dp4254
g62
(dp4255
g82
g83
ssg71
g4249
sg64
(lp4256
S'X-Powered-By'
p4257
asbag57
(g78
g59
NtRp4258
(dp4259
g62
(dp4260
g89
g90
ssg71
g4249
sg64
(lp4261
S':'
asbag57
(g78
g59
NtRp4262
(dp4263
g62
(dp4264
sg71
g4249
sg64
(lp4265
g57
(g58
g59
NtRp4266
(dp4267
g62
(dp4268
g70
I4
ssg71
g4262
sg64
(lp4269
S'web2py'
p4270
asbasbasbasbasbasbasbag57
(g73
g59
NtRp4271
(dp4272
g62
(dp4273
sg71
g3756
sg64
(lp4274
g57
(g78
g59
NtRp4275
(dp4276
g62
(dp4277
g82
g83
ssg71
g4271
sg64
(lp4278
S'menu'
p4279
asbag57
(g78
g59
NtRp4280
(dp4281
g62
(dp4282
g89
g90
ssg71
g4271
sg64
(lp4283
S':'
asbag57
(g78
g59
NtRp4284
(dp4285
g62
(dp4286
sg71
g4271
sg64
(lp4287
g57
(g58
g59
NtRp4288
(dp4289
g62
(dp4290
g70
I5
ssg71
g4284
sg64
(lp4291
g57
(g66
g59
NtRp4292
(dp4293
g62
(dp4294
g70
I4
ssg71
Nsg64
(lp4295
g57
(g73
g59
NtRp4296
(dp4297
g62
(dp4298
sg71
g4292
sg64
(lp4299
g57
(g78
g59
NtRp4300
(dp4301
g62
(dp4302
sg71
g4296
sg64
(lp4303
g57
(g58
g59
NtRp4304
(dp4305
g62
(dp4306
g70
I4
ssg71
g4300
sg64
(lp4307
g57
(g66
g59
NtRp4308
(dp4309
g62
(dp4310
g70
I3
ssg71
Nsg64
(lp4311
g57
(g73
g59
NtRp4312
(dp4313
g62
(dp4314
sg71
g4308
sg64
(lp4315
g57
(g78
g59
NtRp4316
(dp4317
g62
(dp4318
sg71
g4312
sg64
(lp4319
g57
(g58
g59
NtRp4320
(dp4321
g62
(dp4322
g70
I3
ssg71
g4316
sg64
(lp4323
cgluon.languages
lazyT_unpickle
p4324
(S't\x04\x00\x00\x00Home'
tRp4325
asbasbasbag57
(g73
g59
NtRp4326
(dp4327
g62
(dp4328
sg71
g4308
sg64
(lp4329
g57
(g78
g59
NtRp4330
(dp4331
g62
(dp4332
sg71
g4326
sg64
(lp4333
g57
(g58
g59
NtRp4334
(dp4335
g62
(dp4336
g70
I3
ssg71
g4330
sg64
(lp4337
g100
asbasbasbag57
(g73
g59
NtRp4338
(dp4339
g62
(dp4340
sg71
g4308
sg64
(lp4341
g57
(g78
g59
NtRp4342
(dp4343
g62
(dp4344
sg71
g4338
sg64
(lp4345
g57
(g58
g59
NtRp4346
(dp4347
g62
(dp4348
g70
I3
ssg71
g4342
sg64
(lp4349
S'/WSD/default/index'
p4350
asbasbasbag57
(g73
g59
NtRp4351
(dp4352
g62
(dp4353
sg71
g4308
sg64
(lp4354
g57
(g78
g59
NtRp4355
(dp4356
g62
(dp4357
sg71
g4351
sg64
(lp4358
g57
(g58
g59
NtRp4359
(dp4360
g62
(dp4361
g70
I3
ssg71
g4355
sg64
(lp4362
g57
(g66
g59
NtRp4363
(dp4364
g62
(dp4365
g70
I2
ssg71
Nsg64
(lp4366
sbasbasbasbasbasbasbasbag57
(g73
g59
NtRp4367
(dp4368
g62
(dp4369
sg71
g4292
sg64
(lp4370
g57
(g78
g59
NtRp4371
(dp4372
g62
(dp4373
sg71
g4367
sg64
(lp4374
g57
(g58
g59
NtRp4375
(dp4376
g62
(dp4377
g70
I4
ssg71
g4371
sg64
(lp4378
g57
(g66
g59
NtRp4379
(dp4380
g62
(dp4381
g70
I3
ssg71
Nsg64
(lp4382
g57
(g73
g59
NtRp4383
(dp4384
g62
(dp4385
sg71
g4379
sg64
(lp4386
g57
(g78
g59
NtRp4387
(dp4388
g62
(dp4389
sg71
g4383
sg64
(lp4390
g57
(g58
g59
NtRp4391
(dp4392
g62
(dp4393
g70
I3
ssg71
g4387
sg64
(lp4394
g57
(cgluon.html
SPAN
p4395
g59
NtRp4396
(dp4397
g62
(dp4398
g82
S'color:yellow'
p4399
ssg71
g57
(cgluon.html
A
p4400
g59
NtRp4401
(dp4402
g62
(dp4403
S'_onclick'
p4404
S'javascript:void(0);return false;'
p4405
sS'_href'
p4406
S'#'
ssg71
g57
(cgluon.html
LI
p4407
g59
NtRp4408
(dp4409
g62
(dp4410
S'_class'
p4411
S'web2py-menu-expand'
p4412
ssg71
g57
(cgluon.html
UL
p4413
g59
NtRp4414
(dp4415
g62
(dp4416
S'mobile'
p4417
I00
sS'ul_class'
p4418
S'web2py-menu-vertical'
p4419
sS'li_active'
p4420
S'web2py-menu-active'
p4421
sS'li_class'
p4422
g4412
sS'li_first'
p4423
S'web2py-menu-first'
p4424
sg4411
S'web2py-menu'
p4425
sS'li_last'
p4426
S'web2py-menu-last'
p4427
ssg71
Nsg64
(lp4428
g57
(g4407
g59
NtRp4429
(dp4430
g62
(dp4431
g4411
g4424
ssg71
g4414
sg64
(lp4432
g57
(g4400
g59
NtRp4433
(dp4434
g62
(dp4435
g4406
g4350
ssg71
g4429
sg64
(lp4436
g4325
asbasbag4408
asbsg64
(lp4437
g4401
ag57
(g4413
g59
NtRp4438
(dp4439
g62
(dp4440
g4411
g4419
ssg71
g4408
sg64
(lp4441
g57
(g4407
g59
NtRp4442
(dp4443
g62
(dp4444
sg71
g4438
sg64
(lp4445
g57
(g4400
g59
NtRp4446
(dp4447
g62
(dp4448
g4406
S'/admin/default/site'
p4449
ssg71
g4442
sg64
(lp4450
g4324
(S's\x08\x00\x00\x00My Sites'
tRp4451
asbasbag57
(g4407
g59
NtRp4452
(dp4453
g62
(dp4454
g4411
g4412
ssg71
g4438
sg64
(lp4455
g57
(g4400
g59
NtRp4456
(dp4457
g62
(dp4458
g4406
S'/admin/default/design/WSD'
p4459
ssg71
g4452
sg64
(lp4460
g4324
(S's\x08\x00\x00\x00This App'
tRp4461
asbag57
(g4413
g59
NtRp4462
(dp4463
g62
(dp4464
g4411
g4419
ssg71
g4452
sg64
(lp4465
g57
(g4407
g59
NtRp4466
(dp4467
g62
(dp4468
sg71
g4462
sg64
(lp4469
g57
(g4400
g59
NtRp4470
(dp4471
g62
(dp4472
g4406
S'/admin/default/edit/WSD/controllers/default.py'
p4473
ssg71
g4466
sg64
(lp4474
g4324
(S't\n\x00\x00\x00Controller'
tRp4475
asbasbag57
(g4407
g59
NtRp4476
(dp4477
g62
(dp4478
sg71
g4462
sg64
(lp4479
g57
(g4400
g59
NtRp4480
(dp4481
g62
(dp4482
g4406
S'/admin/default/edit/WSD/views/default/sentence_selectc.html'
p4483
ssg71
g4476
sg64
(lp4484
g4324
(S't\x04\x00\x00\x00View'
tRp4485
asbasbag57
(g4407
g59
NtRp4486
(dp4487
g62
(dp4488
sg71
g4462
sg64
(lp4489
g57
(g4400
g59
NtRp4490
(dp4491
g62
(dp4492
g4406
S'/admin/default/edit/WSD/views/layout.html'
p4493
ssg71
g4486
sg64
(lp4494
g4324
(S't\x06\x00\x00\x00Layout'
tRp4495
asbasbag57
(g4407
g59
NtRp4496
(dp4497
g62
(dp4498
sg71
g4462
sg64
(lp4499
g57
(g4400
g59
NtRp4500
(dp4501
g62
(dp4502
g4406
S'/admin/default/edit/WSD/static/css/web2py.css'
p4503
ssg71
g4496
sg64
(lp4504
g4324
(S't\n\x00\x00\x00Stylesheet'
tRp4505
asbasbag57
(g4407
g59
NtRp4506
(dp4507
g62
(dp4508
sg71
g4462
sg64
(lp4509
g57
(g4400
g59
NtRp4510
(dp4511
g62
(dp4512
g4406
S'/admin/default/edit/WSD/models/db.py'
p4513
ssg71
g4506
sg64
(lp4514
g4324
(S's\x08\x00\x00\x00DB Model'
tRp4515
asbasbag57
(g4407
g59
NtRp4516
(dp4517
g62
(dp4518
sg71
g4462
sg64
(lp4519
g57
(g4400
g59
NtRp4520
(dp4521
g62
(dp4522
g4406
S'/admin/default/edit/WSD/models/menu.py'
p4523
ssg71
g4516
sg64
(lp4524
g4324
(S's\n\x00\x00\x00Menu Model'
tRp4525
asbasbag57
(g4407
g59
NtRp4526
(dp4527
g62
(dp4528
sg71
g4462
sg64
(lp4529
g57
(g4400
g59
NtRp4530
(dp4531
g62
(dp4532
g4406
S'/WSD/appadmin/index'
p4533
ssg71
g4526
sg64
(lp4534
g4324
(S't\x08\x00\x00\x00Database'
tRp4535
asbasbag57
(g4407
g59
NtRp4536
(dp4537
g62
(dp4538
sg71
g4462
sg64
(lp4539
g57
(g4400
g59
NtRp4540
(dp4541
g62
(dp4542
g4406
S'/admin/default/errors/WSD'
p4543
ssg71
g4536
sg64
(lp4544
g4324
(S't\x06\x00\x00\x00Errors'
tRp4545
asbasbag57
(g4407
g59
NtRp4546
(dp4547
g62
(dp4548
sg71
g4462
sg64
(lp4549
g57
(g4400
g59
NtRp4550
(dp4551
g62
(dp4552
g4406
S'/admin/default/about/WSD'
p4553
ssg71
g4546
sg64
(lp4554
g4324
(S't\x05\x00\x00\x00About'
tRp4555
asbasbasbasbag57
(g4407
g59
NtRp4556
(dp4557
g62
(dp4558
g4411
g4412
ssg71
g4438
sg64
(lp4559
g57
(g4400
g59
NtRp4560
(dp4561
g62
(dp4562
g4406
S'http://www.web2py.com'
p4563
ssg71
g4556
sg64
(lp4564
S'web2py.com'
p4565
asbag57
(g4413
g59
NtRp4566
(dp4567
g62
(dp4568
g4411
g4419
ssg71
g4556
sg64
(lp4569
g57
(g4407
g59
NtRp4570
(dp4571
g62
(dp4572
sg71
g4566
sg64
(lp4573
g57
(g4400
g59
NtRp4574
(dp4575
g62
(dp4576
g4406
S'http://www.web2py.com/examples/default/download'
p4577
ssg71
g4570
sg64
(lp4578
g4324
(S't\x08\x00\x00\x00Download'
tRp4579
asbasbag57
(g4407
g59
NtRp4580
(dp4581
g62
(dp4582
sg71
g4566
sg64
(lp4583
g57
(g4400
g59
NtRp4584
(dp4585
g62
(dp4586
g4406
S'http://www.web2py.com/examples/default/support'
p4587
ssg71
g4580
sg64
(lp4588
g4324
(S't\x07\x00\x00\x00Support'
tRp4589
asbasbag57
(g4407
g59
NtRp4590
(dp4591
g62
(dp4592
sg71
g4566
sg64
(lp4593
g57
(g4400
g59
NtRp4594
(dp4595
g62
(dp4596
g4406
S'http://web2py.com/demo_admin'
p4597
ssg71
g4590
sg64
(lp4598
g4324
(S't\x04\x00\x00\x00Demo'
tRp4599
asbasbag57
(g4407
g59
NtRp4600
(dp4601
g62
(dp4602
sg71
g4566
sg64
(lp4603
g57
(g4400
g59
NtRp4604
(dp4605
g62
(dp4606
g4406
S'http://web2py.com/examples/default/examples'
p4607
ssg71
g4600
sg64
(lp4608
g4324
(S's\x0e\x00\x00\x00Quick Examples'
tRp4609
asbasbag57
(g4407
g59
NtRp4610
(dp4611
g62
(dp4612
sg71
g4566
sg64
(lp4613
g57
(g4400
g59
NtRp4614
(dp4615
g62
(dp4616
g4406
S'http://web2py.com/AlterEgo'
p4617
ssg71
g4610
sg64
(lp4618
g4324
(S't\x03\x00\x00\x00FAQ'
tRp4619
asbasbag57
(g4407
g59
NtRp4620
(dp4621
g62
(dp4622
sg71
g4566
sg64
(lp4623
g57
(g4400
g59
NtRp4624
(dp4625
g62
(dp4626
g4406
S'http://www.web2py.com/examples/default/videos/'
p4627
ssg71
g4620
sg64
(lp4628
g4324
(S't\x06\x00\x00\x00Videos'
tRp4629
asbasbag57
(g4407
g59
NtRp4630
(dp4631
g62
(dp4632
sg71
g4566
sg64
(lp4633
g57
(g4400
g59
NtRp4634
(dp4635
g62
(dp4636
g4406
S'http://web2py.com/appliances'
p4637
ssg71
g4630
sg64
(lp4638
g4324
(S's\x11\x00\x00\x00Free Applications'
tRp4639
asbasbag57
(g4407
g59
NtRp4640
(dp4641
g62
(dp4642
sg71
g4566
sg64
(lp4643
g57
(g4400
g59
NtRp4644
(dp4645
g62
(dp4646
g4406
S'http://web2py.com/plugins'
p4647
ssg71
g4640
sg64
(lp4648
g4324
(S't\x07\x00\x00\x00Plugins'
tRp4649
asbasbag57
(g4407
g59
NtRp4650
(dp4651
g62
(dp4652
sg71
g4566
sg64
(lp4653
g57
(g4400
g59
NtRp4654
(dp4655
g62
(dp4656
g4406
S'http://web2py.com/layouts'
p4657
ssg71
g4650
sg64
(lp4658
g4324
(S't\x07\x00\x00\x00Layouts'
tRp4659
asbasbag57
(g4407
g59
NtRp4660
(dp4661
g62
(dp4662
sg71
g4566
sg64
(lp4663
g57
(g4400
g59
NtRp4664
(dp4665
g62
(dp4666
g4406
S'http://web2pyslices.com/'
p4667
ssg71
g4660
sg64
(lp4668
g4324
(S't\x07\x00\x00\x00Recipes'
tRp4669
asbasbag57
(g4407
g59
NtRp4670
(dp4671
g62
(dp4672
sg71
g4566
sg64
(lp4673
g57
(g4400
g59
NtRp4674
(dp4675
g62
(dp4676
g4406
S'http://web2py.com/semantic'
p4677
ssg71
g4670
sg64
(lp4678
g4324
(S't\x08\x00\x00\x00Semantic'
tRp4679
asbasbasbasbag57
(g4407
g59
NtRp4680
(dp4681
g62
(dp4682
g4411
g4412
ssg71
g4438
sg64
(lp4683
g57
(g4400
g59
NtRp4684
(dp4685
g62
(dp4686
g4406
S'http://www.web2py.com/book'
p4687
ssg71
g4680
sg64
(lp4688
g4324
(S't\r\x00\x00\x00Documentation'
tRp4689
asbag57
(g4413
g59
NtRp4690
(dp4691
g62
(dp4692
g4411
g4419
ssg71
g4680
sg64
(lp4693
g57
(g4407
g59
NtRp4694
(dp4695
g62
(dp4696
sg71
g4690
sg64
(lp4697
g57
(g4400
g59
NtRp4698
(dp4699
g62
(dp4700
g4406
S'http://www.web2py.com/book/default/chapter/00'
p4701
ssg71
g4694
sg64
(lp4702
g4324
(S't\x07\x00\x00\x00Preface'
tRp4703
asbasbag57
(g4407
g59
NtRp4704
(dp4705
g62
(dp4706
sg71
g4690
sg64
(lp4707
g57
(g4400
g59
NtRp4708
(dp4709
g62
(dp4710
g4406
S'http://www.web2py.com/book/default/chapter/01'
p4711
ssg71
g4704
sg64
(lp4712
g4324
(S't\x0c\x00\x00\x00Introduction'
tRp4713
asbasbag57
(g4407
g59
NtRp4714
(dp4715
g62
(dp4716
sg71
g4690
sg64
(lp4717
g57
(g4400
g59
NtRp4718
(dp4719
g62
(dp4720
g4406
S'http://www.web2py.com/book/default/chapter/02'
p4721
ssg71
g4714
sg64
(lp4722
g4324
(S't\x06\x00\x00\x00Python'
tRp4723
asbasbag57
(g4407
g59
NtRp4724
(dp4725
g62
(dp4726
sg71
g4690
sg64
(lp4727
g57
(g4400
g59
NtRp4728
(dp4729
g62
(dp4730
g4406
S'http://www.web2py.com/book/default/chapter/03'
p4731
ssg71
g4724
sg64
(lp4732
g4324
(S't\x08\x00\x00\x00Overview'
tRp4733
asbasbag57
(g4407
g59
NtRp4734
(dp4735
g62
(dp4736
sg71
g4690
sg64
(lp4737
g57
(g4400
g59
NtRp4738
(dp4739
g62
(dp4740
g4406
S'http://www.web2py.com/book/default/chapter/04'
p4741
ssg71
g4734
sg64
(lp4742
g4324
(S's\x08\x00\x00\x00The Core'
tRp4743
asbasbag57
(g4407
g59
NtRp4744
(dp4745
g62
(dp4746
sg71
g4690
sg64
(lp4747
g57
(g4400
g59
NtRp4748
(dp4749
g62
(dp4750
g4406
S'http://www.web2py.com/book/default/chapter/05'
p4751
ssg71
g4744
sg64
(lp4752
g4324
(S's\t\x00\x00\x00The Views'
tRp4753
asbasbag57
(g4407
g59
NtRp4754
(dp4755
g62
(dp4756
sg71
g4690
sg64
(lp4757
g57
(g4400
g59
NtRp4758
(dp4759
g62
(dp4760
g4406
S'http://www.web2py.com/book/default/chapter/06'
p4761
ssg71
g4754
sg64
(lp4762
g4324
(S't\x08\x00\x00\x00Database'
tRp4763
asbasbag57
(g4407
g59
NtRp4764
(dp4765
g62
(dp4766
sg71
g4690
sg64
(lp4767
g57
(g4400
g59
NtRp4768
(dp4769
g62
(dp4770
g4406
S'http://www.web2py.com/book/default/chapter/07'
p4771
ssg71
g4764
sg64
(lp4772
g4324
(S's\x14\x00\x00\x00Forms and Validators'
tRp4773
asbasbag57
(g4407
g59
NtRp4774
(dp4775
g62
(dp4776
sg71
g4690
sg64
(lp4777
g57
(g4400
g59
NtRp4778
(dp4779
g62
(dp4780
g4406
S'http://www.web2py.com/book/default/chapter/08'
p4781
ssg71
g4774
sg64
(lp4782
g4324
(S's\r\x00\x00\x00Email and SMS'
tRp4783
asbasbag57
(g4407
g59
NtRp4784
(dp4785
g62
(dp4786
sg71
g4690
sg64
(lp4787
g57
(g4400
g59
NtRp4788
(dp4789
g62
(dp4790
g4406
S'http://www.web2py.com/book/default/chapter/09'
p4791
ssg71
g4784
sg64
(lp4792
g4324
(S's\x0e\x00\x00\x00Access Control'
tRp4793
asbasbag57
(g4407
g59
NtRp4794
(dp4795
g62
(dp4796
sg71
g4690
sg64
(lp4797
g57
(g4400
g59
NtRp4798
(dp4799
g62
(dp4800
g4406
S'http://www.web2py.com/book/default/chapter/10'
p4801
ssg71
g4794
sg64
(lp4802
g4324
(S't\x08\x00\x00\x00Services'
tRp4803
asbasbag57
(g4407
g59
NtRp4804
(dp4805
g62
(dp4806
sg71
g4690
sg64
(lp4807
g57
(g4400
g59
NtRp4808
(dp4809
g62
(dp4810
g4406
S'http://www.web2py.com/book/default/chapter/11'
p4811
ssg71
g4804
sg64
(lp4812
g4324
(S's\x0c\x00\x00\x00Ajax Recipes'
tRp4813
asbasbag57
(g4407
g59
NtRp4814
(dp4815
g62
(dp4816
sg71
g4690
sg64
(lp4817
g57
(g4400
g59
NtRp4818
(dp4819
g62
(dp4820
g4406
S'http://www.web2py.com/book/default/chapter/12'
p4821
ssg71
g4814
sg64
(lp4822
g4324
(S's\x16\x00\x00\x00Components and Plugins'
tRp4823
asbasbag57
(g4407
g59
NtRp4824
(dp4825
g62
(dp4826
sg71
g4690
sg64
(lp4827
g57
(g4400
g59
NtRp4828
(dp4829
g62
(dp4830
g4406
S'http://www.web2py.com/book/default/chapter/13'
p4831
ssg71
g4824
sg64
(lp4832
g4324
(S's\x12\x00\x00\x00Deployment Recipes'
tRp4833
asbasbag57
(g4407
g59
NtRp4834
(dp4835
g62
(dp4836
sg71
g4690
sg64
(lp4837
g57
(g4400
g59
NtRp4838
(dp4839
g62
(dp4840
g4406
S'http://www.web2py.com/book/default/chapter/14'
p4841
ssg71
g4834
sg64
(lp4842
g4324
(S's\r\x00\x00\x00Other Recipes'
tRp4843
asbasbag57
(g4407
g59
NtRp4844
(dp4845
g62
(dp4846
sg71
g4690
sg64
(lp4847
g57
(g4400
g59
NtRp4848
(dp4849
g62
(dp4850
g4406
S'http://stores.lulu.com/web2py'
p4851
ssg71
g4844
sg64
(lp4852
g4324
(S's\r\x00\x00\x00Buy this book'
tRp4853
asbasbasbasbag57
(g4407
g59
NtRp4854
(dp4855
g62
(dp4856
g4411
g4412
ssg71
g4438
sg64
(lp4857
g57
(g4400
g59
NtRp4858
(dp4859
g62
(dp4860
g4404
g4405
sg4406
S'#'
ssg71
g4854
sg64
(lp4861
g4324
(S't\t\x00\x00\x00Community'
tRp4862
asbag57
(g4413
g59
NtRp4863
(dp4864
g62
(dp4865
g4411
g4419
ssg71
g4854
sg64
(lp4866
g57
(g4407
g59
NtRp4867
(dp4868
g62
(dp4869
sg71
g4863
sg64
(lp4870
g57
(g4400
g59
NtRp4871
(dp4872
g62
(dp4873
g4406
S'http://www.web2py.com/examples/default/usergroups'
p4874
ssg71
g4867
sg64
(lp4875
g4324
(S't\x06\x00\x00\x00Groups'
tRp4876
asbasbag57
(g4407
g59
NtRp4877
(dp4878
g62
(dp4879
sg71
g4863
sg64
(lp4880
g57
(g4400
g59
NtRp4881
(dp4882
g62
(dp4883
g4406
S'http://twitter.com/web2py'
p4884
ssg71
g4877
sg64
(lp4885
g4324
(S't\x07\x00\x00\x00Twitter'
tRp4886
asbasbag57
(g4407
g59
NtRp4887
(dp4888
g62
(dp4889
sg71
g4863
sg64
(lp4890
g57
(g4400
g59
NtRp4891
(dp4892
g62
(dp4893
g4406
S'http://webchat.freenode.net/?channels=web2py'
p4894
ssg71
g4887
sg64
(lp4895
g4324
(S's\t\x00\x00\x00Live Chat'
tRp4896
asbasbasbasbag57
(g4407
g59
NtRp4897
(dp4898
g62
(dp4899
g4411
g4412
ssg71
g4438
sg64
(lp4900
g57
(g4400
g59
NtRp4901
(dp4902
g62
(dp4903
g4404
g4405
sg4406
S'#'
ssg71
g4897
sg64
(lp4904
g4324
(S't\x07\x00\x00\x00Plugins'
tRp4905
asbag57
(g4413
g59
NtRp4906
(dp4907
g62
(dp4908
g4411
g4419
ssg71
g4897
sg64
(lp4909
g57
(g4407
g59
NtRp4910
(dp4911
g62
(dp4912
sg71
g4906
sg64
(lp4913
g57
(g4400
g59
NtRp4914
(dp4915
g62
(dp4916
g4406
S'http://web2py.com/examples/default/download'
p4917
ssg71
g4910
sg64
(lp4918
S'plugin_wiki'
p4919
asbasbag57
(g4407
g59
NtRp4920
(dp4921
g62
(dp4922
sg71
g4906
sg64
(lp4923
g57
(g4400
g59
NtRp4924
(dp4925
g62
(dp4926
g4406
g4647
ssg71
g4920
sg64
(lp4927
g4324
(S's\r\x00\x00\x00Other Plugins'
tRp4928
asbasbag57
(g4407
g59
NtRp4929
(dp4930
g62
(dp4931
sg71
g4906
sg64
(lp4932
g57
(g4400
g59
NtRp4933
(dp4934
g62
(dp4935
g4406
g4657
ssg71
g4929
sg64
(lp4936
g4324
(S's\x0e\x00\x00\x00Layout Plugins'
tRp4937
asbasbasbasbasbasbsg64
(lp4938
g4396
asbsg64
(lp4939
g4270
asbasbasbasbag57
(g73
g59
NtRp4940
(dp4941
g62
(dp4942
sg71
g4379
sg64
(lp4943
g57
(g78
g59
NtRp4944
(dp4945
g62
(dp4946
sg71
g4940
sg64
(lp4947
g57
(g58
g59
NtRp4948
(dp4949
g62
(dp4950
g70
I3
ssg71
g4944
sg64
(lp4951
g100
asbasbasbag57
(g73
g59
NtRp4952
(dp4953
g62
(dp4954
sg71
g4379
sg64
(lp4955
g57
(g78
g59
NtRp4956
(dp4957
g62
(dp4958
sg71
g4952
sg64
(lp4959
g57
(g58
g59
NtRp4960
(dp4961
g62
(dp4962
g70
I3
ssg71
g4956
sg64
(lp4963
S'None'
p4964
asbasbasbag57
(g73
g59
NtRp4965
(dp4966
g62
(dp4967
sg71
g4379
sg64
(lp4968
g57
(g78
g59
NtRp4969
(dp4970
g62
(dp4971
sg71
g4965
sg64
(lp4972
g57
(g58
g59
NtRp4973
(dp4974
g62
(dp4975
g70
I3
ssg71
g4969
sg64
(lp4976
g57
(g66
g59
NtRp4977
(dp4978
g62
(dp4979
g70
I2
ssg71
Nsg64
(lp4980
g57
(g73
g59
NtRp4981
(dp4982
g62
(dp4983
sg71
g4977
sg64
(lp4984
g57
(g78
g59
NtRp4985
(dp4986
g62
(dp4987
sg71
g4981
sg64
(lp4988
g57
(g58
g59
NtRp4989
(dp4990
g62
(dp4991
g70
I2
ssg71
g4985
sg64
(lp4992
g57
(g66
g59
NtRp4993
(dp4994
g62
(dp4995
g70
I1
ssg71
Nsg64
(lp4996
g57
(g73
g59
NtRp4997
(dp4998
g62
(dp4999
sg71
g4993
sg64
(lp5000
g57
(g78
g59
NtRp5001
(dp5002
g62
(dp5003
sg71
g4997
sg64
(lp5004
g57
(g58
g59
NtRp5005
(dp5006
g62
(dp5007
g70
I1
ssg71
g5001
sg64
(lp5008
g4451
asbasbasbag57
(g73
g59
NtRp5009
(dp5010
g62
(dp5011
sg71
g4993
sg64
(lp5012
g57
(g78
g59
NtRp5013
(dp5014
g62
(dp5015
sg71
g5009
sg64
(lp5016
g57
(g58
g59
NtRp5017
(dp5018
g62
(dp5019
g70
I1
ssg71
g5013
sg64
(lp5020
I00
asbasbasbag57
(g73
g59
NtRp5021
(dp5022
g62
(dp5023
sg71
g4993
sg64
(lp5024
g57
(g78
g59
NtRp5025
(dp5026
g62
(dp5027
sg71
g5021
sg64
(lp5028
g57
(g58
g59
NtRp5029
(dp5030
g62
(dp5031
g70
I1
ssg71
g5025
sg64
(lp5032
g4449
asbasbasbasbasbasbasbag57
(g73
g59
NtRp5033
(dp5034
g62
(dp5035
sg71
g4977
sg64
(lp5036
g57
(g78
g59
NtRp5037
(dp5038
g62
(dp5039
sg71
g5033
sg64
(lp5040
g57
(g58
g59
NtRp5041
(dp5042
g62
(dp5043
g70
I2
ssg71
g5037
sg64
(lp5044
g57
(g66
g59
NtRp5045
(dp5046
g62
(dp5047
g70
I1
ssg71
Nsg64
(lp5048
g57
(g73
g59
NtRp5049
(dp5050
g62
(dp5051
sg71
g5045
sg64
(lp5052
g57
(g78
g59
NtRp5053
(dp5054
g62
(dp5055
sg71
g5049
sg64
(lp5056
g57
(g58
g59
NtRp5057
(dp5058
g62
(dp5059
g70
I1
ssg71
g5053
sg64
(lp5060
g4461
asbasbasbag57
(g73
g59
NtRp5061
(dp5062
g62
(dp5063
sg71
g5045
sg64
(lp5064
g57
(g78
g59
NtRp5065
(dp5066
g62
(dp5067
sg71
g5061
sg64
(lp5068
g57
(g58
g59
NtRp5069
(dp5070
g62
(dp5071
g70
I1
ssg71
g5065
sg64
(lp5072
I00
asbasbasbag57
(g73
g59
NtRp5073
(dp5074
g62
(dp5075
sg71
g5045
sg64
(lp5076
g57
(g78
g59
NtRp5077
(dp5078
g62
(dp5079
sg71
g5073
sg64
(lp5080
g57
(g58
g59
NtRp5081
(dp5082
g62
(dp5083
g70
I1
ssg71
g5077
sg64
(lp5084
g4459
asbasbasbag57
(g73
g59
NtRp5085
(dp5086
g62
(dp5087
sg71
g5045
sg64
(lp5088
g57
(g78
g59
NtRp5089
(dp5090
g62
(dp5091
sg71
g5085
sg64
(lp5092
g57
(g58
g59
NtRp5093
(dp5094
g62
(dp5095
g70
I1
ssg71
g5089
sg64
(lp5096
(lp5097
(g4475
I00
g4473
tp5098
a(g4485
I00
g4483
tp5099
a(g4495
I00
g4493
tp5100
a(g4505
I00
g4503
tp5101
a(g4515
I00
g4513
tp5102
a(g4525
I00
g4523
tp5103
a(g4535
I00
g4533
tp5104
a(g4545
I00
g4543
tp5105
a(g4555
I00
g4553
tp5106
aasbasbasbasbasbasbasbag57
(g73
g59
NtRp5107
(dp5108
g62
(dp5109
sg71
g4977
sg64
(lp5110
g57
(g78
g59
NtRp5111
(dp5112
g62
(dp5113
sg71
g5107
sg64
(lp5114
g57
(g58
g59
NtRp5115
(dp5116
g62
(dp5117
g70
I2
ssg71
g5111
sg64
(lp5118
g57
(g66
g59
NtRp5119
(dp5120
g62
(dp5121
g70
I1
ssg71
Nsg64
(lp5122
g57
(g73
g59
NtRp5123
(dp5124
g62
(dp5125
sg71
g5119
sg64
(lp5126
g57
(g78
g59
NtRp5127
(dp5128
g62
(dp5129
sg71
g5123
sg64
(lp5130
g57
(g58
g59
NtRp5131
(dp5132
g62
(dp5133
g70
I1
ssg71
g5127
sg64
(lp5134
g4565
asbasbasbag57
(g73
g59
NtRp5135
(dp5136
g62
(dp5137
sg71
g5119
sg64
(lp5138
g57
(g78
g59
NtRp5139
(dp5140
g62
(dp5141
sg71
g5135
sg64
(lp5142
g57
(g58
g59
NtRp5143
(dp5144
g62
(dp5145
g70
I1
ssg71
g5139
sg64
(lp5146
I00
asbasbasbag57
(g73
g59
NtRp5147
(dp5148
g62
(dp5149
sg71
g5119
sg64
(lp5150
g57
(g78
g59
NtRp5151
(dp5152
g62
(dp5153
sg71
g5147
sg64
(lp5154
g57
(g58
g59
NtRp5155
(dp5156
g62
(dp5157
g70
I1
ssg71
g5151
sg64
(lp5158
g4563
asbasbasbag57
(g73
g59
NtRp5159
(dp5160
g62
(dp5161
sg71
g5119
sg64
(lp5162
g57
(g78
g59
NtRp5163
(dp5164
g62
(dp5165
sg71
g5159
sg64
(lp5166
g57
(g58
g59
NtRp5167
(dp5168
g62
(dp5169
g70
I1
ssg71
g5163
sg64
(lp5170
(lp5171
(g4579
I00
g4577
tp5172
a(g4589
I00
g4587
tp5173
a(g4599
I00
g4597
tp5174
a(g4609
I00
g4607
tp5175
a(g4619
I00
g4617
tp5176
a(g4629
I00
g4627
tp5177
a(g4639
I00
g4637
tp5178
a(g4649
I00
g4647
tp5179
a(g4659
I00
g4657
tp5180
a(g4669
I00
g4667
tp5181
a(g4679
I00
g4677
tp5182
aasbasbasbasbasbasbasbag57
(g73
g59
NtRp5183
(dp5184
g62
(dp5185
sg71
g4977
sg64
(lp5186
g57
(g78
g59
NtRp5187
(dp5188
g62
(dp5189
sg71
g5183
sg64
(lp5190
g57
(g58
g59
NtRp5191
(dp5192
g62
(dp5193
g70
I2
ssg71
g5187
sg64
(lp5194
g57
(g66
g59
NtRp5195
(dp5196
g62
(dp5197
g70
I1
ssg71
Nsg64
(lp5198
g57
(g73
g59
NtRp5199
(dp5200
g62
(dp5201
sg71
g5195
sg64
(lp5202
g57
(g78
g59
NtRp5203
(dp5204
g62
(dp5205
sg71
g5199
sg64
(lp5206
g57
(g58
g59
NtRp5207
(dp5208
g62
(dp5209
g70
I1
ssg71
g5203
sg64
(lp5210
g4689
asbasbasbag57
(g73
g59
NtRp5211
(dp5212
g62
(dp5213
sg71
g5195
sg64
(lp5214
g57
(g78
g59
NtRp5215
(dp5216
g62
(dp5217
sg71
g5211
sg64
(lp5218
g57
(g58
g59
NtRp5219
(dp5220
g62
(dp5221
g70
I1
ssg71
g5215
sg64
(lp5222
I00
asbasbasbag57
(g73
g59
NtRp5223
(dp5224
g62
(dp5225
sg71
g5195
sg64
(lp5226
g57
(g78
g59
NtRp5227
(dp5228
g62
(dp5229
sg71
g5223
sg64
(lp5230
g57
(g58
g59
NtRp5231
(dp5232
g62
(dp5233
g70
I1
ssg71
g5227
sg64
(lp5234
g4687
asbasbasbag57
(g73
g59
NtRp5235
(dp5236
g62
(dp5237
sg71
g5195
sg64
(lp5238
g57
(g78
g59
NtRp5239
(dp5240
g62
(dp5241
sg71
g5235
sg64
(lp5242
g57
(g58
g59
NtRp5243
(dp5244
g62
(dp5245
g70
I1
ssg71
g5239
sg64
(lp5246
(lp5247
(g4703
I00
g4701
tp5248
a(g4713
I00
g4711
tp5249
a(g4723
I00
g4721
tp5250
a(g4733
I00
g4731
tp5251
a(g4743
I00
g4741
tp5252
a(g4753
I00
g4751
tp5253
a(g4763
I00
g4761
tp5254
a(g4773
I00
g4771
tp5255
a(g4783
I00
g4781
tp5256
a(g4793
I00
g4791
tp5257
a(g4803
I00
g4801
tp5258
a(g4813
I00
g4811
tp5259
a(g4823
I00
g4821
tp5260
a(g4833
I00
g4831
tp5261
a(g4843
I00
g4841
tp5262
a(g4853
I00
g4851
tp5263
aasbasbasbasbasbasbasbag57
(g73
g59
NtRp5264
(dp5265
g62
(dp5266
sg71
g4977
sg64
(lp5267
g57
(g78
g59
NtRp5268
(dp5269
g62
(dp5270
sg71
g5264
sg64
(lp5271
g57
(g58
g59
NtRp5272
(dp5273
g62
(dp5274
g70
I2
ssg71
g5268
sg64
(lp5275
g57
(g66
g59
NtRp5276
(dp5277
g62
(dp5278
g70
I1
ssg71
Nsg64
(lp5279
g57
(g73
g59
NtRp5280
(dp5281
g62
(dp5282
sg71
g5276
sg64
(lp5283
g57
(g78
g59
NtRp5284
(dp5285
g62
(dp5286
sg71
g5280
sg64
(lp5287
g57
(g58
g59
NtRp5288
(dp5289
g62
(dp5290
g70
I1
ssg71
g5284
sg64
(lp5291
g4862
asbasbasbag57
(g73
g59
NtRp5292
(dp5293
g62
(dp5294
sg71
g5276
sg64
(lp5295
g57
(g78
g59
NtRp5296
(dp5297
g62
(dp5298
sg71
g5292
sg64
(lp5299
g57
(g58
g59
NtRp5300
(dp5301
g62
(dp5302
g70
I1
ssg71
g5296
sg64
(lp5303
I00
asbasbasbag57
(g73
g59
NtRp5304
(dp5305
g62
(dp5306
sg71
g5276
sg64
(lp5307
g57
(g78
g59
NtRp5308
(dp5309
g62
(dp5310
sg71
g5304
sg64
(lp5311
g57
(g58
g59
NtRp5312
(dp5313
g62
(dp5314
g70
I1
ssg71
g5308
sg64
(lp5315
Nasbasbasbag57
(g73
g59
NtRp5316
(dp5317
g62
(dp5318
sg71
g5276
sg64
(lp5319
g57
(g78
g59
NtRp5320
(dp5321
g62
(dp5322
sg71
g5316
sg64
(lp5323
g57
(g58
g59
NtRp5324
(dp5325
g62
(dp5326
g70
I1
ssg71
g5320
sg64
(lp5327
(lp5328
(g4876
I00
g4874
tp5329
a(g4886
I00
g4884
tp5330
a(g4896
I00
g4894
tp5331
aasbasbasbasbasbasbasbag57
(g73
g59
NtRp5332
(dp5333
g62
(dp5334
sg71
g4977
sg64
(lp5335
g57
(g78
g59
NtRp5336
(dp5337
g62
(dp5338
sg71
g5332
sg64
(lp5339
g57
(g58
g59
NtRp5340
(dp5341
g62
(dp5342
g70
I2
ssg71
g5336
sg64
(lp5343
g57
(g66
g59
NtRp5344
(dp5345
g62
(dp5346
g70
I1
ssg71
Nsg64
(lp5347
g57
(g73
g59
NtRp5348
(dp5349
g62
(dp5350
sg71
g5344
sg64
(lp5351
g57
(g78
g59
NtRp5352
(dp5353
g62
(dp5354
sg71
g5348
sg64
(lp5355
g57
(g58
g59
NtRp5356
(dp5357
g62
(dp5358
g70
I1
ssg71
g5352
sg64
(lp5359
g4905
asbasbasbag57
(g73
g59
NtRp5360
(dp5361
g62
(dp5362
sg71
g5344
sg64
(lp5363
g57
(g78
g59
NtRp5364
(dp5365
g62
(dp5366
sg71
g5360
sg64
(lp5367
g57
(g58
g59
NtRp5368
(dp5369
g62
(dp5370
g70
I1
ssg71
g5364
sg64
(lp5371
I00
asbasbasbag57
(g73
g59
NtRp5372
(dp5373
g62
(dp5374
sg71
g5344
sg64
(lp5375
g57
(g78
g59
NtRp5376
(dp5377
g62
(dp5378
sg71
g5372
sg64
(lp5379
g57
(g58
g59
NtRp5380
(dp5381
g62
(dp5382
g70
I1
ssg71
g5376
sg64
(lp5383
Nasbasbasbag57
(g73
g59
NtRp5384
(dp5385
g62
(dp5386
sg71
g5344
sg64
(lp5387
g57
(g78
g59
NtRp5388
(dp5389
g62
(dp5390
sg71
g5384
sg64
(lp5391
g57
(g58
g59
NtRp5392
(dp5393
g62
(dp5394
g70
I1
ssg71
g5388
sg64
(lp5395
(lp5396
(g4919
I00
g4917
tp5397
a(g4928
I00
g4647
tp5398
a(g4937
I00
g4657
tp5399
aasbasbasbasbasbasbasbasbasbasbasbasbasbasbasbasbasbasbasbag57
(g73
g59
NtRp5400
(dp5401
g62
(dp5402
sg71
g3756
sg64
(lp5403
g57
(g78
g59
NtRp5404
(dp5405
g62
(dp5406
g82
g83
ssg71
g5400
sg64
(lp5407
S'meta'
p5408
asbag57
(g78
g59
NtRp5409
(dp5410
g62
(dp5411
g89
g90
ssg71
g5400
sg64
(lp5412
S':'
asbag57
(g78
g59
NtRp5413
(dp5414
g62
(dp5415
sg71
g5400
sg64
(lp5416
g57
(g58
g59
NtRp5417
(dp5418
g62
(dp5419
g70
I5
ssg71
g5413
sg64
(lp5420
g57
(g66
g59
NtRp5421
(dp5422
g62
(dp5423
g70
I4
ssg71
Nsg64
(lp5424
g57
(g73
g59
NtRp5425
(dp5426
g62
(dp5427
sg71
g5421
sg64
(lp5428
g57
(g78
g59
NtRp5429
(dp5430
g62
(dp5431
g82
g83
ssg71
g5425
sg64
(lp5432
S'author'
p5433
asbag57
(g78
g59
NtRp5434
(dp5435
g62
(dp5436
g89
g90
ssg71
g5425
sg64
(lp5437
S':'
asbag57
(g78
g59
NtRp5438
(dp5439
g62
(dp5440
sg71
g5425
sg64
(lp5441
g57
(g58
g59
NtRp5442
(dp5443
g62
(dp5444
g70
I4
ssg71
g5438
sg64
(lp5445
S'Your Name <you@example.com>'
p5446
asbasbasbag57
(g73
g59
NtRp5447
(dp5448
g62
(dp5449
sg71
g5421
sg64
(lp5450
g57
(g78
g59
NtRp5451
(dp5452
g62
(dp5453
g82
g83
ssg71
g5447
sg64
(lp5454
S'copyright'
p5455
asbag57
(g78
g59
NtRp5456
(dp5457
g62
(dp5458
g89
g90
ssg71
g5447
sg64
(lp5459
S':'
asbag57
(g78
g59
NtRp5460
(dp5461
g62
(dp5462
sg71
g5447
sg64
(lp5463
g57
(g58
g59
NtRp5464
(dp5465
g62
(dp5466
g70
I4
ssg71
g5460
sg64
(lp5467
S'Copyright 2011'
p5468
asbasbasbag57
(g73
g59
NtRp5469
(dp5470
g62
(dp5471
sg71
g5421
sg64
(lp5472
g57
(g78
g59
NtRp5473
(dp5474
g62
(dp5475
g82
g83
ssg71
g5469
sg64
(lp5476
S'description'
p5477
asbag57
(g78
g59
NtRp5478
(dp5479
g62
(dp5480
g89
g90
ssg71
g5469
sg64
(lp5481
S':'
asbag57
(g78
g59
NtRp5482
(dp5483
g62
(dp5484
sg71
g5469
sg64
(lp5485
g57
(g58
g59
NtRp5486
(dp5487
g62
(dp5488
g70
I4
ssg71
g5482
sg64
(lp5489
S'a cool new app'
p5490
asbasbasbag57
(g73
g59
NtRp5491
(dp5492
g62
(dp5493
sg71
g5421
sg64
(lp5494
g57
(g78
g59
NtRp5495
(dp5496
g62
(dp5497
g82
g83
ssg71
g5491
sg64
(lp5498
S'generator'
p5499
asbag57
(g78
g59
NtRp5500
(dp5501
g62
(dp5502
g89
g90
ssg71
g5491
sg64
(lp5503
S':'
asbag57
(g78
g59
NtRp5504
(dp5505
g62
(dp5506
sg71
g5491
sg64
(lp5507
g57
(g58
g59
NtRp5508
(dp5509
g62
(dp5510
g70
I4
ssg71
g5504
sg64
(lp5511
S'Web2py Web Framework'
p5512
asbasbasbag57
(g73
g59
NtRp5513
(dp5514
g62
(dp5515
sg71
g5421
sg64
(lp5516
g57
(g78
g59
NtRp5517
(dp5518
g62
(dp5519
g82
g83
ssg71
g5513
sg64
(lp5520
S'keywords'
p5521
asbag57
(g78
g59
NtRp5522
(dp5523
g62
(dp5524
g89
g90
ssg71
g5513
sg64
(lp5525
S':'
asbag57
(g78
g59
NtRp5526
(dp5527
g62
(dp5528
sg71
g5513
sg64
(lp5529
g57
(g58
g59
NtRp5530
(dp5531
g62
(dp5532
g70
I4
ssg71
g5526
sg64
(lp5533
S'web2py, python, framework'
p5534
asbasbasbasbasbasbasbag57
(g73
g59
NtRp5535
(dp5536
g62
(dp5537
sg71
g3756
sg64
(lp5538
g57
(g78
g59
NtRp5539
(dp5540
g62
(dp5541
g82
g83
ssg71
g5535
sg64
(lp5542
S'models_to_run'
p5543
asbag57
(g78
g59
NtRp5544
(dp5545
g62
(dp5546
g89
g90
ssg71
g5535
sg64
(lp5547
S':'
asbag57
(g78
g59
NtRp5548
(dp5549
g62
(dp5550
sg71
g5535
sg64
(lp5551
g57
(g58
g59
NtRp5552
(dp5553
g62
(dp5554
g70
I5
ssg71
g5548
sg64
(lp5555
g57
(g66
g59
NtRp5556
(dp5557
g62
(dp5558
g70
I4
ssg71
Nsg64
(lp5559
g57
(g73
g59
NtRp5560
(dp5561
g62
(dp5562
sg71
g5556
sg64
(lp5563
g57
(g78
g59
NtRp5564
(dp5565
g62
(dp5566
sg71
g5560
sg64
(lp5567
g57
(g58
g59
NtRp5568
(dp5569
g62
(dp5570
g70
I4
ssg71
g5564
sg64
(lp5571
S'^\\w+\\.py$'
p5572
asbasbasbag57
(g73
g59
NtRp5573
(dp5574
g62
(dp5575
sg71
g5556
sg64
(lp5576
g57
(g78
g59
NtRp5577
(dp5578
g62
(dp5579
sg71
g5573
sg64
(lp5580
g57
(g58
g59
NtRp5581
(dp5582
g62
(dp5583
g70
I4
ssg71
g5577
sg64
(lp5584
S'^default/\\w+\\.py$'
p5585
asbasbasbag57
(g73
g59
NtRp5586
(dp5587
g62
(dp5588
sg71
g5556
sg64
(lp5589
g57
(g78
g59
NtRp5590
(dp5591
g62
(dp5592
sg71
g5586
sg64
(lp5593
g57
(g58
g59
NtRp5594
(dp5595
g62
(dp5596
g70
I4
ssg71
g5590
sg64
(lp5597
S'^default/sentence_selectc/\\w+\\.py$'
p5598
asbasbasbasbasbasbasbag57
(g73
g59
NtRp5599
(dp5600
g62
(dp5601
sg71
g3756
sg64
(lp5602
g57
(g78
g59
NtRp5603
(dp5604
g62
(dp5605
g82
g83
ssg71
g5599
sg64
(lp5606
S'postprocessing'
p5607
asbag57
(g78
g59
NtRp5608
(dp5609
g62
(dp5610
g89
g90
ssg71
g5599
sg64
(lp5611
S':'
asbag57
(g78
g59
NtRp5612
(dp5613
g62
(dp5614
sg71
g5599
sg64
(lp5615
g57
(g58
g59
NtRp5616
(dp5617
g62
(dp5618
g70
I5
ssg71
g5612
sg64
(lp5619
g57
(g66
g59
NtRp5620
(dp5621
g62
(dp5622
g70
I4
ssg71
Nsg64
(lp5623
sbasbasbasbag57
(g73
g59
NtRp5624
(dp5625
g62
(dp5626
sg71
g3756
sg64
(lp5627
g57
(g78
g59
NtRp5628
(dp5629
g62
(dp5630
g82
g83
ssg71
g5624
sg64
(lp5631
S'session_cookie_expires'
p5632
asbag57
(g78
g59
NtRp5633
(dp5634
g62
(dp5635
g89
g90
ssg71
g5624
sg64
(lp5636
S':'
asbag57
(g78
g59
NtRp5637
(dp5638
g62
(dp5639
sg71
g5624
sg64
(lp5640
g57
(g58
g59
NtRp5641
(dp5642
g62
(dp5643
g70
I5
ssg71
g5637
sg64
(lp5644
S'None'
p5645
asbasbasbag57
(g73
g59
NtRp5646
(dp5647
g62
(dp5648
sg71
g3756
sg64
(lp5649
g57
(g78
g59
NtRp5650
(dp5651
g62
(dp5652
g82
g83
ssg71
g5646
sg64
(lp5653
S'session_data_name'
p5654
asbag57
(g78
g59
NtRp5655
(dp5656
g62
(dp5657
g89
g90
ssg71
g5646
sg64
(lp5658
S':'
asbag57
(g78
g59
NtRp5659
(dp5660
g62
(dp5661
sg71
g5646
sg64
(lp5662
g57
(g58
g59
NtRp5663
(dp5664
g62
(dp5665
g70
I5
ssg71
g5659
sg64
(lp5666
S'session_data_wsd'
p5667
asbasbasbag57
(g73
g59
NtRp5668
(dp5669
g62
(dp5670
sg71
g3756
sg64
(lp5671
g57
(g78
g59
NtRp5672
(dp5673
g62
(dp5674
g82
g83
ssg71
g5668
sg64
(lp5675
S'session_file'
p5676
asbag57
(g78
g59
NtRp5677
(dp5678
g62
(dp5679
g89
g90
ssg71
g5668
sg64
(lp5680
S':'
asbag57
(g78
g59
NtRp5681
(dp5682
g62
(dp5683
sg71
g5668
sg64
(lp5684
g57
(g58
g59
NtRp5685
(dp5686
g62
(dp5687
g70
I5
ssg71
g5681
sg64
(lp5688
S"<open file '/home/abhinav/Desktop/iiit/web2py/applications/WSD/sessions/127.0.0.1-d5f14651-a801-400e-9d5f-efe41af2210b', mode 'rb+' at 0xb06d93e8>"
p5689
asbasbasbag57
(g73
g59
NtRp5690
(dp5691
g62
(dp5692
sg71
g3756
sg64
(lp5693
g57
(g78
g59
NtRp5694
(dp5695
g62
(dp5696
g82
g83
ssg71
g5690
sg64
(lp5697
S'session_filename'
p5698
asbag57
(g78
g59
NtRp5699
(dp5700
g62
(dp5701
g89
g90
ssg71
g5690
sg64
(lp5702
S':'
asbag57
(g78
g59
NtRp5703
(dp5704
g62
(dp5705
sg71
g5690
sg64
(lp5706
g57
(g58
g59
NtRp5707
(dp5708
g62
(dp5709
g70
I5
ssg71
g5703
sg64
(lp5710
S'/home/abhinav/Desktop/iiit/web2py/applications/WSD/sessions/127.0.0.1-d5f14651-a801-400e-9d5f-efe41af2210b'
p5711
asbasbasbag57
(g73
g59
NtRp5712
(dp5713
g62
(dp5714
sg71
g3756
sg64
(lp5715
g57
(g78
g59
NtRp5716
(dp5717
g62
(dp5718
g82
g83
ssg71
g5712
sg64
(lp5719
S'session_id'
p5720
asbag57
(g78
g59
NtRp5721
(dp5722
g62
(dp5723
g89
g90
ssg71
g5712
sg64
(lp5724
S':'
asbag57
(g78
g59
NtRp5725
(dp5726
g62
(dp5727
sg71
g5712
sg64
(lp5728
g57
(g58
g59
NtRp5729
(dp5730
g62
(dp5731
g70
I5
ssg71
g5725
sg64
(lp5732
g661
asbasbasbag57
(g73
g59
NtRp5733
(dp5734
g62
(dp5735
sg71
g3756
sg64
(lp5736
g57
(g78
g59
NtRp5737
(dp5738
g62
(dp5739
g82
g83
ssg71
g5733
sg64
(lp5740
S'session_id_name'
p5741
asbag57
(g78
g59
NtRp5742
(dp5743
g62
(dp5744
g89
g90
ssg71
g5733
sg64
(lp5745
S':'
asbag57
(g78
g59
NtRp5746
(dp5747
g62
(dp5748
sg71
g5733
sg64
(lp5749
g57
(g58
g59
NtRp5750
(dp5751
g62
(dp5752
g70
I5
ssg71
g5746
sg64
(lp5753
g3813
asbasbasbag57
(g73
g59
NtRp5754
(dp5755
g62
(dp5756
sg71
g3756
sg64
(lp5757
g57
(g78
g59
NtRp5758
(dp5759
g62
(dp5760
g82
g83
ssg71
g5754
sg64
(lp5761
S'session_locked'
p5762
asbag57
(g78
g59
NtRp5763
(dp5764
g62
(dp5765
g89
g90
ssg71
g5754
sg64
(lp5766
S':'
asbag57
(g78
g59
NtRp5767
(dp5768
g62
(dp5769
sg71
g5754
sg64
(lp5770
g57
(g58
g59
NtRp5771
(dp5772
g62
(dp5773
g70
I5
ssg71
g5767
sg64
(lp5774
g1771
asbasbasbag57
(g73
g59
NtRp5775
(dp5776
g62
(dp5777
sg71
g3756
sg64
(lp5778
g57
(g78
g59
NtRp5779
(dp5780
g62
(dp5781
g82
g83
ssg71
g5775
sg64
(lp5782
S'session_new'
p5783
asbag57
(g78
g59
NtRp5784
(dp5785
g62
(dp5786
g89
g90
ssg71
g5775
sg64
(lp5787
S':'
asbag57
(g78
g59
NtRp5788
(dp5789
g62
(dp5790
sg71
g5775
sg64
(lp5791
g57
(g58
g59
NtRp5792
(dp5793
g62
(dp5794
g70
I5
ssg71
g5788
sg64
(lp5795
g100
asbasbasbag57
(g73
g59
NtRp5796
(dp5797
g62
(dp5798
sg71
g3756
sg64
(lp5799
g57
(g78
g59
NtRp5800
(dp5801
g62
(dp5802
g82
g83
ssg71
g5796
sg64
(lp5803
S'session_storage_type'
p5804
asbag57
(g78
g59
NtRp5805
(dp5806
g62
(dp5807
g89
g90
ssg71
g5796
sg64
(lp5808
S':'
asbag57
(g78
g59
NtRp5809
(dp5810
g62
(dp5811
sg71
g5796
sg64
(lp5812
g57
(g58
g59
NtRp5813
(dp5814
g62
(dp5815
g70
I5
ssg71
g5809
sg64
(lp5816
g3243
asbasbasbag57
(g73
g59
NtRp5817
(dp5818
g62
(dp5819
sg71
g3756
sg64
(lp5820
g57
(g78
g59
NtRp5821
(dp5822
g62
(dp5823
g82
g83
ssg71
g5817
sg64
(lp5824
S'status'
p5825
asbag57
(g78
g59
NtRp5826
(dp5827
g62
(dp5828
g89
g90
ssg71
g5817
sg64
(lp5829
S':'
asbag57
(g78
g59
NtRp5830
(dp5831
g62
(dp5832
sg71
g5817
sg64
(lp5833
g57
(g58
g59
NtRp5834
(dp5835
g62
(dp5836
g70
I5
ssg71
g5830
sg64
(lp5837
S'200'
p5838
asbasbasbag57
(g73
g59
NtRp5839
(dp5840
g62
(dp5841
sg71
g3756
sg64
(lp5842
g57
(g78
g59
NtRp5843
(dp5844
g62
(dp5845
g82
g83
ssg71
g5839
sg64
(lp5846
S'subtitle'
p5847
asbag57
(g78
g59
NtRp5848
(dp5849
g62
(dp5850
g89
g90
ssg71
g5839
sg64
(lp5851
S':'
asbag57
(g78
g59
NtRp5852
(dp5853
g62
(dp5854
sg71
g5839
sg64
(lp5855
g57
(g58
g59
NtRp5856
(dp5857
g62
(dp5858
g70
I5
ssg71
g5852
sg64
(lp5859
g4324
(S's\r\x00\x00\x00customize me!'
tRp5860
asbasbasbag57
(g73
g59
NtRp5861
(dp5862
g62
(dp5863
sg71
g3756
sg64
(lp5864
g57
(g78
g59
NtRp5865
(dp5866
g62
(dp5867
g82
g83
ssg71
g5861
sg64
(lp5868
S'title'
p5869
asbag57
(g78
g59
NtRp5870
(dp5871
g62
(dp5872
g89
g90
ssg71
g5861
sg64
(lp5873
S':'
asbag57
(g78
g59
NtRp5874
(dp5875
g62
(dp5876
sg71
g5861
sg64
(lp5877
g57
(g58
g59
NtRp5878
(dp5879
g62
(dp5880
g70
I5
ssg71
g5874
sg64
(lp5881
S'Wsd'
p5882
asbasbasbag57
(g73
g59
NtRp5883
(dp5884
g62
(dp5885
sg71
g3756
sg64
(lp5886
g57
(g78
g59
NtRp5887
(dp5888
g62
(dp5889
g82
g83
ssg71
g5883
sg64
(lp5890
S'view'
p5891
asbag57
(g78
g59
NtRp5892
(dp5893
g62
(dp5894
g89
g90
ssg71
g5883
sg64
(lp5895
S':'
asbag57
(g78
g59
NtRp5896
(dp5897
g62
(dp5898
sg71
g5883
sg64
(lp5899
g57
(g58
g59
NtRp5900
(dp5901
g62
(dp5902
g70
I5
ssg71
g5896
sg64
(lp5903
S'default/sentence_selectc.html'
p5904
asbasbasbasbasbsS'locals'
p5905
(dp5906
S'Service'
p5907
S"<class 'gluon.tools.Service'>"
p5908
sS'OBJECT'
p5909
S"<class 'gluon.html.OBJECT'>"
p5910
sS'SQLDB'
p5911
S"<class 'gluon.dal.DAL'>"
p5912
sg3296
S"<Storage {'last_query': 'db.auth_user.id>0', 'wo...login]': '20094feb-0739-4506-8aba-10bc4e6e7e83'}>"
p5913
sS'LINK'
p5914
S"<class 'gluon.html.LINK'>"
p5915
sS'BR'
p5916
S"<class 'gluon.html.BR'>"
p5917
sS'local_import'
p5918
S'<function <lambda>>'
p5919
sS'OPTGROUP'
p5920
S"<class 'gluon.html.OPTGROUP'>"
p5921
sS'__package__'
p5922
S'None'
p5923
sS'PRE'
p5924
S"<class 'gluon.html.PRE'>"
p5925
sS'IS_INT_IN_RANGE'
p5926
S"<class 'gluon.validators.IS_INT_IN_RANGE'>"
p5927
sS'IS_LOWER'
p5928
S"<class 'gluon.validators.IS_LOWER'>"
p5929
sS'IS_STRONG'
p5930
S"<class 'gluon.validators.IS_STRONG'>"
p5931
sS'cache'
p5932
S'<gluon.cache.Cache object>'
p5933
sS'IS_IN_DB'
p5934
S"<class 'gluon.validators.IS_IN_DB'>"
p5935
sS'TAG'
p5936
S'<gluon.html.__TAG__ object>'
p5937
sS'SQLField'
p5938
S"<class 'gluon.dal.Field'>"
p5939
sS'mail'
p5940
S'<gluon.tools.Mail object>'
p5941
sS'BODY'
p5942
S"<class 'gluon.html.BODY'>"
p5943
sS'IS_DATE_IN_RANGE'
p5944
S"<class 'gluon.validators.IS_DATE_IN_RANGE'>"
p5945
sS'IFRAME'
p5946
S"<class 'gluon.html.IFRAME'>"
p5947
sS'URL'
p5948
S'<function URL>'
p5949
sS'__file__'
p5950
S"'/home/abhinav/Desktop/iiit/web2py/applications/WSD/views/default/sentence_selectc.html'"
p5951
sS'db'
p5952
S'<DAL uri="sqlite://storage.sqlite">'
p5953
sS'auth'
p5954
S'<gluon.tools.Auth object>'
p5955
sS'P'
S"<class 'gluon.html.P'>"
p5956
sS'TFOOT'
p5957
S"<class 'gluon.html.TFOOT'>"
p5958
sS'XHTML'
p5959
S"<class 'gluon.html.XHTML'>"
p5960
sS'ON'
p5961
g1771
sS'OL'
p5962
S"<class 'gluon.html.OL'>"
p5963
sS'd'
S'9'
sS'TEXTAREA'
p5964
S"<class 'gluon.html.TEXTAREA'>"
p5965
sS'MENU'
p5966
S"<class 'gluon.html.MENU'>"
p5967
sS'IS_IMAGE'
p5968
S"<class 'gluon.validators.IS_IMAGE'>"
p5969
sS'x'
S'<Rows (1)>'
p5970
sS'EM'
p5971
S"<class 'gluon.html.EM'>"
p5972
sS'CODE'
p5973
S"<class 'gluon.html.CODE'>"
p5974
sS'HTTP'
p5975
S"<class 'gluon.http.HTTP'>"
p5976
sS'HR'
p5977
S"<class 'gluon.html.HR'>"
p5978
sS'IS_DATETIME'
p5979
S"<class 'gluon.validators.IS_DATETIME'>"
p5980
sS'STYLE'
p5981
S"<class 'gluon.html.STYLE'>"
p5982
sS'LABEL'
p5983
S"<class 'gluon.html.LABEL'>"
p5984
sS'CLEANUP'
p5985
S"<class 'gluon.validators.CLEANUP'>"
p5986
sS'plugins'
p5987
S'<gluon.tools.PluginManager object>'
p5988
sS'SELECT'
p5989
S"<class 'gluon.html.SELECT'>"
p5990
sS'use_janrain'
p5991
S'<function use_janrain>'
p5992
sS'CENTER'
p5993
S"<class 'gluon.html.CENTER'>"
p5994
sS'prettydate'
p5995
S'<function prettydate>'
p5996
sS'Crud'
p5997
S"<class 'gluon.tools.Crud'>"
p5998
sS'Auth'
p5999
S"<class 'gluon.tools.Auth'>"
p6000
sS'__builtins__'
p6001
S"{'ArithmeticError': <type 'exceptions.ArithmeticError'>, 'AssertionError': <type 'exceptions.AssertionError'>, 'AttributeError': <type 'exceptions.AttributeError'>, 'BaseException': <type 'exceptions.BaseException'>, 'BufferError': <type 'exceptions.BufferError'>, 'BytesWarning': <type 'exceptions.BytesWarning'>, 'DeprecationWarning': <type 'exceptions.DeprecationWarning'>, 'EOFError': <type 'exceptions.EOFError'>, 'Ellipsis': Ellipsis, 'EnvironmentError': <type 'exceptions.EnvironmentError'>, ...}"
p6002
sS'HTML'
p6003
S"<class 'gluon.html.HTML'>"
p6004
sS'SQLFORM'
p6005
S"<class 'gluon.sqlhtml.SQLFORM'>"
p6006
sS'LOAD'
p6007
S'<function LOAD>'
p6008
sS'redirect'
p6009
S'<function redirect>'
p6010
sS'FIELDSET'
p6011
S"<class 'gluon.html.FIELDSET'>"
p6012
sS'IS_EQUAL_TO'
p6013
S"<class 'gluon.validators.IS_EQUAL_TO'>"
p6014
sS'embed64'
p6015
S'<function embed64>'
p6016
sS'IS_LIST_OF'
p6017
S"<class 'gluon.validators.IS_LIST_OF'>"
p6018
sS'INPUT'
p6019
S"<class 'gluon.html.INPUT'>"
p6020
sS'EMBED'
p6021
S"<class 'gluon.html.EMBED'>"
p6022
sS'_'
S'<function _>'
p6023
sS'H2'
p6024
S"<class 'gluon.html.H2'>"
p6025
sS'H3'
p6026
S"<class 'gluon.html.H3'>"
p6027
sS'BUTTON'
p6028
S"<class 'gluon.html.BUTTON'>"
p6029
sS'H1'
p6030
S"<class 'gluon.html.H1'>"
p6031
sS'H6'
p6032
S"<class 'gluon.html.H6'>"
p6033
sS'H4'
p6034
S"<class 'gluon.html.H4'>"
p6035
sS'H5'
p6036
S"<class 'gluon.html.H5'>"
p6037
sS'UL'
p6038
S"<class 'gluon.html.UL'>"
p6039
sS's'
S'[]'
p6040
sS'IS_UPPER'
p6041
S"<class 'gluon.validators.IS_UPPER'>"
p6042
sS'w'
S"'old'"
p6043
sS'xmlescape'
p6044
S'<function xmlescape>'
p6045
sS'IS_TIME'
p6046
S"<class 'gluon.validators.IS_TIME'>"
p6047
sS'OPTION'
p6048
S"<class 'gluon.html.OPTION'>"
p6049
sS'TITLE'
p6050
S"<class 'gluon.html.TITLE'>"
p6051
sS'CRYPT'
p6052
S"<class 'gluon.validators.CRYPT'>"
p6053
sS'IS_EMPTY_OR'
p6054
S"<class 'gluon.validators.IS_EMPTY_OR'>"
p6055
sS'MARKMIN'
p6056
S"<class 'gluon.html.MARKMIN'>"
p6057
sS'__name__'
p6058
S"'__restricted__'"
p6059
sS'STRONG'
p6060
S"<class 'gluon.html.STRONG'>"
p6061
sS'COL'
p6062
S"<class 'gluon.html.COL'>"
p6063
sS'service'
p6064
S'<gluon.tools.Service object>'
p6065
sS'SCRIPT'
p6066
S"<class 'gluon.html.SCRIPT'>"
p6067
sS'TABLE'
p6068
S"<class 'gluon.html.TABLE'>"
p6069
sS'IS_IPV4'
p6070
S"<class 'gluon.validators.IS_IPV4'>"
p6071
sS'IS_LENGTH'
p6072
S"<class 'gluon.validators.IS_LENGTH'>"
p6073
sS'XML'
p6074
S"<class 'gluon.html.XML'>"
p6075
sS'B'
S"<class 'gluon.html.B'>"
p6076
sS'IMG'
p6077
S"<class 'gluon.html.IMG'>"
p6078
sS'SQLTABLE'
p6079
S"<class 'gluon.sqlhtml.SQLTABLE'>"
p6080
sS'IS_MATCH'
p6081
S"<class 'gluon.validators.IS_MATCH'>"
p6082
sS'IS_ALPHANUMERIC'
p6083
S"<class 'gluon.validators.IS_ALPHANUMERIC'>"
p6084
sS'SPAN'
p6085
S"<class 'gluon.html.SPAN'>"
p6086
sS'f'
S"''"
p6087
sS'j'
S'<Row {\'category\': None, \'level\': None, \'hsentenc...kewoman said, "This is an old story.\', \'id\': 10}>'
p6088
sS'IS_SLUG'
p6089
S"<class 'gluon.validators.IS_SLUG'>"
p6090
sS'r'
S'<Rows (1)>'
p6091
sS'META'
p6092
S"<class 'gluon.html.META'>"
p6093
sS'IS_DATE'
p6094
S"<class 'gluon.validators.IS_DATE'>"
p6095
sS'IS_EMAIL'
p6096
S"<class 'gluon.validators.IS_EMAIL'>"
p6097
sS'IS_NOT_EMPTY'
p6098
S"<class 'gluon.validators.IS_NOT_EMPTY'>"
p6099
sS'IS_FLOAT_IN_RANGE'
p6100
S"<class 'gluon.validators.IS_FLOAT_IN_RANGE'>"
p6101
sS'BEAUTIFY'
p6102
S"<class 'gluon.html.BEAUTIFY'>"
p6103
sS'TBODY'
p6104
S"<class 'gluon.html.TBODY'>"
p6105
sS'CAT'
p6106
S"<class 'gluon.html.CAT'>"
p6107
sS'Field'
p6108
S"<class 'gluon.dal.Field'>"
p6109
sS'DIV'
p6110
S"<class 'gluon.html.DIV'>"
p6111
sS'LEGEND'
p6112
S"<class 'gluon.html.LEGEND'>"
p6113
sS'COLGROUP'
p6114
S"<class 'gluon.html.COLGROUP'>"
p6115
sS'DAL'
p6116
S"<class 'gluon.dal.DAL'>"
p6117
sS'TT'
p6118
S"<class 'gluon.html.TT'>"
p6119
sS'TR'
p6120
S"<class 'gluon.html.TR'>"
p6121
sS'LI'
p6122
S"<class 'gluon.html.LI'>"
p6123
sS'TH'
p6124
S"<class 'gluon.html.TH'>"
p6125
sS'TD'
p6126
S"<class 'gluon.html.TD'>"
p6127
sS'PluginManager'
p6128
S"<class 'gluon.tools.PluginManager'>"
p6129
sS'IS_URL'
p6130
S"<class 'gluon.validators.IS_URL'>"
p6131
sS'A'
S"<class 'gluon.html.A'>"
p6132
sS'HEAD'
p6133
S"<class 'gluon.html.HEAD'>"
p6134
sS'IS_DATETIME_IN_RANGE'
p6135
S"<class 'gluon.validators.IS_DATETIME_IN_RANGE'>"
p6136
sS'FORM'
p6137
S"<class 'gluon.html.FORM'>"
p6138
sS'I'
S"<class 'gluon.html.I'>"
p6139
sS'crud'
p6140
S'<gluon.tools.Crud object>'
p6141
sS'IS_NOT_IN_DB'
p6142
S"<class 'gluon.validators.IS_NOT_IN_DB'>"
p6143
sg3751
S"<Storage {'body': <cStringIO.StringO object at 0...c0e2c>, 'view': 'default/sentence_selectc.html'}>"
p6144
sS'THEAD'
p6145
S"<class 'gluon.html.THEAD'>"
p6146
sS'IS_NULL_OR'
p6147
S"<class 'gluon.validators.IS_EMPTY_OR'>"
p6148
sS'i'
S"<Row {'sid': '10'}>"
p6149
sg56
S"<Storage {'function': 'sentence_selectc', 'body'...y/applications/WSD/', 'post_vars': <Storage {}>}>"
p6150
sS'IS_EXPR'
p6151
S"<class 'gluon.validators.IS_EXPR'>"
p6152
sS'T'
S'<gluon.languages.translator object>'
p6153
sS'IS_IN_SET'
p6154
S"<class 'gluon.validators.IS_IN_SET'>"
p6155
sS'IS_UPLOAD_FILENAME'
p6156
S"<class 'gluon.validators.IS_UPLOAD_FILENAME'>"
p6157
sS'level_set'
p6158
S"'1'"
p6159
sS'IS_DECIMAL_IN_RANGE'
p6160
S"<class 'gluon.validators.IS_DECIMAL_IN_RANGE'>"
p6161
sssS'traceback'
p6162
S'Traceback (most recent call last):\n  File "/home/abhinav/Desktop/iiit/web2py/gluon/restricted.py", line 212, in restricted\n    exec ccode in environment\n  File "/home/abhinav/Desktop/iiit/web2py/applications/WSD/views/default/sentence_selectc.html", line 52, in <module>\n    }\nTypeError: int() argument must be a string or a number, not \'NoneType\'\n'
p6163
s.