(dp1
S'output'
p2
S"<type 'exceptions.IOError'> [Errno 2] No such file or directory: '$HOME_anu_tmp/tmp/sample_tmp/2.1/word.dat'"
p3
sS'layer'
p4
S'/home/nazrul/web2py/applications/WSD_Tool/controllers/default.py'
p5
sS'code'
p6
S'# -*- coding: utf-8 -*-\n# this file is released under public domain and you can use without limitations\n\n#########################################################################\n## This is a samples controller\n## - index is the default action of any application\n## - user is required for authentication and authorization\n## - download is for downloading files uploaded in the db (does streaming)\n## - call exposes all registered services (none by default)\n#########################################################################\nimport os,subprocess\ndef index():\n    redirect(\'home\')\n    """\n    example action using the internationalization operator T and flash\n    rendered by views/default/index.html or views/generic.html\n    """\n    response.flash = "Welcome to web2py!"\n    return dict(message=T(\'Hello World\'))\n\ndef user():\n    """\n    exposes:\n    http://..../[app]/default/user/login\n    http://..../[app]/default/user/logout\n    http://..../[app]/default/user/register\n    http://..../[app]/default/user/profile\n    http://..../[app]/default/user/retrieve_password\n    http://..../[app]/default/user/change_password\n    use @auth.requires_login()\n        @auth.requires_membership(\'group name\')\n        @auth.requires_permission(\'read\',\'table name\',record_id)\n    to decorate functions that need access control\n    """\n    return dict(form=auth())\n\n\ndef download():\n    """\n    allows downloading of uploaded files\n    http://..../[app]/default/download/[filename]\n    """\n    return response.download(request,db)\n\n\ndef call():\n    """\n    exposes services. for example:\n    http://..../[app]/default/call/jsonrpc\n    decorate with @services.jsonrpc the functions to expose\n    supports xml, json, xmlrpc, jsonrpc, amfrpc, rss, csv\n    """\n    return service()\n\n\n@auth.requires_signature()\ndef data():\n    """\n    http://..../[app]/default/data/tables\n    http://..../[app]/default/data/create/[table]\n    http://..../[app]/default/data/read/[table]/[id]\n    http://..../[app]/default/data/update/[table]/[id]\n    http://..../[app]/default/data/delete/[table]/[id]\n    http://..../[app]/default/data/select/[table]\n    http://..../[app]/default/data/search/[table]\n    but URLs must be signed, i.e. linked with\n      A(\'table\',_href=URL(\'data/tables\',user_signature=True))\n    or with the signed load operator\n      LOAD(\'default\',\'data.load\',args=\'tables\',ajax=True,user_signature=True)\n    """\n    return dict(form=crud())\n\n\n\n\n@auth.requires_login()\ndef home():\n    t = auth.user.id\n    h = db(db.rules.userid==t).select()\n    g = []\n    for i in h:\n        g.append(db(db.words.id==i.wid).select(db.words.word))\n    h=[]\n    for i in g:\n        for j in i:\n            h.append(j.word) \n    h=list(set(h))\n    return dict(t=t,h=h)\n\n@auth.requires_login()\ndef word_select():\n    if not request.vars.check:\n        redirect(\'home\')\n    else:\n        check=0\n    if request.vars.submit:\n        w = request.vars.word\n        t = db(db.words).select()\n        for i in t:\n            if i.word==w:\n                session.word = w\n                session.ide = i.id\n                break\n        redirect(\'sentence_select\')\n    return dict()\n\n\n@auth.requires_login()\ndef word_selectc():\n    if not request.vars.check:\n        redirect(\'home\')\n    else:\n        check=0\n    if request.vars.submit:\n        w = request.vars.word\n        t = db(db.words).select()\n        for i in t:\n            if i.word==w:\n                session.word = w\n                session.ide = i.id\n                break\n        redirect(URL(\'sentence_selectc\',vars=dict(second=request.vars.second)))\n    return dict()\n    \n    \n    \n\n\n\n#@auth.requires_login()\n#def reason():\n#    t=session.senid\n#    pre=db((db.rules.wid==session.ide)&(db.rules.sid==session.sid)).select()\n#    c=0\n#    for i in pre:\n#        c+=1\n#    if request.vars.hindit:\n#        db.rules.insert(name=session.word+str(c),userid=auth.user.id,wid=session.ide,sid=session.sid,translation=hindit)\n#        redirect(URL(\'rel\'))\n#    return dict()\n    \n    \n@auth.requires_login()\ndef sentence_select():\n    f = \'\'\n    x = 0\n    if request.vars.submit and (request.vars.hindit):\n        t = request.vars.sentence\n        r = db(db.sentences.esentence==t).select(db.sentences.id)\n        for i in r:\n          session.sid=i.id\n          break\n        pre=db((db.rules.wid==session.ide)&(db.rules.userid==auth.user.id)).select()\n        c=0\n        f=0\n        for i in pre:\n            c+=1\n            if str(session.sid)==i.sid:\n                f=1\n                break\n        if f==0:\n            db.rules.insert(name=session.word+str(c),userid=auth.user.id,wid=session.ide,sid=session.sid,translation=request.vars.hindit)\n        redirect(URL(\'rel\'))\n    return dict(w=session.word,d=session.ide,f=f)\n\n\n@auth.requires_login()\ndef sentence_selectc():\n    f = \'\'\n    x = 0\n    if request.vars.submit:\n        t = request.vars.sentence\n        r = db(db.sentences.esentence==t).select(db.sentences.id)\n        for i in r:\n          hindit=i.id\n          session.sid=i.id\n          break\n        redirect(URL(\'reasonc\',vars=dict(hindit=hindit)))\n    return dict(w=session.word,d=session.ide,f=f)\n\n\n@auth.requires_login()\ndef reasonc():\n    t=session.sid\n    r = db(db.sentences.id==t).select(db.sentences.hsentence)\n    if request.vars.submit:\n        pre=db((db.rules.wid==session.ide)&(db.rules.userid==auth.user.id)).select()\n        c=0\n        f=0\n        for i in pre:\n            c+=1\n            print session.sid,i.sid\n            if i.sid==str(session.sid):\n                f=1\n                break\n        if f==0:\n            db.rules.insert(name=session.word+str(c),userid=auth.user.id,wid=session.ide,sid=session.sid)\n        redirect(URL(\'rel\'))\n    return dict(r=r)\n\n@auth.requires_login()\ndef delaccount():\n    if request.vars.submit:\n        db(db.auth_user.email==request.vars.email).delete()\n        redirect("home")\n    return dict()\n\n@auth.requires_login()\ndef addword():\n    if request.vars.submit:\n        db.words.insert(word=request.vars.word)\n        db.sentences.insert(esentence=request.vars.esentence,hsentence=request.vars.hsentence)\n        w = db(db.words.word==request.vars.word).select(db.words.id)\n        s = db(db.sentences.esentence==request.vars.esentence).select(db.sentences.id)\n        for i in w:\n            for j in s:\n                db.links.insert(wid=i.id,sid=j.id)\n                break\n            break\n        session.flash="Word Added"\n        redirect(\'home\')\n    return dict()\n@auth.requires_login()\ndef delword():\n    if request.vars.submit:\n        g = db(db.words.word==request.vars.word).select(db.words.id)\n        for i in g:\n            db(db.words.id==i.id).delete()\n            db(db.rules.wid==i.id).delete()\n            y = db(db.links.wid==i.id).select(db.links.sid)\n            db(db.links.wid==i.id).delete()\n            for j in y:\n                db(db.sentences.id==j.sid).delete()\n                break\n            break\n            session.flash="Word Deleted "\n        redirect(\'home\')\n    return dict()\ndef rel():\n       s=db(db.sentences.id==session.sid).select(db.sentences.esentence)\n       s=s[0].esentence\n       f=open(\'sample\',\'w\')\n       st="<TITLE> test. </TITLE> \\n <p> " + s + " </p>\\n"\n       f.write(st)\n       from subprocess import Popen, PIPE, STDOUT\n       shell_command = \'Anusaaraka_stanford.sh  sample 0 True\'\n       event = Popen(shell_command, shell=True, stdin=PIPE, stdout=PIPE, stderr=STDOUT)\n       event.communicate()\n       #os.system("Anusaaraka_stanford.sh sample 0 True")\n       f.close()\n       f=open(\'$HOME_anu_tmp/tmp/sample_tmp/2.1/word.dat\',\'r\')\n       a=f.read()\n       f.close()\n       return dict(a=a) \n        \ndef testt():\n    v=db(db.auth_user).select()\n    return dict(v=v)\n\nresponse._vars=response._caller(rel)\n'
p7
sS'snapshot'
p8
(dp9
S'exception'
p10
(dp11
S'__getslice__'
p12
S"<method-wrapper '__getslice__' of exceptions.IOError object>"
p13
sS'__str__'
p14
S"<method-wrapper '__str__' of exceptions.IOError object>"
p15
sS'__reduce__'
p16
S'<built-in method __reduce__ of exceptions.IOError object>'
p17
sS'__dict__'
p18
S'{}'
p19
sS'__sizeof__'
p20
S'<built-in method __sizeof__ of exceptions.IOError object>'
p21
sS'__init__'
p22
S"<method-wrapper '__init__' of exceptions.IOError object>"
p23
sS'__setattr__'
p24
S"<method-wrapper '__setattr__' of exceptions.IOError object>"
p25
sS'__reduce_ex__'
p26
S'<built-in method __reduce_ex__ of exceptions.IOError object>'
p27
sS'__new__'
p28
S'<built-in method __new__ of type object>'
p29
sS'errno'
p30
S'2'
sS'__format__'
p31
S'<built-in method __format__ of exceptions.IOError object>'
p32
sS'__class__'
p33
S"<type 'exceptions.IOError'>"
p34
sS'filename'
p35
S"'$HOME_anu_tmp/tmp/sample_tmp/2.1/word.dat'"
p36
sS'__doc__'
p37
S"'I/O operation failed.'"
p38
sS'__getitem__'
p39
S"<method-wrapper '__getitem__' of exceptions.IOError object>"
p40
sS'__setstate__'
p41
S'<built-in method __setstate__ of exceptions.IOError object>'
p42
sS'__getattribute__'
p43
S"<method-wrapper '__getattribute__' of exceptions.IOError object>"
p44
sS'args'
p45
S"(2, 'No such file or directory')"
p46
sS'__subclasshook__'
p47
S'<built-in method __subclasshook__ of type object>'
p48
sS'__unicode__'
p49
S'<built-in method __unicode__ of exceptions.IOError object>'
p50
sS'strerror'
p51
S"'No such file or directory'"
p52
sS'__delattr__'
p53
S"<method-wrapper '__delattr__' of exceptions.IOError object>"
p54
sS'__repr__'
p55
S"<method-wrapper '__repr__' of exceptions.IOError object>"
p56
sS'__hash__'
p57
S"<method-wrapper '__hash__' of exceptions.IOError object>"
p58
ssS'evalue'
p59
S"[Errno 2] No such file or directory: '$HOME_anu_tmp/tmp/sample_tmp/2.1/word.dat'"
p60
sS'request'
p61
ccopy_reg
_reconstructor
p62
(cgluon.html
BEAUTIFY
p63
c__builtin__
object
p64
NtRp65
(dp66
S'attributes'
p67
(dp68
sS'components'
p69
(lp70
g62
(cgluon.html
TABLE
p71
g64
NtRp72
(dp73
g67
(dp74
S'level'
p75
I5
ssS'parent'
p76
Nsg69
(lp77
g62
(cgluon.html
TR
p78
g64
NtRp79
(dp80
g67
(dp81
sg76
g72
sg69
(lp82
g62
(cgluon.html
TD
p83
g64
NtRp84
(dp85
g67
(dp86
S'_style'
p87
S'font-weight:bold;vertical-align:top'
p88
ssg76
g79
sg69
(lp89
S'ajax'
p90
asbag62
(g83
g64
NtRp91
(dp92
g67
(dp93
S'_valign'
p94
S'top'
p95
ssg76
g79
sg69
(lp96
S':'
asbag62
(g83
g64
NtRp97
(dp98
g67
(dp99
sg76
g79
sg69
(lp100
g62
(g63
g64
NtRp101
(dp102
g67
(dp103
g75
I5
ssg76
g97
sg69
(lp104
S'False'
p105
asbasbasbag62
(g78
g64
NtRp106
(dp107
g67
(dp108
sg76
g72
sg69
(lp109
g62
(g83
g64
NtRp110
(dp111
g67
(dp112
g87
g88
ssg76
g106
sg69
(lp113
S'application'
p114
asbag62
(g83
g64
NtRp115
(dp116
g67
(dp117
g94
g95
ssg76
g106
sg69
(lp118
S':'
asbag62
(g83
g64
NtRp119
(dp120
g67
(dp121
sg76
g106
sg69
(lp122
g62
(g63
g64
NtRp123
(dp124
g67
(dp125
g75
I5
ssg76
g119
sg69
(lp126
S'WSD_Tool'
p127
asbasbasbag62
(g78
g64
NtRp128
(dp129
g67
(dp130
sg76
g72
sg69
(lp131
g62
(g83
g64
NtRp132
(dp133
g67
(dp134
g87
g88
ssg76
g128
sg69
(lp135
g45
asbag62
(g83
g64
NtRp136
(dp137
g67
(dp138
g94
g95
ssg76
g128
sg69
(lp139
S':'
asbag62
(g83
g64
NtRp140
(dp141
g67
(dp142
sg76
g128
sg69
(lp143
g62
(g63
g64
NtRp144
(dp145
g67
(dp146
g75
I5
ssg76
g140
sg69
(lp147
g62
(g71
g64
NtRp148
(dp149
g67
(dp150
g75
I4
ssg76
Nsg69
(lp151
sbasbasbasbag62
(g78
g64
NtRp152
(dp153
g67
(dp154
sg76
g72
sg69
(lp155
g62
(g83
g64
NtRp156
(dp157
g67
(dp158
g87
g88
ssg76
g152
sg69
(lp159
S'body'
p160
asbag62
(g83
g64
NtRp161
(dp162
g67
(dp163
g94
g95
ssg76
g152
sg69
(lp164
S':'
asbag62
(g83
g64
NtRp165
(dp166
g67
(dp167
sg76
g152
sg69
(lp168
g62
(g63
g64
NtRp169
(dp170
g67
(dp171
g75
I5
ssg76
g165
sg69
(lp172
S'<cStringIO.StringO object at 0xaf146a0>'
p173
asbasbasbag62
(g78
g64
NtRp174
(dp175
g67
(dp176
sg76
g72
sg69
(lp177
g62
(g83
g64
NtRp178
(dp179
g67
(dp180
g87
g88
ssg76
g174
sg69
(lp181
S'cid'
p182
asbag62
(g83
g64
NtRp183
(dp184
g67
(dp185
g94
g95
ssg76
g174
sg69
(lp186
S':'
asbag62
(g83
g64
NtRp187
(dp188
g67
(dp189
sg76
g174
sg69
(lp190
g62
(g63
g64
NtRp191
(dp192
g67
(dp193
g75
I5
ssg76
g187
sg69
(lp194
S'None'
p195
asbasbasbag62
(g78
g64
NtRp196
(dp197
g67
(dp198
sg76
g72
sg69
(lp199
g62
(g83
g64
NtRp200
(dp201
g67
(dp202
g87
g88
ssg76
g196
sg69
(lp203
S'client'
p204
asbag62
(g83
g64
NtRp205
(dp206
g67
(dp207
g94
g95
ssg76
g196
sg69
(lp208
S':'
asbag62
(g83
g64
NtRp209
(dp210
g67
(dp211
sg76
g196
sg69
(lp212
g62
(g63
g64
NtRp213
(dp214
g67
(dp215
g75
I5
ssg76
g209
sg69
(lp216
S'127.0.0.1'
p217
asbasbasbag62
(g78
g64
NtRp218
(dp219
g67
(dp220
sg76
g72
sg69
(lp221
g62
(g83
g64
NtRp222
(dp223
g67
(dp224
g87
g88
ssg76
g218
sg69
(lp225
S'controller'
p226
asbag62
(g83
g64
NtRp227
(dp228
g67
(dp229
g94
g95
ssg76
g218
sg69
(lp230
S':'
asbag62
(g83
g64
NtRp231
(dp232
g67
(dp233
sg76
g218
sg69
(lp234
g62
(g63
g64
NtRp235
(dp236
g67
(dp237
g75
I5
ssg76
g231
sg69
(lp238
S'default'
p239
asbasbasbag62
(g78
g64
NtRp240
(dp241
g67
(dp242
sg76
g72
sg69
(lp243
g62
(g83
g64
NtRp244
(dp245
g67
(dp246
g87
g88
ssg76
g240
sg69
(lp247
S'cookies'
p248
asbag62
(g83
g64
NtRp249
(dp250
g67
(dp251
g94
g95
ssg76
g240
sg69
(lp252
S':'
asbag62
(g83
g64
NtRp253
(dp254
g67
(dp255
sg76
g240
sg69
(lp256
g62
(g63
g64
NtRp257
(dp258
g67
(dp259
g75
I5
ssg76
g253
sg69
(lp260
g62
(g71
g64
NtRp261
(dp262
g67
(dp263
g75
I4
ssg76
Nsg69
(lp264
g62
(g78
g64
NtRp265
(dp266
g67
(dp267
sg76
g261
sg69
(lp268
g62
(g83
g64
NtRp269
(dp270
g67
(dp271
g87
g88
ssg76
g265
sg69
(lp272
S'KBD'
p273
asbag62
(g83
g64
NtRp274
(dp275
g67
(dp276
g94
g95
ssg76
g265
sg69
(lp277
S':'
asbag62
(g83
g64
NtRp278
(dp279
g67
(dp280
sg76
g265
sg69
(lp281
g62
(g63
g64
NtRp282
(dp283
g67
(dp284
g75
I4
ssg76
g278
sg69
(lp285
S'0hi-0'
p286
ag62
(g71
g64
NtRp287
(dp288
g67
(dp289
g75
I3
ssg76
Nsg69
(lp290
g62
(g78
g64
NtRp291
(dp292
g67
(dp293
sg76
g287
sg69
(lp294
g62
(g83
g64
NtRp295
(dp296
g67
(dp297
g87
g88
ssg76
g291
sg69
(lp298
S'comment'
p299
asbag62
(g83
g64
NtRp300
(dp301
g67
(dp302
g94
g95
ssg76
g291
sg69
(lp303
S':'
asbag62
(g83
g64
NtRp304
(dp305
g67
(dp306
sg76
g291
sg69
(lp307
g62
(g63
g64
NtRp308
(dp309
g67
(dp310
g75
I3
ssg76
g304
sg69
(lp311
S''
asbasbasbag62
(g78
g64
NtRp312
(dp313
g67
(dp314
sg76
g287
sg69
(lp315
g62
(g83
g64
NtRp316
(dp317
g67
(dp318
g87
g88
ssg76
g312
sg69
(lp319
S'domain'
p320
asbag62
(g83
g64
NtRp321
(dp322
g67
(dp323
g94
g95
ssg76
g312
sg69
(lp324
S':'
asbag62
(g83
g64
NtRp325
(dp326
g67
(dp327
sg76
g312
sg69
(lp328
g62
(g63
g64
NtRp329
(dp330
g67
(dp331
g75
I3
ssg76
g325
sg69
(lp332
S''
asbasbasbag62
(g78
g64
NtRp333
(dp334
g67
(dp335
sg76
g287
sg69
(lp336
g62
(g83
g64
NtRp337
(dp338
g67
(dp339
g87
g88
ssg76
g333
sg69
(lp340
S'expires'
p341
asbag62
(g83
g64
NtRp342
(dp343
g67
(dp344
g94
g95
ssg76
g333
sg69
(lp345
S':'
asbag62
(g83
g64
NtRp346
(dp347
g67
(dp348
sg76
g333
sg69
(lp349
g62
(g63
g64
NtRp350
(dp351
g67
(dp352
g75
I3
ssg76
g346
sg69
(lp353
S''
asbasbasbag62
(g78
g64
NtRp354
(dp355
g67
(dp356
sg76
g287
sg69
(lp357
g62
(g83
g64
NtRp358
(dp359
g67
(dp360
g87
g88
ssg76
g354
sg69
(lp361
S'httponly'
p362
asbag62
(g83
g64
NtRp363
(dp364
g67
(dp365
g94
g95
ssg76
g354
sg69
(lp366
S':'
asbag62
(g83
g64
NtRp367
(dp368
g67
(dp369
sg76
g354
sg69
(lp370
g62
(g63
g64
NtRp371
(dp372
g67
(dp373
g75
I3
ssg76
g367
sg69
(lp374
S''
asbasbasbag62
(g78
g64
NtRp375
(dp376
g67
(dp377
sg76
g287
sg69
(lp378
g62
(g83
g64
NtRp379
(dp380
g67
(dp381
g87
g88
ssg76
g375
sg69
(lp382
S'max-age'
p383
asbag62
(g83
g64
NtRp384
(dp385
g67
(dp386
g94
g95
ssg76
g375
sg69
(lp387
S':'
asbag62
(g83
g64
NtRp388
(dp389
g67
(dp390
sg76
g375
sg69
(lp391
g62
(g63
g64
NtRp392
(dp393
g67
(dp394
g75
I3
ssg76
g388
sg69
(lp395
S''
asbasbasbag62
(g78
g64
NtRp396
(dp397
g67
(dp398
sg76
g287
sg69
(lp399
g62
(g83
g64
NtRp400
(dp401
g67
(dp402
g87
g88
ssg76
g396
sg69
(lp403
S'path'
p404
asbag62
(g83
g64
NtRp405
(dp406
g67
(dp407
g94
g95
ssg76
g396
sg69
(lp408
S':'
asbag62
(g83
g64
NtRp409
(dp410
g67
(dp411
sg76
g396
sg69
(lp412
g62
(g63
g64
NtRp413
(dp414
g67
(dp415
g75
I3
ssg76
g409
sg69
(lp416
S''
asbasbasbag62
(g78
g64
NtRp417
(dp418
g67
(dp419
sg76
g287
sg69
(lp420
g62
(g83
g64
NtRp421
(dp422
g67
(dp423
g87
g88
ssg76
g417
sg69
(lp424
S'secure'
p425
asbag62
(g83
g64
NtRp426
(dp427
g67
(dp428
g94
g95
ssg76
g417
sg69
(lp429
S':'
asbag62
(g83
g64
NtRp430
(dp431
g67
(dp432
sg76
g417
sg69
(lp433
g62
(g63
g64
NtRp434
(dp435
g67
(dp436
g75
I3
ssg76
g430
sg69
(lp437
S''
asbasbasbag62
(g78
g64
NtRp438
(dp439
g67
(dp440
sg76
g287
sg69
(lp441
g62
(g83
g64
NtRp442
(dp443
g67
(dp444
g87
g88
ssg76
g438
sg69
(lp445
S'version'
p446
asbag62
(g83
g64
NtRp447
(dp448
g67
(dp449
g94
g95
ssg76
g438
sg69
(lp450
S':'
asbag62
(g83
g64
NtRp451
(dp452
g67
(dp453
sg76
g438
sg69
(lp454
g62
(g63
g64
NtRp455
(dp456
g67
(dp457
g75
I3
ssg76
g451
sg69
(lp458
S''
asbasbasbasbasbasbasbag62
(g78
g64
NtRp459
(dp460
g67
(dp461
sg76
g261
sg69
(lp462
g62
(g83
g64
NtRp463
(dp464
g67
(dp465
g87
g88
ssg76
g459
sg69
(lp466
S'session_id_admin'
p467
asbag62
(g83
g64
NtRp468
(dp469
g67
(dp470
g94
g95
ssg76
g459
sg69
(lp471
S':'
asbag62
(g83
g64
NtRp472
(dp473
g67
(dp474
sg76
g459
sg69
(lp475
g62
(g63
g64
NtRp476
(dp477
g67
(dp478
g75
I4
ssg76
g472
sg69
(lp479
S'127.0.0.1-634e911d-1fde-455e-a6e2-97efd4213cb7'
p480
ag62
(g71
g64
NtRp481
(dp482
g67
(dp483
g75
I3
ssg76
Nsg69
(lp484
g62
(g78
g64
NtRp485
(dp486
g67
(dp487
sg76
g481
sg69
(lp488
g62
(g83
g64
NtRp489
(dp490
g67
(dp491
g87
g88
ssg76
g485
sg69
(lp492
g299
asbag62
(g83
g64
NtRp493
(dp494
g67
(dp495
g94
g95
ssg76
g485
sg69
(lp496
S':'
asbag62
(g83
g64
NtRp497
(dp498
g67
(dp499
sg76
g485
sg69
(lp500
g62
(g63
g64
NtRp501
(dp502
g67
(dp503
g75
I3
ssg76
g497
sg69
(lp504
S''
asbasbasbag62
(g78
g64
NtRp505
(dp506
g67
(dp507
sg76
g481
sg69
(lp508
g62
(g83
g64
NtRp509
(dp510
g67
(dp511
g87
g88
ssg76
g505
sg69
(lp512
g320
asbag62
(g83
g64
NtRp513
(dp514
g67
(dp515
g94
g95
ssg76
g505
sg69
(lp516
S':'
asbag62
(g83
g64
NtRp517
(dp518
g67
(dp519
sg76
g505
sg69
(lp520
g62
(g63
g64
NtRp521
(dp522
g67
(dp523
g75
I3
ssg76
g517
sg69
(lp524
S''
asbasbasbag62
(g78
g64
NtRp525
(dp526
g67
(dp527
sg76
g481
sg69
(lp528
g62
(g83
g64
NtRp529
(dp530
g67
(dp531
g87
g88
ssg76
g525
sg69
(lp532
g341
asbag62
(g83
g64
NtRp533
(dp534
g67
(dp535
g94
g95
ssg76
g525
sg69
(lp536
S':'
asbag62
(g83
g64
NtRp537
(dp538
g67
(dp539
sg76
g525
sg69
(lp540
g62
(g63
g64
NtRp541
(dp542
g67
(dp543
g75
I3
ssg76
g537
sg69
(lp544
S''
asbasbasbag62
(g78
g64
NtRp545
(dp546
g67
(dp547
sg76
g481
sg69
(lp548
g62
(g83
g64
NtRp549
(dp550
g67
(dp551
g87
g88
ssg76
g545
sg69
(lp552
g362
asbag62
(g83
g64
NtRp553
(dp554
g67
(dp555
g94
g95
ssg76
g545
sg69
(lp556
S':'
asbag62
(g83
g64
NtRp557
(dp558
g67
(dp559
sg76
g545
sg69
(lp560
g62
(g63
g64
NtRp561
(dp562
g67
(dp563
g75
I3
ssg76
g557
sg69
(lp564
S''
asbasbasbag62
(g78
g64
NtRp565
(dp566
g67
(dp567
sg76
g481
sg69
(lp568
g62
(g83
g64
NtRp569
(dp570
g67
(dp571
g87
g88
ssg76
g565
sg69
(lp572
g383
asbag62
(g83
g64
NtRp573
(dp574
g67
(dp575
g94
g95
ssg76
g565
sg69
(lp576
S':'
asbag62
(g83
g64
NtRp577
(dp578
g67
(dp579
sg76
g565
sg69
(lp580
g62
(g63
g64
NtRp581
(dp582
g67
(dp583
g75
I3
ssg76
g577
sg69
(lp584
S''
asbasbasbag62
(g78
g64
NtRp585
(dp586
g67
(dp587
sg76
g481
sg69
(lp588
g62
(g83
g64
NtRp589
(dp590
g67
(dp591
g87
g88
ssg76
g585
sg69
(lp592
g404
asbag62
(g83
g64
NtRp593
(dp594
g67
(dp595
g94
g95
ssg76
g585
sg69
(lp596
S':'
asbag62
(g83
g64
NtRp597
(dp598
g67
(dp599
sg76
g585
sg69
(lp600
g62
(g63
g64
NtRp601
(dp602
g67
(dp603
g75
I3
ssg76
g597
sg69
(lp604
S''
asbasbasbag62
(g78
g64
NtRp605
(dp606
g67
(dp607
sg76
g481
sg69
(lp608
g62
(g83
g64
NtRp609
(dp610
g67
(dp611
g87
g88
ssg76
g605
sg69
(lp612
g425
asbag62
(g83
g64
NtRp613
(dp614
g67
(dp615
g94
g95
ssg76
g605
sg69
(lp616
S':'
asbag62
(g83
g64
NtRp617
(dp618
g67
(dp619
sg76
g605
sg69
(lp620
g62
(g63
g64
NtRp621
(dp622
g67
(dp623
g75
I3
ssg76
g617
sg69
(lp624
S''
asbasbasbag62
(g78
g64
NtRp625
(dp626
g67
(dp627
sg76
g481
sg69
(lp628
g62
(g83
g64
NtRp629
(dp630
g67
(dp631
g87
g88
ssg76
g625
sg69
(lp632
g446
asbag62
(g83
g64
NtRp633
(dp634
g67
(dp635
g94
g95
ssg76
g625
sg69
(lp636
S':'
asbag62
(g83
g64
NtRp637
(dp638
g67
(dp639
sg76
g625
sg69
(lp640
g62
(g63
g64
NtRp641
(dp642
g67
(dp643
g75
I3
ssg76
g637
sg69
(lp644
S''
asbasbasbasbasbasbasbag62
(g78
g64
NtRp645
(dp646
g67
(dp647
sg76
g261
sg69
(lp648
g62
(g83
g64
NtRp649
(dp650
g67
(dp651
g87
g88
ssg76
g645
sg69
(lp652
S'session_id_welcome'
p653
asbag62
(g83
g64
NtRp654
(dp655
g67
(dp656
g94
g95
ssg76
g645
sg69
(lp657
S':'
asbag62
(g83
g64
NtRp658
(dp659
g67
(dp660
sg76
g645
sg69
(lp661
g62
(g63
g64
NtRp662
(dp663
g67
(dp664
g75
I4
ssg76
g658
sg69
(lp665
S'127.0.0.1-fcddb8ed-ee0c-4d28-bfa6-6fd1606b92e1'
p666
ag62
(g71
g64
NtRp667
(dp668
g67
(dp669
g75
I3
ssg76
Nsg69
(lp670
g62
(g78
g64
NtRp671
(dp672
g67
(dp673
sg76
g667
sg69
(lp674
g62
(g83
g64
NtRp675
(dp676
g67
(dp677
g87
g88
ssg76
g671
sg69
(lp678
g299
asbag62
(g83
g64
NtRp679
(dp680
g67
(dp681
g94
g95
ssg76
g671
sg69
(lp682
S':'
asbag62
(g83
g64
NtRp683
(dp684
g67
(dp685
sg76
g671
sg69
(lp686
g62
(g63
g64
NtRp687
(dp688
g67
(dp689
g75
I3
ssg76
g683
sg69
(lp690
S''
asbasbasbag62
(g78
g64
NtRp691
(dp692
g67
(dp693
sg76
g667
sg69
(lp694
g62
(g83
g64
NtRp695
(dp696
g67
(dp697
g87
g88
ssg76
g691
sg69
(lp698
g320
asbag62
(g83
g64
NtRp699
(dp700
g67
(dp701
g94
g95
ssg76
g691
sg69
(lp702
S':'
asbag62
(g83
g64
NtRp703
(dp704
g67
(dp705
sg76
g691
sg69
(lp706
g62
(g63
g64
NtRp707
(dp708
g67
(dp709
g75
I3
ssg76
g703
sg69
(lp710
S''
asbasbasbag62
(g78
g64
NtRp711
(dp712
g67
(dp713
sg76
g667
sg69
(lp714
g62
(g83
g64
NtRp715
(dp716
g67
(dp717
g87
g88
ssg76
g711
sg69
(lp718
g341
asbag62
(g83
g64
NtRp719
(dp720
g67
(dp721
g94
g95
ssg76
g711
sg69
(lp722
S':'
asbag62
(g83
g64
NtRp723
(dp724
g67
(dp725
sg76
g711
sg69
(lp726
g62
(g63
g64
NtRp727
(dp728
g67
(dp729
g75
I3
ssg76
g723
sg69
(lp730
S''
asbasbasbag62
(g78
g64
NtRp731
(dp732
g67
(dp733
sg76
g667
sg69
(lp734
g62
(g83
g64
NtRp735
(dp736
g67
(dp737
g87
g88
ssg76
g731
sg69
(lp738
g362
asbag62
(g83
g64
NtRp739
(dp740
g67
(dp741
g94
g95
ssg76
g731
sg69
(lp742
S':'
asbag62
(g83
g64
NtRp743
(dp744
g67
(dp745
sg76
g731
sg69
(lp746
g62
(g63
g64
NtRp747
(dp748
g67
(dp749
g75
I3
ssg76
g743
sg69
(lp750
S''
asbasbasbag62
(g78
g64
NtRp751
(dp752
g67
(dp753
sg76
g667
sg69
(lp754
g62
(g83
g64
NtRp755
(dp756
g67
(dp757
g87
g88
ssg76
g751
sg69
(lp758
g383
asbag62
(g83
g64
NtRp759
(dp760
g67
(dp761
g94
g95
ssg76
g751
sg69
(lp762
S':'
asbag62
(g83
g64
NtRp763
(dp764
g67
(dp765
sg76
g751
sg69
(lp766
g62
(g63
g64
NtRp767
(dp768
g67
(dp769
g75
I3
ssg76
g763
sg69
(lp770
S''
asbasbasbag62
(g78
g64
NtRp771
(dp772
g67
(dp773
sg76
g667
sg69
(lp774
g62
(g83
g64
NtRp775
(dp776
g67
(dp777
g87
g88
ssg76
g771
sg69
(lp778
g404
asbag62
(g83
g64
NtRp779
(dp780
g67
(dp781
g94
g95
ssg76
g771
sg69
(lp782
S':'
asbag62
(g83
g64
NtRp783
(dp784
g67
(dp785
sg76
g771
sg69
(lp786
g62
(g63
g64
NtRp787
(dp788
g67
(dp789
g75
I3
ssg76
g783
sg69
(lp790
S''
asbasbasbag62
(g78
g64
NtRp791
(dp792
g67
(dp793
sg76
g667
sg69
(lp794
g62
(g83
g64
NtRp795
(dp796
g67
(dp797
g87
g88
ssg76
g791
sg69
(lp798
g425
asbag62
(g83
g64
NtRp799
(dp800
g67
(dp801
g94
g95
ssg76
g791
sg69
(lp802
S':'
asbag62
(g83
g64
NtRp803
(dp804
g67
(dp805
sg76
g791
sg69
(lp806
g62
(g63
g64
NtRp807
(dp808
g67
(dp809
g75
I3
ssg76
g803
sg69
(lp810
S''
asbasbasbag62
(g78
g64
NtRp811
(dp812
g67
(dp813
sg76
g667
sg69
(lp814
g62
(g83
g64
NtRp815
(dp816
g67
(dp817
g87
g88
ssg76
g811
sg69
(lp818
g446
asbag62
(g83
g64
NtRp819
(dp820
g67
(dp821
g94
g95
ssg76
g811
sg69
(lp822
S':'
asbag62
(g83
g64
NtRp823
(dp824
g67
(dp825
sg76
g811
sg69
(lp826
g62
(g63
g64
NtRp827
(dp828
g67
(dp829
g75
I3
ssg76
g823
sg69
(lp830
S''
asbasbasbasbasbasbasbag62
(g78
g64
NtRp831
(dp832
g67
(dp833
sg76
g261
sg69
(lp834
g62
(g83
g64
NtRp835
(dp836
g67
(dp837
g87
g88
ssg76
g831
sg69
(lp838
S'session_id_wsd_tool'
p839
asbag62
(g83
g64
NtRp840
(dp841
g67
(dp842
g94
g95
ssg76
g831
sg69
(lp843
S':'
asbag62
(g83
g64
NtRp844
(dp845
g67
(dp846
sg76
g831
sg69
(lp847
g62
(g63
g64
NtRp848
(dp849
g67
(dp850
g75
I4
ssg76
g844
sg69
(lp851
S'127.0.0.1-1b9513ff-7a4a-46e3-9d60-f0b6086e5c03'
p852
ag62
(g71
g64
NtRp853
(dp854
g67
(dp855
g75
I3
ssg76
Nsg69
(lp856
g62
(g78
g64
NtRp857
(dp858
g67
(dp859
sg76
g853
sg69
(lp860
g62
(g83
g64
NtRp861
(dp862
g67
(dp863
g87
g88
ssg76
g857
sg69
(lp864
g299
asbag62
(g83
g64
NtRp865
(dp866
g67
(dp867
g94
g95
ssg76
g857
sg69
(lp868
S':'
asbag62
(g83
g64
NtRp869
(dp870
g67
(dp871
sg76
g857
sg69
(lp872
g62
(g63
g64
NtRp873
(dp874
g67
(dp875
g75
I3
ssg76
g869
sg69
(lp876
S''
asbasbasbag62
(g78
g64
NtRp877
(dp878
g67
(dp879
sg76
g853
sg69
(lp880
g62
(g83
g64
NtRp881
(dp882
g67
(dp883
g87
g88
ssg76
g877
sg69
(lp884
g320
asbag62
(g83
g64
NtRp885
(dp886
g67
(dp887
g94
g95
ssg76
g877
sg69
(lp888
S':'
asbag62
(g83
g64
NtRp889
(dp890
g67
(dp891
sg76
g877
sg69
(lp892
g62
(g63
g64
NtRp893
(dp894
g67
(dp895
g75
I3
ssg76
g889
sg69
(lp896
S''
asbasbasbag62
(g78
g64
NtRp897
(dp898
g67
(dp899
sg76
g853
sg69
(lp900
g62
(g83
g64
NtRp901
(dp902
g67
(dp903
g87
g88
ssg76
g897
sg69
(lp904
g341
asbag62
(g83
g64
NtRp905
(dp906
g67
(dp907
g94
g95
ssg76
g897
sg69
(lp908
S':'
asbag62
(g83
g64
NtRp909
(dp910
g67
(dp911
sg76
g897
sg69
(lp912
g62
(g63
g64
NtRp913
(dp914
g67
(dp915
g75
I3
ssg76
g909
sg69
(lp916
S''
asbasbasbag62
(g78
g64
NtRp917
(dp918
g67
(dp919
sg76
g853
sg69
(lp920
g62
(g83
g64
NtRp921
(dp922
g67
(dp923
g87
g88
ssg76
g917
sg69
(lp924
g362
asbag62
(g83
g64
NtRp925
(dp926
g67
(dp927
g94
g95
ssg76
g917
sg69
(lp928
S':'
asbag62
(g83
g64
NtRp929
(dp930
g67
(dp931
sg76
g917
sg69
(lp932
g62
(g63
g64
NtRp933
(dp934
g67
(dp935
g75
I3
ssg76
g929
sg69
(lp936
S''
asbasbasbag62
(g78
g64
NtRp937
(dp938
g67
(dp939
sg76
g853
sg69
(lp940
g62
(g83
g64
NtRp941
(dp942
g67
(dp943
g87
g88
ssg76
g937
sg69
(lp944
g383
asbag62
(g83
g64
NtRp945
(dp946
g67
(dp947
g94
g95
ssg76
g937
sg69
(lp948
S':'
asbag62
(g83
g64
NtRp949
(dp950
g67
(dp951
sg76
g937
sg69
(lp952
g62
(g63
g64
NtRp953
(dp954
g67
(dp955
g75
I3
ssg76
g949
sg69
(lp956
S''
asbasbasbag62
(g78
g64
NtRp957
(dp958
g67
(dp959
sg76
g853
sg69
(lp960
g62
(g83
g64
NtRp961
(dp962
g67
(dp963
g87
g88
ssg76
g957
sg69
(lp964
g404
asbag62
(g83
g64
NtRp965
(dp966
g67
(dp967
g94
g95
ssg76
g957
sg69
(lp968
S':'
asbag62
(g83
g64
NtRp969
(dp970
g67
(dp971
sg76
g957
sg69
(lp972
g62
(g63
g64
NtRp973
(dp974
g67
(dp975
g75
I3
ssg76
g969
sg69
(lp976
S''
asbasbasbag62
(g78
g64
NtRp977
(dp978
g67
(dp979
sg76
g853
sg69
(lp980
g62
(g83
g64
NtRp981
(dp982
g67
(dp983
g87
g88
ssg76
g977
sg69
(lp984
g425
asbag62
(g83
g64
NtRp985
(dp986
g67
(dp987
g94
g95
ssg76
g977
sg69
(lp988
S':'
asbag62
(g83
g64
NtRp989
(dp990
g67
(dp991
sg76
g977
sg69
(lp992
g62
(g63
g64
NtRp993
(dp994
g67
(dp995
g75
I3
ssg76
g989
sg69
(lp996
S''
asbasbasbag62
(g78
g64
NtRp997
(dp998
g67
(dp999
sg76
g853
sg69
(lp1000
g62
(g83
g64
NtRp1001
(dp1002
g67
(dp1003
g87
g88
ssg76
g997
sg69
(lp1004
g446
asbag62
(g83
g64
NtRp1005
(dp1006
g67
(dp1007
g94
g95
ssg76
g997
sg69
(lp1008
S':'
asbag62
(g83
g64
NtRp1009
(dp1010
g67
(dp1011
sg76
g997
sg69
(lp1012
g62
(g63
g64
NtRp1013
(dp1014
g67
(dp1015
g75
I3
ssg76
g1009
sg69
(lp1016
S''
asbasbasbasbasbasbasbasbasbasbasbag62
(g78
g64
NtRp1017
(dp1018
g67
(dp1019
sg76
g72
sg69
(lp1020
g62
(g83
g64
NtRp1021
(dp1022
g67
(dp1023
g87
g88
ssg76
g1017
sg69
(lp1024
S'env'
p1025
asbag62
(g83
g64
NtRp1026
(dp1027
g67
(dp1028
g94
g95
ssg76
g1017
sg69
(lp1029
S':'
asbag62
(g83
g64
NtRp1030
(dp1031
g67
(dp1032
sg76
g1017
sg69
(lp1033
g62
(g63
g64
NtRp1034
(dp1035
g67
(dp1036
g75
I5
ssg76
g1030
sg69
(lp1037
g62
(g71
g64
NtRp1038
(dp1039
g67
(dp1040
g75
I4
ssg76
Nsg69
(lp1041
g62
(g78
g64
NtRp1042
(dp1043
g67
(dp1044
sg76
g1038
sg69
(lp1045
g62
(g83
g64
NtRp1046
(dp1047
g67
(dp1048
g87
g88
ssg76
g1042
sg69
(lp1049
S'app_folders'
p1050
asbag62
(g83
g64
NtRp1051
(dp1052
g67
(dp1053
g94
g95
ssg76
g1042
sg69
(lp1054
S':'
asbag62
(g83
g64
NtRp1055
(dp1056
g67
(dp1057
sg76
g1042
sg69
(lp1058
g62
(g63
g64
NtRp1059
(dp1060
g67
(dp1061
g75
I4
ssg76
g1055
sg69
(lp1062
S"set(['/home/nazrul/web2py/applications/welcome/', '/home/nazrul/web2py/applications/WSD_Tool/', '/home/nazrul/web2py/applications/admin/'])"
p1063
asbasbasbag62
(g78
g64
NtRp1064
(dp1065
g67
(dp1066
sg76
g1038
sg69
(lp1067
g62
(g83
g64
NtRp1068
(dp1069
g67
(dp1070
g87
g88
ssg76
g1064
sg69
(lp1071
S'applications_parent'
p1072
asbag62
(g83
g64
NtRp1073
(dp1074
g67
(dp1075
g94
g95
ssg76
g1064
sg69
(lp1076
S':'
asbag62
(g83
g64
NtRp1077
(dp1078
g67
(dp1079
sg76
g1064
sg69
(lp1080
g62
(g63
g64
NtRp1081
(dp1082
g67
(dp1083
g75
I4
ssg76
g1077
sg69
(lp1084
S'/home/nazrul/web2py'
p1085
asbasbasbag62
(g78
g64
NtRp1086
(dp1087
g67
(dp1088
sg76
g1038
sg69
(lp1089
g62
(g83
g64
NtRp1090
(dp1091
g67
(dp1092
g87
g88
ssg76
g1086
sg69
(lp1093
S'cmd_args'
p1094
asbag62
(g83
g64
NtRp1095
(dp1096
g67
(dp1097
g94
g95
ssg76
g1086
sg69
(lp1098
S':'
asbag62
(g83
g64
NtRp1099
(dp1100
g67
(dp1101
sg76
g1086
sg69
(lp1102
g62
(g63
g64
NtRp1103
(dp1104
g67
(dp1105
g75
I4
ssg76
g1099
sg69
(lp1106
g62
(g71
g64
NtRp1107
(dp1108
g67
(dp1109
g75
I3
ssg76
Nsg69
(lp1110
sbasbasbasbag62
(g78
g64
NtRp1111
(dp1112
g67
(dp1113
sg76
g1038
sg69
(lp1114
g62
(g83
g64
NtRp1115
(dp1116
g67
(dp1117
g87
g88
ssg76
g1111
sg69
(lp1118
S'cmd_options'
p1119
asbag62
(g83
g64
NtRp1120
(dp1121
g67
(dp1122
g94
g95
ssg76
g1111
sg69
(lp1123
S':'
asbag62
(g83
g64
NtRp1124
(dp1125
g67
(dp1126
sg76
g1111
sg69
(lp1127
g62
(g63
g64
NtRp1128
(dp1129
g67
(dp1130
g75
I4
ssg76
g1124
sg69
(lp1131
S"<Values at 0xa44192c: {'verbose': False, 'ip': '127.0.0.1', 'with_scheduler': False, 'ips': [], 'shutdown_timeout': 5, 'taskbar': False, 'port': 8000, 'maxthreads': None, 'softcron': False, 'server_name': 'nazrul-Compaq-Presario-CQ40-Notebook-PC', 'bpython': False, 'nogui': False, 'pid_filename': 'httpserver.pid', 'extcron': False, 'runcron': False, 'run_system_tests': False, 'test': None, 'folder': '/home/nazrul/web2py', 'config': '', 'import_models': False, 'winservice': '', 'shell': None, 'run': '', 'log_filename': 'httpserver.log', 'debuglevel': 30, 'args': [''], 'socket_timeout': 5, 'ssl_ca_certificate': None, 'scheduler': None, 'profiler_filename': None, 'ssl_private_key': '', 'scheduler_groups': None, 'password': '<ask>', 'request_queue_size': 5, 'ssl_certificate': '', 'cronjob': False, 'numthreads': None, 'quiet': False, 'interfaces': None, 'minthreads': None, 'timeout': 10, 'plain': False, 'nobanner': False}>"
p1132
asbasbasbag62
(g78
g64
NtRp1133
(dp1134
g67
(dp1135
sg76
g1038
sg69
(lp1136
g62
(g83
g64
NtRp1137
(dp1138
g67
(dp1139
g87
g88
ssg76
g1133
sg69
(lp1140
S'db_sessions'
p1141
asbag62
(g83
g64
NtRp1142
(dp1143
g67
(dp1144
g94
g95
ssg76
g1133
sg69
(lp1145
S':'
asbag62
(g83
g64
NtRp1146
(dp1147
g67
(dp1148
sg76
g1133
sg69
(lp1149
g62
(g63
g64
NtRp1150
(dp1151
g67
(dp1152
g75
I4
ssg76
g1146
sg69
(lp1153
S'set([])'
p1154
asbasbasbag62
(g78
g64
NtRp1155
(dp1156
g67
(dp1157
sg76
g1038
sg69
(lp1158
g62
(g83
g64
NtRp1159
(dp1160
g67
(dp1161
g87
g88
ssg76
g1155
sg69
(lp1162
S'debugging'
p1163
asbag62
(g83
g64
NtRp1164
(dp1165
g67
(dp1166
g94
g95
ssg76
g1155
sg69
(lp1167
S':'
asbag62
(g83
g64
NtRp1168
(dp1169
g67
(dp1170
sg76
g1155
sg69
(lp1171
g62
(g63
g64
NtRp1172
(dp1173
g67
(dp1174
g75
I4
ssg76
g1168
sg69
(lp1175
g105
asbasbasbag62
(g78
g64
NtRp1176
(dp1177
g67
(dp1178
sg76
g1038
sg69
(lp1179
g62
(g83
g64
NtRp1180
(dp1181
g67
(dp1182
g87
g88
ssg76
g1176
sg69
(lp1183
S'gluon_parent'
p1184
asbag62
(g83
g64
NtRp1185
(dp1186
g67
(dp1187
g94
g95
ssg76
g1176
sg69
(lp1188
S':'
asbag62
(g83
g64
NtRp1189
(dp1190
g67
(dp1191
sg76
g1176
sg69
(lp1192
g62
(g63
g64
NtRp1193
(dp1194
g67
(dp1195
g75
I4
ssg76
g1189
sg69
(lp1196
S'/home/nazrul/web2py'
p1197
asbasbasbag62
(g78
g64
NtRp1198
(dp1199
g67
(dp1200
sg76
g1038
sg69
(lp1201
g62
(g83
g64
NtRp1202
(dp1203
g67
(dp1204
g87
g88
ssg76
g1198
sg69
(lp1205
S'http_accept'
p1206
asbag62
(g83
g64
NtRp1207
(dp1208
g67
(dp1209
g94
g95
ssg76
g1198
sg69
(lp1210
S':'
asbag62
(g83
g64
NtRp1211
(dp1212
g67
(dp1213
sg76
g1198
sg69
(lp1214
g62
(g63
g64
NtRp1215
(dp1216
g67
(dp1217
g75
I4
ssg76
g1211
sg69
(lp1218
S'text/html,application/xhtml+xml,application/xml;q=0.9,*/*;q=0.8'
p1219
asbasbasbag62
(g78
g64
NtRp1220
(dp1221
g67
(dp1222
sg76
g1038
sg69
(lp1223
g62
(g83
g64
NtRp1224
(dp1225
g67
(dp1226
g87
g88
ssg76
g1220
sg69
(lp1227
S'http_accept_encoding'
p1228
asbag62
(g83
g64
NtRp1229
(dp1230
g67
(dp1231
g94
g95
ssg76
g1220
sg69
(lp1232
S':'
asbag62
(g83
g64
NtRp1233
(dp1234
g67
(dp1235
sg76
g1220
sg69
(lp1236
g62
(g63
g64
NtRp1237
(dp1238
g67
(dp1239
g75
I4
ssg76
g1233
sg69
(lp1240
S'gzip, deflate'
p1241
asbasbasbag62
(g78
g64
NtRp1242
(dp1243
g67
(dp1244
sg76
g1038
sg69
(lp1245
g62
(g83
g64
NtRp1246
(dp1247
g67
(dp1248
g87
g88
ssg76
g1242
sg69
(lp1249
S'http_accept_language'
p1250
asbag62
(g83
g64
NtRp1251
(dp1252
g67
(dp1253
g94
g95
ssg76
g1242
sg69
(lp1254
S':'
asbag62
(g83
g64
NtRp1255
(dp1256
g67
(dp1257
sg76
g1242
sg69
(lp1258
g62
(g63
g64
NtRp1259
(dp1260
g67
(dp1261
g75
I4
ssg76
g1255
sg69
(lp1262
S'en-US,en;q=0.5'
p1263
asbasbasbag62
(g78
g64
NtRp1264
(dp1265
g67
(dp1266
sg76
g1038
sg69
(lp1267
g62
(g83
g64
NtRp1268
(dp1269
g67
(dp1270
g87
g88
ssg76
g1264
sg69
(lp1271
S'http_connection'
p1272
asbag62
(g83
g64
NtRp1273
(dp1274
g67
(dp1275
g94
g95
ssg76
g1264
sg69
(lp1276
S':'
asbag62
(g83
g64
NtRp1277
(dp1278
g67
(dp1279
sg76
g1264
sg69
(lp1280
g62
(g63
g64
NtRp1281
(dp1282
g67
(dp1283
g75
I4
ssg76
g1277
sg69
(lp1284
S'keep-alive'
p1285
asbasbasbag62
(g78
g64
NtRp1286
(dp1287
g67
(dp1288
sg76
g1038
sg69
(lp1289
g62
(g83
g64
NtRp1290
(dp1291
g67
(dp1292
g87
g88
ssg76
g1286
sg69
(lp1293
S'http_cookie'
p1294
asbag62
(g83
g64
NtRp1295
(dp1296
g67
(dp1297
g94
g95
ssg76
g1286
sg69
(lp1298
S':'
asbag62
(g83
g64
NtRp1299
(dp1300
g67
(dp1301
sg76
g1286
sg69
(lp1302
g62
(g63
g64
NtRp1303
(dp1304
g67
(dp1305
g75
I4
ssg76
g1299
sg69
(lp1306
S'KBD=0hi-0; session_id_welcome=127.0.0.1-fcddb8ed-ee0c-4d28-bfa6-6fd1606b92e1; session_id_admin=127.0.0.1-634e911d-1fde-455e-a6e2-97efd4213cb7; session_id_wsd_tool=127.0.0.1-1b9513ff-7a4a-46e3-9d60-f0b6086e5c03'
p1307
asbasbasbag62
(g78
g64
NtRp1308
(dp1309
g67
(dp1310
sg76
g1038
sg69
(lp1311
g62
(g83
g64
NtRp1312
(dp1313
g67
(dp1314
g87
g88
ssg76
g1308
sg69
(lp1315
S'http_host'
p1316
asbag62
(g83
g64
NtRp1317
(dp1318
g67
(dp1319
g94
g95
ssg76
g1308
sg69
(lp1320
S':'
asbag62
(g83
g64
NtRp1321
(dp1322
g67
(dp1323
sg76
g1308
sg69
(lp1324
g62
(g63
g64
NtRp1325
(dp1326
g67
(dp1327
g75
I4
ssg76
g1321
sg69
(lp1328
S'127.0.0.1:8000'
p1329
asbasbasbag62
(g78
g64
NtRp1330
(dp1331
g67
(dp1332
sg76
g1038
sg69
(lp1333
g62
(g83
g64
NtRp1334
(dp1335
g67
(dp1336
g87
g88
ssg76
g1330
sg69
(lp1337
S'http_user_agent'
p1338
asbag62
(g83
g64
NtRp1339
(dp1340
g67
(dp1341
g94
g95
ssg76
g1330
sg69
(lp1342
S':'
asbag62
(g83
g64
NtRp1343
(dp1344
g67
(dp1345
sg76
g1330
sg69
(lp1346
g62
(g63
g64
NtRp1347
(dp1348
g67
(dp1349
g75
I4
ssg76
g1343
sg69
(lp1350
S'Mozilla/5.0 (X11; Ubuntu; Linux i686; rv:18.0) Gecko/20100101 Firefox/18.0'
p1351
asbasbasbag62
(g78
g64
NtRp1352
(dp1353
g67
(dp1354
sg76
g1038
sg69
(lp1355
g62
(g83
g64
NtRp1356
(dp1357
g67
(dp1358
g87
g88
ssg76
g1352
sg69
(lp1359
S'is_jython'
p1360
asbag62
(g83
g64
NtRp1361
(dp1362
g67
(dp1363
g94
g95
ssg76
g1352
sg69
(lp1364
S':'
asbag62
(g83
g64
NtRp1365
(dp1366
g67
(dp1367
sg76
g1352
sg69
(lp1368
g62
(g63
g64
NtRp1369
(dp1370
g67
(dp1371
g75
I4
ssg76
g1365
sg69
(lp1372
g105
asbasbasbag62
(g78
g64
NtRp1373
(dp1374
g67
(dp1375
sg76
g1038
sg69
(lp1376
g62
(g83
g64
NtRp1377
(dp1378
g67
(dp1379
g87
g88
ssg76
g1373
sg69
(lp1380
S'is_pypy'
p1381
asbag62
(g83
g64
NtRp1382
(dp1383
g67
(dp1384
g94
g95
ssg76
g1373
sg69
(lp1385
S':'
asbag62
(g83
g64
NtRp1386
(dp1387
g67
(dp1388
sg76
g1373
sg69
(lp1389
g62
(g63
g64
NtRp1390
(dp1391
g67
(dp1392
g75
I4
ssg76
g1386
sg69
(lp1393
g105
asbasbasbag62
(g78
g64
NtRp1394
(dp1395
g67
(dp1396
sg76
g1038
sg69
(lp1397
g62
(g83
g64
NtRp1398
(dp1399
g67
(dp1400
g87
g88
ssg76
g1394
sg69
(lp1401
S'local_hosts'
p1402
asbag62
(g83
g64
NtRp1403
(dp1404
g67
(dp1405
g94
g95
ssg76
g1394
sg69
(lp1406
S':'
asbag62
(g83
g64
NtRp1407
(dp1408
g67
(dp1409
sg76
g1394
sg69
(lp1410
g62
(g63
g64
NtRp1411
(dp1412
g67
(dp1413
g75
I4
ssg76
g1407
sg69
(lp1414
g62
(g71
g64
NtRp1415
(dp1416
g67
(dp1417
g75
I3
ssg76
Nsg69
(lp1418
g62
(g78
g64
NtRp1419
(dp1420
g67
(dp1421
sg76
g1415
sg69
(lp1422
g62
(g83
g64
NtRp1423
(dp1424
g67
(dp1425
sg76
g1419
sg69
(lp1426
g62
(g63
g64
NtRp1427
(dp1428
g67
(dp1429
g75
I3
ssg76
g1423
sg69
(lp1430
S'::1'
p1431
asbasbasbag62
(g78
g64
NtRp1432
(dp1433
g67
(dp1434
sg76
g1415
sg69
(lp1435
g62
(g83
g64
NtRp1436
(dp1437
g67
(dp1438
sg76
g1432
sg69
(lp1439
g62
(g63
g64
NtRp1440
(dp1441
g67
(dp1442
g75
I3
ssg76
g1436
sg69
(lp1443
S'127.0.1.1'
p1444
asbasbasbag62
(g78
g64
NtRp1445
(dp1446
g67
(dp1447
sg76
g1415
sg69
(lp1448
g62
(g83
g64
NtRp1449
(dp1450
g67
(dp1451
sg76
g1445
sg69
(lp1452
g62
(g63
g64
NtRp1453
(dp1454
g67
(dp1455
g75
I3
ssg76
g1449
sg69
(lp1456
S'::ffff:127.0.0.1'
p1457
asbasbasbag62
(g78
g64
NtRp1458
(dp1459
g67
(dp1460
sg76
g1415
sg69
(lp1461
g62
(g83
g64
NtRp1462
(dp1463
g67
(dp1464
sg76
g1458
sg69
(lp1465
g62
(g63
g64
NtRp1466
(dp1467
g67
(dp1468
g75
I3
ssg76
g1462
sg69
(lp1469
S'127.0.0.1'
p1470
asbasbasbag62
(g78
g64
NtRp1471
(dp1472
g67
(dp1473
sg76
g1415
sg69
(lp1474
g62
(g83
g64
NtRp1475
(dp1476
g67
(dp1477
sg76
g1471
sg69
(lp1478
g62
(g63
g64
NtRp1479
(dp1480
g67
(dp1481
g75
I3
ssg76
g1475
sg69
(lp1482
S'nazrul-Compaq-Presario-CQ40-Notebook-PC'
p1483
asbasbasbasbasbasbasbag62
(g78
g64
NtRp1484
(dp1485
g67
(dp1486
sg76
g1038
sg69
(lp1487
g62
(g83
g64
NtRp1488
(dp1489
g67
(dp1490
g87
g88
ssg76
g1484
sg69
(lp1491
S'path_info'
p1492
asbag62
(g83
g64
NtRp1493
(dp1494
g67
(dp1495
g94
g95
ssg76
g1484
sg69
(lp1496
S':'
asbag62
(g83
g64
NtRp1497
(dp1498
g67
(dp1499
sg76
g1484
sg69
(lp1500
g62
(g63
g64
NtRp1501
(dp1502
g67
(dp1503
g75
I4
ssg76
g1497
sg69
(lp1504
S'/WSD_Tool/default/rel'
p1505
asbasbasbag62
(g78
g64
NtRp1506
(dp1507
g67
(dp1508
sg76
g1038
sg69
(lp1509
g62
(g83
g64
NtRp1510
(dp1511
g67
(dp1512
g87
g88
ssg76
g1506
sg69
(lp1513
S'query_string'
p1514
asbag62
(g83
g64
NtRp1515
(dp1516
g67
(dp1517
g94
g95
ssg76
g1506
sg69
(lp1518
S':'
asbag62
(g83
g64
NtRp1519
(dp1520
g67
(dp1521
sg76
g1506
sg69
(lp1522
g62
(g63
g64
NtRp1523
(dp1524
g67
(dp1525
g75
I4
ssg76
g1519
sg69
(lp1526
S''
asbasbasbag62
(g78
g64
NtRp1527
(dp1528
g67
(dp1529
sg76
g1038
sg69
(lp1530
g62
(g83
g64
NtRp1531
(dp1532
g67
(dp1533
g87
g88
ssg76
g1527
sg69
(lp1534
S'remote_addr'
p1535
asbag62
(g83
g64
NtRp1536
(dp1537
g67
(dp1538
g94
g95
ssg76
g1527
sg69
(lp1539
S':'
asbag62
(g83
g64
NtRp1540
(dp1541
g67
(dp1542
sg76
g1527
sg69
(lp1543
g62
(g63
g64
NtRp1544
(dp1545
g67
(dp1546
g75
I4
ssg76
g1540
sg69
(lp1547
g217
asbasbasbag62
(g78
g64
NtRp1548
(dp1549
g67
(dp1550
sg76
g1038
sg69
(lp1551
g62
(g83
g64
NtRp1552
(dp1553
g67
(dp1554
g87
g88
ssg76
g1548
sg69
(lp1555
S'remote_port'
p1556
asbag62
(g83
g64
NtRp1557
(dp1558
g67
(dp1559
g94
g95
ssg76
g1548
sg69
(lp1560
S':'
asbag62
(g83
g64
NtRp1561
(dp1562
g67
(dp1563
sg76
g1548
sg69
(lp1564
g62
(g63
g64
NtRp1565
(dp1566
g67
(dp1567
g75
I4
ssg76
g1561
sg69
(lp1568
S'55193'
p1569
asbasbasbag62
(g78
g64
NtRp1570
(dp1571
g67
(dp1572
sg76
g1038
sg69
(lp1573
g62
(g83
g64
NtRp1574
(dp1575
g67
(dp1576
g87
g88
ssg76
g1570
sg69
(lp1577
S'request_method'
p1578
asbag62
(g83
g64
NtRp1579
(dp1580
g67
(dp1581
g94
g95
ssg76
g1570
sg69
(lp1582
S':'
asbag62
(g83
g64
NtRp1583
(dp1584
g67
(dp1585
sg76
g1570
sg69
(lp1586
g62
(g63
g64
NtRp1587
(dp1588
g67
(dp1589
g75
I4
ssg76
g1583
sg69
(lp1590
S'GET'
p1591
asbasbasbag62
(g78
g64
NtRp1592
(dp1593
g67
(dp1594
sg76
g1038
sg69
(lp1595
g62
(g83
g64
NtRp1596
(dp1597
g67
(dp1598
g87
g88
ssg76
g1592
sg69
(lp1599
S'request_uri'
p1600
asbag62
(g83
g64
NtRp1601
(dp1602
g67
(dp1603
g94
g95
ssg76
g1592
sg69
(lp1604
S':'
asbag62
(g83
g64
NtRp1605
(dp1606
g67
(dp1607
sg76
g1592
sg69
(lp1608
g62
(g63
g64
NtRp1609
(dp1610
g67
(dp1611
g75
I4
ssg76
g1605
sg69
(lp1612
g1505
asbasbasbag62
(g78
g64
NtRp1613
(dp1614
g67
(dp1615
sg76
g1038
sg69
(lp1616
g62
(g83
g64
NtRp1617
(dp1618
g67
(dp1619
g87
g88
ssg76
g1613
sg69
(lp1620
S'script_name'
p1621
asbag62
(g83
g64
NtRp1622
(dp1623
g67
(dp1624
g94
g95
ssg76
g1613
sg69
(lp1625
S':'
asbag62
(g83
g64
NtRp1626
(dp1627
g67
(dp1628
sg76
g1613
sg69
(lp1629
g62
(g63
g64
NtRp1630
(dp1631
g67
(dp1632
g75
I4
ssg76
g1626
sg69
(lp1633
S''
asbasbasbag62
(g78
g64
NtRp1634
(dp1635
g67
(dp1636
sg76
g1038
sg69
(lp1637
g62
(g83
g64
NtRp1638
(dp1639
g67
(dp1640
g87
g88
ssg76
g1634
sg69
(lp1641
S'server_name'
p1642
asbag62
(g83
g64
NtRp1643
(dp1644
g67
(dp1645
g94
g95
ssg76
g1634
sg69
(lp1646
S':'
asbag62
(g83
g64
NtRp1647
(dp1648
g67
(dp1649
sg76
g1634
sg69
(lp1650
g62
(g63
g64
NtRp1651
(dp1652
g67
(dp1653
g75
I4
ssg76
g1647
sg69
(lp1654
S'nazrul-Compaq-Presario-CQ40-Notebook-PC'
p1655
asbasbasbag62
(g78
g64
NtRp1656
(dp1657
g67
(dp1658
sg76
g1038
sg69
(lp1659
g62
(g83
g64
NtRp1660
(dp1661
g67
(dp1662
g87
g88
ssg76
g1656
sg69
(lp1663
S'server_port'
p1664
asbag62
(g83
g64
NtRp1665
(dp1666
g67
(dp1667
g94
g95
ssg76
g1656
sg69
(lp1668
S':'
asbag62
(g83
g64
NtRp1669
(dp1670
g67
(dp1671
sg76
g1656
sg69
(lp1672
g62
(g63
g64
NtRp1673
(dp1674
g67
(dp1675
g75
I4
ssg76
g1669
sg69
(lp1676
S'8000'
p1677
asbasbasbag62
(g78
g64
NtRp1678
(dp1679
g67
(dp1680
sg76
g1038
sg69
(lp1681
g62
(g83
g64
NtRp1682
(dp1683
g67
(dp1684
g87
g88
ssg76
g1678
sg69
(lp1685
S'server_protocol'
p1686
asbag62
(g83
g64
NtRp1687
(dp1688
g67
(dp1689
g94
g95
ssg76
g1678
sg69
(lp1690
S':'
asbag62
(g83
g64
NtRp1691
(dp1692
g67
(dp1693
sg76
g1678
sg69
(lp1694
g62
(g63
g64
NtRp1695
(dp1696
g67
(dp1697
g75
I4
ssg76
g1691
sg69
(lp1698
S'HTTP/1.1'
p1699
asbasbasbag62
(g78
g64
NtRp1700
(dp1701
g67
(dp1702
sg76
g1038
sg69
(lp1703
g62
(g83
g64
NtRp1704
(dp1705
g67
(dp1706
g87
g88
ssg76
g1700
sg69
(lp1707
S'server_software'
p1708
asbag62
(g83
g64
NtRp1709
(dp1710
g67
(dp1711
g94
g95
ssg76
g1700
sg69
(lp1712
S':'
asbag62
(g83
g64
NtRp1713
(dp1714
g67
(dp1715
sg76
g1700
sg69
(lp1716
g62
(g63
g64
NtRp1717
(dp1718
g67
(dp1719
g75
I4
ssg76
g1713
sg69
(lp1720
S'Rocket 1.2.6'
p1721
asbasbasbag62
(g78
g64
NtRp1722
(dp1723
g67
(dp1724
sg76
g1038
sg69
(lp1725
g62
(g83
g64
NtRp1726
(dp1727
g67
(dp1728
g87
g88
ssg76
g1722
sg69
(lp1729
S'web2py_path'
p1730
asbag62
(g83
g64
NtRp1731
(dp1732
g67
(dp1733
g94
g95
ssg76
g1722
sg69
(lp1734
S':'
asbag62
(g83
g64
NtRp1735
(dp1736
g67
(dp1737
sg76
g1722
sg69
(lp1738
g62
(g63
g64
NtRp1739
(dp1740
g67
(dp1741
g75
I4
ssg76
g1735
sg69
(lp1742
g1085
asbasbasbag62
(g78
g64
NtRp1743
(dp1744
g67
(dp1745
sg76
g1038
sg69
(lp1746
g62
(g83
g64
NtRp1747
(dp1748
g67
(dp1749
g87
g88
ssg76
g1743
sg69
(lp1750
S'web2py_version'
p1751
asbag62
(g83
g64
NtRp1752
(dp1753
g67
(dp1754
g94
g95
ssg76
g1743
sg69
(lp1755
S':'
asbag62
(g83
g64
NtRp1756
(dp1757
g67
(dp1758
sg76
g1743
sg69
(lp1759
g62
(g63
g64
NtRp1760
(dp1761
g67
(dp1762
g75
I4
ssg76
g1756
sg69
(lp1763
g62
(g71
g64
NtRp1764
(dp1765
g67
(dp1766
g75
I3
ssg76
Nsg69
(lp1767
g62
(g78
g64
NtRp1768
(dp1769
g67
(dp1770
sg76
g1764
sg69
(lp1771
g62
(g83
g64
NtRp1772
(dp1773
g67
(dp1774
sg76
g1768
sg69
(lp1775
g62
(g63
g64
NtRp1776
(dp1777
g67
(dp1778
g75
I3
ssg76
g1772
sg69
(lp1779
S'2'
asbasbasbag62
(g78
g64
NtRp1780
(dp1781
g67
(dp1782
sg76
g1764
sg69
(lp1783
g62
(g83
g64
NtRp1784
(dp1785
g67
(dp1786
sg76
g1780
sg69
(lp1787
g62
(g63
g64
NtRp1788
(dp1789
g67
(dp1790
g75
I3
ssg76
g1784
sg69
(lp1791
S'3'
asbasbasbag62
(g78
g64
NtRp1792
(dp1793
g67
(dp1794
sg76
g1764
sg69
(lp1795
g62
(g83
g64
NtRp1796
(dp1797
g67
(dp1798
sg76
g1792
sg69
(lp1799
g62
(g63
g64
NtRp1800
(dp1801
g67
(dp1802
g75
I3
ssg76
g1796
sg69
(lp1803
S'2'
asbasbasbag62
(g78
g64
NtRp1804
(dp1805
g67
(dp1806
sg76
g1764
sg69
(lp1807
g62
(g83
g64
NtRp1808
(dp1809
g67
(dp1810
sg76
g1804
sg69
(lp1811
g62
(g63
g64
NtRp1812
(dp1813
g67
(dp1814
g75
I3
ssg76
g1808
sg69
(lp1815
S'datetime.datetime(2012, 12, 17, 15, 3, 30)'
p1816
asbasbasbag62
(g78
g64
NtRp1817
(dp1818
g67
(dp1819
sg76
g1764
sg69
(lp1820
g62
(g83
g64
NtRp1821
(dp1822
g67
(dp1823
sg76
g1817
sg69
(lp1824
g62
(g63
g64
NtRp1825
(dp1826
g67
(dp1827
g75
I3
ssg76
g1821
sg69
(lp1828
S'stable'
p1829
asbasbasbasbasbasbasbag62
(g78
g64
NtRp1830
(dp1831
g67
(dp1832
sg76
g1038
sg69
(lp1833
g62
(g83
g64
NtRp1834
(dp1835
g67
(dp1836
g87
g88
ssg76
g1830
sg69
(lp1837
S'wsgi_errors'
p1838
asbag62
(g83
g64
NtRp1839
(dp1840
g67
(dp1841
g94
g95
ssg76
g1830
sg69
(lp1842
S':'
asbag62
(g83
g64
NtRp1843
(dp1844
g67
(dp1845
sg76
g1830
sg69
(lp1846
g62
(g63
g64
NtRp1847
(dp1848
g67
(dp1849
g75
I4
ssg76
g1843
sg69
(lp1850
S"<open file '<stderr>', mode 'w' at 0xb72a80d0>"
p1851
asbasbasbag62
(g78
g64
NtRp1852
(dp1853
g67
(dp1854
sg76
g1038
sg69
(lp1855
g62
(g83
g64
NtRp1856
(dp1857
g67
(dp1858
g87
g88
ssg76
g1852
sg69
(lp1859
S'wsgi_file_wrapper'
p1860
asbag62
(g83
g64
NtRp1861
(dp1862
g67
(dp1863
g94
g95
ssg76
g1852
sg69
(lp1864
S':'
asbag62
(g83
g64
NtRp1865
(dp1866
g67
(dp1867
sg76
g1852
sg69
(lp1868
g62
(g63
g64
NtRp1869
(dp1870
g67
(dp1871
g75
I4
ssg76
g1865
sg69
(lp1872
S'<class wsgiref.util.FileWrapper at 0xa40147c>'
p1873
asbasbasbag62
(g78
g64
NtRp1874
(dp1875
g67
(dp1876
sg76
g1038
sg69
(lp1877
g62
(g83
g64
NtRp1878
(dp1879
g67
(dp1880
g87
g88
ssg76
g1874
sg69
(lp1881
S'wsgi_input'
p1882
asbag62
(g83
g64
NtRp1883
(dp1884
g67
(dp1885
g94
g95
ssg76
g1874
sg69
(lp1886
S':'
asbag62
(g83
g64
NtRp1887
(dp1888
g67
(dp1889
sg76
g1874
sg69
(lp1890
g62
(g63
g64
NtRp1891
(dp1892
g67
(dp1893
g75
I4
ssg76
g1887
sg69
(lp1894
S'<socket._fileobject object at 0xae244dec>'
p1895
asbasbasbag62
(g78
g64
NtRp1896
(dp1897
g67
(dp1898
sg76
g1038
sg69
(lp1899
g62
(g83
g64
NtRp1900
(dp1901
g67
(dp1902
g87
g88
ssg76
g1896
sg69
(lp1903
S'wsgi_multiprocess'
p1904
asbag62
(g83
g64
NtRp1905
(dp1906
g67
(dp1907
g94
g95
ssg76
g1896
sg69
(lp1908
S':'
asbag62
(g83
g64
NtRp1909
(dp1910
g67
(dp1911
sg76
g1896
sg69
(lp1912
g62
(g63
g64
NtRp1913
(dp1914
g67
(dp1915
g75
I4
ssg76
g1909
sg69
(lp1916
g105
asbasbasbag62
(g78
g64
NtRp1917
(dp1918
g67
(dp1919
sg76
g1038
sg69
(lp1920
g62
(g83
g64
NtRp1921
(dp1922
g67
(dp1923
g87
g88
ssg76
g1917
sg69
(lp1924
S'wsgi_multithread'
p1925
asbag62
(g83
g64
NtRp1926
(dp1927
g67
(dp1928
g94
g95
ssg76
g1917
sg69
(lp1929
S':'
asbag62
(g83
g64
NtRp1930
(dp1931
g67
(dp1932
sg76
g1917
sg69
(lp1933
g62
(g63
g64
NtRp1934
(dp1935
g67
(dp1936
g75
I4
ssg76
g1930
sg69
(lp1937
S'True'
p1938
asbasbasbag62
(g78
g64
NtRp1939
(dp1940
g67
(dp1941
sg76
g1038
sg69
(lp1942
g62
(g83
g64
NtRp1943
(dp1944
g67
(dp1945
g87
g88
ssg76
g1939
sg69
(lp1946
S'wsgi_run_once'
p1947
asbag62
(g83
g64
NtRp1948
(dp1949
g67
(dp1950
g94
g95
ssg76
g1939
sg69
(lp1951
S':'
asbag62
(g83
g64
NtRp1952
(dp1953
g67
(dp1954
sg76
g1939
sg69
(lp1955
g62
(g63
g64
NtRp1956
(dp1957
g67
(dp1958
g75
I4
ssg76
g1952
sg69
(lp1959
g105
asbasbasbag62
(g78
g64
NtRp1960
(dp1961
g67
(dp1962
sg76
g1038
sg69
(lp1963
g62
(g83
g64
NtRp1964
(dp1965
g67
(dp1966
g87
g88
ssg76
g1960
sg69
(lp1967
S'wsgi_url_scheme'
p1968
asbag62
(g83
g64
NtRp1969
(dp1970
g67
(dp1971
g94
g95
ssg76
g1960
sg69
(lp1972
S':'
asbag62
(g83
g64
NtRp1973
(dp1974
g67
(dp1975
sg76
g1960
sg69
(lp1976
g62
(g63
g64
NtRp1977
(dp1978
g67
(dp1979
g75
I4
ssg76
g1973
sg69
(lp1980
S'http'
p1981
asbasbasbag62
(g78
g64
NtRp1982
(dp1983
g67
(dp1984
sg76
g1038
sg69
(lp1985
g62
(g83
g64
NtRp1986
(dp1987
g67
(dp1988
g87
g88
ssg76
g1982
sg69
(lp1989
S'wsgi_version'
p1990
asbag62
(g83
g64
NtRp1991
(dp1992
g67
(dp1993
g94
g95
ssg76
g1982
sg69
(lp1994
S':'
asbag62
(g83
g64
NtRp1995
(dp1996
g67
(dp1997
sg76
g1982
sg69
(lp1998
g62
(g63
g64
NtRp1999
(dp2000
g67
(dp2001
g75
I4
ssg76
g1995
sg69
(lp2002
g62
(g71
g64
NtRp2003
(dp2004
g67
(dp2005
g75
I3
ssg76
Nsg69
(lp2006
g62
(g78
g64
NtRp2007
(dp2008
g67
(dp2009
sg76
g2003
sg69
(lp2010
g62
(g83
g64
NtRp2011
(dp2012
g67
(dp2013
sg76
g2007
sg69
(lp2014
g62
(g63
g64
NtRp2015
(dp2016
g67
(dp2017
g75
I3
ssg76
g2011
sg69
(lp2018
S'1'
asbasbasbag62
(g78
g64
NtRp2019
(dp2020
g67
(dp2021
sg76
g2003
sg69
(lp2022
g62
(g83
g64
NtRp2023
(dp2024
g67
(dp2025
sg76
g2019
sg69
(lp2026
g62
(g63
g64
NtRp2027
(dp2028
g67
(dp2029
g75
I3
ssg76
g2023
sg69
(lp2030
S'0'
asbasbasbasbasbasbasbasbasbasbasbag62
(g78
g64
NtRp2031
(dp2032
g67
(dp2033
sg76
g72
sg69
(lp2034
g62
(g83
g64
NtRp2035
(dp2036
g67
(dp2037
g87
g88
ssg76
g2031
sg69
(lp2038
S'extension'
p2039
asbag62
(g83
g64
NtRp2040
(dp2041
g67
(dp2042
g94
g95
ssg76
g2031
sg69
(lp2043
S':'
asbag62
(g83
g64
NtRp2044
(dp2045
g67
(dp2046
sg76
g2031
sg69
(lp2047
g62
(g63
g64
NtRp2048
(dp2049
g67
(dp2050
g75
I5
ssg76
g2044
sg69
(lp2051
S'html'
p2052
asbasbasbag62
(g78
g64
NtRp2053
(dp2054
g67
(dp2055
sg76
g72
sg69
(lp2056
g62
(g83
g64
NtRp2057
(dp2058
g67
(dp2059
g87
g88
ssg76
g2053
sg69
(lp2060
S'folder'
p2061
asbag62
(g83
g64
NtRp2062
(dp2063
g67
(dp2064
g94
g95
ssg76
g2053
sg69
(lp2065
S':'
asbag62
(g83
g64
NtRp2066
(dp2067
g67
(dp2068
sg76
g2053
sg69
(lp2069
g62
(g63
g64
NtRp2070
(dp2071
g67
(dp2072
g75
I5
ssg76
g2066
sg69
(lp2073
S'/home/nazrul/web2py/applications/WSD_Tool/'
p2074
asbasbasbag62
(g78
g64
NtRp2075
(dp2076
g67
(dp2077
sg76
g72
sg69
(lp2078
g62
(g83
g64
NtRp2079
(dp2080
g67
(dp2081
g87
g88
ssg76
g2075
sg69
(lp2082
S'function'
p2083
asbag62
(g83
g64
NtRp2084
(dp2085
g67
(dp2086
g94
g95
ssg76
g2075
sg69
(lp2087
S':'
asbag62
(g83
g64
NtRp2088
(dp2089
g67
(dp2090
sg76
g2075
sg69
(lp2091
g62
(g63
g64
NtRp2092
(dp2093
g67
(dp2094
g75
I5
ssg76
g2088
sg69
(lp2095
S'rel'
p2096
asbasbasbag62
(g78
g64
NtRp2097
(dp2098
g67
(dp2099
sg76
g72
sg69
(lp2100
g62
(g83
g64
NtRp2101
(dp2102
g67
(dp2103
g87
g88
ssg76
g2097
sg69
(lp2104
S'get_vars'
p2105
asbag62
(g83
g64
NtRp2106
(dp2107
g67
(dp2108
g94
g95
ssg76
g2097
sg69
(lp2109
S':'
asbag62
(g83
g64
NtRp2110
(dp2111
g67
(dp2112
sg76
g2097
sg69
(lp2113
g62
(g63
g64
NtRp2114
(dp2115
g67
(dp2116
g75
I5
ssg76
g2110
sg69
(lp2117
g62
(g71
g64
NtRp2118
(dp2119
g67
(dp2120
g75
I4
ssg76
Nsg69
(lp2121
sbasbasbasbag62
(g78
g64
NtRp2122
(dp2123
g67
(dp2124
sg76
g72
sg69
(lp2125
g62
(g83
g64
NtRp2126
(dp2127
g67
(dp2128
g87
g88
ssg76
g2122
sg69
(lp2129
S'global_settings'
p2130
asbag62
(g83
g64
NtRp2131
(dp2132
g67
(dp2133
g94
g95
ssg76
g2122
sg69
(lp2134
S':'
asbag62
(g83
g64
NtRp2135
(dp2136
g67
(dp2137
sg76
g2122
sg69
(lp2138
g62
(g63
g64
NtRp2139
(dp2140
g67
(dp2141
g75
I5
ssg76
g2135
sg69
(lp2142
g62
(g71
g64
NtRp2143
(dp2144
g67
(dp2145
g75
I4
ssg76
Nsg69
(lp2146
g62
(g78
g64
NtRp2147
(dp2148
g67
(dp2149
sg76
g2143
sg69
(lp2150
g62
(g83
g64
NtRp2151
(dp2152
g67
(dp2153
g87
g88
ssg76
g2147
sg69
(lp2154
g1050
asbag62
(g83
g64
NtRp2155
(dp2156
g67
(dp2157
g94
g95
ssg76
g2147
sg69
(lp2158
S':'
asbag62
(g83
g64
NtRp2159
(dp2160
g67
(dp2161
sg76
g2147
sg69
(lp2162
g62
(g63
g64
NtRp2163
(dp2164
g67
(dp2165
g75
I4
ssg76
g2159
sg69
(lp2166
S"set(['/home/nazrul/web2py/applications/welcome/', '/home/nazrul/web2py/applications/WSD_Tool/', '/home/nazrul/web2py/applications/admin/'])"
p2167
asbasbasbag62
(g78
g64
NtRp2168
(dp2169
g67
(dp2170
sg76
g2143
sg69
(lp2171
g62
(g83
g64
NtRp2172
(dp2173
g67
(dp2174
g87
g88
ssg76
g2168
sg69
(lp2175
g1072
asbag62
(g83
g64
NtRp2176
(dp2177
g67
(dp2178
g94
g95
ssg76
g2168
sg69
(lp2179
S':'
asbag62
(g83
g64
NtRp2180
(dp2181
g67
(dp2182
sg76
g2168
sg69
(lp2183
g62
(g63
g64
NtRp2184
(dp2185
g67
(dp2186
g75
I4
ssg76
g2180
sg69
(lp2187
g1085
asbasbasbag62
(g78
g64
NtRp2188
(dp2189
g67
(dp2190
sg76
g2143
sg69
(lp2191
g62
(g83
g64
NtRp2192
(dp2193
g67
(dp2194
g87
g88
ssg76
g2188
sg69
(lp2195
g1094
asbag62
(g83
g64
NtRp2196
(dp2197
g67
(dp2198
g94
g95
ssg76
g2188
sg69
(lp2199
S':'
asbag62
(g83
g64
NtRp2200
(dp2201
g67
(dp2202
sg76
g2188
sg69
(lp2203
g62
(g63
g64
NtRp2204
(dp2205
g67
(dp2206
g75
I4
ssg76
g2200
sg69
(lp2207
g62
(g71
g64
NtRp2208
(dp2209
g67
(dp2210
g75
I3
ssg76
Nsg69
(lp2211
sbasbasbasbag62
(g78
g64
NtRp2212
(dp2213
g67
(dp2214
sg76
g2143
sg69
(lp2215
g62
(g83
g64
NtRp2216
(dp2217
g67
(dp2218
g87
g88
ssg76
g2212
sg69
(lp2219
g1119
asbag62
(g83
g64
NtRp2220
(dp2221
g67
(dp2222
g94
g95
ssg76
g2212
sg69
(lp2223
S':'
asbag62
(g83
g64
NtRp2224
(dp2225
g67
(dp2226
sg76
g2212
sg69
(lp2227
g62
(g63
g64
NtRp2228
(dp2229
g67
(dp2230
g75
I4
ssg76
g2224
sg69
(lp2231
S"<Values at 0xa44192c: {'verbose': False, 'ip': '127.0.0.1', 'with_scheduler': False, 'ips': [], 'shutdown_timeout': 5, 'taskbar': False, 'port': 8000, 'maxthreads': None, 'softcron': False, 'server_name': 'nazrul-Compaq-Presario-CQ40-Notebook-PC', 'bpython': False, 'nogui': False, 'pid_filename': 'httpserver.pid', 'extcron': False, 'runcron': False, 'run_system_tests': False, 'test': None, 'folder': '/home/nazrul/web2py', 'config': '', 'import_models': False, 'winservice': '', 'shell': None, 'run': '', 'log_filename': 'httpserver.log', 'debuglevel': 30, 'args': [''], 'socket_timeout': 5, 'ssl_ca_certificate': None, 'scheduler': None, 'profiler_filename': None, 'ssl_private_key': '', 'scheduler_groups': None, 'password': '<ask>', 'request_queue_size': 5, 'ssl_certificate': '', 'cronjob': False, 'numthreads': None, 'quiet': False, 'interfaces': None, 'minthreads': None, 'timeout': 10, 'plain': False, 'nobanner': False}>"
p2232
asbasbasbag62
(g78
g64
NtRp2233
(dp2234
g67
(dp2235
sg76
g2143
sg69
(lp2236
g62
(g83
g64
NtRp2237
(dp2238
g67
(dp2239
g87
g88
ssg76
g2233
sg69
(lp2240
g1141
asbag62
(g83
g64
NtRp2241
(dp2242
g67
(dp2243
g94
g95
ssg76
g2233
sg69
(lp2244
S':'
asbag62
(g83
g64
NtRp2245
(dp2246
g67
(dp2247
sg76
g2233
sg69
(lp2248
g62
(g63
g64
NtRp2249
(dp2250
g67
(dp2251
g75
I4
ssg76
g2245
sg69
(lp2252
S'set([])'
p2253
asbasbasbag62
(g78
g64
NtRp2254
(dp2255
g67
(dp2256
sg76
g2143
sg69
(lp2257
g62
(g83
g64
NtRp2258
(dp2259
g67
(dp2260
g87
g88
ssg76
g2254
sg69
(lp2261
g1163
asbag62
(g83
g64
NtRp2262
(dp2263
g67
(dp2264
g94
g95
ssg76
g2254
sg69
(lp2265
S':'
asbag62
(g83
g64
NtRp2266
(dp2267
g67
(dp2268
sg76
g2254
sg69
(lp2269
g62
(g63
g64
NtRp2270
(dp2271
g67
(dp2272
g75
I4
ssg76
g2266
sg69
(lp2273
g105
asbasbasbag62
(g78
g64
NtRp2274
(dp2275
g67
(dp2276
sg76
g2143
sg69
(lp2277
g62
(g83
g64
NtRp2278
(dp2279
g67
(dp2280
g87
g88
ssg76
g2274
sg69
(lp2281
g1184
asbag62
(g83
g64
NtRp2282
(dp2283
g67
(dp2284
g94
g95
ssg76
g2274
sg69
(lp2285
S':'
asbag62
(g83
g64
NtRp2286
(dp2287
g67
(dp2288
sg76
g2274
sg69
(lp2289
g62
(g63
g64
NtRp2290
(dp2291
g67
(dp2292
g75
I4
ssg76
g2286
sg69
(lp2293
g1197
asbasbasbag62
(g78
g64
NtRp2294
(dp2295
g67
(dp2296
sg76
g2143
sg69
(lp2297
g62
(g83
g64
NtRp2298
(dp2299
g67
(dp2300
g87
g88
ssg76
g2294
sg69
(lp2301
g1360
asbag62
(g83
g64
NtRp2302
(dp2303
g67
(dp2304
g94
g95
ssg76
g2294
sg69
(lp2305
S':'
asbag62
(g83
g64
NtRp2306
(dp2307
g67
(dp2308
sg76
g2294
sg69
(lp2309
g62
(g63
g64
NtRp2310
(dp2311
g67
(dp2312
g75
I4
ssg76
g2306
sg69
(lp2313
g105
asbasbasbag62
(g78
g64
NtRp2314
(dp2315
g67
(dp2316
sg76
g2143
sg69
(lp2317
g62
(g83
g64
NtRp2318
(dp2319
g67
(dp2320
g87
g88
ssg76
g2314
sg69
(lp2321
g1381
asbag62
(g83
g64
NtRp2322
(dp2323
g67
(dp2324
g94
g95
ssg76
g2314
sg69
(lp2325
S':'
asbag62
(g83
g64
NtRp2326
(dp2327
g67
(dp2328
sg76
g2314
sg69
(lp2329
g62
(g63
g64
NtRp2330
(dp2331
g67
(dp2332
g75
I4
ssg76
g2326
sg69
(lp2333
g105
asbasbasbag62
(g78
g64
NtRp2334
(dp2335
g67
(dp2336
sg76
g2143
sg69
(lp2337
g62
(g83
g64
NtRp2338
(dp2339
g67
(dp2340
g87
g88
ssg76
g2334
sg69
(lp2341
g1402
asbag62
(g83
g64
NtRp2342
(dp2343
g67
(dp2344
g94
g95
ssg76
g2334
sg69
(lp2345
S':'
asbag62
(g83
g64
NtRp2346
(dp2347
g67
(dp2348
sg76
g2334
sg69
(lp2349
g62
(g63
g64
NtRp2350
(dp2351
g67
(dp2352
g75
I4
ssg76
g2346
sg69
(lp2353
g62
(g71
g64
NtRp2354
(dp2355
g67
(dp2356
g75
I3
ssg76
Nsg69
(lp2357
g62
(g78
g64
NtRp2358
(dp2359
g67
(dp2360
sg76
g2354
sg69
(lp2361
g62
(g83
g64
NtRp2362
(dp2363
g67
(dp2364
sg76
g2358
sg69
(lp2365
g62
(g63
g64
NtRp2366
(dp2367
g67
(dp2368
g75
I3
ssg76
g2362
sg69
(lp2369
g1431
asbasbasbag62
(g78
g64
NtRp2370
(dp2371
g67
(dp2372
sg76
g2354
sg69
(lp2373
g62
(g83
g64
NtRp2374
(dp2375
g67
(dp2376
sg76
g2370
sg69
(lp2377
g62
(g63
g64
NtRp2378
(dp2379
g67
(dp2380
g75
I3
ssg76
g2374
sg69
(lp2381
g1444
asbasbasbag62
(g78
g64
NtRp2382
(dp2383
g67
(dp2384
sg76
g2354
sg69
(lp2385
g62
(g83
g64
NtRp2386
(dp2387
g67
(dp2388
sg76
g2382
sg69
(lp2389
g62
(g63
g64
NtRp2390
(dp2391
g67
(dp2392
g75
I3
ssg76
g2386
sg69
(lp2393
g1457
asbasbasbag62
(g78
g64
NtRp2394
(dp2395
g67
(dp2396
sg76
g2354
sg69
(lp2397
g62
(g83
g64
NtRp2398
(dp2399
g67
(dp2400
sg76
g2394
sg69
(lp2401
g62
(g63
g64
NtRp2402
(dp2403
g67
(dp2404
g75
I3
ssg76
g2398
sg69
(lp2405
g1470
asbasbasbag62
(g78
g64
NtRp2406
(dp2407
g67
(dp2408
sg76
g2354
sg69
(lp2409
g62
(g83
g64
NtRp2410
(dp2411
g67
(dp2412
sg76
g2406
sg69
(lp2413
g62
(g63
g64
NtRp2414
(dp2415
g67
(dp2416
g75
I3
ssg76
g2410
sg69
(lp2417
g1483
asbasbasbasbasbasbasbag62
(g78
g64
NtRp2418
(dp2419
g67
(dp2420
sg76
g2143
sg69
(lp2421
g62
(g83
g64
NtRp2422
(dp2423
g67
(dp2424
g87
g88
ssg76
g2418
sg69
(lp2425
g1751
asbag62
(g83
g64
NtRp2426
(dp2427
g67
(dp2428
g94
g95
ssg76
g2418
sg69
(lp2429
S':'
asbag62
(g83
g64
NtRp2430
(dp2431
g67
(dp2432
sg76
g2418
sg69
(lp2433
g62
(g63
g64
NtRp2434
(dp2435
g67
(dp2436
g75
I4
ssg76
g2430
sg69
(lp2437
g62
(g71
g64
NtRp2438
(dp2439
g67
(dp2440
g75
I3
ssg76
Nsg69
(lp2441
g62
(g78
g64
NtRp2442
(dp2443
g67
(dp2444
sg76
g2438
sg69
(lp2445
g62
(g83
g64
NtRp2446
(dp2447
g67
(dp2448
sg76
g2442
sg69
(lp2449
g62
(g63
g64
NtRp2450
(dp2451
g67
(dp2452
g75
I3
ssg76
g2446
sg69
(lp2453
S'2'
asbasbasbag62
(g78
g64
NtRp2454
(dp2455
g67
(dp2456
sg76
g2438
sg69
(lp2457
g62
(g83
g64
NtRp2458
(dp2459
g67
(dp2460
sg76
g2454
sg69
(lp2461
g62
(g63
g64
NtRp2462
(dp2463
g67
(dp2464
g75
I3
ssg76
g2458
sg69
(lp2465
S'3'
asbasbasbag62
(g78
g64
NtRp2466
(dp2467
g67
(dp2468
sg76
g2438
sg69
(lp2469
g62
(g83
g64
NtRp2470
(dp2471
g67
(dp2472
sg76
g2466
sg69
(lp2473
g62
(g63
g64
NtRp2474
(dp2475
g67
(dp2476
g75
I3
ssg76
g2470
sg69
(lp2477
S'2'
asbasbasbag62
(g78
g64
NtRp2478
(dp2479
g67
(dp2480
sg76
g2438
sg69
(lp2481
g62
(g83
g64
NtRp2482
(dp2483
g67
(dp2484
sg76
g2478
sg69
(lp2485
g62
(g63
g64
NtRp2486
(dp2487
g67
(dp2488
g75
I3
ssg76
g2482
sg69
(lp2489
S'datetime.datetime(2012, 12, 17, 15, 3, 30)'
p2490
asbasbasbag62
(g78
g64
NtRp2491
(dp2492
g67
(dp2493
sg76
g2438
sg69
(lp2494
g62
(g83
g64
NtRp2495
(dp2496
g67
(dp2497
sg76
g2491
sg69
(lp2498
g62
(g63
g64
NtRp2499
(dp2500
g67
(dp2501
g75
I3
ssg76
g2495
sg69
(lp2502
g1829
asbasbasbasbasbasbasbasbasbasbasbag62
(g78
g64
NtRp2503
(dp2504
g67
(dp2505
sg76
g72
sg69
(lp2506
g62
(g83
g64
NtRp2507
(dp2508
g67
(dp2509
g87
g88
ssg76
g2503
sg69
(lp2510
S'is_https'
p2511
asbag62
(g83
g64
NtRp2512
(dp2513
g67
(dp2514
g94
g95
ssg76
g2503
sg69
(lp2515
S':'
asbag62
(g83
g64
NtRp2516
(dp2517
g67
(dp2518
sg76
g2503
sg69
(lp2519
g62
(g63
g64
NtRp2520
(dp2521
g67
(dp2522
g75
I5
ssg76
g2516
sg69
(lp2523
g105
asbasbasbag62
(g78
g64
NtRp2524
(dp2525
g67
(dp2526
sg76
g72
sg69
(lp2527
g62
(g83
g64
NtRp2528
(dp2529
g67
(dp2530
g87
g88
ssg76
g2524
sg69
(lp2531
S'is_local'
p2532
asbag62
(g83
g64
NtRp2533
(dp2534
g67
(dp2535
g94
g95
ssg76
g2524
sg69
(lp2536
S':'
asbag62
(g83
g64
NtRp2537
(dp2538
g67
(dp2539
sg76
g2524
sg69
(lp2540
g62
(g63
g64
NtRp2541
(dp2542
g67
(dp2543
g75
I5
ssg76
g2537
sg69
(lp2544
g1938
asbasbasbag62
(g78
g64
NtRp2545
(dp2546
g67
(dp2547
sg76
g72
sg69
(lp2548
g62
(g83
g64
NtRp2549
(dp2550
g67
(dp2551
g87
g88
ssg76
g2545
sg69
(lp2552
S'is_restful'
p2553
asbag62
(g83
g64
NtRp2554
(dp2555
g67
(dp2556
g94
g95
ssg76
g2545
sg69
(lp2557
S':'
asbag62
(g83
g64
NtRp2558
(dp2559
g67
(dp2560
sg76
g2545
sg69
(lp2561
g62
(g63
g64
NtRp2562
(dp2563
g67
(dp2564
g75
I5
ssg76
g2558
sg69
(lp2565
g105
asbasbasbag62
(g78
g64
NtRp2566
(dp2567
g67
(dp2568
sg76
g72
sg69
(lp2569
g62
(g83
g64
NtRp2570
(dp2571
g67
(dp2572
g87
g88
ssg76
g2566
sg69
(lp2573
S'now'
p2574
asbag62
(g83
g64
NtRp2575
(dp2576
g67
(dp2577
g94
g95
ssg76
g2566
sg69
(lp2578
S':'
asbag62
(g83
g64
NtRp2579
(dp2580
g67
(dp2581
sg76
g2566
sg69
(lp2582
g62
(g63
g64
NtRp2583
(dp2584
g67
(dp2585
g75
I5
ssg76
g2579
sg69
(lp2586
S'datetime.datetime(2013, 11, 9, 17, 59, 13, 730828)'
p2587
asbasbasbag62
(g78
g64
NtRp2588
(dp2589
g67
(dp2590
sg76
g72
sg69
(lp2591
g62
(g83
g64
NtRp2592
(dp2593
g67
(dp2594
g87
g88
ssg76
g2588
sg69
(lp2595
S'post_vars'
p2596
asbag62
(g83
g64
NtRp2597
(dp2598
g67
(dp2599
g94
g95
ssg76
g2588
sg69
(lp2600
S':'
asbag62
(g83
g64
NtRp2601
(dp2602
g67
(dp2603
sg76
g2588
sg69
(lp2604
g62
(g63
g64
NtRp2605
(dp2606
g67
(dp2607
g75
I5
ssg76
g2601
sg69
(lp2608
g62
(g71
g64
NtRp2609
(dp2610
g67
(dp2611
g75
I4
ssg76
Nsg69
(lp2612
sbasbasbasbag62
(g78
g64
NtRp2613
(dp2614
g67
(dp2615
sg76
g72
sg69
(lp2616
g62
(g83
g64
NtRp2617
(dp2618
g67
(dp2619
g87
g88
ssg76
g2613
sg69
(lp2620
S'raw_args'
p2621
asbag62
(g83
g64
NtRp2622
(dp2623
g67
(dp2624
g94
g95
ssg76
g2613
sg69
(lp2625
S':'
asbag62
(g83
g64
NtRp2626
(dp2627
g67
(dp2628
sg76
g2613
sg69
(lp2629
g62
(g63
g64
NtRp2630
(dp2631
g67
(dp2632
g75
I5
ssg76
g2626
sg69
(lp2633
S''
asbasbasbag62
(g78
g64
NtRp2634
(dp2635
g67
(dp2636
sg76
g72
sg69
(lp2637
g62
(g83
g64
NtRp2638
(dp2639
g67
(dp2640
g87
g88
ssg76
g2634
sg69
(lp2641
S'raw_extension'
p2642
asbag62
(g83
g64
NtRp2643
(dp2644
g67
(dp2645
g94
g95
ssg76
g2634
sg69
(lp2646
S':'
asbag62
(g83
g64
NtRp2647
(dp2648
g67
(dp2649
sg76
g2634
sg69
(lp2650
g62
(g63
g64
NtRp2651
(dp2652
g67
(dp2653
g75
I5
ssg76
g2647
sg69
(lp2654
S'None'
p2655
asbasbasbag62
(g78
g64
NtRp2656
(dp2657
g67
(dp2658
sg76
g72
sg69
(lp2659
g62
(g83
g64
NtRp2660
(dp2661
g67
(dp2662
g87
g88
ssg76
g2656
sg69
(lp2663
S'url'
p2664
asbag62
(g83
g64
NtRp2665
(dp2666
g67
(dp2667
g94
g95
ssg76
g2656
sg69
(lp2668
S':'
asbag62
(g83
g64
NtRp2669
(dp2670
g67
(dp2671
sg76
g2656
sg69
(lp2672
g62
(g63
g64
NtRp2673
(dp2674
g67
(dp2675
g75
I5
ssg76
g2669
sg69
(lp2676
g1505
asbasbasbag62
(g78
g64
NtRp2677
(dp2678
g67
(dp2679
sg76
g72
sg69
(lp2680
g62
(g83
g64
NtRp2681
(dp2682
g67
(dp2683
g87
g88
ssg76
g2677
sg69
(lp2684
S'utcnow'
p2685
asbag62
(g83
g64
NtRp2686
(dp2687
g67
(dp2688
g94
g95
ssg76
g2677
sg69
(lp2689
S':'
asbag62
(g83
g64
NtRp2690
(dp2691
g67
(dp2692
sg76
g2677
sg69
(lp2693
g62
(g63
g64
NtRp2694
(dp2695
g67
(dp2696
g75
I5
ssg76
g2690
sg69
(lp2697
S'datetime.datetime(2013, 11, 9, 12, 29, 13, 730860)'
p2698
asbasbasbag62
(g78
g64
NtRp2699
(dp2700
g67
(dp2701
sg76
g72
sg69
(lp2702
g62
(g83
g64
NtRp2703
(dp2704
g67
(dp2705
g87
g88
ssg76
g2699
sg69
(lp2706
S'uuid'
p2707
asbag62
(g83
g64
NtRp2708
(dp2709
g67
(dp2710
g94
g95
ssg76
g2699
sg69
(lp2711
S':'
asbag62
(g83
g64
NtRp2712
(dp2713
g67
(dp2714
sg76
g2699
sg69
(lp2715
g62
(g63
g64
NtRp2716
(dp2717
g67
(dp2718
g75
I5
ssg76
g2712
sg69
(lp2719
S'WSD_Tool/127.0.0.1.2013-11-09.17-59-13.4033fd1e-b3a5-4756-8ca2-147004b84c1c'
p2720
asbasbasbag62
(g78
g64
NtRp2721
(dp2722
g67
(dp2723
sg76
g72
sg69
(lp2724
g62
(g83
g64
NtRp2725
(dp2726
g67
(dp2727
g87
g88
ssg76
g2721
sg69
(lp2728
S'vars'
p2729
asbag62
(g83
g64
NtRp2730
(dp2731
g67
(dp2732
g94
g95
ssg76
g2721
sg69
(lp2733
S':'
asbag62
(g83
g64
NtRp2734
(dp2735
g67
(dp2736
sg76
g2721
sg69
(lp2737
g62
(g63
g64
NtRp2738
(dp2739
g67
(dp2740
g75
I5
ssg76
g2734
sg69
(lp2741
g62
(g71
g64
NtRp2742
(dp2743
g67
(dp2744
g75
I4
ssg76
Nsg69
(lp2745
sbasbasbasbag62
(g78
g64
NtRp2746
(dp2747
g67
(dp2748
sg76
g72
sg69
(lp2749
g62
(g83
g64
NtRp2750
(dp2751
g67
(dp2752
g87
g88
ssg76
g2746
sg69
(lp2753
S'wsgi'
p2754
asbag62
(g83
g64
NtRp2755
(dp2756
g67
(dp2757
g94
g95
ssg76
g2746
sg69
(lp2758
S':'
asbag62
(g83
g64
NtRp2759
(dp2760
g67
(dp2761
sg76
g2746
sg69
(lp2762
g62
(g63
g64
NtRp2763
(dp2764
g67
(dp2765
g75
I5
ssg76
g2759
sg69
(lp2766
g62
(g71
g64
NtRp2767
(dp2768
g67
(dp2769
g75
I4
ssg76
Nsg69
(lp2770
g62
(g78
g64
NtRp2771
(dp2772
g67
(dp2773
sg76
g2767
sg69
(lp2774
g62
(g83
g64
NtRp2775
(dp2776
g67
(dp2777
g87
g88
ssg76
g2771
sg69
(lp2778
S'environ'
p2779
asbag62
(g83
g64
NtRp2780
(dp2781
g67
(dp2782
g94
g95
ssg76
g2771
sg69
(lp2783
S':'
asbag62
(g83
g64
NtRp2784
(dp2785
g67
(dp2786
sg76
g2771
sg69
(lp2787
g62
(g63
g64
NtRp2788
(dp2789
g67
(dp2790
g75
I4
ssg76
g2784
sg69
(lp2791
g62
(g71
g64
NtRp2792
(dp2793
g67
(dp2794
g75
I3
ssg76
Nsg69
(lp2795
g62
(g78
g64
NtRp2796
(dp2797
g67
(dp2798
sg76
g2792
sg69
(lp2799
g62
(g83
g64
NtRp2800
(dp2801
g67
(dp2802
g87
g88
ssg76
g2796
sg69
(lp2803
S'HTTP_ACCEPT'
p2804
asbag62
(g83
g64
NtRp2805
(dp2806
g67
(dp2807
g94
g95
ssg76
g2796
sg69
(lp2808
S':'
asbag62
(g83
g64
NtRp2809
(dp2810
g67
(dp2811
sg76
g2796
sg69
(lp2812
g62
(g63
g64
NtRp2813
(dp2814
g67
(dp2815
g75
I3
ssg76
g2809
sg69
(lp2816
g1219
asbasbasbag62
(g78
g64
NtRp2817
(dp2818
g67
(dp2819
sg76
g2792
sg69
(lp2820
g62
(g83
g64
NtRp2821
(dp2822
g67
(dp2823
g87
g88
ssg76
g2817
sg69
(lp2824
S'HTTP_ACCEPT_ENCODING'
p2825
asbag62
(g83
g64
NtRp2826
(dp2827
g67
(dp2828
g94
g95
ssg76
g2817
sg69
(lp2829
S':'
asbag62
(g83
g64
NtRp2830
(dp2831
g67
(dp2832
sg76
g2817
sg69
(lp2833
g62
(g63
g64
NtRp2834
(dp2835
g67
(dp2836
g75
I3
ssg76
g2830
sg69
(lp2837
g1241
asbasbasbag62
(g78
g64
NtRp2838
(dp2839
g67
(dp2840
sg76
g2792
sg69
(lp2841
g62
(g83
g64
NtRp2842
(dp2843
g67
(dp2844
g87
g88
ssg76
g2838
sg69
(lp2845
S'HTTP_ACCEPT_LANGUAGE'
p2846
asbag62
(g83
g64
NtRp2847
(dp2848
g67
(dp2849
g94
g95
ssg76
g2838
sg69
(lp2850
S':'
asbag62
(g83
g64
NtRp2851
(dp2852
g67
(dp2853
sg76
g2838
sg69
(lp2854
g62
(g63
g64
NtRp2855
(dp2856
g67
(dp2857
g75
I3
ssg76
g2851
sg69
(lp2858
g1263
asbasbasbag62
(g78
g64
NtRp2859
(dp2860
g67
(dp2861
sg76
g2792
sg69
(lp2862
g62
(g83
g64
NtRp2863
(dp2864
g67
(dp2865
g87
g88
ssg76
g2859
sg69
(lp2866
S'HTTP_CONNECTION'
p2867
asbag62
(g83
g64
NtRp2868
(dp2869
g67
(dp2870
g94
g95
ssg76
g2859
sg69
(lp2871
S':'
asbag62
(g83
g64
NtRp2872
(dp2873
g67
(dp2874
sg76
g2859
sg69
(lp2875
g62
(g63
g64
NtRp2876
(dp2877
g67
(dp2878
g75
I3
ssg76
g2872
sg69
(lp2879
g1285
asbasbasbag62
(g78
g64
NtRp2880
(dp2881
g67
(dp2882
sg76
g2792
sg69
(lp2883
g62
(g83
g64
NtRp2884
(dp2885
g67
(dp2886
g87
g88
ssg76
g2880
sg69
(lp2887
S'HTTP_COOKIE'
p2888
asbag62
(g83
g64
NtRp2889
(dp2890
g67
(dp2891
g94
g95
ssg76
g2880
sg69
(lp2892
S':'
asbag62
(g83
g64
NtRp2893
(dp2894
g67
(dp2895
sg76
g2880
sg69
(lp2896
g62
(g63
g64
NtRp2897
(dp2898
g67
(dp2899
g75
I3
ssg76
g2893
sg69
(lp2900
g1307
asbasbasbag62
(g78
g64
NtRp2901
(dp2902
g67
(dp2903
sg76
g2792
sg69
(lp2904
g62
(g83
g64
NtRp2905
(dp2906
g67
(dp2907
g87
g88
ssg76
g2901
sg69
(lp2908
S'HTTP_HOST'
p2909
asbag62
(g83
g64
NtRp2910
(dp2911
g67
(dp2912
g94
g95
ssg76
g2901
sg69
(lp2913
S':'
asbag62
(g83
g64
NtRp2914
(dp2915
g67
(dp2916
sg76
g2901
sg69
(lp2917
g62
(g63
g64
NtRp2918
(dp2919
g67
(dp2920
g75
I3
ssg76
g2914
sg69
(lp2921
g1329
asbasbasbag62
(g78
g64
NtRp2922
(dp2923
g67
(dp2924
sg76
g2792
sg69
(lp2925
g62
(g83
g64
NtRp2926
(dp2927
g67
(dp2928
g87
g88
ssg76
g2922
sg69
(lp2929
S'HTTP_USER_AGENT'
p2930
asbag62
(g83
g64
NtRp2931
(dp2932
g67
(dp2933
g94
g95
ssg76
g2922
sg69
(lp2934
S':'
asbag62
(g83
g64
NtRp2935
(dp2936
g67
(dp2937
sg76
g2922
sg69
(lp2938
g62
(g63
g64
NtRp2939
(dp2940
g67
(dp2941
g75
I3
ssg76
g2935
sg69
(lp2942
g1351
asbasbasbag62
(g78
g64
NtRp2943
(dp2944
g67
(dp2945
sg76
g2792
sg69
(lp2946
g62
(g83
g64
NtRp2947
(dp2948
g67
(dp2949
g87
g88
ssg76
g2943
sg69
(lp2950
S'PATH_INFO'
p2951
asbag62
(g83
g64
NtRp2952
(dp2953
g67
(dp2954
g94
g95
ssg76
g2943
sg69
(lp2955
S':'
asbag62
(g83
g64
NtRp2956
(dp2957
g67
(dp2958
sg76
g2943
sg69
(lp2959
g62
(g63
g64
NtRp2960
(dp2961
g67
(dp2962
g75
I3
ssg76
g2956
sg69
(lp2963
g1505
asbasbasbag62
(g78
g64
NtRp2964
(dp2965
g67
(dp2966
sg76
g2792
sg69
(lp2967
g62
(g83
g64
NtRp2968
(dp2969
g67
(dp2970
g87
g88
ssg76
g2964
sg69
(lp2971
S'QUERY_STRING'
p2972
asbag62
(g83
g64
NtRp2973
(dp2974
g67
(dp2975
g94
g95
ssg76
g2964
sg69
(lp2976
S':'
asbag62
(g83
g64
NtRp2977
(dp2978
g67
(dp2979
sg76
g2964
sg69
(lp2980
g62
(g63
g64
NtRp2981
(dp2982
g67
(dp2983
g75
I3
ssg76
g2977
sg69
(lp2984
S''
asbasbasbag62
(g78
g64
NtRp2985
(dp2986
g67
(dp2987
sg76
g2792
sg69
(lp2988
g62
(g83
g64
NtRp2989
(dp2990
g67
(dp2991
g87
g88
ssg76
g2985
sg69
(lp2992
S'REMOTE_ADDR'
p2993
asbag62
(g83
g64
NtRp2994
(dp2995
g67
(dp2996
g94
g95
ssg76
g2985
sg69
(lp2997
S':'
asbag62
(g83
g64
NtRp2998
(dp2999
g67
(dp3000
sg76
g2985
sg69
(lp3001
g62
(g63
g64
NtRp3002
(dp3003
g67
(dp3004
g75
I3
ssg76
g2998
sg69
(lp3005
g217
asbasbasbag62
(g78
g64
NtRp3006
(dp3007
g67
(dp3008
sg76
g2792
sg69
(lp3009
g62
(g83
g64
NtRp3010
(dp3011
g67
(dp3012
g87
g88
ssg76
g3006
sg69
(lp3013
S'REMOTE_PORT'
p3014
asbag62
(g83
g64
NtRp3015
(dp3016
g67
(dp3017
g94
g95
ssg76
g3006
sg69
(lp3018
S':'
asbag62
(g83
g64
NtRp3019
(dp3020
g67
(dp3021
sg76
g3006
sg69
(lp3022
g62
(g63
g64
NtRp3023
(dp3024
g67
(dp3025
g75
I3
ssg76
g3019
sg69
(lp3026
g1569
asbasbasbag62
(g78
g64
NtRp3027
(dp3028
g67
(dp3029
sg76
g2792
sg69
(lp3030
g62
(g83
g64
NtRp3031
(dp3032
g67
(dp3033
g87
g88
ssg76
g3027
sg69
(lp3034
S'REQUEST_METHOD'
p3035
asbag62
(g83
g64
NtRp3036
(dp3037
g67
(dp3038
g94
g95
ssg76
g3027
sg69
(lp3039
S':'
asbag62
(g83
g64
NtRp3040
(dp3041
g67
(dp3042
sg76
g3027
sg69
(lp3043
g62
(g63
g64
NtRp3044
(dp3045
g67
(dp3046
g75
I3
ssg76
g3040
sg69
(lp3047
g1591
asbasbasbag62
(g78
g64
NtRp3048
(dp3049
g67
(dp3050
sg76
g2792
sg69
(lp3051
g62
(g83
g64
NtRp3052
(dp3053
g67
(dp3054
g87
g88
ssg76
g3048
sg69
(lp3055
S'REQUEST_URI'
p3056
asbag62
(g83
g64
NtRp3057
(dp3058
g67
(dp3059
g94
g95
ssg76
g3048
sg69
(lp3060
S':'
asbag62
(g83
g64
NtRp3061
(dp3062
g67
(dp3063
sg76
g3048
sg69
(lp3064
g62
(g63
g64
NtRp3065
(dp3066
g67
(dp3067
g75
I3
ssg76
g3061
sg69
(lp3068
g1505
asbasbasbag62
(g78
g64
NtRp3069
(dp3070
g67
(dp3071
sg76
g2792
sg69
(lp3072
g62
(g83
g64
NtRp3073
(dp3074
g67
(dp3075
g87
g88
ssg76
g3069
sg69
(lp3076
S'SCRIPT_NAME'
p3077
asbag62
(g83
g64
NtRp3078
(dp3079
g67
(dp3080
g94
g95
ssg76
g3069
sg69
(lp3081
S':'
asbag62
(g83
g64
NtRp3082
(dp3083
g67
(dp3084
sg76
g3069
sg69
(lp3085
g62
(g63
g64
NtRp3086
(dp3087
g67
(dp3088
g75
I3
ssg76
g3082
sg69
(lp3089
S''
asbasbasbag62
(g78
g64
NtRp3090
(dp3091
g67
(dp3092
sg76
g2792
sg69
(lp3093
g62
(g83
g64
NtRp3094
(dp3095
g67
(dp3096
g87
g88
ssg76
g3090
sg69
(lp3097
S'SERVER_NAME'
p3098
asbag62
(g83
g64
NtRp3099
(dp3100
g67
(dp3101
g94
g95
ssg76
g3090
sg69
(lp3102
S':'
asbag62
(g83
g64
NtRp3103
(dp3104
g67
(dp3105
sg76
g3090
sg69
(lp3106
g62
(g63
g64
NtRp3107
(dp3108
g67
(dp3109
g75
I3
ssg76
g3103
sg69
(lp3110
g1655
asbasbasbag62
(g78
g64
NtRp3111
(dp3112
g67
(dp3113
sg76
g2792
sg69
(lp3114
g62
(g83
g64
NtRp3115
(dp3116
g67
(dp3117
g87
g88
ssg76
g3111
sg69
(lp3118
S'SERVER_PORT'
p3119
asbag62
(g83
g64
NtRp3120
(dp3121
g67
(dp3122
g94
g95
ssg76
g3111
sg69
(lp3123
S':'
asbag62
(g83
g64
NtRp3124
(dp3125
g67
(dp3126
sg76
g3111
sg69
(lp3127
g62
(g63
g64
NtRp3128
(dp3129
g67
(dp3130
g75
I3
ssg76
g3124
sg69
(lp3131
g1677
asbasbasbag62
(g78
g64
NtRp3132
(dp3133
g67
(dp3134
sg76
g2792
sg69
(lp3135
g62
(g83
g64
NtRp3136
(dp3137
g67
(dp3138
g87
g88
ssg76
g3132
sg69
(lp3139
S'SERVER_PROTOCOL'
p3140
asbag62
(g83
g64
NtRp3141
(dp3142
g67
(dp3143
g94
g95
ssg76
g3132
sg69
(lp3144
S':'
asbag62
(g83
g64
NtRp3145
(dp3146
g67
(dp3147
sg76
g3132
sg69
(lp3148
g62
(g63
g64
NtRp3149
(dp3150
g67
(dp3151
g75
I3
ssg76
g3145
sg69
(lp3152
g1699
asbasbasbag62
(g78
g64
NtRp3153
(dp3154
g67
(dp3155
sg76
g2792
sg69
(lp3156
g62
(g83
g64
NtRp3157
(dp3158
g67
(dp3159
g87
g88
ssg76
g3153
sg69
(lp3160
S'SERVER_SOFTWARE'
p3161
asbag62
(g83
g64
NtRp3162
(dp3163
g67
(dp3164
g94
g95
ssg76
g3153
sg69
(lp3165
S':'
asbag62
(g83
g64
NtRp3166
(dp3167
g67
(dp3168
sg76
g3153
sg69
(lp3169
g62
(g63
g64
NtRp3170
(dp3171
g67
(dp3172
g75
I3
ssg76
g3166
sg69
(lp3173
g1721
asbasbasbag62
(g78
g64
NtRp3174
(dp3175
g67
(dp3176
sg76
g2792
sg69
(lp3177
g62
(g83
g64
NtRp3178
(dp3179
g67
(dp3180
g87
g88
ssg76
g3174
sg69
(lp3181
S'wsgi.errors'
p3182
asbag62
(g83
g64
NtRp3183
(dp3184
g67
(dp3185
g94
g95
ssg76
g3174
sg69
(lp3186
S':'
asbag62
(g83
g64
NtRp3187
(dp3188
g67
(dp3189
sg76
g3174
sg69
(lp3190
g62
(g63
g64
NtRp3191
(dp3192
g67
(dp3193
g75
I3
ssg76
g3187
sg69
(lp3194
S"<open file '<stderr>', mode 'w' at 0xb72a80d0>"
p3195
asbasbasbag62
(g78
g64
NtRp3196
(dp3197
g67
(dp3198
sg76
g2792
sg69
(lp3199
g62
(g83
g64
NtRp3200
(dp3201
g67
(dp3202
g87
g88
ssg76
g3196
sg69
(lp3203
S'wsgi.file_wrapper'
p3204
asbag62
(g83
g64
NtRp3205
(dp3206
g67
(dp3207
g94
g95
ssg76
g3196
sg69
(lp3208
S':'
asbag62
(g83
g64
NtRp3209
(dp3210
g67
(dp3211
sg76
g3196
sg69
(lp3212
g62
(g63
g64
NtRp3213
(dp3214
g67
(dp3215
g75
I3
ssg76
g3209
sg69
(lp3216
S'<class wsgiref.util.FileWrapper at 0xa40147c>'
p3217
asbasbasbag62
(g78
g64
NtRp3218
(dp3219
g67
(dp3220
sg76
g2792
sg69
(lp3221
g62
(g83
g64
NtRp3222
(dp3223
g67
(dp3224
g87
g88
ssg76
g3218
sg69
(lp3225
S'wsgi.input'
p3226
asbag62
(g83
g64
NtRp3227
(dp3228
g67
(dp3229
g94
g95
ssg76
g3218
sg69
(lp3230
S':'
asbag62
(g83
g64
NtRp3231
(dp3232
g67
(dp3233
sg76
g3218
sg69
(lp3234
g62
(g63
g64
NtRp3235
(dp3236
g67
(dp3237
g75
I3
ssg76
g3231
sg69
(lp3238
S'<cStringIO.StringO object at 0xaf146a0>'
p3239
asbasbasbag62
(g78
g64
NtRp3240
(dp3241
g67
(dp3242
sg76
g2792
sg69
(lp3243
g62
(g83
g64
NtRp3244
(dp3245
g67
(dp3246
g87
g88
ssg76
g3240
sg69
(lp3247
S'wsgi.multiprocess'
p3248
asbag62
(g83
g64
NtRp3249
(dp3250
g67
(dp3251
g94
g95
ssg76
g3240
sg69
(lp3252
S':'
asbag62
(g83
g64
NtRp3253
(dp3254
g67
(dp3255
sg76
g3240
sg69
(lp3256
g62
(g63
g64
NtRp3257
(dp3258
g67
(dp3259
g75
I3
ssg76
g3253
sg69
(lp3260
g105
asbasbasbag62
(g78
g64
NtRp3261
(dp3262
g67
(dp3263
sg76
g2792
sg69
(lp3264
g62
(g83
g64
NtRp3265
(dp3266
g67
(dp3267
g87
g88
ssg76
g3261
sg69
(lp3268
S'wsgi.multithread'
p3269
asbag62
(g83
g64
NtRp3270
(dp3271
g67
(dp3272
g94
g95
ssg76
g3261
sg69
(lp3273
S':'
asbag62
(g83
g64
NtRp3274
(dp3275
g67
(dp3276
sg76
g3261
sg69
(lp3277
g62
(g63
g64
NtRp3278
(dp3279
g67
(dp3280
g75
I3
ssg76
g3274
sg69
(lp3281
g1938
asbasbasbag62
(g78
g64
NtRp3282
(dp3283
g67
(dp3284
sg76
g2792
sg69
(lp3285
g62
(g83
g64
NtRp3286
(dp3287
g67
(dp3288
g87
g88
ssg76
g3282
sg69
(lp3289
S'wsgi.run_once'
p3290
asbag62
(g83
g64
NtRp3291
(dp3292
g67
(dp3293
g94
g95
ssg76
g3282
sg69
(lp3294
S':'
asbag62
(g83
g64
NtRp3295
(dp3296
g67
(dp3297
sg76
g3282
sg69
(lp3298
g62
(g63
g64
NtRp3299
(dp3300
g67
(dp3301
g75
I3
ssg76
g3295
sg69
(lp3302
g105
asbasbasbag62
(g78
g64
NtRp3303
(dp3304
g67
(dp3305
sg76
g2792
sg69
(lp3306
g62
(g83
g64
NtRp3307
(dp3308
g67
(dp3309
g87
g88
ssg76
g3303
sg69
(lp3310
S'wsgi.url_scheme'
p3311
asbag62
(g83
g64
NtRp3312
(dp3313
g67
(dp3314
g94
g95
ssg76
g3303
sg69
(lp3315
S':'
asbag62
(g83
g64
NtRp3316
(dp3317
g67
(dp3318
sg76
g3303
sg69
(lp3319
g62
(g63
g64
NtRp3320
(dp3321
g67
(dp3322
g75
I3
ssg76
g3316
sg69
(lp3323
g1981
asbasbasbag62
(g78
g64
NtRp3324
(dp3325
g67
(dp3326
sg76
g2792
sg69
(lp3327
g62
(g83
g64
NtRp3328
(dp3329
g67
(dp3330
g87
g88
ssg76
g3324
sg69
(lp3331
S'wsgi.version'
p3332
asbag62
(g83
g64
NtRp3333
(dp3334
g67
(dp3335
g94
g95
ssg76
g3324
sg69
(lp3336
S':'
asbag62
(g83
g64
NtRp3337
(dp3338
g67
(dp3339
sg76
g3324
sg69
(lp3340
g62
(g63
g64
NtRp3341
(dp3342
g67
(dp3343
g75
I3
ssg76
g3337
sg69
(lp3344
S'1'
asbasbasbasbasbasbasbasbasbasbasbasbasbsS'frames'
p3345
(lp3346
(dp3347
S'file'
p3348
S'/home/nazrul/web2py/gluon/restricted.py'
p3349
sS'dump'
p3350
(dp3351
S'environment'
p3352
S"{'A': <class 'gluon.html.A'>, 'Auth': <class 'gluon.tools.Auth'>, 'B': <class 'gluon.html.B'>, 'BEAUTIFY': <class 'gluon.html.BEAUTIFY'>, 'BODY': <class 'gluon.html.BODY'>, 'BR': <class 'gluon.html.BR'>, 'BUTTON': <class 'gluon.html.BUTTON'>, 'CAT': <class 'gluon.html.CAT'>, 'CENTER': <class 'gluon.html.CENTER'>, 'CLEANUP': <class 'gluon.validators.CLEANUP'>, ...}"
p3353
sS'ccode'
p3354
S'<code object <module> at 0xa790770, file "/home/...ations/WSD_Tool/controllers/default.py", line 11>'
p3355
ssS'lnum'
p3356
I212
sS'lines'
p3357
(dp3358
I207
S'    try:'
p3359
sI208
S'        if isinstance(code, types.CodeType):'
p3360
sI209
S'            ccode = code'
p3361
sI210
S'        else:'
p3362
sI211
S'            ccode = compile2(code, layer)'
p3363
sI212
S'        exec ccode in environment'
p3364
sI213
S'    except HTTP:'
p3365
sI214
S'        raise'
p3366
sI215
S'    except RestrictedError:'
p3367
sI216
S'        # do not encapsulate (obfuscate) the original RestrictedError'
p3368
ssS'call'
p3369
S"(code='# -*- coding: utf-8 -*-\\n# this file is released ... dict(v=v)\\n\\nresponse._vars=response._caller(rel)\\n', environment={'A': <class 'gluon.html.A'>, 'Auth': <class 'gluon.tools.Auth'>, 'B': <class 'gluon.html.B'>, 'BEAUTIFY': <class 'gluon.html.BEAUTIFY'>, 'BODY': <class 'gluon.html.BODY'>, 'BR': <class 'gluon.html.BR'>, 'BUTTON': <class 'gluon.html.BUTTON'>, 'CAT': <class 'gluon.html.CAT'>, 'CENTER': <class 'gluon.html.CENTER'>, 'CLEANUP': <class 'gluon.validators.CLEANUP'>, ...}, layer='/home/nazrul/web2py/applications/WSD_Tool/controllers/default.py')"
p3370
sS'func'
p3371
S'restricted'
p3372
sa(dp3373
g3348
S'/home/nazrul/web2py/applications/WSD_Tool/controllers/default.py'
p3374
sg3350
(dp3375
sg3356
I260
sg3357
(dp3376
I256
S'def testt():'
p3377
sI257
S'    v=db(db.auth_user).select()'
p3378
sI258
S'    return dict(v=v)'
p3379
sI249
S'       #os.system("Anusaaraka_stanford.sh sample 0 True")'
p3380
sI250
S'       f.close()'
p3381
sI251
S"       f=open('$HOME_anu_tmp/tmp/sample_tmp/2.1/word.dat','r')"
p3382
sI252
S'       a=f.read()'
p3383
sI253
S'       f.close()'
p3384
sI254
S'       return dict(a=a)'
p3385
sI255
S''
ssg3369
S'()'
p3386
sg3371
S'<module>'
p3387
sa(dp3388
g3348
S'/home/nazrul/web2py/gluon/globals.py'
p3389
sg3350
(dp3390
S'self'
p3391
S'undefined'
p3392
sS'f'
S'<function rel>'
p3393
ssg3356
I193
sg3357
(dp3394
I192
S'        self._vars = None'
p3395
sI193
S'        self._caller = lambda f: f()'
p3396
sI194
S'        self._view_environment = None'
p3397
sI195
S'        self._custom_commit = None'
p3398
sI196
S'        self._custom_rollback = None'
p3399
sI197
S''
sI188
S'        self.menu = []             # used by the default view layout'
p3400
sI189
S'        self.files = []            # used by web2py_ajax.html'
p3401
sI190
S'        self.generic_patterns = []  # patterns to allow generic views'
p3402
sI191
S"        self.delimiters = ('{{', '}}')"
p3403
ssg3369
S'(f=<function rel>)'
p3404
sg3371
S'<lambda>'
p3405
sa(dp3406
g3348
S'/home/nazrul/web2py/applications/WSD_Tool/controllers/default.py'
p3407
sg3350
(dp3408
S'builtinopen'
p3409
S'<built-in function open>'
p3410
sS'f'
S"<closed file 'sample', mode 'w'>"
p3411
ssg3356
I251
sg3357
(dp3412
I246
S"       shell_command = 'Anusaaraka_stanford.sh  sample 0 True'"
p3413
sI247
S'       event = Popen(shell_command, shell=True, stdin=PIPE, stdout=PIPE, stderr=STDOUT)'
p3414
sI248
S'       event.communicate()'
p3415
sI249
S'       #os.system("Anusaaraka_stanford.sh sample 0 True")'
p3416
sI250
S'       f.close()'
p3417
sI251
S"       f=open('$HOME_anu_tmp/tmp/sample_tmp/2.1/word.dat','r')"
p3418
sI252
S'       a=f.read()'
p3419
sI253
S'       f.close()'
p3420
sI254
S'       return dict(a=a)'
p3421
sI255
S''
ssg3369
S'()'
p3422
sg3371
S'rel'
p3423
sasS'pyver'
p3424
S'Python 2.7.3: /usr/bin/python'
p3425
sS'session'
p3426
g62
(g63
g64
NtRp3427
(dp3428
g67
(dp3429
sg69
(lp3430
g62
(g71
g64
NtRp3431
(dp3432
g67
(dp3433
g75
I5
ssg76
Nsg69
(lp3434
g62
(g78
g64
NtRp3435
(dp3436
g67
(dp3437
sg76
g3431
sg69
(lp3438
g62
(g83
g64
NtRp3439
(dp3440
g67
(dp3441
g87
g88
ssg76
g3435
sg69
(lp3442
S'flash'
p3443
asbag62
(g83
g64
NtRp3444
(dp3445
g67
(dp3446
g94
g95
ssg76
g3435
sg69
(lp3447
S':'
asbag62
(g83
g64
NtRp3448
(dp3449
g67
(dp3450
sg76
g3435
sg69
(lp3451
g62
(g63
g64
NtRp3452
(dp3453
g67
(dp3454
g75
I5
ssg76
g3448
sg69
(lp3455
S'None'
p3456
asbasbasbag62
(g78
g64
NtRp3457
(dp3458
g67
(dp3459
sg76
g3431
sg69
(lp3460
g62
(g83
g64
NtRp3461
(dp3462
g67
(dp3463
g87
g88
ssg76
g3457
sg69
(lp3464
S'ide'
p3465
asbag62
(g83
g64
NtRp3466
(dp3467
g67
(dp3468
g94
g95
ssg76
g3457
sg69
(lp3469
S':'
asbag62
(g83
g64
NtRp3470
(dp3471
g67
(dp3472
sg76
g3457
sg69
(lp3473
g62
(g63
g64
NtRp3474
(dp3475
g67
(dp3476
g75
I5
ssg76
g3470
sg69
(lp3477
S'10'
p3478
asbasbasbag62
(g78
g64
NtRp3479
(dp3480
g67
(dp3481
sg76
g3431
sg69
(lp3482
g62
(g83
g64
NtRp3483
(dp3484
g67
(dp3485
g87
g88
ssg76
g3479
sg69
(lp3486
S'last_orderby'
p3487
asbag62
(g83
g64
NtRp3488
(dp3489
g67
(dp3490
g94
g95
ssg76
g3479
sg69
(lp3491
S':'
asbag62
(g83
g64
NtRp3492
(dp3493
g67
(dp3494
sg76
g3479
sg69
(lp3495
g62
(g63
g64
NtRp3496
(dp3497
g67
(dp3498
g75
I5
ssg76
g3492
sg69
(lp3499
S'None'
p3500
asbasbasbag62
(g78
g64
NtRp3501
(dp3502
g67
(dp3503
sg76
g3431
sg69
(lp3504
g62
(g83
g64
NtRp3505
(dp3506
g67
(dp3507
g87
g88
ssg76
g3501
sg69
(lp3508
S'last_query'
p3509
asbag62
(g83
g64
NtRp3510
(dp3511
g67
(dp3512
g94
g95
ssg76
g3501
sg69
(lp3513
S':'
asbag62
(g83
g64
NtRp3514
(dp3515
g67
(dp3516
sg76
g3501
sg69
(lp3517
g62
(g63
g64
NtRp3518
(dp3519
g67
(dp3520
g75
I5
ssg76
g3514
sg69
(lp3521
S'db.rules.id>0'
p3522
asbasbasbag62
(g78
g64
NtRp3523
(dp3524
g67
(dp3525
sg76
g3431
sg69
(lp3526
g62
(g83
g64
NtRp3527
(dp3528
g67
(dp3529
g87
g88
ssg76
g3523
sg69
(lp3530
S'sid'
p3531
asbag62
(g83
g64
NtRp3532
(dp3533
g67
(dp3534
g94
g95
ssg76
g3523
sg69
(lp3535
S':'
asbag62
(g83
g64
NtRp3536
(dp3537
g67
(dp3538
sg76
g3523
sg69
(lp3539
g62
(g63
g64
NtRp3540
(dp3541
g67
(dp3542
g75
I5
ssg76
g3536
sg69
(lp3543
S'11'
p3544
asbasbasbag62
(g78
g64
NtRp3545
(dp3546
g67
(dp3547
sg76
g3431
sg69
(lp3548
g62
(g83
g64
NtRp3549
(dp3550
g67
(dp3551
g87
g88
ssg76
g3545
sg69
(lp3552
S'word'
p3553
asbag62
(g83
g64
NtRp3554
(dp3555
g67
(dp3556
g94
g95
ssg76
g3545
sg69
(lp3557
S':'
asbag62
(g83
g64
NtRp3558
(dp3559
g67
(dp3560
sg76
g3545
sg69
(lp3561
g62
(g63
g64
NtRp3562
(dp3563
g67
(dp3564
g75
I5
ssg76
g3558
sg69
(lp3565
S'product'
p3566
asbasbasbasbasbsS'etype'
p3567
S"<type 'exceptions.IOError'>"
p3568
sS'date'
p3569
S'Sat Nov  9 17:59:39 2013'
p3570
sS'response'
p3571
g62
(g63
g64
NtRp3572
(dp3573
g67
(dp3574
sg69
(lp3575
g62
(g71
g64
NtRp3576
(dp3577
g67
(dp3578
g75
I5
ssg76
Nsg69
(lp3579
g62
(g78
g64
NtRp3580
(dp3581
g67
(dp3582
sg76
g3576
sg69
(lp3583
g62
(g83
g64
NtRp3584
(dp3585
g67
(dp3586
g87
g88
ssg76
g3580
sg69
(lp3587
g160
asbag62
(g83
g64
NtRp3588
(dp3589
g67
(dp3590
g94
g95
ssg76
g3580
sg69
(lp3591
S':'
asbag62
(g83
g64
NtRp3592
(dp3593
g67
(dp3594
sg76
g3580
sg69
(lp3595
g62
(g63
g64
NtRp3596
(dp3597
g67
(dp3598
g75
I5
ssg76
g3592
sg69
(lp3599
S'<cStringIO.StringO object at 0xaafe640>'
p3600
asbasbasbag62
(g78
g64
NtRp3601
(dp3602
g67
(dp3603
sg76
g3576
sg69
(lp3604
g62
(g83
g64
NtRp3605
(dp3606
g67
(dp3607
g87
g88
ssg76
g3601
sg69
(lp3608
g248
asbag62
(g83
g64
NtRp3609
(dp3610
g67
(dp3611
g94
g95
ssg76
g3601
sg69
(lp3612
S':'
asbag62
(g83
g64
NtRp3613
(dp3614
g67
(dp3615
sg76
g3601
sg69
(lp3616
g62
(g63
g64
NtRp3617
(dp3618
g67
(dp3619
g75
I5
ssg76
g3613
sg69
(lp3620
g62
(g71
g64
NtRp3621
(dp3622
g67
(dp3623
g75
I4
ssg76
Nsg69
(lp3624
g62
(g78
g64
NtRp3625
(dp3626
g67
(dp3627
sg76
g3621
sg69
(lp3628
g62
(g83
g64
NtRp3629
(dp3630
g67
(dp3631
g87
g88
ssg76
g3625
sg69
(lp3632
S'session_id_wsd_tool'
p3633
asbag62
(g83
g64
NtRp3634
(dp3635
g67
(dp3636
g94
g95
ssg76
g3625
sg69
(lp3637
S':'
asbag62
(g83
g64
NtRp3638
(dp3639
g67
(dp3640
sg76
g3625
sg69
(lp3641
g62
(g63
g64
NtRp3642
(dp3643
g67
(dp3644
g75
I4
ssg76
g3638
sg69
(lp3645
g852
ag62
(g71
g64
NtRp3646
(dp3647
g67
(dp3648
g75
I3
ssg76
Nsg69
(lp3649
g62
(g78
g64
NtRp3650
(dp3651
g67
(dp3652
sg76
g3646
sg69
(lp3653
g62
(g83
g64
NtRp3654
(dp3655
g67
(dp3656
g87
g88
ssg76
g3650
sg69
(lp3657
g299
asbag62
(g83
g64
NtRp3658
(dp3659
g67
(dp3660
g94
g95
ssg76
g3650
sg69
(lp3661
S':'
asbag62
(g83
g64
NtRp3662
(dp3663
g67
(dp3664
sg76
g3650
sg69
(lp3665
g62
(g63
g64
NtRp3666
(dp3667
g67
(dp3668
g75
I3
ssg76
g3662
sg69
(lp3669
S''
asbasbasbag62
(g78
g64
NtRp3670
(dp3671
g67
(dp3672
sg76
g3646
sg69
(lp3673
g62
(g83
g64
NtRp3674
(dp3675
g67
(dp3676
g87
g88
ssg76
g3670
sg69
(lp3677
g320
asbag62
(g83
g64
NtRp3678
(dp3679
g67
(dp3680
g94
g95
ssg76
g3670
sg69
(lp3681
S':'
asbag62
(g83
g64
NtRp3682
(dp3683
g67
(dp3684
sg76
g3670
sg69
(lp3685
g62
(g63
g64
NtRp3686
(dp3687
g67
(dp3688
g75
I3
ssg76
g3682
sg69
(lp3689
S''
asbasbasbag62
(g78
g64
NtRp3690
(dp3691
g67
(dp3692
sg76
g3646
sg69
(lp3693
g62
(g83
g64
NtRp3694
(dp3695
g67
(dp3696
g87
g88
ssg76
g3690
sg69
(lp3697
g341
asbag62
(g83
g64
NtRp3698
(dp3699
g67
(dp3700
g94
g95
ssg76
g3690
sg69
(lp3701
S':'
asbag62
(g83
g64
NtRp3702
(dp3703
g67
(dp3704
sg76
g3690
sg69
(lp3705
g62
(g63
g64
NtRp3706
(dp3707
g67
(dp3708
g75
I3
ssg76
g3702
sg69
(lp3709
S''
asbasbasbag62
(g78
g64
NtRp3710
(dp3711
g67
(dp3712
sg76
g3646
sg69
(lp3713
g62
(g83
g64
NtRp3714
(dp3715
g67
(dp3716
g87
g88
ssg76
g3710
sg69
(lp3717
g362
asbag62
(g83
g64
NtRp3718
(dp3719
g67
(dp3720
g94
g95
ssg76
g3710
sg69
(lp3721
S':'
asbag62
(g83
g64
NtRp3722
(dp3723
g67
(dp3724
sg76
g3710
sg69
(lp3725
g62
(g63
g64
NtRp3726
(dp3727
g67
(dp3728
g75
I3
ssg76
g3722
sg69
(lp3729
S''
asbasbasbag62
(g78
g64
NtRp3730
(dp3731
g67
(dp3732
sg76
g3646
sg69
(lp3733
g62
(g83
g64
NtRp3734
(dp3735
g67
(dp3736
g87
g88
ssg76
g3730
sg69
(lp3737
g383
asbag62
(g83
g64
NtRp3738
(dp3739
g67
(dp3740
g94
g95
ssg76
g3730
sg69
(lp3741
S':'
asbag62
(g83
g64
NtRp3742
(dp3743
g67
(dp3744
sg76
g3730
sg69
(lp3745
g62
(g63
g64
NtRp3746
(dp3747
g67
(dp3748
g75
I3
ssg76
g3742
sg69
(lp3749
S''
asbasbasbag62
(g78
g64
NtRp3750
(dp3751
g67
(dp3752
sg76
g3646
sg69
(lp3753
g62
(g83
g64
NtRp3754
(dp3755
g67
(dp3756
g87
g88
ssg76
g3750
sg69
(lp3757
g404
asbag62
(g83
g64
NtRp3758
(dp3759
g67
(dp3760
g94
g95
ssg76
g3750
sg69
(lp3761
S':'
asbag62
(g83
g64
NtRp3762
(dp3763
g67
(dp3764
sg76
g3750
sg69
(lp3765
g62
(g63
g64
NtRp3766
(dp3767
g67
(dp3768
g75
I3
ssg76
g3762
sg69
(lp3769
S'/'
asbasbasbag62
(g78
g64
NtRp3770
(dp3771
g67
(dp3772
sg76
g3646
sg69
(lp3773
g62
(g83
g64
NtRp3774
(dp3775
g67
(dp3776
g87
g88
ssg76
g3770
sg69
(lp3777
g425
asbag62
(g83
g64
NtRp3778
(dp3779
g67
(dp3780
g94
g95
ssg76
g3770
sg69
(lp3781
S':'
asbag62
(g83
g64
NtRp3782
(dp3783
g67
(dp3784
sg76
g3770
sg69
(lp3785
g62
(g63
g64
NtRp3786
(dp3787
g67
(dp3788
g75
I3
ssg76
g3782
sg69
(lp3789
S''
asbasbasbag62
(g78
g64
NtRp3790
(dp3791
g67
(dp3792
sg76
g3646
sg69
(lp3793
g62
(g83
g64
NtRp3794
(dp3795
g67
(dp3796
g87
g88
ssg76
g3790
sg69
(lp3797
g446
asbag62
(g83
g64
NtRp3798
(dp3799
g67
(dp3800
g94
g95
ssg76
g3790
sg69
(lp3801
S':'
asbag62
(g83
g64
NtRp3802
(dp3803
g67
(dp3804
sg76
g3790
sg69
(lp3805
g62
(g63
g64
NtRp3806
(dp3807
g67
(dp3808
g75
I3
ssg76
g3802
sg69
(lp3809
S''
asbasbasbasbasbasbasbasbasbasbasbag62
(g78
g64
NtRp3810
(dp3811
g67
(dp3812
sg76
g3576
sg69
(lp3813
g62
(g83
g64
NtRp3814
(dp3815
g67
(dp3816
g87
g88
ssg76
g3810
sg69
(lp3817
S'delimiters'
p3818
asbag62
(g83
g64
NtRp3819
(dp3820
g67
(dp3821
g94
g95
ssg76
g3810
sg69
(lp3822
S':'
asbag62
(g83
g64
NtRp3823
(dp3824
g67
(dp3825
sg76
g3810
sg69
(lp3826
g62
(g63
g64
NtRp3827
(dp3828
g67
(dp3829
g75
I5
ssg76
g3823
sg69
(lp3830
g62
(g71
g64
NtRp3831
(dp3832
g67
(dp3833
g75
I4
ssg76
Nsg69
(lp3834
g62
(g78
g64
NtRp3835
(dp3836
g67
(dp3837
sg76
g3831
sg69
(lp3838
g62
(g83
g64
NtRp3839
(dp3840
g67
(dp3841
sg76
g3835
sg69
(lp3842
g62
(g63
g64
NtRp3843
(dp3844
g67
(dp3845
g75
I4
ssg76
g3839
sg69
(lp3846
S'{{'
p3847
asbasbasbag62
(g78
g64
NtRp3848
(dp3849
g67
(dp3850
sg76
g3831
sg69
(lp3851
g62
(g83
g64
NtRp3852
(dp3853
g67
(dp3854
sg76
g3848
sg69
(lp3855
g62
(g63
g64
NtRp3856
(dp3857
g67
(dp3858
g75
I4
ssg76
g3852
sg69
(lp3859
S'}}'
p3860
asbasbasbasbasbasbasbag62
(g78
g64
NtRp3861
(dp3862
g67
(dp3863
sg76
g3576
sg69
(lp3864
g62
(g83
g64
NtRp3865
(dp3866
g67
(dp3867
g87
g88
ssg76
g3861
sg69
(lp3868
S'files'
p3869
asbag62
(g83
g64
NtRp3870
(dp3871
g67
(dp3872
g94
g95
ssg76
g3861
sg69
(lp3873
S':'
asbag62
(g83
g64
NtRp3874
(dp3875
g67
(dp3876
sg76
g3861
sg69
(lp3877
g62
(g63
g64
NtRp3878
(dp3879
g67
(dp3880
g75
I5
ssg76
g3874
sg69
(lp3881
g62
(g71
g64
NtRp3882
(dp3883
g67
(dp3884
g75
I4
ssg76
Nsg69
(lp3885
sbasbasbasbag62
(g78
g64
NtRp3886
(dp3887
g67
(dp3888
sg76
g3576
sg69
(lp3889
g62
(g83
g64
NtRp3890
(dp3891
g67
(dp3892
g87
g88
ssg76
g3886
sg69
(lp3893
S'flash'
p3894
asbag62
(g83
g64
NtRp3895
(dp3896
g67
(dp3897
g94
g95
ssg76
g3886
sg69
(lp3898
S':'
asbag62
(g83
g64
NtRp3899
(dp3900
g67
(dp3901
sg76
g3886
sg69
(lp3902
g62
(g63
g64
NtRp3903
(dp3904
g67
(dp3905
g75
I5
ssg76
g3899
sg69
(lp3906
S''
asbasbasbag62
(g78
g64
NtRp3907
(dp3908
g67
(dp3909
sg76
g3576
sg69
(lp3910
g62
(g83
g64
NtRp3911
(dp3912
g67
(dp3913
g87
g88
ssg76
g3907
sg69
(lp3914
S'generic_patterns'
p3915
asbag62
(g83
g64
NtRp3916
(dp3917
g67
(dp3918
g94
g95
ssg76
g3907
sg69
(lp3919
S':'
asbag62
(g83
g64
NtRp3920
(dp3921
g67
(dp3922
sg76
g3907
sg69
(lp3923
g62
(g63
g64
NtRp3924
(dp3925
g67
(dp3926
g75
I5
ssg76
g3920
sg69
(lp3927
g62
(g71
g64
NtRp3928
(dp3929
g67
(dp3930
g75
I4
ssg76
Nsg69
(lp3931
g62
(g78
g64
NtRp3932
(dp3933
g67
(dp3934
sg76
g3928
sg69
(lp3935
g62
(g83
g64
NtRp3936
(dp3937
g67
(dp3938
sg76
g3932
sg69
(lp3939
g62
(g63
g64
NtRp3940
(dp3941
g67
(dp3942
g75
I4
ssg76
g3936
sg69
(lp3943
S'*'
asbasbasbasbasbasbasbag62
(g78
g64
NtRp3944
(dp3945
g67
(dp3946
sg76
g3576
sg69
(lp3947
g62
(g83
g64
NtRp3948
(dp3949
g67
(dp3950
g87
g88
ssg76
g3944
sg69
(lp3951
S'google_analytics_id'
p3952
asbag62
(g83
g64
NtRp3953
(dp3954
g67
(dp3955
g94
g95
ssg76
g3944
sg69
(lp3956
S':'
asbag62
(g83
g64
NtRp3957
(dp3958
g67
(dp3959
sg76
g3944
sg69
(lp3960
g62
(g63
g64
NtRp3961
(dp3962
g67
(dp3963
g75
I5
ssg76
g3957
sg69
(lp3964
S'None'
p3965
asbasbasbag62
(g78
g64
NtRp3966
(dp3967
g67
(dp3968
sg76
g3576
sg69
(lp3969
g62
(g83
g64
NtRp3970
(dp3971
g67
(dp3972
g87
g88
ssg76
g3966
sg69
(lp3973
S'headers'
p3974
asbag62
(g83
g64
NtRp3975
(dp3976
g67
(dp3977
g94
g95
ssg76
g3966
sg69
(lp3978
S':'
asbag62
(g83
g64
NtRp3979
(dp3980
g67
(dp3981
sg76
g3966
sg69
(lp3982
g62
(g63
g64
NtRp3983
(dp3984
g67
(dp3985
g75
I5
ssg76
g3979
sg69
(lp3986
g62
(g71
g64
NtRp3987
(dp3988
g67
(dp3989
g75
I4
ssg76
Nsg69
(lp3990
g62
(g78
g64
NtRp3991
(dp3992
g67
(dp3993
sg76
g3987
sg69
(lp3994
g62
(g83
g64
NtRp3995
(dp3996
g67
(dp3997
g87
g88
ssg76
g3991
sg69
(lp3998
S'X-Powered-By'
p3999
asbag62
(g83
g64
NtRp4000
(dp4001
g67
(dp4002
g94
g95
ssg76
g3991
sg69
(lp4003
S':'
asbag62
(g83
g64
NtRp4004
(dp4005
g67
(dp4006
sg76
g3991
sg69
(lp4007
g62
(g63
g64
NtRp4008
(dp4009
g67
(dp4010
g75
I4
ssg76
g4004
sg69
(lp4011
S'web2py'
p4012
asbasbasbasbasbasbasbag62
(g78
g64
NtRp4013
(dp4014
g67
(dp4015
sg76
g3576
sg69
(lp4016
g62
(g83
g64
NtRp4017
(dp4018
g67
(dp4019
g87
g88
ssg76
g4013
sg69
(lp4020
S'menu'
p4021
asbag62
(g83
g64
NtRp4022
(dp4023
g67
(dp4024
g94
g95
ssg76
g4013
sg69
(lp4025
S':'
asbag62
(g83
g64
NtRp4026
(dp4027
g67
(dp4028
sg76
g4013
sg69
(lp4029
g62
(g63
g64
NtRp4030
(dp4031
g67
(dp4032
g75
I5
ssg76
g4026
sg69
(lp4033
g62
(g71
g64
NtRp4034
(dp4035
g67
(dp4036
g75
I4
ssg76
Nsg69
(lp4037
g62
(g78
g64
NtRp4038
(dp4039
g67
(dp4040
sg76
g4034
sg69
(lp4041
g62
(g83
g64
NtRp4042
(dp4043
g67
(dp4044
sg76
g4038
sg69
(lp4045
g62
(g63
g64
NtRp4046
(dp4047
g67
(dp4048
g75
I4
ssg76
g4042
sg69
(lp4049
g62
(g71
g64
NtRp4050
(dp4051
g67
(dp4052
g75
I3
ssg76
Nsg69
(lp4053
g62
(g78
g64
NtRp4054
(dp4055
g67
(dp4056
sg76
g4050
sg69
(lp4057
g62
(g83
g64
NtRp4058
(dp4059
g67
(dp4060
sg76
g4054
sg69
(lp4061
g62
(g63
g64
NtRp4062
(dp4063
g67
(dp4064
g75
I3
ssg76
g4058
sg69
(lp4065
cgluon.languages
lazyT_unpickle
p4066
(S't\x04\x00\x00\x00Home'
tRp4067
asbasbasbag62
(g78
g64
NtRp4068
(dp4069
g67
(dp4070
sg76
g4050
sg69
(lp4071
g62
(g83
g64
NtRp4072
(dp4073
g67
(dp4074
sg76
g4068
sg69
(lp4075
g62
(g63
g64
NtRp4076
(dp4077
g67
(dp4078
g75
I3
ssg76
g4072
sg69
(lp4079
g105
asbasbasbag62
(g78
g64
NtRp4080
(dp4081
g67
(dp4082
sg76
g4050
sg69
(lp4083
g62
(g83
g64
NtRp4084
(dp4085
g67
(dp4086
sg76
g4080
sg69
(lp4087
g62
(g63
g64
NtRp4088
(dp4089
g67
(dp4090
g75
I3
ssg76
g4084
sg69
(lp4091
S'/WSD_Tool/default/index'
p4092
asbasbasbag62
(g78
g64
NtRp4093
(dp4094
g67
(dp4095
sg76
g4050
sg69
(lp4096
g62
(g83
g64
NtRp4097
(dp4098
g67
(dp4099
sg76
g4093
sg69
(lp4100
g62
(g63
g64
NtRp4101
(dp4102
g67
(dp4103
g75
I3
ssg76
g4097
sg69
(lp4104
g62
(g71
g64
NtRp4105
(dp4106
g67
(dp4107
g75
I2
ssg76
Nsg69
(lp4108
sbasbasbasbasbasbasbasbag62
(g78
g64
NtRp4109
(dp4110
g67
(dp4111
sg76
g4034
sg69
(lp4112
g62
(g83
g64
NtRp4113
(dp4114
g67
(dp4115
sg76
g4109
sg69
(lp4116
g62
(g63
g64
NtRp4117
(dp4118
g67
(dp4119
g75
I4
ssg76
g4113
sg69
(lp4120
g62
(g71
g64
NtRp4121
(dp4122
g67
(dp4123
g75
I3
ssg76
Nsg69
(lp4124
g62
(g78
g64
NtRp4125
(dp4126
g67
(dp4127
sg76
g4121
sg69
(lp4128
g62
(g83
g64
NtRp4129
(dp4130
g67
(dp4131
sg76
g4125
sg69
(lp4132
g62
(g63
g64
NtRp4133
(dp4134
g67
(dp4135
g75
I3
ssg76
g4129
sg69
(lp4136
g62
(cgluon.html
SPAN
p4137
g64
NtRp4138
(dp4139
g67
(dp4140
g87
S'color:yellow'
p4141
ssg76
Nsg69
(lp4142
g4012
asbasbasbasbag62
(g78
g64
NtRp4143
(dp4144
g67
(dp4145
sg76
g4121
sg69
(lp4146
g62
(g83
g64
NtRp4147
(dp4148
g67
(dp4149
sg76
g4143
sg69
(lp4150
g62
(g63
g64
NtRp4151
(dp4152
g67
(dp4153
g75
I3
ssg76
g4147
sg69
(lp4154
g105
asbasbasbag62
(g78
g64
NtRp4155
(dp4156
g67
(dp4157
sg76
g4121
sg69
(lp4158
g62
(g83
g64
NtRp4159
(dp4160
g67
(dp4161
sg76
g4155
sg69
(lp4162
g62
(g63
g64
NtRp4163
(dp4164
g67
(dp4165
g75
I3
ssg76
g4159
sg69
(lp4166
S'None'
p4167
asbasbasbag62
(g78
g64
NtRp4168
(dp4169
g67
(dp4170
sg76
g4121
sg69
(lp4171
g62
(g83
g64
NtRp4172
(dp4173
g67
(dp4174
sg76
g4168
sg69
(lp4175
g62
(g63
g64
NtRp4176
(dp4177
g67
(dp4178
g75
I3
ssg76
g4172
sg69
(lp4179
g62
(g71
g64
NtRp4180
(dp4181
g67
(dp4182
g75
I2
ssg76
Nsg69
(lp4183
g62
(g78
g64
NtRp4184
(dp4185
g67
(dp4186
sg76
g4180
sg69
(lp4187
g62
(g83
g64
NtRp4188
(dp4189
g67
(dp4190
sg76
g4184
sg69
(lp4191
g62
(g63
g64
NtRp4192
(dp4193
g67
(dp4194
g75
I2
ssg76
g4188
sg69
(lp4195
g62
(g71
g64
NtRp4196
(dp4197
g67
(dp4198
g75
I1
ssg76
Nsg69
(lp4199
g62
(g78
g64
NtRp4200
(dp4201
g67
(dp4202
sg76
g4196
sg69
(lp4203
g62
(g83
g64
NtRp4204
(dp4205
g67
(dp4206
sg76
g4200
sg69
(lp4207
g62
(g63
g64
NtRp4208
(dp4209
g67
(dp4210
g75
I1
ssg76
g4204
sg69
(lp4211
g4066
(S's\x08\x00\x00\x00My Sites'
tRp4212
asbasbasbag62
(g78
g64
NtRp4213
(dp4214
g67
(dp4215
sg76
g4196
sg69
(lp4216
g62
(g83
g64
NtRp4217
(dp4218
g67
(dp4219
sg76
g4213
sg69
(lp4220
g62
(g63
g64
NtRp4221
(dp4222
g67
(dp4223
g75
I1
ssg76
g4217
sg69
(lp4224
I00
asbasbasbag62
(g78
g64
NtRp4225
(dp4226
g67
(dp4227
sg76
g4196
sg69
(lp4228
g62
(g83
g64
NtRp4229
(dp4230
g67
(dp4231
sg76
g4225
sg69
(lp4232
g62
(g63
g64
NtRp4233
(dp4234
g67
(dp4235
g75
I1
ssg76
g4229
sg69
(lp4236
S'/admin/default/site'
p4237
asbasbasbasbasbasbasbag62
(g78
g64
NtRp4238
(dp4239
g67
(dp4240
sg76
g4180
sg69
(lp4241
g62
(g83
g64
NtRp4242
(dp4243
g67
(dp4244
sg76
g4238
sg69
(lp4245
g62
(g63
g64
NtRp4246
(dp4247
g67
(dp4248
g75
I2
ssg76
g4242
sg69
(lp4249
g62
(g71
g64
NtRp4250
(dp4251
g67
(dp4252
g75
I1
ssg76
Nsg69
(lp4253
g62
(g78
g64
NtRp4254
(dp4255
g67
(dp4256
sg76
g4250
sg69
(lp4257
g62
(g83
g64
NtRp4258
(dp4259
g67
(dp4260
sg76
g4254
sg69
(lp4261
g62
(g63
g64
NtRp4262
(dp4263
g67
(dp4264
g75
I1
ssg76
g4258
sg69
(lp4265
g4066
(S's\x08\x00\x00\x00This App'
tRp4266
asbasbasbag62
(g78
g64
NtRp4267
(dp4268
g67
(dp4269
sg76
g4250
sg69
(lp4270
g62
(g83
g64
NtRp4271
(dp4272
g67
(dp4273
sg76
g4267
sg69
(lp4274
g62
(g63
g64
NtRp4275
(dp4276
g67
(dp4277
g75
I1
ssg76
g4271
sg69
(lp4278
I00
asbasbasbag62
(g78
g64
NtRp4279
(dp4280
g67
(dp4281
sg76
g4250
sg69
(lp4282
g62
(g83
g64
NtRp4283
(dp4284
g67
(dp4285
sg76
g4279
sg69
(lp4286
g62
(g63
g64
NtRp4287
(dp4288
g67
(dp4289
g75
I1
ssg76
g4283
sg69
(lp4290
S'/admin/default/design/WSD_Tool'
p4291
asbasbasbag62
(g78
g64
NtRp4292
(dp4293
g67
(dp4294
sg76
g4250
sg69
(lp4295
g62
(g83
g64
NtRp4296
(dp4297
g67
(dp4298
sg76
g4292
sg69
(lp4299
g62
(g63
g64
NtRp4300
(dp4301
g67
(dp4302
g75
I1
ssg76
g4296
sg69
(lp4303
(lp4304
(g4066
(S't\n\x00\x00\x00Controller'
tRp4305
I00
S'/admin/default/edit/WSD_Tool/controllers/default.py'
tp4306
a(g4066
(S't\x04\x00\x00\x00View'
tRp4307
I00
S'/admin/default/edit/WSD_Tool/views/default/rel.html'
tp4308
a(g4066
(S't\x06\x00\x00\x00Layout'
tRp4309
I00
S'/admin/default/edit/WSD_Tool/views/layout.html'
tp4310
a(g4066
(S't\n\x00\x00\x00Stylesheet'
tRp4311
I00
S'/admin/default/edit/WSD_Tool/static/css/web2py.css'
tp4312
a(g4066
(S's\x08\x00\x00\x00DB Model'
tRp4313
I00
S'/admin/default/edit/WSD_Tool/models/db.py'
tp4314
a(g4066
(S's\n\x00\x00\x00Menu Model'
tRp4315
I00
S'/admin/default/edit/WSD_Tool/models/menu.py'
tp4316
a(g4066
(S't\x08\x00\x00\x00Database'
tRp4317
I00
S'/WSD_Tool/appadmin/index'
tp4318
a(g4066
(S't\x06\x00\x00\x00Errors'
tRp4319
I00
S'/admin/default/errors/WSD_Tool'
tp4320
a(g4066
(S't\x05\x00\x00\x00About'
tRp4321
I00
S'/admin/default/about/WSD_Tool'
tp4322
aasbasbasbasbasbasbasbag62
(g78
g64
NtRp4323
(dp4324
g67
(dp4325
sg76
g4180
sg69
(lp4326
g62
(g83
g64
NtRp4327
(dp4328
g67
(dp4329
sg76
g4323
sg69
(lp4330
g62
(g63
g64
NtRp4331
(dp4332
g67
(dp4333
g75
I2
ssg76
g4327
sg69
(lp4334
g62
(g71
g64
NtRp4335
(dp4336
g67
(dp4337
g75
I1
ssg76
Nsg69
(lp4338
g62
(g78
g64
NtRp4339
(dp4340
g67
(dp4341
sg76
g4335
sg69
(lp4342
g62
(g83
g64
NtRp4343
(dp4344
g67
(dp4345
sg76
g4339
sg69
(lp4346
g62
(g63
g64
NtRp4347
(dp4348
g67
(dp4349
g75
I1
ssg76
g4343
sg69
(lp4350
S'web2py.com'
p4351
asbasbasbag62
(g78
g64
NtRp4352
(dp4353
g67
(dp4354
sg76
g4335
sg69
(lp4355
g62
(g83
g64
NtRp4356
(dp4357
g67
(dp4358
sg76
g4352
sg69
(lp4359
g62
(g63
g64
NtRp4360
(dp4361
g67
(dp4362
g75
I1
ssg76
g4356
sg69
(lp4363
I00
asbasbasbag62
(g78
g64
NtRp4364
(dp4365
g67
(dp4366
sg76
g4335
sg69
(lp4367
g62
(g83
g64
NtRp4368
(dp4369
g67
(dp4370
sg76
g4364
sg69
(lp4371
g62
(g63
g64
NtRp4372
(dp4373
g67
(dp4374
g75
I1
ssg76
g4368
sg69
(lp4375
S'http://www.web2py.com'
p4376
asbasbasbag62
(g78
g64
NtRp4377
(dp4378
g67
(dp4379
sg76
g4335
sg69
(lp4380
g62
(g83
g64
NtRp4381
(dp4382
g67
(dp4383
sg76
g4377
sg69
(lp4384
g62
(g63
g64
NtRp4385
(dp4386
g67
(dp4387
g75
I1
ssg76
g4381
sg69
(lp4388
(lp4389
(g4066
(S't\x08\x00\x00\x00Download'
tRp4390
I00
S'http://www.web2py.com/examples/default/download'
p4391
tp4392
a(g4066
(S't\x07\x00\x00\x00Support'
tRp4393
I00
S'http://www.web2py.com/examples/default/support'
p4394
tp4395
a(g4066
(S't\x04\x00\x00\x00Demo'
tRp4396
I00
S'http://web2py.com/demo_admin'
p4397
tp4398
a(g4066
(S's\x0e\x00\x00\x00Quick Examples'
tRp4399
I00
S'http://web2py.com/examples/default/examples'
p4400
tp4401
a(g4066
(S't\x03\x00\x00\x00FAQ'
tRp4402
I00
S'http://web2py.com/AlterEgo'
p4403
tp4404
a(g4066
(S't\x06\x00\x00\x00Videos'
tRp4405
I00
S'http://www.web2py.com/examples/default/videos/'
p4406
tp4407
a(g4066
(S's\x11\x00\x00\x00Free Applications'
tRp4408
I00
S'http://web2py.com/appliances'
p4409
tp4410
a(g4066
(S't\x07\x00\x00\x00Plugins'
tRp4411
I00
S'http://web2py.com/plugins'
p4412
tp4413
a(g4066
(S't\x07\x00\x00\x00Layouts'
tRp4414
I00
S'http://web2py.com/layouts'
p4415
tp4416
a(g4066
(S't\x07\x00\x00\x00Recipes'
tRp4417
I00
S'http://web2pyslices.com/'
p4418
tp4419
a(g4066
(S't\x08\x00\x00\x00Semantic'
tRp4420
I00
S'http://web2py.com/semantic'
p4421
tp4422
aasbasbasbasbasbasbasbag62
(g78
g64
NtRp4423
(dp4424
g67
(dp4425
sg76
g4180
sg69
(lp4426
g62
(g83
g64
NtRp4427
(dp4428
g67
(dp4429
sg76
g4423
sg69
(lp4430
g62
(g63
g64
NtRp4431
(dp4432
g67
(dp4433
g75
I2
ssg76
g4427
sg69
(lp4434
g62
(g71
g64
NtRp4435
(dp4436
g67
(dp4437
g75
I1
ssg76
Nsg69
(lp4438
g62
(g78
g64
NtRp4439
(dp4440
g67
(dp4441
sg76
g4435
sg69
(lp4442
g62
(g83
g64
NtRp4443
(dp4444
g67
(dp4445
sg76
g4439
sg69
(lp4446
g62
(g63
g64
NtRp4447
(dp4448
g67
(dp4449
g75
I1
ssg76
g4443
sg69
(lp4450
g4066
(S't\r\x00\x00\x00Documentation'
tRp4451
asbasbasbag62
(g78
g64
NtRp4452
(dp4453
g67
(dp4454
sg76
g4435
sg69
(lp4455
g62
(g83
g64
NtRp4456
(dp4457
g67
(dp4458
sg76
g4452
sg69
(lp4459
g62
(g63
g64
NtRp4460
(dp4461
g67
(dp4462
g75
I1
ssg76
g4456
sg69
(lp4463
I00
asbasbasbag62
(g78
g64
NtRp4464
(dp4465
g67
(dp4466
sg76
g4435
sg69
(lp4467
g62
(g83
g64
NtRp4468
(dp4469
g67
(dp4470
sg76
g4464
sg69
(lp4471
g62
(g63
g64
NtRp4472
(dp4473
g67
(dp4474
g75
I1
ssg76
g4468
sg69
(lp4475
S'http://www.web2py.com/book'
p4476
asbasbasbag62
(g78
g64
NtRp4477
(dp4478
g67
(dp4479
sg76
g4435
sg69
(lp4480
g62
(g83
g64
NtRp4481
(dp4482
g67
(dp4483
sg76
g4477
sg69
(lp4484
g62
(g63
g64
NtRp4485
(dp4486
g67
(dp4487
g75
I1
ssg76
g4481
sg69
(lp4488
(lp4489
(g4066
(S't\x07\x00\x00\x00Preface'
tRp4490
I00
S'http://www.web2py.com/book/default/chapter/00'
p4491
tp4492
a(g4066
(S't\x0c\x00\x00\x00Introduction'
tRp4493
I00
S'http://www.web2py.com/book/default/chapter/01'
p4494
tp4495
a(g4066
(S't\x06\x00\x00\x00Python'
tRp4496
I00
S'http://www.web2py.com/book/default/chapter/02'
p4497
tp4498
a(g4066
(S't\x08\x00\x00\x00Overview'
tRp4499
I00
S'http://www.web2py.com/book/default/chapter/03'
p4500
tp4501
a(g4066
(S's\x08\x00\x00\x00The Core'
tRp4502
I00
S'http://www.web2py.com/book/default/chapter/04'
p4503
tp4504
a(g4066
(S's\t\x00\x00\x00The Views'
tRp4505
I00
S'http://www.web2py.com/book/default/chapter/05'
p4506
tp4507
a(g4066
(S't\x08\x00\x00\x00Database'
tRp4508
I00
S'http://www.web2py.com/book/default/chapter/06'
p4509
tp4510
a(g4066
(S's\x14\x00\x00\x00Forms and Validators'
tRp4511
I00
S'http://www.web2py.com/book/default/chapter/07'
p4512
tp4513
a(g4066
(S's\r\x00\x00\x00Email and SMS'
tRp4514
I00
S'http://www.web2py.com/book/default/chapter/08'
p4515
tp4516
a(g4066
(S's\x0e\x00\x00\x00Access Control'
tRp4517
I00
S'http://www.web2py.com/book/default/chapter/09'
p4518
tp4519
a(g4066
(S't\x08\x00\x00\x00Services'
tRp4520
I00
S'http://www.web2py.com/book/default/chapter/10'
p4521
tp4522
a(g4066
(S's\x0c\x00\x00\x00Ajax Recipes'
tRp4523
I00
S'http://www.web2py.com/book/default/chapter/11'
p4524
tp4525
a(g4066
(S's\x16\x00\x00\x00Components and Plugins'
tRp4526
I00
S'http://www.web2py.com/book/default/chapter/12'
p4527
tp4528
a(g4066
(S's\x12\x00\x00\x00Deployment Recipes'
tRp4529
I00
S'http://www.web2py.com/book/default/chapter/13'
p4530
tp4531
a(g4066
(S's\r\x00\x00\x00Other Recipes'
tRp4532
I00
S'http://www.web2py.com/book/default/chapter/14'
p4533
tp4534
a(g4066
(S's\r\x00\x00\x00Buy this book'
tRp4535
I00
S'http://stores.lulu.com/web2py'
p4536
tp4537
aasbasbasbasbasbasbasbag62
(g78
g64
NtRp4538
(dp4539
g67
(dp4540
sg76
g4180
sg69
(lp4541
g62
(g83
g64
NtRp4542
(dp4543
g67
(dp4544
sg76
g4538
sg69
(lp4545
g62
(g63
g64
NtRp4546
(dp4547
g67
(dp4548
g75
I2
ssg76
g4542
sg69
(lp4549
g62
(g71
g64
NtRp4550
(dp4551
g67
(dp4552
g75
I1
ssg76
Nsg69
(lp4553
g62
(g78
g64
NtRp4554
(dp4555
g67
(dp4556
sg76
g4550
sg69
(lp4557
g62
(g83
g64
NtRp4558
(dp4559
g67
(dp4560
sg76
g4554
sg69
(lp4561
g62
(g63
g64
NtRp4562
(dp4563
g67
(dp4564
g75
I1
ssg76
g4558
sg69
(lp4565
g4066
(S't\t\x00\x00\x00Community'
tRp4566
asbasbasbag62
(g78
g64
NtRp4567
(dp4568
g67
(dp4569
sg76
g4550
sg69
(lp4570
g62
(g83
g64
NtRp4571
(dp4572
g67
(dp4573
sg76
g4567
sg69
(lp4574
g62
(g63
g64
NtRp4575
(dp4576
g67
(dp4577
g75
I1
ssg76
g4571
sg69
(lp4578
I00
asbasbasbag62
(g78
g64
NtRp4579
(dp4580
g67
(dp4581
sg76
g4550
sg69
(lp4582
g62
(g83
g64
NtRp4583
(dp4584
g67
(dp4585
sg76
g4579
sg69
(lp4586
g62
(g63
g64
NtRp4587
(dp4588
g67
(dp4589
g75
I1
ssg76
g4583
sg69
(lp4590
Nasbasbasbag62
(g78
g64
NtRp4591
(dp4592
g67
(dp4593
sg76
g4550
sg69
(lp4594
g62
(g83
g64
NtRp4595
(dp4596
g67
(dp4597
sg76
g4591
sg69
(lp4598
g62
(g63
g64
NtRp4599
(dp4600
g67
(dp4601
g75
I1
ssg76
g4595
sg69
(lp4602
(lp4603
(g4066
(S't\x06\x00\x00\x00Groups'
tRp4604
I00
S'http://www.web2py.com/examples/default/usergroups'
p4605
tp4606
a(g4066
(S't\x07\x00\x00\x00Twitter'
tRp4607
I00
S'http://twitter.com/web2py'
p4608
tp4609
a(g4066
(S's\t\x00\x00\x00Live Chat'
tRp4610
I00
S'http://webchat.freenode.net/?channels=web2py'
p4611
tp4612
aasbasbasbasbasbasbasbag62
(g78
g64
NtRp4613
(dp4614
g67
(dp4615
sg76
g4180
sg69
(lp4616
g62
(g83
g64
NtRp4617
(dp4618
g67
(dp4619
sg76
g4613
sg69
(lp4620
g62
(g63
g64
NtRp4621
(dp4622
g67
(dp4623
g75
I2
ssg76
g4617
sg69
(lp4624
g62
(g71
g64
NtRp4625
(dp4626
g67
(dp4627
g75
I1
ssg76
Nsg69
(lp4628
g62
(g78
g64
NtRp4629
(dp4630
g67
(dp4631
sg76
g4625
sg69
(lp4632
g62
(g83
g64
NtRp4633
(dp4634
g67
(dp4635
sg76
g4629
sg69
(lp4636
g62
(g63
g64
NtRp4637
(dp4638
g67
(dp4639
g75
I1
ssg76
g4633
sg69
(lp4640
g4066
(S't\x07\x00\x00\x00Plugins'
tRp4641
asbasbasbag62
(g78
g64
NtRp4642
(dp4643
g67
(dp4644
sg76
g4625
sg69
(lp4645
g62
(g83
g64
NtRp4646
(dp4647
g67
(dp4648
sg76
g4642
sg69
(lp4649
g62
(g63
g64
NtRp4650
(dp4651
g67
(dp4652
g75
I1
ssg76
g4646
sg69
(lp4653
I00
asbasbasbag62
(g78
g64
NtRp4654
(dp4655
g67
(dp4656
sg76
g4625
sg69
(lp4657
g62
(g83
g64
NtRp4658
(dp4659
g67
(dp4660
sg76
g4654
sg69
(lp4661
g62
(g63
g64
NtRp4662
(dp4663
g67
(dp4664
g75
I1
ssg76
g4658
sg69
(lp4665
Nasbasbasbag62
(g78
g64
NtRp4666
(dp4667
g67
(dp4668
sg76
g4625
sg69
(lp4669
g62
(g83
g64
NtRp4670
(dp4671
g67
(dp4672
sg76
g4666
sg69
(lp4673
g62
(g63
g64
NtRp4674
(dp4675
g67
(dp4676
g75
I1
ssg76
g4670
sg69
(lp4677
(lp4678
(S'plugin_wiki'
p4679
I00
S'http://web2py.com/examples/default/download'
p4680
tp4681
a(g4066
(S's\r\x00\x00\x00Other Plugins'
tRp4682
I00
g4412
tp4683
a(g4066
(S's\x0e\x00\x00\x00Layout Plugins'
tRp4684
I00
g4415
tp4685
aasbasbasbasbasbasbasbasbasbasbasbasbasbasbasbasbasbasbasbag62
(g78
g64
NtRp4686
(dp4687
g67
(dp4688
sg76
g3576
sg69
(lp4689
g62
(g83
g64
NtRp4690
(dp4691
g67
(dp4692
g87
g88
ssg76
g4686
sg69
(lp4693
S'meta'
p4694
asbag62
(g83
g64
NtRp4695
(dp4696
g67
(dp4697
g94
g95
ssg76
g4686
sg69
(lp4698
S':'
asbag62
(g83
g64
NtRp4699
(dp4700
g67
(dp4701
sg76
g4686
sg69
(lp4702
g62
(g63
g64
NtRp4703
(dp4704
g67
(dp4705
g75
I5
ssg76
g4699
sg69
(lp4706
g62
(g71
g64
NtRp4707
(dp4708
g67
(dp4709
g75
I4
ssg76
Nsg69
(lp4710
g62
(g78
g64
NtRp4711
(dp4712
g67
(dp4713
sg76
g4707
sg69
(lp4714
g62
(g83
g64
NtRp4715
(dp4716
g67
(dp4717
g87
g88
ssg76
g4711
sg69
(lp4718
S'author'
p4719
asbag62
(g83
g64
NtRp4720
(dp4721
g67
(dp4722
g94
g95
ssg76
g4711
sg69
(lp4723
S':'
asbag62
(g83
g64
NtRp4724
(dp4725
g67
(dp4726
sg76
g4711
sg69
(lp4727
g62
(g63
g64
NtRp4728
(dp4729
g67
(dp4730
g75
I4
ssg76
g4724
sg69
(lp4731
S'Your Name <you@example.com>'
p4732
asbasbasbag62
(g78
g64
NtRp4733
(dp4734
g67
(dp4735
sg76
g4707
sg69
(lp4736
g62
(g83
g64
NtRp4737
(dp4738
g67
(dp4739
g87
g88
ssg76
g4733
sg69
(lp4740
S'copyright'
p4741
asbag62
(g83
g64
NtRp4742
(dp4743
g67
(dp4744
g94
g95
ssg76
g4733
sg69
(lp4745
S':'
asbag62
(g83
g64
NtRp4746
(dp4747
g67
(dp4748
sg76
g4733
sg69
(lp4749
g62
(g63
g64
NtRp4750
(dp4751
g67
(dp4752
g75
I4
ssg76
g4746
sg69
(lp4753
S'Copyright 2011'
p4754
asbasbasbag62
(g78
g64
NtRp4755
(dp4756
g67
(dp4757
sg76
g4707
sg69
(lp4758
g62
(g83
g64
NtRp4759
(dp4760
g67
(dp4761
g87
g88
ssg76
g4755
sg69
(lp4762
S'description'
p4763
asbag62
(g83
g64
NtRp4764
(dp4765
g67
(dp4766
g94
g95
ssg76
g4755
sg69
(lp4767
S':'
asbag62
(g83
g64
NtRp4768
(dp4769
g67
(dp4770
sg76
g4755
sg69
(lp4771
g62
(g63
g64
NtRp4772
(dp4773
g67
(dp4774
g75
I4
ssg76
g4768
sg69
(lp4775
S'a cool new app'
p4776
asbasbasbag62
(g78
g64
NtRp4777
(dp4778
g67
(dp4779
sg76
g4707
sg69
(lp4780
g62
(g83
g64
NtRp4781
(dp4782
g67
(dp4783
g87
g88
ssg76
g4777
sg69
(lp4784
S'generator'
p4785
asbag62
(g83
g64
NtRp4786
(dp4787
g67
(dp4788
g94
g95
ssg76
g4777
sg69
(lp4789
S':'
asbag62
(g83
g64
NtRp4790
(dp4791
g67
(dp4792
sg76
g4777
sg69
(lp4793
g62
(g63
g64
NtRp4794
(dp4795
g67
(dp4796
g75
I4
ssg76
g4790
sg69
(lp4797
S'Web2py Web Framework'
p4798
asbasbasbag62
(g78
g64
NtRp4799
(dp4800
g67
(dp4801
sg76
g4707
sg69
(lp4802
g62
(g83
g64
NtRp4803
(dp4804
g67
(dp4805
g87
g88
ssg76
g4799
sg69
(lp4806
S'keywords'
p4807
asbag62
(g83
g64
NtRp4808
(dp4809
g67
(dp4810
g94
g95
ssg76
g4799
sg69
(lp4811
S':'
asbag62
(g83
g64
NtRp4812
(dp4813
g67
(dp4814
sg76
g4799
sg69
(lp4815
g62
(g63
g64
NtRp4816
(dp4817
g67
(dp4818
g75
I4
ssg76
g4812
sg69
(lp4819
S'web2py, python, framework'
p4820
asbasbasbasbasbasbasbag62
(g78
g64
NtRp4821
(dp4822
g67
(dp4823
sg76
g3576
sg69
(lp4824
g62
(g83
g64
NtRp4825
(dp4826
g67
(dp4827
g87
g88
ssg76
g4821
sg69
(lp4828
S'models_to_run'
p4829
asbag62
(g83
g64
NtRp4830
(dp4831
g67
(dp4832
g94
g95
ssg76
g4821
sg69
(lp4833
S':'
asbag62
(g83
g64
NtRp4834
(dp4835
g67
(dp4836
sg76
g4821
sg69
(lp4837
g62
(g63
g64
NtRp4838
(dp4839
g67
(dp4840
g75
I5
ssg76
g4834
sg69
(lp4841
g62
(g71
g64
NtRp4842
(dp4843
g67
(dp4844
g75
I4
ssg76
Nsg69
(lp4845
g62
(g78
g64
NtRp4846
(dp4847
g67
(dp4848
sg76
g4842
sg69
(lp4849
g62
(g83
g64
NtRp4850
(dp4851
g67
(dp4852
sg76
g4846
sg69
(lp4853
g62
(g63
g64
NtRp4854
(dp4855
g67
(dp4856
g75
I4
ssg76
g4850
sg69
(lp4857
S'^\\w+\\.py$'
p4858
asbasbasbag62
(g78
g64
NtRp4859
(dp4860
g67
(dp4861
sg76
g4842
sg69
(lp4862
g62
(g83
g64
NtRp4863
(dp4864
g67
(dp4865
sg76
g4859
sg69
(lp4866
g62
(g63
g64
NtRp4867
(dp4868
g67
(dp4869
g75
I4
ssg76
g4863
sg69
(lp4870
S'^default/\\w+\\.py$'
p4871
asbasbasbag62
(g78
g64
NtRp4872
(dp4873
g67
(dp4874
sg76
g4842
sg69
(lp4875
g62
(g83
g64
NtRp4876
(dp4877
g67
(dp4878
sg76
g4872
sg69
(lp4879
g62
(g63
g64
NtRp4880
(dp4881
g67
(dp4882
g75
I4
ssg76
g4876
sg69
(lp4883
S'^default/rel/\\w+\\.py$'
p4884
asbasbasbasbasbasbasbag62
(g78
g64
NtRp4885
(dp4886
g67
(dp4887
sg76
g3576
sg69
(lp4888
g62
(g83
g64
NtRp4889
(dp4890
g67
(dp4891
g87
g88
ssg76
g4885
sg69
(lp4892
S'postprocessing'
p4893
asbag62
(g83
g64
NtRp4894
(dp4895
g67
(dp4896
g94
g95
ssg76
g4885
sg69
(lp4897
S':'
asbag62
(g83
g64
NtRp4898
(dp4899
g67
(dp4900
sg76
g4885
sg69
(lp4901
g62
(g63
g64
NtRp4902
(dp4903
g67
(dp4904
g75
I5
ssg76
g4898
sg69
(lp4905
g62
(g71
g64
NtRp4906
(dp4907
g67
(dp4908
g75
I4
ssg76
Nsg69
(lp4909
sbasbasbasbag62
(g78
g64
NtRp4910
(dp4911
g67
(dp4912
sg76
g3576
sg69
(lp4913
g62
(g83
g64
NtRp4914
(dp4915
g67
(dp4916
g87
g88
ssg76
g4910
sg69
(lp4917
S'session_cookie_expires'
p4918
asbag62
(g83
g64
NtRp4919
(dp4920
g67
(dp4921
g94
g95
ssg76
g4910
sg69
(lp4922
S':'
asbag62
(g83
g64
NtRp4923
(dp4924
g67
(dp4925
sg76
g4910
sg69
(lp4926
g62
(g63
g64
NtRp4927
(dp4928
g67
(dp4929
g75
I5
ssg76
g4923
sg69
(lp4930
S'None'
p4931
asbasbasbag62
(g78
g64
NtRp4932
(dp4933
g67
(dp4934
sg76
g3576
sg69
(lp4935
g62
(g83
g64
NtRp4936
(dp4937
g67
(dp4938
g87
g88
ssg76
g4932
sg69
(lp4939
S'session_data_name'
p4940
asbag62
(g83
g64
NtRp4941
(dp4942
g67
(dp4943
g94
g95
ssg76
g4932
sg69
(lp4944
S':'
asbag62
(g83
g64
NtRp4945
(dp4946
g67
(dp4947
sg76
g4932
sg69
(lp4948
g62
(g63
g64
NtRp4949
(dp4950
g67
(dp4951
g75
I5
ssg76
g4945
sg69
(lp4952
S'session_data_wsd_tool'
p4953
asbasbasbag62
(g78
g64
NtRp4954
(dp4955
g67
(dp4956
sg76
g3576
sg69
(lp4957
g62
(g83
g64
NtRp4958
(dp4959
g67
(dp4960
g87
g88
ssg76
g4954
sg69
(lp4961
S'session_file'
p4962
asbag62
(g83
g64
NtRp4963
(dp4964
g67
(dp4965
g94
g95
ssg76
g4954
sg69
(lp4966
S':'
asbag62
(g83
g64
NtRp4967
(dp4968
g67
(dp4969
sg76
g4954
sg69
(lp4970
g62
(g63
g64
NtRp4971
(dp4972
g67
(dp4973
g75
I5
ssg76
g4967
sg69
(lp4974
S"<open file '/home/nazrul/web2py/applications/WSD_Tool/sessions/127.0.0.1-1b9513ff-7a4a-46e3-9d60-f0b6086e5c03', mode 'rb+' at 0xad652d30>"
p4975
asbasbasbag62
(g78
g64
NtRp4976
(dp4977
g67
(dp4978
sg76
g3576
sg69
(lp4979
g62
(g83
g64
NtRp4980
(dp4981
g67
(dp4982
g87
g88
ssg76
g4976
sg69
(lp4983
S'session_filename'
p4984
asbag62
(g83
g64
NtRp4985
(dp4986
g67
(dp4987
g94
g95
ssg76
g4976
sg69
(lp4988
S':'
asbag62
(g83
g64
NtRp4989
(dp4990
g67
(dp4991
sg76
g4976
sg69
(lp4992
g62
(g63
g64
NtRp4993
(dp4994
g67
(dp4995
g75
I5
ssg76
g4989
sg69
(lp4996
S'/home/nazrul/web2py/applications/WSD_Tool/sessions/127.0.0.1-1b9513ff-7a4a-46e3-9d60-f0b6086e5c03'
p4997
asbasbasbag62
(g78
g64
NtRp4998
(dp4999
g67
(dp5000
sg76
g3576
sg69
(lp5001
g62
(g83
g64
NtRp5002
(dp5003
g67
(dp5004
g87
g88
ssg76
g4998
sg69
(lp5005
S'session_id'
p5006
asbag62
(g83
g64
NtRp5007
(dp5008
g67
(dp5009
g94
g95
ssg76
g4998
sg69
(lp5010
S':'
asbag62
(g83
g64
NtRp5011
(dp5012
g67
(dp5013
sg76
g4998
sg69
(lp5014
g62
(g63
g64
NtRp5015
(dp5016
g67
(dp5017
g75
I5
ssg76
g5011
sg69
(lp5018
g852
asbasbasbag62
(g78
g64
NtRp5019
(dp5020
g67
(dp5021
sg76
g3576
sg69
(lp5022
g62
(g83
g64
NtRp5023
(dp5024
g67
(dp5025
g87
g88
ssg76
g5019
sg69
(lp5026
S'session_id_name'
p5027
asbag62
(g83
g64
NtRp5028
(dp5029
g67
(dp5030
g94
g95
ssg76
g5019
sg69
(lp5031
S':'
asbag62
(g83
g64
NtRp5032
(dp5033
g67
(dp5034
sg76
g5019
sg69
(lp5035
g62
(g63
g64
NtRp5036
(dp5037
g67
(dp5038
g75
I5
ssg76
g5032
sg69
(lp5039
g3633
asbasbasbag62
(g78
g64
NtRp5040
(dp5041
g67
(dp5042
sg76
g3576
sg69
(lp5043
g62
(g83
g64
NtRp5044
(dp5045
g67
(dp5046
g87
g88
ssg76
g5040
sg69
(lp5047
S'session_locked'
p5048
asbag62
(g83
g64
NtRp5049
(dp5050
g67
(dp5051
g94
g95
ssg76
g5040
sg69
(lp5052
S':'
asbag62
(g83
g64
NtRp5053
(dp5054
g67
(dp5055
sg76
g5040
sg69
(lp5056
g62
(g63
g64
NtRp5057
(dp5058
g67
(dp5059
g75
I5
ssg76
g5053
sg69
(lp5060
g1938
asbasbasbag62
(g78
g64
NtRp5061
(dp5062
g67
(dp5063
sg76
g3576
sg69
(lp5064
g62
(g83
g64
NtRp5065
(dp5066
g67
(dp5067
g87
g88
ssg76
g5061
sg69
(lp5068
S'session_new'
p5069
asbag62
(g83
g64
NtRp5070
(dp5071
g67
(dp5072
g94
g95
ssg76
g5061
sg69
(lp5073
S':'
asbag62
(g83
g64
NtRp5074
(dp5075
g67
(dp5076
sg76
g5061
sg69
(lp5077
g62
(g63
g64
NtRp5078
(dp5079
g67
(dp5080
g75
I5
ssg76
g5074
sg69
(lp5081
g105
asbasbasbag62
(g78
g64
NtRp5082
(dp5083
g67
(dp5084
sg76
g3576
sg69
(lp5085
g62
(g83
g64
NtRp5086
(dp5087
g67
(dp5088
g87
g88
ssg76
g5082
sg69
(lp5089
S'session_storage_type'
p5090
asbag62
(g83
g64
NtRp5091
(dp5092
g67
(dp5093
g94
g95
ssg76
g5082
sg69
(lp5094
S':'
asbag62
(g83
g64
NtRp5095
(dp5096
g67
(dp5097
sg76
g5082
sg69
(lp5098
g62
(g63
g64
NtRp5099
(dp5100
g67
(dp5101
g75
I5
ssg76
g5095
sg69
(lp5102
g3348
asbasbasbag62
(g78
g64
NtRp5103
(dp5104
g67
(dp5105
sg76
g3576
sg69
(lp5106
g62
(g83
g64
NtRp5107
(dp5108
g67
(dp5109
g87
g88
ssg76
g5103
sg69
(lp5110
S'status'
p5111
asbag62
(g83
g64
NtRp5112
(dp5113
g67
(dp5114
g94
g95
ssg76
g5103
sg69
(lp5115
S':'
asbag62
(g83
g64
NtRp5116
(dp5117
g67
(dp5118
sg76
g5103
sg69
(lp5119
g62
(g63
g64
NtRp5120
(dp5121
g67
(dp5122
g75
I5
ssg76
g5116
sg69
(lp5123
S'200'
p5124
asbasbasbag62
(g78
g64
NtRp5125
(dp5126
g67
(dp5127
sg76
g3576
sg69
(lp5128
g62
(g83
g64
NtRp5129
(dp5130
g67
(dp5131
g87
g88
ssg76
g5125
sg69
(lp5132
S'subtitle'
p5133
asbag62
(g83
g64
NtRp5134
(dp5135
g67
(dp5136
g94
g95
ssg76
g5125
sg69
(lp5137
S':'
asbag62
(g83
g64
NtRp5138
(dp5139
g67
(dp5140
sg76
g5125
sg69
(lp5141
g62
(g63
g64
NtRp5142
(dp5143
g67
(dp5144
g75
I5
ssg76
g5138
sg69
(lp5145
g4066
(S's\r\x00\x00\x00customize me!'
tRp5146
asbasbasbag62
(g78
g64
NtRp5147
(dp5148
g67
(dp5149
sg76
g3576
sg69
(lp5150
g62
(g83
g64
NtRp5151
(dp5152
g67
(dp5153
g87
g88
ssg76
g5147
sg69
(lp5154
S'title'
p5155
asbag62
(g83
g64
NtRp5156
(dp5157
g67
(dp5158
g94
g95
ssg76
g5147
sg69
(lp5159
S':'
asbag62
(g83
g64
NtRp5160
(dp5161
g67
(dp5162
sg76
g5147
sg69
(lp5163
g62
(g63
g64
NtRp5164
(dp5165
g67
(dp5166
g75
I5
ssg76
g5160
sg69
(lp5167
S'Wsd Tool'
p5168
asbasbasbag62
(g78
g64
NtRp5169
(dp5170
g67
(dp5171
sg76
g3576
sg69
(lp5172
g62
(g83
g64
NtRp5173
(dp5174
g67
(dp5175
g87
g88
ssg76
g5169
sg69
(lp5176
S'view'
p5177
asbag62
(g83
g64
NtRp5178
(dp5179
g67
(dp5180
g94
g95
ssg76
g5169
sg69
(lp5181
S':'
asbag62
(g83
g64
NtRp5182
(dp5183
g67
(dp5184
sg76
g5169
sg69
(lp5185
g62
(g63
g64
NtRp5186
(dp5187
g67
(dp5188
g75
I5
ssg76
g5182
sg69
(lp5189
S'default/rel.html'
p5190
asbasbasbasbasbsS'locals'
p5191
(dp5192
S'f'
S"<closed file 'sample', mode 'w'>"
p5193
sS'STDOUT'
p5194
S'-2'
p5195
sS'Popen'
p5196
S"<class 'subprocess.Popen'>"
p5197
sS'st'
p5198
S"'<TITLE> test. </TITLE> \\n <p> There is no asbestos in our products now </p>\\n'"
p5199
sS'PIPE'
p5200
S'-1'
p5201
sS'shell_command'
p5202
S"'Anusaaraka_stanford.sh  sample 0 True'"
p5203
sS's'
S"'There is no asbestos in our products now'"
p5204
sS'event'
p5205
S'<subprocess.Popen object>'
p5206
sssS'traceback'
p5207
S'Traceback (most recent call last):\n  File "/home/nazrul/web2py/gluon/restricted.py", line 212, in restricted\n    exec ccode in environment\n  File "/home/nazrul/web2py/applications/WSD_Tool/controllers/default.py", line 260, in <module>\n  File "/home/nazrul/web2py/gluon/globals.py", line 193, in <lambda>\n    self._caller = lambda f: f()\n  File "/home/nazrul/web2py/applications/WSD_Tool/controllers/default.py", line 251, in rel\n    f=open(\'$HOME_anu_tmp/tmp/sample_tmp/2.1/word.dat\',\'r\')\nIOError: [Errno 2] No such file or directory: \'$HOME_anu_tmp/tmp/sample_tmp/2.1/word.dat\'\n'
p5208
s.