(dp1
S'output'
p2
S"<type 'exceptions.NameError'> global name 'sesion' is not defined"
p3
sS'layer'
p4
S'/home/nazrul/web2py/applications/WSD/controllers/default.py'
p5
sS'code'
p6
S'# -*- coding: utf-8 -*-\n# this file is released under public domain and you can use without limitations\n\n#########################################################################\n## This is a samples controller\n## - index is the default action of any application\n## - user is required for authentication and authorization\n## - download is for downloading files uploaded in the db (does streaming)word_select?check=1\n## - call exposes all registered services (none by default)\n#########################################################################\nimport os,subprocess\ndef index():\n    redirect(URL(\'home\'))\n    """\n    example action using the internationalization operator T and flash\n    rendered by views/default/index.html or views/generic.html\n    """\n    response.flash = "Welcome to web2py!"\n    return dict(message=T(\'Hello World\'))\n\ndef user():\n    """\n    exposes:\n    http://..../[app]/default/user/login\n    http://..../[app]/default/user/logout\n    http://..../[app]/default/user/register\n    http://..../[app]/default/user/profile\n    http://..../[app]/default/user/retrieve_password\n    http://..../[app]/default/user/change_password\n    use @auth.requires_login()\n        @auth.requires_membership(\'group name\')\n        @auth.requires_permission(\'read\',\'table name\',record_id)\n    to decorate functions that need access control\n    """\n    return dict(form=auth())\n\n\ndef download():\n    """\n    allows downloading of uploaded files\n    http://..../[app]/default/download/[filename]\n    """\n    return response.download(request,db)\n\n\ndef call():\n    """\n    exposes services. for example:\n    http://..../[app]/default/call/jsonrpc\n    decorate with @services.jsonrpc the functions to expose\n    supports xml, json, xmlrpc, jsonrpc, amfrpc, rss, csv\n    """\n    return service()\n\n\n@auth.requires_signature()\ndef data():\n    """\n    http://..../[app]/default/data/tables\n    http://..../[app]/default/data/create/[table]\n    http://..../[app]/default/data/read/[table]/[id]\n    http://..../[app]/default/data/update/[table]/[id]\n    http://..../[app]/default/data/delete/[table]/[id]\n    http://..../[app]/default/data/select/[table]\n    http://..../[app]/default/data/search/[table]\n    but URLs must be signed, i.e. linked with\n      A(\'table\',_href=URL(\'data/tables\',user_signature=True))\n    or with the signed load operator\n      LOAD(\'default\',\'data.load\',args=\'tables\',ajax=True,user_signature=True)\n    """\n    return dict(form=crud())\n\n\n\n\n@auth.requires_login()\ndef home():\n    t = auth.user.id\n    h = db(db.rules.userid==t).select()\n    g = []\n    for i in h:\n        g.append(db(db.words.id==i.wid).select(db.words.word))\n    h=[]\n    for i in g:\n        for j in i:\n            h.append(j.word) \n    h=list(set(h))\n    return dict(t=t,h=h)\n\n@auth.requires_login()\ndef word_select():\n    if not request.vars.check:\n        redirect(\'home\')\n    else:\n        check=0\n    if request.vars.submit:\n        session.level = request.vars.level\n        w = request.vars.word\n        t = db(db.words).select()\n        for i in t:\n            if i.word==w:\n                session.word = w\n                session.ide = i.id\n                break\n        redirect(\'sentence_select\')\n    return dict()\n\n\n@auth.requires_login()\ndef changelevel():\n    if request.vars.submit:\n        if request.vars.new_email:\n            db(db.user_level).insert(email=request.vars.new_email,level=request.vars.level)\n        else:\n            db(db.user_level.email==request.vars.emailq).update(level=request.vars.level)\n        redirect(\'home\')\n    return dict()\n\n\n@auth.requires_login()\ndef word_selectc():\n    if not request.vars.check:\n        redirect(\'home\')\n    else:\n        check=0\n    if request.vars.submit:\n        session.level = request.vars.level\n        w = request.vars.word\n        t = db(db.words).select()\n        for i in t:\n            if i.word==w:\n                session.word = w\n                session.ide = i.id\n                break\n        redirect(URL(\'sentence_selectc\',vars=dict(second=request.vars.second)))\n    return dict()\n    \n#@auth.requires_login()\n#def reason():\n#    t=session.senid\n#    pre=db((db.rules.wid==session.ide)&(db.rules.sid==session.sid)).select()\n#    c=0\n#    for i in pre:\n#        c+=1\n#    if request.vars.hindit:\n#        db.rules.insert(name=session.word+str(c),userid=auth.user.id,wid=session.ide,sid=session.sid,translation=hindit)\n#        redirect(URL(\'rel\'))\n#    return dict()\n    \n    \n@auth.requires_login()\ndef sentence_select():\n    print \'*\'\n    f = \'\'\n    x = 0\n    if request.vars.submit and (request.vars.hindit):\n        t = request.vars.sentence\n        r = db(db.sentences.esentence==t).select(db.sentences.id)\n        for i in r:\n          session.sid=i.id\n          break\n        pre=db((db.rules.wid==session.ide)&(db.rules.userid==auth.user.id)).select()\n        c=0\n        f=0\n        for i in pre:\n            c+=1\n            if str(session.sid)==i.sid:\n                f=1\n                break\n        if f==0:\n            db.rules.insert(name=session.word+str(c),userid=auth.user.id,wid=session.ide,sid=session.sid,translation=request.vars.hindit)\n            session.f=0\n        redirect(URL(\'typ\'))\n    return dict(w=session.word,d=session.ide,f=f,level_set=session.level)\n\n\n@auth.requires_login()\ndef sentence_selectc():\n    print \'*\'\n    f = \'\'\n    x = 0\n    if request.vars.submit:\n        t = request.vars.sentence\n        r = db(db.sentences.esentence==t).select(db.sentences.id)\n        for i in r:\n          hindit=i.id\n          session.sid=i.id\n          break\n        redirect(URL(\'reasonc\',vars=dict(hindit=hindit)))\n    return dict(w=session.word,d=session.ide,f=f,level_set=session.level)\n\n\n@auth.requires_login()\ndef reasonc():\n    t=session.sid\n    r = db(db.sentences.id==t).select(db.sentences.hsentence)\n    if request.vars.advanced or request.vars.novice:\n        pre=db((db.rules.wid==session.ide)&(db.rules.userid==auth.user.id)).select()\n        c=0\n        f=0\n        for i in pre:\n            c+=1\n            if i.sid==str(session.sid):\n                f=1\n                break\n        if f==0:\n            db.rules.insert(name=session.word+str(c),userid=auth.user.id,wid=session.ide,sid=session.sid)\n        session.f=0\n\tif request.vars.advanced:\n\t  redirect(URL(\'typ\'))\n\telse:\n\t  redirect(URL(\'novi\'))\n    return dict(r=r)\n\n@auth.requires_login()\ndef novi():\n  t=session.sid\n  r=db(db.sentences.id==t).select(db.sentences.esentence)\n  r=r[0].esentence\n  l=r.split()\n  w=session.word\n  return dict(l=l,w=w)\n@auth.requires_login()\ndef novi_insert():\n    print request.vars.property,request.vars.word\n    a=db((db.novice.userid==auth.user.id)&(db.novice.wid==session.wid)&(db.novice.sid==session.sid)&(db.novice.word==request.vars.word)).select()\n    if a:\n        if request.vars.property==\'1\':\n            db((db.novice.userid==auth.user.id)&(db.novice.wid==session.wid)&(db.novice.sid==session.sid)&(db.novice.word==request.vars.word)).update(relation=1,property=0,both=0)\n        elif request.vars.property==\'2\':\n            db((db.novice.userid==auth.user.id)&(db.novice.wid==session.wid)&(db.novice.sid==session.sid)&(db.novice.word==request.vars.word)).update(relation=0,property=1,both=0)\n        elif request.vars.property==\'3\':   \n            db((db.novice.userid==auth.user.id)&(db.novice.wid==session.wid)&(db.novice.sid==session.sid)&(db.novice.word==request.vars.word)).update(relation=0,property=0,both=1)                     \n    else:\n        if request.vars.property==\'1\':\n            db.novice.insert(userid=auth.user.id,sid=sesion.sid,wid=session.sid,word=request.vars.word,relation=1,property=0,both=0)\n        elif request.vars.property==\'2\':\n            db.novice.insert(userid=auth.user.id,sid=sesion.sid,wid=session.sid,word=request.vars.word,relation=0,property=1,both=0)\n        elif request.vars.property==\'3\':\n            db.novice.insert(userid=auth.user.id,sid=sesion.sid,wid=session.sid,word=request.vars.word,relation=0,property=0,both=1)\n\n    return None\n@auth.requires_login()\ndef delaccount():\n    if request.vars.submit:\n        db(db.auth_user.email==request.vars.email).delete()\n        redirect("home")\n    return dict()\n\n@auth.requires_login()\ndef addword():\n    if request.vars.submit:\n       db.words.insert(word=request.vars.word)\n       word=request.vars.word\n       db.sentences.insert(level=request.vars.level,esentence=request.vars.esentence,hsentence=request.vars.hsentence)\n       w = db(db.words.word==request.vars.word).select(db.words.id)\n       s = db(db.sentences.esentence==request.vars.esentence).select(db.sentences.id)\n       #s=db(db.sentences.id==session.sid).select(db.sentences.esentence)\n       #s=s[0].esentence\n       sen=request.vars.esentence\n       print sen,word\n       f=open(\'sample\',\'w\')\n       st="\\n<TITLE> test. </TITLE>\\n<p>\\n" + sen + "\\n</p>\\n"\n       f.write(st)\n       f.close()\n       os.system("/bin/bash Anusaaraka_stanford.sh sample 0 True")\n       f=open(os.environ[\'HOME_anu_tmp\']+\'/tmp/sample_tmp/2.1/word.dat\',\'r\')\n       for line in f:\n           ind=line.rfind(\' \'+word)\n           print word+\'*\'+line\n           print "index"+str(ind)\n           if ind != -1 :\n               print \'*\'\n               anu_id=line[ind-2]\n               break\n       f.close() \n       print "anu_id= " + anu_id\n       f=open(os.environ[\'HOME_anu_tmp\']+\'/tmp/sample_tmp/2.1/cat_consistency_check.dat\',\'r\')\n       for line in f:\n           ind=line.find(\'id-cat_coarse \'+anu_id)\n           if ind != -1 :\n               line=line[::-1]\n               end=line.find(\' \')\n               psp=line[2:end][::-1]\n               break\n       f.close()\n       for i in w:\n           for j in s:\n               db.links.insert(wid=i.id,sid=j.id,typ=psp)\n               break\n           break\n       f=open(os.environ[\'HOME_anu_tmp\']+\'/tmp/sample_tmp/2.1/word.dat\',\'r\')\n       d={}\n       for i in f:\n           i=i.strip()\n           if i.find(\'id-word\')!=-1:\n               d[i[9]]=i[12:-1]\n       f.close()\n       f=open(os.environ[\'HOME_anu_tmp\']+\'/tmp/sample_tmp/2.1/relations.dat\',\'r\')\n       l,l1,l2=[],[],[]\n       for i in f:\n           i=i.strip()\n           if i[-4]==str(anu_id):\n               l1.append(i[:-4].strip()+\')\'+\' \'+\' \'+str(anu_id)+\',\'+\'\\"\'+str(word)+\'\\"\'+\' \'+i[-2]+\',\'+\'\\"\'+d[i[-2]]+\'\\"\')\n           elif i[-2]==str(anu_id):\n               l2.append(i[:-4].strip()+\')\'+\' \'+\' \'+i[-2]+\',\'+\'\\"\'+d[i[-4]]+\'\\"\'+\' \'+str(anu_id)+\',\'+\'\\"\'+str(word)+\'\\"\')\n       l=l1+l2\n       f.close()\n       for r in l:\n           db.rel_all.insert(wid=w[0].id,sid=s[0].id,relation=r)\n       session.flash="Word Added"\n       redirect(\'home\')\n    return dict()\n\n@auth.requires_login()\ndef delword():\n    if request.vars.submit:\n        g = db(db.words.word==request.vars.word).select(db.words.id)\n        for i in g:\n            db(db.words.id==i.id).delete()\n            db(db.rules.wid==i.id).delete()\n            y = db(db.links.wid==i.id).select(db.links.sid)\n            db(db.links.wid==i.id).delete()\n            for j in y:\n                db(db.sentences.id==j.sid).delete()\n                break\n            break\n            session.flash="Word Deleted "\n        redirect(\'home\')\n    return dict()\n\ndef typ():\n  psp=db((db.links.sid==session.sid)&(db.links.wid==session.ide)).select(db.links.typ)\n  psp=psp[0].typ\n  session.psp=psp\n  if request.vars.submit and request.vars.typ:\n    db((db.rules.userid==auth.user.id)&(db.rules.wid==session.ide)&(db.rules.sid==session.sid)).update(typ=psp)\n    if request.vars.typ==\'yes\':\n      redirect(URL(\'index\'))\n    else:\n      redirect(URL(\'rel\'))\n  return dict(psp=psp) \n\ndef rel():\n    s=db((db.rel_all.wid==session.ide)&(db.rel_all.sid==session.sid)).select(db.rel_all.relation)\n    l=[]\n    for i in s:\n        l+=[i.relation]\n    fields=[]   \n    fields.append(Field(\'Relations\',widget=SQLFORM.widgets.multiple.widget,requires=IS_IN_SET(l,multiple=True)))\n    if session.psp!=\'adverb\':\n        fields.append(Field(\'ans\',label=\'Is the relation sufficient for forming the rule ?\',widget=SQLFORM.widgets.radio.widget,requires=IS_IN_SET([\'yes\',\'no\'])))\n    form=SQLFORM.factory(*fields)\n    if form.accepts(request.vars,session):\n        for i in form.vars.Relations:\n            print "i="+str(i)\n            db.rel_rule.insert(wid=session.ide,sid=session.sid,relation=i)\n        if session.psp==\'adverb\':\n            redirect(\'index\')\n        elif form.vars.ans==\'yes\':\n            redirect(\'index\')\n        else :\n            redirect(URL(\'nature_\'+str(session.psp)))\n    return dict(form=form)\n\ndef nature_noun():\n    form=SQLFORM.factory(\n        Field(\'Nature\',requires=IS_IN_SET([\'Animate\',\'Inanimate\',\'Human\',\'Place\',\'Time\']),label=\'Semantic Property\'))\n    if form.accepts(request.vars,session):\n        db((db.rules.userid==auth.user.id)&(db.rules.wid==session.ide)&(db.rules.sid==session.sid)).update(property=form.vars.Nature)\n        redirect(URL(\'index\'))\n    return dict(form=form)\n\ndef nature_verb():\n    form=SQLFORM.factory(\n        Field(\'Nature\',requires=IS_IN_SET([\'transitive\',\'intransitive\'])))\n    if form.accepts(request.vars,session):\n        db((db.rules.userid==auth.user.id)&(db.rules.wid==session.ide)&(db.rules.sid==session.sid)).update(property=form.vars.Nature)\n        redirect(URL(\'index\'))\n    return dict(form=form)\n\ndef nature_adjective():\n    form=SQLFORM.factory(\n        Field(\'Nature\',requires=IS_IN_SET([\'Animate\',\'Inanimate\',\'Human\',\'Place\',\'Time\']),label=\'Semantic Property of noun whom it modifies\'))\n    if form.accepts(request.vars,session):\n        db((db.rules.userid==auth.user.id)&(db.rules.wid==session.ide)&(db.rules.sid==session.sid)).update(property=form.vars.Nature)\n        redirect(URL(\'index\'))\n    return dict(form=form)\n\ndef testt():\n    v=db(db.auth_user).select()\n    return dict(v=v)\n\nresponse._vars=response._caller(novi_insert)\n'
p7
sS'snapshot'
p8
(dp9
S'exception'
p10
(dp11
S'__hash__'
p12
S"<method-wrapper '__hash__' of exceptions.NameError object>"
p13
sS'__setattr__'
p14
S"<method-wrapper '__setattr__' of exceptions.NameError object>"
p15
sS'__reduce_ex__'
p16
S'<built-in method __reduce_ex__ of exceptions.NameError object>'
p17
sS'__getslice__'
p18
S"<method-wrapper '__getslice__' of exceptions.NameError object>"
p19
sS'__getitem__'
p20
S"<method-wrapper '__getitem__' of exceptions.NameError object>"
p21
sS'__setstate__'
p22
S'<built-in method __setstate__ of exceptions.NameError object>'
p23
sS'__reduce__'
p24
S'<built-in method __reduce__ of exceptions.NameError object>'
p25
sS'__str__'
p26
S"<method-wrapper '__str__' of exceptions.NameError object>"
p27
sS'__format__'
p28
S'<built-in method __format__ of exceptions.NameError object>'
p29
sS'__getattribute__'
p30
S"<method-wrapper '__getattribute__' of exceptions.NameError object>"
p31
sS'__class__'
p32
S"<type 'exceptions.NameError'>"
p33
sS'__unicode__'
p34
S'<built-in method __unicode__ of exceptions.NameError object>'
p35
sS'__delattr__'
p36
S"<method-wrapper '__delattr__' of exceptions.NameError object>"
p37
sS'__subclasshook__'
p38
S'<built-in method __subclasshook__ of type object>'
p39
sS'__repr__'
p40
S"<method-wrapper '__repr__' of exceptions.NameError object>"
p41
sS'args'
p42
S'("global name \'sesion\' is not defined",)'
p43
sS'__dict__'
p44
S'{}'
p45
sS'__sizeof__'
p46
S'<built-in method __sizeof__ of exceptions.NameError object>'
p47
sS'__doc__'
p48
S"'Name not found globally.'"
p49
sS'__init__'
p50
S"<method-wrapper '__init__' of exceptions.NameError object>"
p51
sS'__new__'
p52
S'<built-in method __new__ of type object>'
p53
ssS'evalue'
p54
S"global name 'sesion' is not defined"
p55
sS'request'
p56
ccopy_reg
_reconstructor
p57
(cgluon.html
BEAUTIFY
p58
c__builtin__
object
p59
NtRp60
(dp61
S'attributes'
p62
(dp63
sS'components'
p64
(lp65
g57
(cgluon.html
TABLE
p66
g59
NtRp67
(dp68
g62
(dp69
S'level'
p70
I5
ssS'parent'
p71
Nsg64
(lp72
g57
(cgluon.html
TR
p73
g59
NtRp74
(dp75
g62
(dp76
sg71
g67
sg64
(lp77
g57
(cgluon.html
TD
p78
g59
NtRp79
(dp80
g62
(dp81
S'_style'
p82
S'font-weight:bold;vertical-align:top'
p83
ssg71
g74
sg64
(lp84
S'ajax'
p85
asbag57
(g78
g59
NtRp86
(dp87
g62
(dp88
S'_valign'
p89
S'top'
p90
ssg71
g74
sg64
(lp91
S':'
asbag57
(g78
g59
NtRp92
(dp93
g62
(dp94
sg71
g74
sg64
(lp95
g57
(g58
g59
NtRp96
(dp97
g62
(dp98
g70
I5
ssg71
g92
sg64
(lp99
S'True'
p100
asbasbasbag57
(g73
g59
NtRp101
(dp102
g62
(dp103
sg71
g67
sg64
(lp104
g57
(g78
g59
NtRp105
(dp106
g62
(dp107
g82
g83
ssg71
g101
sg64
(lp108
S'application'
p109
asbag57
(g78
g59
NtRp110
(dp111
g62
(dp112
g89
g90
ssg71
g101
sg64
(lp113
S':'
asbag57
(g78
g59
NtRp114
(dp115
g62
(dp116
sg71
g101
sg64
(lp117
g57
(g58
g59
NtRp118
(dp119
g62
(dp120
g70
I5
ssg71
g114
sg64
(lp121
S'WSD'
p122
asbasbasbag57
(g73
g59
NtRp123
(dp124
g62
(dp125
sg71
g67
sg64
(lp126
g57
(g78
g59
NtRp127
(dp128
g62
(dp129
g82
g83
ssg71
g123
sg64
(lp130
g42
asbag57
(g78
g59
NtRp131
(dp132
g62
(dp133
g89
g90
ssg71
g123
sg64
(lp134
S':'
asbag57
(g78
g59
NtRp135
(dp136
g62
(dp137
sg71
g123
sg64
(lp138
g57
(g58
g59
NtRp139
(dp140
g62
(dp141
g70
I5
ssg71
g135
sg64
(lp142
g57
(g66
g59
NtRp143
(dp144
g62
(dp145
g70
I4
ssg71
Nsg64
(lp146
sbasbasbasbag57
(g73
g59
NtRp147
(dp148
g62
(dp149
sg71
g67
sg64
(lp150
g57
(g78
g59
NtRp151
(dp152
g62
(dp153
g82
g83
ssg71
g147
sg64
(lp154
S'body'
p155
asbag57
(g78
g59
NtRp156
(dp157
g62
(dp158
g89
g90
ssg71
g147
sg64
(lp159
S':'
asbag57
(g78
g59
NtRp160
(dp161
g62
(dp162
sg71
g147
sg64
(lp163
g57
(g58
g59
NtRp164
(dp165
g62
(dp166
g70
I5
ssg71
g160
sg64
(lp167
S"<open file '<fdopen>', mode 'w+b' at 0xb4749cd8>"
p168
asbasbasbag57
(g73
g59
NtRp169
(dp170
g62
(dp171
sg71
g67
sg64
(lp172
g57
(g78
g59
NtRp173
(dp174
g62
(dp175
g82
g83
ssg71
g169
sg64
(lp176
S'cid'
p177
asbag57
(g78
g59
NtRp178
(dp179
g62
(dp180
g89
g90
ssg71
g169
sg64
(lp181
S':'
asbag57
(g78
g59
NtRp182
(dp183
g62
(dp184
sg71
g169
sg64
(lp185
g57
(g58
g59
NtRp186
(dp187
g62
(dp188
g70
I5
ssg71
g182
sg64
(lp189
S'None'
p190
asbasbasbag57
(g73
g59
NtRp191
(dp192
g62
(dp193
sg71
g67
sg64
(lp194
g57
(g78
g59
NtRp195
(dp196
g62
(dp197
g82
g83
ssg71
g191
sg64
(lp198
S'client'
p199
asbag57
(g78
g59
NtRp200
(dp201
g62
(dp202
g89
g90
ssg71
g191
sg64
(lp203
S':'
asbag57
(g78
g59
NtRp204
(dp205
g62
(dp206
sg71
g191
sg64
(lp207
g57
(g58
g59
NtRp208
(dp209
g62
(dp210
g70
I5
ssg71
g204
sg64
(lp211
S'127.0.0.1'
p212
asbasbasbag57
(g73
g59
NtRp213
(dp214
g62
(dp215
sg71
g67
sg64
(lp216
g57
(g78
g59
NtRp217
(dp218
g62
(dp219
g82
g83
ssg71
g213
sg64
(lp220
S'controller'
p221
asbag57
(g78
g59
NtRp222
(dp223
g62
(dp224
g89
g90
ssg71
g213
sg64
(lp225
S':'
asbag57
(g78
g59
NtRp226
(dp227
g62
(dp228
sg71
g213
sg64
(lp229
g57
(g58
g59
NtRp230
(dp231
g62
(dp232
g70
I5
ssg71
g226
sg64
(lp233
S'default'
p234
asbasbasbag57
(g73
g59
NtRp235
(dp236
g62
(dp237
sg71
g67
sg64
(lp238
g57
(g78
g59
NtRp239
(dp240
g62
(dp241
g82
g83
ssg71
g235
sg64
(lp242
S'cookies'
p243
asbag57
(g78
g59
NtRp244
(dp245
g62
(dp246
g89
g90
ssg71
g235
sg64
(lp247
S':'
asbag57
(g78
g59
NtRp248
(dp249
g62
(dp250
sg71
g235
sg64
(lp251
g57
(g58
g59
NtRp252
(dp253
g62
(dp254
g70
I5
ssg71
g248
sg64
(lp255
g57
(g66
g59
NtRp256
(dp257
g62
(dp258
g70
I4
ssg71
Nsg64
(lp259
g57
(g73
g59
NtRp260
(dp261
g62
(dp262
sg71
g256
sg64
(lp263
g57
(g78
g59
NtRp264
(dp265
g62
(dp266
g82
g83
ssg71
g260
sg64
(lp267
S'KBD'
p268
asbag57
(g78
g59
NtRp269
(dp270
g62
(dp271
g89
g90
ssg71
g260
sg64
(lp272
S':'
asbag57
(g78
g59
NtRp273
(dp274
g62
(dp275
sg71
g260
sg64
(lp276
g57
(g58
g59
NtRp277
(dp278
g62
(dp279
g70
I4
ssg71
g273
sg64
(lp280
S'0hi-0'
p281
ag57
(g66
g59
NtRp282
(dp283
g62
(dp284
g70
I3
ssg71
Nsg64
(lp285
g57
(g73
g59
NtRp286
(dp287
g62
(dp288
sg71
g282
sg64
(lp289
g57
(g78
g59
NtRp290
(dp291
g62
(dp292
g82
g83
ssg71
g286
sg64
(lp293
S'comment'
p294
asbag57
(g78
g59
NtRp295
(dp296
g62
(dp297
g89
g90
ssg71
g286
sg64
(lp298
S':'
asbag57
(g78
g59
NtRp299
(dp300
g62
(dp301
sg71
g286
sg64
(lp302
g57
(g58
g59
NtRp303
(dp304
g62
(dp305
g70
I3
ssg71
g299
sg64
(lp306
S''
asbasbasbag57
(g73
g59
NtRp307
(dp308
g62
(dp309
sg71
g282
sg64
(lp310
g57
(g78
g59
NtRp311
(dp312
g62
(dp313
g82
g83
ssg71
g307
sg64
(lp314
S'domain'
p315
asbag57
(g78
g59
NtRp316
(dp317
g62
(dp318
g89
g90
ssg71
g307
sg64
(lp319
S':'
asbag57
(g78
g59
NtRp320
(dp321
g62
(dp322
sg71
g307
sg64
(lp323
g57
(g58
g59
NtRp324
(dp325
g62
(dp326
g70
I3
ssg71
g320
sg64
(lp327
S''
asbasbasbag57
(g73
g59
NtRp328
(dp329
g62
(dp330
sg71
g282
sg64
(lp331
g57
(g78
g59
NtRp332
(dp333
g62
(dp334
g82
g83
ssg71
g328
sg64
(lp335
S'expires'
p336
asbag57
(g78
g59
NtRp337
(dp338
g62
(dp339
g89
g90
ssg71
g328
sg64
(lp340
S':'
asbag57
(g78
g59
NtRp341
(dp342
g62
(dp343
sg71
g328
sg64
(lp344
g57
(g58
g59
NtRp345
(dp346
g62
(dp347
g70
I3
ssg71
g341
sg64
(lp348
S''
asbasbasbag57
(g73
g59
NtRp349
(dp350
g62
(dp351
sg71
g282
sg64
(lp352
g57
(g78
g59
NtRp353
(dp354
g62
(dp355
g82
g83
ssg71
g349
sg64
(lp356
S'httponly'
p357
asbag57
(g78
g59
NtRp358
(dp359
g62
(dp360
g89
g90
ssg71
g349
sg64
(lp361
S':'
asbag57
(g78
g59
NtRp362
(dp363
g62
(dp364
sg71
g349
sg64
(lp365
g57
(g58
g59
NtRp366
(dp367
g62
(dp368
g70
I3
ssg71
g362
sg64
(lp369
S''
asbasbasbag57
(g73
g59
NtRp370
(dp371
g62
(dp372
sg71
g282
sg64
(lp373
g57
(g78
g59
NtRp374
(dp375
g62
(dp376
g82
g83
ssg71
g370
sg64
(lp377
S'max-age'
p378
asbag57
(g78
g59
NtRp379
(dp380
g62
(dp381
g89
g90
ssg71
g370
sg64
(lp382
S':'
asbag57
(g78
g59
NtRp383
(dp384
g62
(dp385
sg71
g370
sg64
(lp386
g57
(g58
g59
NtRp387
(dp388
g62
(dp389
g70
I3
ssg71
g383
sg64
(lp390
S''
asbasbasbag57
(g73
g59
NtRp391
(dp392
g62
(dp393
sg71
g282
sg64
(lp394
g57
(g78
g59
NtRp395
(dp396
g62
(dp397
g82
g83
ssg71
g391
sg64
(lp398
S'path'
p399
asbag57
(g78
g59
NtRp400
(dp401
g62
(dp402
g89
g90
ssg71
g391
sg64
(lp403
S':'
asbag57
(g78
g59
NtRp404
(dp405
g62
(dp406
sg71
g391
sg64
(lp407
g57
(g58
g59
NtRp408
(dp409
g62
(dp410
g70
I3
ssg71
g404
sg64
(lp411
S''
asbasbasbag57
(g73
g59
NtRp412
(dp413
g62
(dp414
sg71
g282
sg64
(lp415
g57
(g78
g59
NtRp416
(dp417
g62
(dp418
g82
g83
ssg71
g412
sg64
(lp419
S'secure'
p420
asbag57
(g78
g59
NtRp421
(dp422
g62
(dp423
g89
g90
ssg71
g412
sg64
(lp424
S':'
asbag57
(g78
g59
NtRp425
(dp426
g62
(dp427
sg71
g412
sg64
(lp428
g57
(g58
g59
NtRp429
(dp430
g62
(dp431
g70
I3
ssg71
g425
sg64
(lp432
S''
asbasbasbag57
(g73
g59
NtRp433
(dp434
g62
(dp435
sg71
g282
sg64
(lp436
g57
(g78
g59
NtRp437
(dp438
g62
(dp439
g82
g83
ssg71
g433
sg64
(lp440
S'version'
p441
asbag57
(g78
g59
NtRp442
(dp443
g62
(dp444
g89
g90
ssg71
g433
sg64
(lp445
S':'
asbag57
(g78
g59
NtRp446
(dp447
g62
(dp448
sg71
g433
sg64
(lp449
g57
(g58
g59
NtRp450
(dp451
g62
(dp452
g70
I3
ssg71
g446
sg64
(lp453
S''
asbasbasbasbasbasbasbag57
(g73
g59
NtRp454
(dp455
g62
(dp456
sg71
g256
sg64
(lp457
g57
(g78
g59
NtRp458
(dp459
g62
(dp460
g82
g83
ssg71
g454
sg64
(lp461
S'session_id_admin'
p462
asbag57
(g78
g59
NtRp463
(dp464
g62
(dp465
g89
g90
ssg71
g454
sg64
(lp466
S':'
asbag57
(g78
g59
NtRp467
(dp468
g62
(dp469
sg71
g454
sg64
(lp470
g57
(g58
g59
NtRp471
(dp472
g62
(dp473
g70
I4
ssg71
g467
sg64
(lp474
S'127.0.0.1-76a862a2-9a71-40a1-95b6-27d29da4fe5d'
p475
ag57
(g66
g59
NtRp476
(dp477
g62
(dp478
g70
I3
ssg71
Nsg64
(lp479
g57
(g73
g59
NtRp480
(dp481
g62
(dp482
sg71
g476
sg64
(lp483
g57
(g78
g59
NtRp484
(dp485
g62
(dp486
g82
g83
ssg71
g480
sg64
(lp487
g294
asbag57
(g78
g59
NtRp488
(dp489
g62
(dp490
g89
g90
ssg71
g480
sg64
(lp491
S':'
asbag57
(g78
g59
NtRp492
(dp493
g62
(dp494
sg71
g480
sg64
(lp495
g57
(g58
g59
NtRp496
(dp497
g62
(dp498
g70
I3
ssg71
g492
sg64
(lp499
S''
asbasbasbag57
(g73
g59
NtRp500
(dp501
g62
(dp502
sg71
g476
sg64
(lp503
g57
(g78
g59
NtRp504
(dp505
g62
(dp506
g82
g83
ssg71
g500
sg64
(lp507
g315
asbag57
(g78
g59
NtRp508
(dp509
g62
(dp510
g89
g90
ssg71
g500
sg64
(lp511
S':'
asbag57
(g78
g59
NtRp512
(dp513
g62
(dp514
sg71
g500
sg64
(lp515
g57
(g58
g59
NtRp516
(dp517
g62
(dp518
g70
I3
ssg71
g512
sg64
(lp519
S''
asbasbasbag57
(g73
g59
NtRp520
(dp521
g62
(dp522
sg71
g476
sg64
(lp523
g57
(g78
g59
NtRp524
(dp525
g62
(dp526
g82
g83
ssg71
g520
sg64
(lp527
g336
asbag57
(g78
g59
NtRp528
(dp529
g62
(dp530
g89
g90
ssg71
g520
sg64
(lp531
S':'
asbag57
(g78
g59
NtRp532
(dp533
g62
(dp534
sg71
g520
sg64
(lp535
g57
(g58
g59
NtRp536
(dp537
g62
(dp538
g70
I3
ssg71
g532
sg64
(lp539
S''
asbasbasbag57
(g73
g59
NtRp540
(dp541
g62
(dp542
sg71
g476
sg64
(lp543
g57
(g78
g59
NtRp544
(dp545
g62
(dp546
g82
g83
ssg71
g540
sg64
(lp547
g357
asbag57
(g78
g59
NtRp548
(dp549
g62
(dp550
g89
g90
ssg71
g540
sg64
(lp551
S':'
asbag57
(g78
g59
NtRp552
(dp553
g62
(dp554
sg71
g540
sg64
(lp555
g57
(g58
g59
NtRp556
(dp557
g62
(dp558
g70
I3
ssg71
g552
sg64
(lp559
S''
asbasbasbag57
(g73
g59
NtRp560
(dp561
g62
(dp562
sg71
g476
sg64
(lp563
g57
(g78
g59
NtRp564
(dp565
g62
(dp566
g82
g83
ssg71
g560
sg64
(lp567
g378
asbag57
(g78
g59
NtRp568
(dp569
g62
(dp570
g89
g90
ssg71
g560
sg64
(lp571
S':'
asbag57
(g78
g59
NtRp572
(dp573
g62
(dp574
sg71
g560
sg64
(lp575
g57
(g58
g59
NtRp576
(dp577
g62
(dp578
g70
I3
ssg71
g572
sg64
(lp579
S''
asbasbasbag57
(g73
g59
NtRp580
(dp581
g62
(dp582
sg71
g476
sg64
(lp583
g57
(g78
g59
NtRp584
(dp585
g62
(dp586
g82
g83
ssg71
g580
sg64
(lp587
g399
asbag57
(g78
g59
NtRp588
(dp589
g62
(dp590
g89
g90
ssg71
g580
sg64
(lp591
S':'
asbag57
(g78
g59
NtRp592
(dp593
g62
(dp594
sg71
g580
sg64
(lp595
g57
(g58
g59
NtRp596
(dp597
g62
(dp598
g70
I3
ssg71
g592
sg64
(lp599
S''
asbasbasbag57
(g73
g59
NtRp600
(dp601
g62
(dp602
sg71
g476
sg64
(lp603
g57
(g78
g59
NtRp604
(dp605
g62
(dp606
g82
g83
ssg71
g600
sg64
(lp607
g420
asbag57
(g78
g59
NtRp608
(dp609
g62
(dp610
g89
g90
ssg71
g600
sg64
(lp611
S':'
asbag57
(g78
g59
NtRp612
(dp613
g62
(dp614
sg71
g600
sg64
(lp615
g57
(g58
g59
NtRp616
(dp617
g62
(dp618
g70
I3
ssg71
g612
sg64
(lp619
S''
asbasbasbag57
(g73
g59
NtRp620
(dp621
g62
(dp622
sg71
g476
sg64
(lp623
g57
(g78
g59
NtRp624
(dp625
g62
(dp626
g82
g83
ssg71
g620
sg64
(lp627
g441
asbag57
(g78
g59
NtRp628
(dp629
g62
(dp630
g89
g90
ssg71
g620
sg64
(lp631
S':'
asbag57
(g78
g59
NtRp632
(dp633
g62
(dp634
sg71
g620
sg64
(lp635
g57
(g58
g59
NtRp636
(dp637
g62
(dp638
g70
I3
ssg71
g632
sg64
(lp639
S''
asbasbasbasbasbasbasbag57
(g73
g59
NtRp640
(dp641
g62
(dp642
sg71
g256
sg64
(lp643
g57
(g78
g59
NtRp644
(dp645
g62
(dp646
g82
g83
ssg71
g640
sg64
(lp647
S'session_id_news'
p648
asbag57
(g78
g59
NtRp649
(dp650
g62
(dp651
g89
g90
ssg71
g640
sg64
(lp652
S':'
asbag57
(g78
g59
NtRp653
(dp654
g62
(dp655
sg71
g640
sg64
(lp656
g57
(g58
g59
NtRp657
(dp658
g62
(dp659
g70
I4
ssg71
g653
sg64
(lp660
S'127.0.0.1-4eea093e-3431-4797-bd7a-1e49bcb534a8'
p661
ag57
(g66
g59
NtRp662
(dp663
g62
(dp664
g70
I3
ssg71
Nsg64
(lp665
g57
(g73
g59
NtRp666
(dp667
g62
(dp668
sg71
g662
sg64
(lp669
g57
(g78
g59
NtRp670
(dp671
g62
(dp672
g82
g83
ssg71
g666
sg64
(lp673
g294
asbag57
(g78
g59
NtRp674
(dp675
g62
(dp676
g89
g90
ssg71
g666
sg64
(lp677
S':'
asbag57
(g78
g59
NtRp678
(dp679
g62
(dp680
sg71
g666
sg64
(lp681
g57
(g58
g59
NtRp682
(dp683
g62
(dp684
g70
I3
ssg71
g678
sg64
(lp685
S''
asbasbasbag57
(g73
g59
NtRp686
(dp687
g62
(dp688
sg71
g662
sg64
(lp689
g57
(g78
g59
NtRp690
(dp691
g62
(dp692
g82
g83
ssg71
g686
sg64
(lp693
g315
asbag57
(g78
g59
NtRp694
(dp695
g62
(dp696
g89
g90
ssg71
g686
sg64
(lp697
S':'
asbag57
(g78
g59
NtRp698
(dp699
g62
(dp700
sg71
g686
sg64
(lp701
g57
(g58
g59
NtRp702
(dp703
g62
(dp704
g70
I3
ssg71
g698
sg64
(lp705
S''
asbasbasbag57
(g73
g59
NtRp706
(dp707
g62
(dp708
sg71
g662
sg64
(lp709
g57
(g78
g59
NtRp710
(dp711
g62
(dp712
g82
g83
ssg71
g706
sg64
(lp713
g336
asbag57
(g78
g59
NtRp714
(dp715
g62
(dp716
g89
g90
ssg71
g706
sg64
(lp717
S':'
asbag57
(g78
g59
NtRp718
(dp719
g62
(dp720
sg71
g706
sg64
(lp721
g57
(g58
g59
NtRp722
(dp723
g62
(dp724
g70
I3
ssg71
g718
sg64
(lp725
S''
asbasbasbag57
(g73
g59
NtRp726
(dp727
g62
(dp728
sg71
g662
sg64
(lp729
g57
(g78
g59
NtRp730
(dp731
g62
(dp732
g82
g83
ssg71
g726
sg64
(lp733
g357
asbag57
(g78
g59
NtRp734
(dp735
g62
(dp736
g89
g90
ssg71
g726
sg64
(lp737
S':'
asbag57
(g78
g59
NtRp738
(dp739
g62
(dp740
sg71
g726
sg64
(lp741
g57
(g58
g59
NtRp742
(dp743
g62
(dp744
g70
I3
ssg71
g738
sg64
(lp745
S''
asbasbasbag57
(g73
g59
NtRp746
(dp747
g62
(dp748
sg71
g662
sg64
(lp749
g57
(g78
g59
NtRp750
(dp751
g62
(dp752
g82
g83
ssg71
g746
sg64
(lp753
g378
asbag57
(g78
g59
NtRp754
(dp755
g62
(dp756
g89
g90
ssg71
g746
sg64
(lp757
S':'
asbag57
(g78
g59
NtRp758
(dp759
g62
(dp760
sg71
g746
sg64
(lp761
g57
(g58
g59
NtRp762
(dp763
g62
(dp764
g70
I3
ssg71
g758
sg64
(lp765
S''
asbasbasbag57
(g73
g59
NtRp766
(dp767
g62
(dp768
sg71
g662
sg64
(lp769
g57
(g78
g59
NtRp770
(dp771
g62
(dp772
g82
g83
ssg71
g766
sg64
(lp773
g399
asbag57
(g78
g59
NtRp774
(dp775
g62
(dp776
g89
g90
ssg71
g766
sg64
(lp777
S':'
asbag57
(g78
g59
NtRp778
(dp779
g62
(dp780
sg71
g766
sg64
(lp781
g57
(g58
g59
NtRp782
(dp783
g62
(dp784
g70
I3
ssg71
g778
sg64
(lp785
S''
asbasbasbag57
(g73
g59
NtRp786
(dp787
g62
(dp788
sg71
g662
sg64
(lp789
g57
(g78
g59
NtRp790
(dp791
g62
(dp792
g82
g83
ssg71
g786
sg64
(lp793
g420
asbag57
(g78
g59
NtRp794
(dp795
g62
(dp796
g89
g90
ssg71
g786
sg64
(lp797
S':'
asbag57
(g78
g59
NtRp798
(dp799
g62
(dp800
sg71
g786
sg64
(lp801
g57
(g58
g59
NtRp802
(dp803
g62
(dp804
g70
I3
ssg71
g798
sg64
(lp805
S''
asbasbasbag57
(g73
g59
NtRp806
(dp807
g62
(dp808
sg71
g662
sg64
(lp809
g57
(g78
g59
NtRp810
(dp811
g62
(dp812
g82
g83
ssg71
g806
sg64
(lp813
g441
asbag57
(g78
g59
NtRp814
(dp815
g62
(dp816
g89
g90
ssg71
g806
sg64
(lp817
S':'
asbag57
(g78
g59
NtRp818
(dp819
g62
(dp820
sg71
g806
sg64
(lp821
g57
(g58
g59
NtRp822
(dp823
g62
(dp824
g70
I3
ssg71
g818
sg64
(lp825
S''
asbasbasbasbasbasbasbag57
(g73
g59
NtRp826
(dp827
g62
(dp828
sg71
g256
sg64
(lp829
g57
(g78
g59
NtRp830
(dp831
g62
(dp832
g82
g83
ssg71
g826
sg64
(lp833
S'session_id_welcome'
p834
asbag57
(g78
g59
NtRp835
(dp836
g62
(dp837
g89
g90
ssg71
g826
sg64
(lp838
S':'
asbag57
(g78
g59
NtRp839
(dp840
g62
(dp841
sg71
g826
sg64
(lp842
g57
(g58
g59
NtRp843
(dp844
g62
(dp845
g70
I4
ssg71
g839
sg64
(lp846
S'127.0.0.1-4ab9dacb-7270-459d-aef4-f28bb3d059e1'
p847
ag57
(g66
g59
NtRp848
(dp849
g62
(dp850
g70
I3
ssg71
Nsg64
(lp851
g57
(g73
g59
NtRp852
(dp853
g62
(dp854
sg71
g848
sg64
(lp855
g57
(g78
g59
NtRp856
(dp857
g62
(dp858
g82
g83
ssg71
g852
sg64
(lp859
g294
asbag57
(g78
g59
NtRp860
(dp861
g62
(dp862
g89
g90
ssg71
g852
sg64
(lp863
S':'
asbag57
(g78
g59
NtRp864
(dp865
g62
(dp866
sg71
g852
sg64
(lp867
g57
(g58
g59
NtRp868
(dp869
g62
(dp870
g70
I3
ssg71
g864
sg64
(lp871
S''
asbasbasbag57
(g73
g59
NtRp872
(dp873
g62
(dp874
sg71
g848
sg64
(lp875
g57
(g78
g59
NtRp876
(dp877
g62
(dp878
g82
g83
ssg71
g872
sg64
(lp879
g315
asbag57
(g78
g59
NtRp880
(dp881
g62
(dp882
g89
g90
ssg71
g872
sg64
(lp883
S':'
asbag57
(g78
g59
NtRp884
(dp885
g62
(dp886
sg71
g872
sg64
(lp887
g57
(g58
g59
NtRp888
(dp889
g62
(dp890
g70
I3
ssg71
g884
sg64
(lp891
S''
asbasbasbag57
(g73
g59
NtRp892
(dp893
g62
(dp894
sg71
g848
sg64
(lp895
g57
(g78
g59
NtRp896
(dp897
g62
(dp898
g82
g83
ssg71
g892
sg64
(lp899
g336
asbag57
(g78
g59
NtRp900
(dp901
g62
(dp902
g89
g90
ssg71
g892
sg64
(lp903
S':'
asbag57
(g78
g59
NtRp904
(dp905
g62
(dp906
sg71
g892
sg64
(lp907
g57
(g58
g59
NtRp908
(dp909
g62
(dp910
g70
I3
ssg71
g904
sg64
(lp911
S''
asbasbasbag57
(g73
g59
NtRp912
(dp913
g62
(dp914
sg71
g848
sg64
(lp915
g57
(g78
g59
NtRp916
(dp917
g62
(dp918
g82
g83
ssg71
g912
sg64
(lp919
g357
asbag57
(g78
g59
NtRp920
(dp921
g62
(dp922
g89
g90
ssg71
g912
sg64
(lp923
S':'
asbag57
(g78
g59
NtRp924
(dp925
g62
(dp926
sg71
g912
sg64
(lp927
g57
(g58
g59
NtRp928
(dp929
g62
(dp930
g70
I3
ssg71
g924
sg64
(lp931
S''
asbasbasbag57
(g73
g59
NtRp932
(dp933
g62
(dp934
sg71
g848
sg64
(lp935
g57
(g78
g59
NtRp936
(dp937
g62
(dp938
g82
g83
ssg71
g932
sg64
(lp939
g378
asbag57
(g78
g59
NtRp940
(dp941
g62
(dp942
g89
g90
ssg71
g932
sg64
(lp943
S':'
asbag57
(g78
g59
NtRp944
(dp945
g62
(dp946
sg71
g932
sg64
(lp947
g57
(g58
g59
NtRp948
(dp949
g62
(dp950
g70
I3
ssg71
g944
sg64
(lp951
S''
asbasbasbag57
(g73
g59
NtRp952
(dp953
g62
(dp954
sg71
g848
sg64
(lp955
g57
(g78
g59
NtRp956
(dp957
g62
(dp958
g82
g83
ssg71
g952
sg64
(lp959
g399
asbag57
(g78
g59
NtRp960
(dp961
g62
(dp962
g89
g90
ssg71
g952
sg64
(lp963
S':'
asbag57
(g78
g59
NtRp964
(dp965
g62
(dp966
sg71
g952
sg64
(lp967
g57
(g58
g59
NtRp968
(dp969
g62
(dp970
g70
I3
ssg71
g964
sg64
(lp971
S''
asbasbasbag57
(g73
g59
NtRp972
(dp973
g62
(dp974
sg71
g848
sg64
(lp975
g57
(g78
g59
NtRp976
(dp977
g62
(dp978
g82
g83
ssg71
g972
sg64
(lp979
g420
asbag57
(g78
g59
NtRp980
(dp981
g62
(dp982
g89
g90
ssg71
g972
sg64
(lp983
S':'
asbag57
(g78
g59
NtRp984
(dp985
g62
(dp986
sg71
g972
sg64
(lp987
g57
(g58
g59
NtRp988
(dp989
g62
(dp990
g70
I3
ssg71
g984
sg64
(lp991
S''
asbasbasbag57
(g73
g59
NtRp992
(dp993
g62
(dp994
sg71
g848
sg64
(lp995
g57
(g78
g59
NtRp996
(dp997
g62
(dp998
g82
g83
ssg71
g992
sg64
(lp999
g441
asbag57
(g78
g59
NtRp1000
(dp1001
g62
(dp1002
g89
g90
ssg71
g992
sg64
(lp1003
S':'
asbag57
(g78
g59
NtRp1004
(dp1005
g62
(dp1006
sg71
g992
sg64
(lp1007
g57
(g58
g59
NtRp1008
(dp1009
g62
(dp1010
g70
I3
ssg71
g1004
sg64
(lp1011
S''
asbasbasbasbasbasbasbag57
(g73
g59
NtRp1012
(dp1013
g62
(dp1014
sg71
g256
sg64
(lp1015
g57
(g78
g59
NtRp1016
(dp1017
g62
(dp1018
g82
g83
ssg71
g1012
sg64
(lp1019
S'session_id_wsd'
p1020
asbag57
(g78
g59
NtRp1021
(dp1022
g62
(dp1023
g89
g90
ssg71
g1012
sg64
(lp1024
S':'
asbag57
(g78
g59
NtRp1025
(dp1026
g62
(dp1027
sg71
g1012
sg64
(lp1028
g57
(g58
g59
NtRp1029
(dp1030
g62
(dp1031
g70
I4
ssg71
g1025
sg64
(lp1032
S'127.0.0.1-d76d2f66-a702-4d08-8b16-65a16f46815e'
p1033
ag57
(g66
g59
NtRp1034
(dp1035
g62
(dp1036
g70
I3
ssg71
Nsg64
(lp1037
g57
(g73
g59
NtRp1038
(dp1039
g62
(dp1040
sg71
g1034
sg64
(lp1041
g57
(g78
g59
NtRp1042
(dp1043
g62
(dp1044
g82
g83
ssg71
g1038
sg64
(lp1045
g294
asbag57
(g78
g59
NtRp1046
(dp1047
g62
(dp1048
g89
g90
ssg71
g1038
sg64
(lp1049
S':'
asbag57
(g78
g59
NtRp1050
(dp1051
g62
(dp1052
sg71
g1038
sg64
(lp1053
g57
(g58
g59
NtRp1054
(dp1055
g62
(dp1056
g70
I3
ssg71
g1050
sg64
(lp1057
S''
asbasbasbag57
(g73
g59
NtRp1058
(dp1059
g62
(dp1060
sg71
g1034
sg64
(lp1061
g57
(g78
g59
NtRp1062
(dp1063
g62
(dp1064
g82
g83
ssg71
g1058
sg64
(lp1065
g315
asbag57
(g78
g59
NtRp1066
(dp1067
g62
(dp1068
g89
g90
ssg71
g1058
sg64
(lp1069
S':'
asbag57
(g78
g59
NtRp1070
(dp1071
g62
(dp1072
sg71
g1058
sg64
(lp1073
g57
(g58
g59
NtRp1074
(dp1075
g62
(dp1076
g70
I3
ssg71
g1070
sg64
(lp1077
S''
asbasbasbag57
(g73
g59
NtRp1078
(dp1079
g62
(dp1080
sg71
g1034
sg64
(lp1081
g57
(g78
g59
NtRp1082
(dp1083
g62
(dp1084
g82
g83
ssg71
g1078
sg64
(lp1085
g336
asbag57
(g78
g59
NtRp1086
(dp1087
g62
(dp1088
g89
g90
ssg71
g1078
sg64
(lp1089
S':'
asbag57
(g78
g59
NtRp1090
(dp1091
g62
(dp1092
sg71
g1078
sg64
(lp1093
g57
(g58
g59
NtRp1094
(dp1095
g62
(dp1096
g70
I3
ssg71
g1090
sg64
(lp1097
S''
asbasbasbag57
(g73
g59
NtRp1098
(dp1099
g62
(dp1100
sg71
g1034
sg64
(lp1101
g57
(g78
g59
NtRp1102
(dp1103
g62
(dp1104
g82
g83
ssg71
g1098
sg64
(lp1105
g357
asbag57
(g78
g59
NtRp1106
(dp1107
g62
(dp1108
g89
g90
ssg71
g1098
sg64
(lp1109
S':'
asbag57
(g78
g59
NtRp1110
(dp1111
g62
(dp1112
sg71
g1098
sg64
(lp1113
g57
(g58
g59
NtRp1114
(dp1115
g62
(dp1116
g70
I3
ssg71
g1110
sg64
(lp1117
S''
asbasbasbag57
(g73
g59
NtRp1118
(dp1119
g62
(dp1120
sg71
g1034
sg64
(lp1121
g57
(g78
g59
NtRp1122
(dp1123
g62
(dp1124
g82
g83
ssg71
g1118
sg64
(lp1125
g378
asbag57
(g78
g59
NtRp1126
(dp1127
g62
(dp1128
g89
g90
ssg71
g1118
sg64
(lp1129
S':'
asbag57
(g78
g59
NtRp1130
(dp1131
g62
(dp1132
sg71
g1118
sg64
(lp1133
g57
(g58
g59
NtRp1134
(dp1135
g62
(dp1136
g70
I3
ssg71
g1130
sg64
(lp1137
S''
asbasbasbag57
(g73
g59
NtRp1138
(dp1139
g62
(dp1140
sg71
g1034
sg64
(lp1141
g57
(g78
g59
NtRp1142
(dp1143
g62
(dp1144
g82
g83
ssg71
g1138
sg64
(lp1145
g399
asbag57
(g78
g59
NtRp1146
(dp1147
g62
(dp1148
g89
g90
ssg71
g1138
sg64
(lp1149
S':'
asbag57
(g78
g59
NtRp1150
(dp1151
g62
(dp1152
sg71
g1138
sg64
(lp1153
g57
(g58
g59
NtRp1154
(dp1155
g62
(dp1156
g70
I3
ssg71
g1150
sg64
(lp1157
S''
asbasbasbag57
(g73
g59
NtRp1158
(dp1159
g62
(dp1160
sg71
g1034
sg64
(lp1161
g57
(g78
g59
NtRp1162
(dp1163
g62
(dp1164
g82
g83
ssg71
g1158
sg64
(lp1165
g420
asbag57
(g78
g59
NtRp1166
(dp1167
g62
(dp1168
g89
g90
ssg71
g1158
sg64
(lp1169
S':'
asbag57
(g78
g59
NtRp1170
(dp1171
g62
(dp1172
sg71
g1158
sg64
(lp1173
g57
(g58
g59
NtRp1174
(dp1175
g62
(dp1176
g70
I3
ssg71
g1170
sg64
(lp1177
S''
asbasbasbag57
(g73
g59
NtRp1178
(dp1179
g62
(dp1180
sg71
g1034
sg64
(lp1181
g57
(g78
g59
NtRp1182
(dp1183
g62
(dp1184
g82
g83
ssg71
g1178
sg64
(lp1185
g441
asbag57
(g78
g59
NtRp1186
(dp1187
g62
(dp1188
g89
g90
ssg71
g1178
sg64
(lp1189
S':'
asbag57
(g78
g59
NtRp1190
(dp1191
g62
(dp1192
sg71
g1178
sg64
(lp1193
g57
(g58
g59
NtRp1194
(dp1195
g62
(dp1196
g70
I3
ssg71
g1190
sg64
(lp1197
S''
asbasbasbasbasbasbasbasbasbasbasbag57
(g73
g59
NtRp1198
(dp1199
g62
(dp1200
sg71
g67
sg64
(lp1201
g57
(g78
g59
NtRp1202
(dp1203
g62
(dp1204
g82
g83
ssg71
g1198
sg64
(lp1205
S'env'
p1206
asbag57
(g78
g59
NtRp1207
(dp1208
g62
(dp1209
g89
g90
ssg71
g1198
sg64
(lp1210
S':'
asbag57
(g78
g59
NtRp1211
(dp1212
g62
(dp1213
sg71
g1198
sg64
(lp1214
g57
(g58
g59
NtRp1215
(dp1216
g62
(dp1217
g70
I5
ssg71
g1211
sg64
(lp1218
g57
(g66
g59
NtRp1219
(dp1220
g62
(dp1221
g70
I4
ssg71
Nsg64
(lp1222
g57
(g73
g59
NtRp1223
(dp1224
g62
(dp1225
sg71
g1219
sg64
(lp1226
g57
(g78
g59
NtRp1227
(dp1228
g62
(dp1229
g82
g83
ssg71
g1223
sg64
(lp1230
S'app_folders'
p1231
asbag57
(g78
g59
NtRp1232
(dp1233
g62
(dp1234
g89
g90
ssg71
g1223
sg64
(lp1235
S':'
asbag57
(g78
g59
NtRp1236
(dp1237
g62
(dp1238
sg71
g1223
sg64
(lp1239
g57
(g58
g59
NtRp1240
(dp1241
g62
(dp1242
g70
I4
ssg71
g1236
sg64
(lp1243
S"set(['/home/nazrul/web2py/applications/WSD/', '/home/nazrul/web2py/applications/welcome/', '/home/nazrul/web2py/applications/news/', '/home/nazrul/web2py/applications/admin/'])"
p1244
asbasbasbag57
(g73
g59
NtRp1245
(dp1246
g62
(dp1247
sg71
g1219
sg64
(lp1248
g57
(g78
g59
NtRp1249
(dp1250
g62
(dp1251
g82
g83
ssg71
g1245
sg64
(lp1252
S'applications_parent'
p1253
asbag57
(g78
g59
NtRp1254
(dp1255
g62
(dp1256
g89
g90
ssg71
g1245
sg64
(lp1257
S':'
asbag57
(g78
g59
NtRp1258
(dp1259
g62
(dp1260
sg71
g1245
sg64
(lp1261
g57
(g58
g59
NtRp1262
(dp1263
g62
(dp1264
g70
I4
ssg71
g1258
sg64
(lp1265
S'/home/nazrul/web2py'
p1266
asbasbasbag57
(g73
g59
NtRp1267
(dp1268
g62
(dp1269
sg71
g1219
sg64
(lp1270
g57
(g78
g59
NtRp1271
(dp1272
g62
(dp1273
g82
g83
ssg71
g1267
sg64
(lp1274
S'cmd_args'
p1275
asbag57
(g78
g59
NtRp1276
(dp1277
g62
(dp1278
g89
g90
ssg71
g1267
sg64
(lp1279
S':'
asbag57
(g78
g59
NtRp1280
(dp1281
g62
(dp1282
sg71
g1267
sg64
(lp1283
g57
(g58
g59
NtRp1284
(dp1285
g62
(dp1286
g70
I4
ssg71
g1280
sg64
(lp1287
g57
(g66
g59
NtRp1288
(dp1289
g62
(dp1290
g70
I3
ssg71
Nsg64
(lp1291
sbasbasbasbag57
(g73
g59
NtRp1292
(dp1293
g62
(dp1294
sg71
g1219
sg64
(lp1295
g57
(g78
g59
NtRp1296
(dp1297
g62
(dp1298
g82
g83
ssg71
g1292
sg64
(lp1299
S'cmd_options'
p1300
asbag57
(g78
g59
NtRp1301
(dp1302
g62
(dp1303
g89
g90
ssg71
g1292
sg64
(lp1304
S':'
asbag57
(g78
g59
NtRp1305
(dp1306
g62
(dp1307
sg71
g1292
sg64
(lp1308
g57
(g58
g59
NtRp1309
(dp1310
g62
(dp1311
g70
I4
ssg71
g1305
sg64
(lp1312
S"<Values at 0x8e4a9cc: {'verbose': False, 'ip': '127.0.0.1', 'with_scheduler': False, 'ips': [], 'shutdown_timeout': 5, 'taskbar': False, 'port': 8000, 'maxthreads': None, 'softcron': False, 'server_name': 'nazrul-Compaq-Presario-CQ40-Notebook-PC', 'bpython': False, 'nogui': False, 'pid_filename': 'httpserver.pid', 'extcron': False, 'runcron': False, 'run_system_tests': False, 'test': None, 'folder': '/home/nazrul/web2py', 'config': '', 'import_models': False, 'winservice': '', 'shell': None, 'run': '', 'log_filename': 'httpserver.log', 'debuglevel': 30, 'args': [''], 'socket_timeout': 5, 'ssl_ca_certificate': None, 'scheduler': None, 'profiler_filename': None, 'ssl_private_key': '', 'scheduler_groups': None, 'password': '<ask>', 'request_queue_size': 5, 'ssl_certificate': '', 'cronjob': False, 'numthreads': None, 'quiet': False, 'interfaces': None, 'minthreads': None, 'timeout': 10, 'plain': False, 'nobanner': False}>"
p1313
asbasbasbag57
(g73
g59
NtRp1314
(dp1315
g62
(dp1316
sg71
g1219
sg64
(lp1317
g57
(g78
g59
NtRp1318
(dp1319
g62
(dp1320
g82
g83
ssg71
g1314
sg64
(lp1321
S'content_length'
p1322
asbag57
(g78
g59
NtRp1323
(dp1324
g62
(dp1325
g89
g90
ssg71
g1314
sg64
(lp1326
S':'
asbag57
(g78
g59
NtRp1327
(dp1328
g62
(dp1329
sg71
g1314
sg64
(lp1330
g57
(g58
g59
NtRp1331
(dp1332
g62
(dp1333
g70
I4
ssg71
g1327
sg64
(lp1334
S'25'
p1335
asbasbasbag57
(g73
g59
NtRp1336
(dp1337
g62
(dp1338
sg71
g1219
sg64
(lp1339
g57
(g78
g59
NtRp1340
(dp1341
g62
(dp1342
g82
g83
ssg71
g1336
sg64
(lp1343
S'content_type'
p1344
asbag57
(g78
g59
NtRp1345
(dp1346
g62
(dp1347
g89
g90
ssg71
g1336
sg64
(lp1348
S':'
asbag57
(g78
g59
NtRp1349
(dp1350
g62
(dp1351
sg71
g1336
sg64
(lp1352
g57
(g58
g59
NtRp1353
(dp1354
g62
(dp1355
g70
I4
ssg71
g1349
sg64
(lp1356
S'application/x-www-form-urlencoded; charset=UTF-8'
p1357
asbasbasbag57
(g73
g59
NtRp1358
(dp1359
g62
(dp1360
sg71
g1219
sg64
(lp1361
g57
(g78
g59
NtRp1362
(dp1363
g62
(dp1364
g82
g83
ssg71
g1358
sg64
(lp1365
S'db_sessions'
p1366
asbag57
(g78
g59
NtRp1367
(dp1368
g62
(dp1369
g89
g90
ssg71
g1358
sg64
(lp1370
S':'
asbag57
(g78
g59
NtRp1371
(dp1372
g62
(dp1373
sg71
g1358
sg64
(lp1374
g57
(g58
g59
NtRp1375
(dp1376
g62
(dp1377
g70
I4
ssg71
g1371
sg64
(lp1378
S'set([])'
p1379
asbasbasbag57
(g73
g59
NtRp1380
(dp1381
g62
(dp1382
sg71
g1219
sg64
(lp1383
g57
(g78
g59
NtRp1384
(dp1385
g62
(dp1386
g82
g83
ssg71
g1380
sg64
(lp1387
S'debugging'
p1388
asbag57
(g78
g59
NtRp1389
(dp1390
g62
(dp1391
g89
g90
ssg71
g1380
sg64
(lp1392
S':'
asbag57
(g78
g59
NtRp1393
(dp1394
g62
(dp1395
sg71
g1380
sg64
(lp1396
g57
(g58
g59
NtRp1397
(dp1398
g62
(dp1399
g70
I4
ssg71
g1393
sg64
(lp1400
S'False'
p1401
asbasbasbag57
(g73
g59
NtRp1402
(dp1403
g62
(dp1404
sg71
g1219
sg64
(lp1405
g57
(g78
g59
NtRp1406
(dp1407
g62
(dp1408
g82
g83
ssg71
g1402
sg64
(lp1409
S'gluon_parent'
p1410
asbag57
(g78
g59
NtRp1411
(dp1412
g62
(dp1413
g89
g90
ssg71
g1402
sg64
(lp1414
S':'
asbag57
(g78
g59
NtRp1415
(dp1416
g62
(dp1417
sg71
g1402
sg64
(lp1418
g57
(g58
g59
NtRp1419
(dp1420
g62
(dp1421
g70
I4
ssg71
g1415
sg64
(lp1422
S'/home/nazrul/web2py'
p1423
asbasbasbag57
(g73
g59
NtRp1424
(dp1425
g62
(dp1426
sg71
g1219
sg64
(lp1427
g57
(g78
g59
NtRp1428
(dp1429
g62
(dp1430
g82
g83
ssg71
g1424
sg64
(lp1431
S'http_accept'
p1432
asbag57
(g78
g59
NtRp1433
(dp1434
g62
(dp1435
g89
g90
ssg71
g1424
sg64
(lp1436
S':'
asbag57
(g78
g59
NtRp1437
(dp1438
g62
(dp1439
sg71
g1424
sg64
(lp1440
g57
(g58
g59
NtRp1441
(dp1442
g62
(dp1443
g70
I4
ssg71
g1437
sg64
(lp1444
S'*/*'
p1445
asbasbasbag57
(g73
g59
NtRp1446
(dp1447
g62
(dp1448
sg71
g1219
sg64
(lp1449
g57
(g78
g59
NtRp1450
(dp1451
g62
(dp1452
g82
g83
ssg71
g1446
sg64
(lp1453
S'http_accept_encoding'
p1454
asbag57
(g78
g59
NtRp1455
(dp1456
g62
(dp1457
g89
g90
ssg71
g1446
sg64
(lp1458
S':'
asbag57
(g78
g59
NtRp1459
(dp1460
g62
(dp1461
sg71
g1446
sg64
(lp1462
g57
(g58
g59
NtRp1463
(dp1464
g62
(dp1465
g70
I4
ssg71
g1459
sg64
(lp1466
S'gzip, deflate'
p1467
asbasbasbag57
(g73
g59
NtRp1468
(dp1469
g62
(dp1470
sg71
g1219
sg64
(lp1471
g57
(g78
g59
NtRp1472
(dp1473
g62
(dp1474
g82
g83
ssg71
g1468
sg64
(lp1475
S'http_accept_language'
p1476
asbag57
(g78
g59
NtRp1477
(dp1478
g62
(dp1479
g89
g90
ssg71
g1468
sg64
(lp1480
S':'
asbag57
(g78
g59
NtRp1481
(dp1482
g62
(dp1483
sg71
g1468
sg64
(lp1484
g57
(g58
g59
NtRp1485
(dp1486
g62
(dp1487
g70
I4
ssg71
g1481
sg64
(lp1488
S'en-US,en;q=0.5'
p1489
asbasbasbag57
(g73
g59
NtRp1490
(dp1491
g62
(dp1492
sg71
g1219
sg64
(lp1493
g57
(g78
g59
NtRp1494
(dp1495
g62
(dp1496
g82
g83
ssg71
g1490
sg64
(lp1497
S'http_cache_control'
p1498
asbag57
(g78
g59
NtRp1499
(dp1500
g62
(dp1501
g89
g90
ssg71
g1490
sg64
(lp1502
S':'
asbag57
(g78
g59
NtRp1503
(dp1504
g62
(dp1505
sg71
g1490
sg64
(lp1506
g57
(g58
g59
NtRp1507
(dp1508
g62
(dp1509
g70
I4
ssg71
g1503
sg64
(lp1510
S'no-cache'
p1511
asbasbasbag57
(g73
g59
NtRp1512
(dp1513
g62
(dp1514
sg71
g1219
sg64
(lp1515
g57
(g78
g59
NtRp1516
(dp1517
g62
(dp1518
g82
g83
ssg71
g1512
sg64
(lp1519
S'http_connection'
p1520
asbag57
(g78
g59
NtRp1521
(dp1522
g62
(dp1523
g89
g90
ssg71
g1512
sg64
(lp1524
S':'
asbag57
(g78
g59
NtRp1525
(dp1526
g62
(dp1527
sg71
g1512
sg64
(lp1528
g57
(g58
g59
NtRp1529
(dp1530
g62
(dp1531
g70
I4
ssg71
g1525
sg64
(lp1532
S'keep-alive'
p1533
asbasbasbag57
(g73
g59
NtRp1534
(dp1535
g62
(dp1536
sg71
g1219
sg64
(lp1537
g57
(g78
g59
NtRp1538
(dp1539
g62
(dp1540
g82
g83
ssg71
g1534
sg64
(lp1541
S'http_content_length'
p1542
asbag57
(g78
g59
NtRp1543
(dp1544
g62
(dp1545
g89
g90
ssg71
g1534
sg64
(lp1546
S':'
asbag57
(g78
g59
NtRp1547
(dp1548
g62
(dp1549
sg71
g1534
sg64
(lp1550
g57
(g58
g59
NtRp1551
(dp1552
g62
(dp1553
g70
I4
ssg71
g1547
sg64
(lp1554
g1335
asbasbasbag57
(g73
g59
NtRp1555
(dp1556
g62
(dp1557
sg71
g1219
sg64
(lp1558
g57
(g78
g59
NtRp1559
(dp1560
g62
(dp1561
g82
g83
ssg71
g1555
sg64
(lp1562
S'http_content_type'
p1563
asbag57
(g78
g59
NtRp1564
(dp1565
g62
(dp1566
g89
g90
ssg71
g1555
sg64
(lp1567
S':'
asbag57
(g78
g59
NtRp1568
(dp1569
g62
(dp1570
sg71
g1555
sg64
(lp1571
g57
(g58
g59
NtRp1572
(dp1573
g62
(dp1574
g70
I4
ssg71
g1568
sg64
(lp1575
g1357
asbasbasbag57
(g73
g59
NtRp1576
(dp1577
g62
(dp1578
sg71
g1219
sg64
(lp1579
g57
(g78
g59
NtRp1580
(dp1581
g62
(dp1582
g82
g83
ssg71
g1576
sg64
(lp1583
S'http_cookie'
p1584
asbag57
(g78
g59
NtRp1585
(dp1586
g62
(dp1587
g89
g90
ssg71
g1576
sg64
(lp1588
S':'
asbag57
(g78
g59
NtRp1589
(dp1590
g62
(dp1591
sg71
g1576
sg64
(lp1592
g57
(g58
g59
NtRp1593
(dp1594
g62
(dp1595
g70
I4
ssg71
g1589
sg64
(lp1596
S'KBD=0hi-0; session_id_welcome=127.0.0.1-4ab9dacb-7270-459d-aef4-f28bb3d059e1; session_id_admin=127.0.0.1-76a862a2-9a71-40a1-95b6-27d29da4fe5d; session_id_wsd=127.0.0.1-d76d2f66-a702-4d08-8b16-65a16f46815e; session_id_news=127.0.0.1-4eea093e-3431-4797-bd7a-1e49bcb534a8'
p1597
asbasbasbag57
(g73
g59
NtRp1598
(dp1599
g62
(dp1600
sg71
g1219
sg64
(lp1601
g57
(g78
g59
NtRp1602
(dp1603
g62
(dp1604
g82
g83
ssg71
g1598
sg64
(lp1605
S'http_host'
p1606
asbag57
(g78
g59
NtRp1607
(dp1608
g62
(dp1609
g89
g90
ssg71
g1598
sg64
(lp1610
S':'
asbag57
(g78
g59
NtRp1611
(dp1612
g62
(dp1613
sg71
g1598
sg64
(lp1614
g57
(g58
g59
NtRp1615
(dp1616
g62
(dp1617
g70
I4
ssg71
g1611
sg64
(lp1618
S'127.0.0.1:8000'
p1619
asbasbasbag57
(g73
g59
NtRp1620
(dp1621
g62
(dp1622
sg71
g1219
sg64
(lp1623
g57
(g78
g59
NtRp1624
(dp1625
g62
(dp1626
g82
g83
ssg71
g1620
sg64
(lp1627
S'http_pragma'
p1628
asbag57
(g78
g59
NtRp1629
(dp1630
g62
(dp1631
g89
g90
ssg71
g1620
sg64
(lp1632
S':'
asbag57
(g78
g59
NtRp1633
(dp1634
g62
(dp1635
sg71
g1620
sg64
(lp1636
g57
(g58
g59
NtRp1637
(dp1638
g62
(dp1639
g70
I4
ssg71
g1633
sg64
(lp1640
S'no-cache'
p1641
asbasbasbag57
(g73
g59
NtRp1642
(dp1643
g62
(dp1644
sg71
g1219
sg64
(lp1645
g57
(g78
g59
NtRp1646
(dp1647
g62
(dp1648
g82
g83
ssg71
g1642
sg64
(lp1649
S'http_referer'
p1650
asbag57
(g78
g59
NtRp1651
(dp1652
g62
(dp1653
g89
g90
ssg71
g1642
sg64
(lp1654
S':'
asbag57
(g78
g59
NtRp1655
(dp1656
g62
(dp1657
sg71
g1642
sg64
(lp1658
g57
(g58
g59
NtRp1659
(dp1660
g62
(dp1661
g70
I4
ssg71
g1655
sg64
(lp1662
S'http://127.0.0.1:8000/WSD/default/novi'
p1663
asbasbasbag57
(g73
g59
NtRp1664
(dp1665
g62
(dp1666
sg71
g1219
sg64
(lp1667
g57
(g78
g59
NtRp1668
(dp1669
g62
(dp1670
g82
g83
ssg71
g1664
sg64
(lp1671
S'http_user_agent'
p1672
asbag57
(g78
g59
NtRp1673
(dp1674
g62
(dp1675
g89
g90
ssg71
g1664
sg64
(lp1676
S':'
asbag57
(g78
g59
NtRp1677
(dp1678
g62
(dp1679
sg71
g1664
sg64
(lp1680
g57
(g58
g59
NtRp1681
(dp1682
g62
(dp1683
g70
I4
ssg71
g1677
sg64
(lp1684
S'Mozilla/5.0 (X11; Ubuntu; Linux i686; rv:18.0) Gecko/20100101 Firefox/18.0'
p1685
asbasbasbag57
(g73
g59
NtRp1686
(dp1687
g62
(dp1688
sg71
g1219
sg64
(lp1689
g57
(g78
g59
NtRp1690
(dp1691
g62
(dp1692
g82
g83
ssg71
g1686
sg64
(lp1693
S'http_x_requested_with'
p1694
asbag57
(g78
g59
NtRp1695
(dp1696
g62
(dp1697
g89
g90
ssg71
g1686
sg64
(lp1698
S':'
asbag57
(g78
g59
NtRp1699
(dp1700
g62
(dp1701
sg71
g1686
sg64
(lp1702
g57
(g58
g59
NtRp1703
(dp1704
g62
(dp1705
g70
I4
ssg71
g1699
sg64
(lp1706
S'XMLHttpRequest'
p1707
asbasbasbag57
(g73
g59
NtRp1708
(dp1709
g62
(dp1710
sg71
g1219
sg64
(lp1711
g57
(g78
g59
NtRp1712
(dp1713
g62
(dp1714
g82
g83
ssg71
g1708
sg64
(lp1715
S'is_jython'
p1716
asbag57
(g78
g59
NtRp1717
(dp1718
g62
(dp1719
g89
g90
ssg71
g1708
sg64
(lp1720
S':'
asbag57
(g78
g59
NtRp1721
(dp1722
g62
(dp1723
sg71
g1708
sg64
(lp1724
g57
(g58
g59
NtRp1725
(dp1726
g62
(dp1727
g70
I4
ssg71
g1721
sg64
(lp1728
g1401
asbasbasbag57
(g73
g59
NtRp1729
(dp1730
g62
(dp1731
sg71
g1219
sg64
(lp1732
g57
(g78
g59
NtRp1733
(dp1734
g62
(dp1735
g82
g83
ssg71
g1729
sg64
(lp1736
S'is_pypy'
p1737
asbag57
(g78
g59
NtRp1738
(dp1739
g62
(dp1740
g89
g90
ssg71
g1729
sg64
(lp1741
S':'
asbag57
(g78
g59
NtRp1742
(dp1743
g62
(dp1744
sg71
g1729
sg64
(lp1745
g57
(g58
g59
NtRp1746
(dp1747
g62
(dp1748
g70
I4
ssg71
g1742
sg64
(lp1749
g1401
asbasbasbag57
(g73
g59
NtRp1750
(dp1751
g62
(dp1752
sg71
g1219
sg64
(lp1753
g57
(g78
g59
NtRp1754
(dp1755
g62
(dp1756
g82
g83
ssg71
g1750
sg64
(lp1757
S'local_hosts'
p1758
asbag57
(g78
g59
NtRp1759
(dp1760
g62
(dp1761
g89
g90
ssg71
g1750
sg64
(lp1762
S':'
asbag57
(g78
g59
NtRp1763
(dp1764
g62
(dp1765
sg71
g1750
sg64
(lp1766
g57
(g58
g59
NtRp1767
(dp1768
g62
(dp1769
g70
I4
ssg71
g1763
sg64
(lp1770
g57
(g66
g59
NtRp1771
(dp1772
g62
(dp1773
g70
I3
ssg71
Nsg64
(lp1774
g57
(g73
g59
NtRp1775
(dp1776
g62
(dp1777
sg71
g1771
sg64
(lp1778
g57
(g78
g59
NtRp1779
(dp1780
g62
(dp1781
sg71
g1775
sg64
(lp1782
g57
(g58
g59
NtRp1783
(dp1784
g62
(dp1785
g70
I3
ssg71
g1779
sg64
(lp1786
S'::1'
p1787
asbasbasbag57
(g73
g59
NtRp1788
(dp1789
g62
(dp1790
sg71
g1771
sg64
(lp1791
g57
(g78
g59
NtRp1792
(dp1793
g62
(dp1794
sg71
g1788
sg64
(lp1795
g57
(g58
g59
NtRp1796
(dp1797
g62
(dp1798
g70
I3
ssg71
g1792
sg64
(lp1799
S'127.0.1.1'
p1800
asbasbasbag57
(g73
g59
NtRp1801
(dp1802
g62
(dp1803
sg71
g1771
sg64
(lp1804
g57
(g78
g59
NtRp1805
(dp1806
g62
(dp1807
sg71
g1801
sg64
(lp1808
g57
(g58
g59
NtRp1809
(dp1810
g62
(dp1811
g70
I3
ssg71
g1805
sg64
(lp1812
S'::ffff:127.0.0.1'
p1813
asbasbasbag57
(g73
g59
NtRp1814
(dp1815
g62
(dp1816
sg71
g1771
sg64
(lp1817
g57
(g78
g59
NtRp1818
(dp1819
g62
(dp1820
sg71
g1814
sg64
(lp1821
g57
(g58
g59
NtRp1822
(dp1823
g62
(dp1824
g70
I3
ssg71
g1818
sg64
(lp1825
S'127.0.0.1'
p1826
asbasbasbag57
(g73
g59
NtRp1827
(dp1828
g62
(dp1829
sg71
g1771
sg64
(lp1830
g57
(g78
g59
NtRp1831
(dp1832
g62
(dp1833
sg71
g1827
sg64
(lp1834
g57
(g58
g59
NtRp1835
(dp1836
g62
(dp1837
g70
I3
ssg71
g1831
sg64
(lp1838
S'nazrul-Compaq-Presario-CQ40-Notebook-PC'
p1839
asbasbasbasbasbasbasbag57
(g73
g59
NtRp1840
(dp1841
g62
(dp1842
sg71
g1219
sg64
(lp1843
g57
(g78
g59
NtRp1844
(dp1845
g62
(dp1846
g82
g83
ssg71
g1840
sg64
(lp1847
S'path_info'
p1848
asbag57
(g78
g59
NtRp1849
(dp1850
g62
(dp1851
g89
g90
ssg71
g1840
sg64
(lp1852
S':'
asbag57
(g78
g59
NtRp1853
(dp1854
g62
(dp1855
sg71
g1840
sg64
(lp1856
g57
(g58
g59
NtRp1857
(dp1858
g62
(dp1859
g70
I4
ssg71
g1853
sg64
(lp1860
S'/WSD/default/novi_insert'
p1861
asbasbasbag57
(g73
g59
NtRp1862
(dp1863
g62
(dp1864
sg71
g1219
sg64
(lp1865
g57
(g78
g59
NtRp1866
(dp1867
g62
(dp1868
g82
g83
ssg71
g1862
sg64
(lp1869
S'query_string'
p1870
asbag57
(g78
g59
NtRp1871
(dp1872
g62
(dp1873
g89
g90
ssg71
g1862
sg64
(lp1874
S':'
asbag57
(g78
g59
NtRp1875
(dp1876
g62
(dp1877
sg71
g1862
sg64
(lp1878
g57
(g58
g59
NtRp1879
(dp1880
g62
(dp1881
g70
I4
ssg71
g1875
sg64
(lp1882
S''
asbasbasbag57
(g73
g59
NtRp1883
(dp1884
g62
(dp1885
sg71
g1219
sg64
(lp1886
g57
(g78
g59
NtRp1887
(dp1888
g62
(dp1889
g82
g83
ssg71
g1883
sg64
(lp1890
S'remote_addr'
p1891
asbag57
(g78
g59
NtRp1892
(dp1893
g62
(dp1894
g89
g90
ssg71
g1883
sg64
(lp1895
S':'
asbag57
(g78
g59
NtRp1896
(dp1897
g62
(dp1898
sg71
g1883
sg64
(lp1899
g57
(g58
g59
NtRp1900
(dp1901
g62
(dp1902
g70
I4
ssg71
g1896
sg64
(lp1903
g212
asbasbasbag57
(g73
g59
NtRp1904
(dp1905
g62
(dp1906
sg71
g1219
sg64
(lp1907
g57
(g78
g59
NtRp1908
(dp1909
g62
(dp1910
g82
g83
ssg71
g1904
sg64
(lp1911
S'remote_port'
p1912
asbag57
(g78
g59
NtRp1913
(dp1914
g62
(dp1915
g89
g90
ssg71
g1904
sg64
(lp1916
S':'
asbag57
(g78
g59
NtRp1917
(dp1918
g62
(dp1919
sg71
g1904
sg64
(lp1920
g57
(g58
g59
NtRp1921
(dp1922
g62
(dp1923
g70
I4
ssg71
g1917
sg64
(lp1924
S'42016'
p1925
asbasbasbag57
(g73
g59
NtRp1926
(dp1927
g62
(dp1928
sg71
g1219
sg64
(lp1929
g57
(g78
g59
NtRp1930
(dp1931
g62
(dp1932
g82
g83
ssg71
g1926
sg64
(lp1933
S'request_method'
p1934
asbag57
(g78
g59
NtRp1935
(dp1936
g62
(dp1937
g89
g90
ssg71
g1926
sg64
(lp1938
S':'
asbag57
(g78
g59
NtRp1939
(dp1940
g62
(dp1941
sg71
g1926
sg64
(lp1942
g57
(g58
g59
NtRp1943
(dp1944
g62
(dp1945
g70
I4
ssg71
g1939
sg64
(lp1946
S'POST'
p1947
asbasbasbag57
(g73
g59
NtRp1948
(dp1949
g62
(dp1950
sg71
g1219
sg64
(lp1951
g57
(g78
g59
NtRp1952
(dp1953
g62
(dp1954
g82
g83
ssg71
g1948
sg64
(lp1955
S'request_uri'
p1956
asbag57
(g78
g59
NtRp1957
(dp1958
g62
(dp1959
g89
g90
ssg71
g1948
sg64
(lp1960
S':'
asbag57
(g78
g59
NtRp1961
(dp1962
g62
(dp1963
sg71
g1948
sg64
(lp1964
g57
(g58
g59
NtRp1965
(dp1966
g62
(dp1967
g70
I4
ssg71
g1961
sg64
(lp1968
g1861
asbasbasbag57
(g73
g59
NtRp1969
(dp1970
g62
(dp1971
sg71
g1219
sg64
(lp1972
g57
(g78
g59
NtRp1973
(dp1974
g62
(dp1975
g82
g83
ssg71
g1969
sg64
(lp1976
S'script_name'
p1977
asbag57
(g78
g59
NtRp1978
(dp1979
g62
(dp1980
g89
g90
ssg71
g1969
sg64
(lp1981
S':'
asbag57
(g78
g59
NtRp1982
(dp1983
g62
(dp1984
sg71
g1969
sg64
(lp1985
g57
(g58
g59
NtRp1986
(dp1987
g62
(dp1988
g70
I4
ssg71
g1982
sg64
(lp1989
S''
asbasbasbag57
(g73
g59
NtRp1990
(dp1991
g62
(dp1992
sg71
g1219
sg64
(lp1993
g57
(g78
g59
NtRp1994
(dp1995
g62
(dp1996
g82
g83
ssg71
g1990
sg64
(lp1997
S'server_name'
p1998
asbag57
(g78
g59
NtRp1999
(dp2000
g62
(dp2001
g89
g90
ssg71
g1990
sg64
(lp2002
S':'
asbag57
(g78
g59
NtRp2003
(dp2004
g62
(dp2005
sg71
g1990
sg64
(lp2006
g57
(g58
g59
NtRp2007
(dp2008
g62
(dp2009
g70
I4
ssg71
g2003
sg64
(lp2010
S'nazrul-Compaq-Presario-CQ40-Notebook-PC'
p2011
asbasbasbag57
(g73
g59
NtRp2012
(dp2013
g62
(dp2014
sg71
g1219
sg64
(lp2015
g57
(g78
g59
NtRp2016
(dp2017
g62
(dp2018
g82
g83
ssg71
g2012
sg64
(lp2019
S'server_port'
p2020
asbag57
(g78
g59
NtRp2021
(dp2022
g62
(dp2023
g89
g90
ssg71
g2012
sg64
(lp2024
S':'
asbag57
(g78
g59
NtRp2025
(dp2026
g62
(dp2027
sg71
g2012
sg64
(lp2028
g57
(g58
g59
NtRp2029
(dp2030
g62
(dp2031
g70
I4
ssg71
g2025
sg64
(lp2032
S'8000'
p2033
asbasbasbag57
(g73
g59
NtRp2034
(dp2035
g62
(dp2036
sg71
g1219
sg64
(lp2037
g57
(g78
g59
NtRp2038
(dp2039
g62
(dp2040
g82
g83
ssg71
g2034
sg64
(lp2041
S'server_protocol'
p2042
asbag57
(g78
g59
NtRp2043
(dp2044
g62
(dp2045
g89
g90
ssg71
g2034
sg64
(lp2046
S':'
asbag57
(g78
g59
NtRp2047
(dp2048
g62
(dp2049
sg71
g2034
sg64
(lp2050
g57
(g58
g59
NtRp2051
(dp2052
g62
(dp2053
g70
I4
ssg71
g2047
sg64
(lp2054
S'HTTP/1.1'
p2055
asbasbasbag57
(g73
g59
NtRp2056
(dp2057
g62
(dp2058
sg71
g1219
sg64
(lp2059
g57
(g78
g59
NtRp2060
(dp2061
g62
(dp2062
g82
g83
ssg71
g2056
sg64
(lp2063
S'server_software'
p2064
asbag57
(g78
g59
NtRp2065
(dp2066
g62
(dp2067
g89
g90
ssg71
g2056
sg64
(lp2068
S':'
asbag57
(g78
g59
NtRp2069
(dp2070
g62
(dp2071
sg71
g2056
sg64
(lp2072
g57
(g58
g59
NtRp2073
(dp2074
g62
(dp2075
g70
I4
ssg71
g2069
sg64
(lp2076
S'Rocket 1.2.6'
p2077
asbasbasbag57
(g73
g59
NtRp2078
(dp2079
g62
(dp2080
sg71
g1219
sg64
(lp2081
g57
(g78
g59
NtRp2082
(dp2083
g62
(dp2084
g82
g83
ssg71
g2078
sg64
(lp2085
S'web2py_path'
p2086
asbag57
(g78
g59
NtRp2087
(dp2088
g62
(dp2089
g89
g90
ssg71
g2078
sg64
(lp2090
S':'
asbag57
(g78
g59
NtRp2091
(dp2092
g62
(dp2093
sg71
g2078
sg64
(lp2094
g57
(g58
g59
NtRp2095
(dp2096
g62
(dp2097
g70
I4
ssg71
g2091
sg64
(lp2098
g1266
asbasbasbag57
(g73
g59
NtRp2099
(dp2100
g62
(dp2101
sg71
g1219
sg64
(lp2102
g57
(g78
g59
NtRp2103
(dp2104
g62
(dp2105
g82
g83
ssg71
g2099
sg64
(lp2106
S'web2py_version'
p2107
asbag57
(g78
g59
NtRp2108
(dp2109
g62
(dp2110
g89
g90
ssg71
g2099
sg64
(lp2111
S':'
asbag57
(g78
g59
NtRp2112
(dp2113
g62
(dp2114
sg71
g2099
sg64
(lp2115
g57
(g58
g59
NtRp2116
(dp2117
g62
(dp2118
g70
I4
ssg71
g2112
sg64
(lp2119
g57
(g66
g59
NtRp2120
(dp2121
g62
(dp2122
g70
I3
ssg71
Nsg64
(lp2123
g57
(g73
g59
NtRp2124
(dp2125
g62
(dp2126
sg71
g2120
sg64
(lp2127
g57
(g78
g59
NtRp2128
(dp2129
g62
(dp2130
sg71
g2124
sg64
(lp2131
g57
(g58
g59
NtRp2132
(dp2133
g62
(dp2134
g70
I3
ssg71
g2128
sg64
(lp2135
S'2'
asbasbasbag57
(g73
g59
NtRp2136
(dp2137
g62
(dp2138
sg71
g2120
sg64
(lp2139
g57
(g78
g59
NtRp2140
(dp2141
g62
(dp2142
sg71
g2136
sg64
(lp2143
g57
(g58
g59
NtRp2144
(dp2145
g62
(dp2146
g70
I3
ssg71
g2140
sg64
(lp2147
S'3'
asbasbasbag57
(g73
g59
NtRp2148
(dp2149
g62
(dp2150
sg71
g2120
sg64
(lp2151
g57
(g78
g59
NtRp2152
(dp2153
g62
(dp2154
sg71
g2148
sg64
(lp2155
g57
(g58
g59
NtRp2156
(dp2157
g62
(dp2158
g70
I3
ssg71
g2152
sg64
(lp2159
S'2'
asbasbasbag57
(g73
g59
NtRp2160
(dp2161
g62
(dp2162
sg71
g2120
sg64
(lp2163
g57
(g78
g59
NtRp2164
(dp2165
g62
(dp2166
sg71
g2160
sg64
(lp2167
g57
(g58
g59
NtRp2168
(dp2169
g62
(dp2170
g70
I3
ssg71
g2164
sg64
(lp2171
S'datetime.datetime(2012, 12, 17, 15, 3, 30)'
p2172
asbasbasbag57
(g73
g59
NtRp2173
(dp2174
g62
(dp2175
sg71
g2120
sg64
(lp2176
g57
(g78
g59
NtRp2177
(dp2178
g62
(dp2179
sg71
g2173
sg64
(lp2180
g57
(g58
g59
NtRp2181
(dp2182
g62
(dp2183
g70
I3
ssg71
g2177
sg64
(lp2184
S'stable'
p2185
asbasbasbasbasbasbasbag57
(g73
g59
NtRp2186
(dp2187
g62
(dp2188
sg71
g1219
sg64
(lp2189
g57
(g78
g59
NtRp2190
(dp2191
g62
(dp2192
g82
g83
ssg71
g2186
sg64
(lp2193
S'wsgi_errors'
p2194
asbag57
(g78
g59
NtRp2195
(dp2196
g62
(dp2197
g89
g90
ssg71
g2186
sg64
(lp2198
S':'
asbag57
(g78
g59
NtRp2199
(dp2200
g62
(dp2201
sg71
g2186
sg64
(lp2202
g57
(g58
g59
NtRp2203
(dp2204
g62
(dp2205
g70
I4
ssg71
g2199
sg64
(lp2206
S"<open file '<stderr>', mode 'w' at 0xb72d20d0>"
p2207
asbasbasbag57
(g73
g59
NtRp2208
(dp2209
g62
(dp2210
sg71
g1219
sg64
(lp2211
g57
(g78
g59
NtRp2212
(dp2213
g62
(dp2214
g82
g83
ssg71
g2208
sg64
(lp2215
S'wsgi_file_wrapper'
p2216
asbag57
(g78
g59
NtRp2217
(dp2218
g62
(dp2219
g89
g90
ssg71
g2208
sg64
(lp2220
S':'
asbag57
(g78
g59
NtRp2221
(dp2222
g62
(dp2223
sg71
g2208
sg64
(lp2224
g57
(g58
g59
NtRp2225
(dp2226
g62
(dp2227
g70
I4
ssg71
g2221
sg64
(lp2228
S'<class wsgiref.util.FileWrapper at 0x8e0a47c>'
p2229
asbasbasbag57
(g73
g59
NtRp2230
(dp2231
g62
(dp2232
sg71
g1219
sg64
(lp2233
g57
(g78
g59
NtRp2234
(dp2235
g62
(dp2236
g82
g83
ssg71
g2230
sg64
(lp2237
S'wsgi_input'
p2238
asbag57
(g78
g59
NtRp2239
(dp2240
g62
(dp2241
g89
g90
ssg71
g2230
sg64
(lp2242
S':'
asbag57
(g78
g59
NtRp2243
(dp2244
g62
(dp2245
sg71
g2230
sg64
(lp2246
g57
(g58
g59
NtRp2247
(dp2248
g62
(dp2249
g70
I4
ssg71
g2243
sg64
(lp2250
S'<socket._fileobject object at 0xadf96dac>'
p2251
asbasbasbag57
(g73
g59
NtRp2252
(dp2253
g62
(dp2254
sg71
g1219
sg64
(lp2255
g57
(g78
g59
NtRp2256
(dp2257
g62
(dp2258
g82
g83
ssg71
g2252
sg64
(lp2259
S'wsgi_multiprocess'
p2260
asbag57
(g78
g59
NtRp2261
(dp2262
g62
(dp2263
g89
g90
ssg71
g2252
sg64
(lp2264
S':'
asbag57
(g78
g59
NtRp2265
(dp2266
g62
(dp2267
sg71
g2252
sg64
(lp2268
g57
(g58
g59
NtRp2269
(dp2270
g62
(dp2271
g70
I4
ssg71
g2265
sg64
(lp2272
g1401
asbasbasbag57
(g73
g59
NtRp2273
(dp2274
g62
(dp2275
sg71
g1219
sg64
(lp2276
g57
(g78
g59
NtRp2277
(dp2278
g62
(dp2279
g82
g83
ssg71
g2273
sg64
(lp2280
S'wsgi_multithread'
p2281
asbag57
(g78
g59
NtRp2282
(dp2283
g62
(dp2284
g89
g90
ssg71
g2273
sg64
(lp2285
S':'
asbag57
(g78
g59
NtRp2286
(dp2287
g62
(dp2288
sg71
g2273
sg64
(lp2289
g57
(g58
g59
NtRp2290
(dp2291
g62
(dp2292
g70
I4
ssg71
g2286
sg64
(lp2293
g100
asbasbasbag57
(g73
g59
NtRp2294
(dp2295
g62
(dp2296
sg71
g1219
sg64
(lp2297
g57
(g78
g59
NtRp2298
(dp2299
g62
(dp2300
g82
g83
ssg71
g2294
sg64
(lp2301
S'wsgi_run_once'
p2302
asbag57
(g78
g59
NtRp2303
(dp2304
g62
(dp2305
g89
g90
ssg71
g2294
sg64
(lp2306
S':'
asbag57
(g78
g59
NtRp2307
(dp2308
g62
(dp2309
sg71
g2294
sg64
(lp2310
g57
(g58
g59
NtRp2311
(dp2312
g62
(dp2313
g70
I4
ssg71
g2307
sg64
(lp2314
g1401
asbasbasbag57
(g73
g59
NtRp2315
(dp2316
g62
(dp2317
sg71
g1219
sg64
(lp2318
g57
(g78
g59
NtRp2319
(dp2320
g62
(dp2321
g82
g83
ssg71
g2315
sg64
(lp2322
S'wsgi_url_scheme'
p2323
asbag57
(g78
g59
NtRp2324
(dp2325
g62
(dp2326
g89
g90
ssg71
g2315
sg64
(lp2327
S':'
asbag57
(g78
g59
NtRp2328
(dp2329
g62
(dp2330
sg71
g2315
sg64
(lp2331
g57
(g58
g59
NtRp2332
(dp2333
g62
(dp2334
g70
I4
ssg71
g2328
sg64
(lp2335
S'http'
p2336
asbasbasbag57
(g73
g59
NtRp2337
(dp2338
g62
(dp2339
sg71
g1219
sg64
(lp2340
g57
(g78
g59
NtRp2341
(dp2342
g62
(dp2343
g82
g83
ssg71
g2337
sg64
(lp2344
S'wsgi_version'
p2345
asbag57
(g78
g59
NtRp2346
(dp2347
g62
(dp2348
g89
g90
ssg71
g2337
sg64
(lp2349
S':'
asbag57
(g78
g59
NtRp2350
(dp2351
g62
(dp2352
sg71
g2337
sg64
(lp2353
g57
(g58
g59
NtRp2354
(dp2355
g62
(dp2356
g70
I4
ssg71
g2350
sg64
(lp2357
g57
(g66
g59
NtRp2358
(dp2359
g62
(dp2360
g70
I3
ssg71
Nsg64
(lp2361
g57
(g73
g59
NtRp2362
(dp2363
g62
(dp2364
sg71
g2358
sg64
(lp2365
g57
(g78
g59
NtRp2366
(dp2367
g62
(dp2368
sg71
g2362
sg64
(lp2369
g57
(g58
g59
NtRp2370
(dp2371
g62
(dp2372
g70
I3
ssg71
g2366
sg64
(lp2373
S'1'
asbasbasbag57
(g73
g59
NtRp2374
(dp2375
g62
(dp2376
sg71
g2358
sg64
(lp2377
g57
(g78
g59
NtRp2378
(dp2379
g62
(dp2380
sg71
g2374
sg64
(lp2381
g57
(g58
g59
NtRp2382
(dp2383
g62
(dp2384
g70
I3
ssg71
g2378
sg64
(lp2385
S'0'
asbasbasbasbasbasbasbasbasbasbasbag57
(g73
g59
NtRp2386
(dp2387
g62
(dp2388
sg71
g67
sg64
(lp2389
g57
(g78
g59
NtRp2390
(dp2391
g62
(dp2392
g82
g83
ssg71
g2386
sg64
(lp2393
S'extension'
p2394
asbag57
(g78
g59
NtRp2395
(dp2396
g62
(dp2397
g89
g90
ssg71
g2386
sg64
(lp2398
S':'
asbag57
(g78
g59
NtRp2399
(dp2400
g62
(dp2401
sg71
g2386
sg64
(lp2402
g57
(g58
g59
NtRp2403
(dp2404
g62
(dp2405
g70
I5
ssg71
g2399
sg64
(lp2406
S'html'
p2407
asbasbasbag57
(g73
g59
NtRp2408
(dp2409
g62
(dp2410
sg71
g67
sg64
(lp2411
g57
(g78
g59
NtRp2412
(dp2413
g62
(dp2414
g82
g83
ssg71
g2408
sg64
(lp2415
S'folder'
p2416
asbag57
(g78
g59
NtRp2417
(dp2418
g62
(dp2419
g89
g90
ssg71
g2408
sg64
(lp2420
S':'
asbag57
(g78
g59
NtRp2421
(dp2422
g62
(dp2423
sg71
g2408
sg64
(lp2424
g57
(g58
g59
NtRp2425
(dp2426
g62
(dp2427
g70
I5
ssg71
g2421
sg64
(lp2428
S'/home/nazrul/web2py/applications/WSD/'
p2429
asbasbasbag57
(g73
g59
NtRp2430
(dp2431
g62
(dp2432
sg71
g67
sg64
(lp2433
g57
(g78
g59
NtRp2434
(dp2435
g62
(dp2436
g82
g83
ssg71
g2430
sg64
(lp2437
S'function'
p2438
asbag57
(g78
g59
NtRp2439
(dp2440
g62
(dp2441
g89
g90
ssg71
g2430
sg64
(lp2442
S':'
asbag57
(g78
g59
NtRp2443
(dp2444
g62
(dp2445
sg71
g2430
sg64
(lp2446
g57
(g58
g59
NtRp2447
(dp2448
g62
(dp2449
g70
I5
ssg71
g2443
sg64
(lp2450
S'novi_insert'
p2451
asbasbasbag57
(g73
g59
NtRp2452
(dp2453
g62
(dp2454
sg71
g67
sg64
(lp2455
g57
(g78
g59
NtRp2456
(dp2457
g62
(dp2458
g82
g83
ssg71
g2452
sg64
(lp2459
S'get_vars'
p2460
asbag57
(g78
g59
NtRp2461
(dp2462
g62
(dp2463
g89
g90
ssg71
g2452
sg64
(lp2464
S':'
asbag57
(g78
g59
NtRp2465
(dp2466
g62
(dp2467
sg71
g2452
sg64
(lp2468
g57
(g58
g59
NtRp2469
(dp2470
g62
(dp2471
g70
I5
ssg71
g2465
sg64
(lp2472
g57
(g66
g59
NtRp2473
(dp2474
g62
(dp2475
g70
I4
ssg71
Nsg64
(lp2476
sbasbasbasbag57
(g73
g59
NtRp2477
(dp2478
g62
(dp2479
sg71
g67
sg64
(lp2480
g57
(g78
g59
NtRp2481
(dp2482
g62
(dp2483
g82
g83
ssg71
g2477
sg64
(lp2484
S'global_settings'
p2485
asbag57
(g78
g59
NtRp2486
(dp2487
g62
(dp2488
g89
g90
ssg71
g2477
sg64
(lp2489
S':'
asbag57
(g78
g59
NtRp2490
(dp2491
g62
(dp2492
sg71
g2477
sg64
(lp2493
g57
(g58
g59
NtRp2494
(dp2495
g62
(dp2496
g70
I5
ssg71
g2490
sg64
(lp2497
g57
(g66
g59
NtRp2498
(dp2499
g62
(dp2500
g70
I4
ssg71
Nsg64
(lp2501
g57
(g73
g59
NtRp2502
(dp2503
g62
(dp2504
sg71
g2498
sg64
(lp2505
g57
(g78
g59
NtRp2506
(dp2507
g62
(dp2508
g82
g83
ssg71
g2502
sg64
(lp2509
g1231
asbag57
(g78
g59
NtRp2510
(dp2511
g62
(dp2512
g89
g90
ssg71
g2502
sg64
(lp2513
S':'
asbag57
(g78
g59
NtRp2514
(dp2515
g62
(dp2516
sg71
g2502
sg64
(lp2517
g57
(g58
g59
NtRp2518
(dp2519
g62
(dp2520
g70
I4
ssg71
g2514
sg64
(lp2521
S"set(['/home/nazrul/web2py/applications/WSD/', '/home/nazrul/web2py/applications/welcome/', '/home/nazrul/web2py/applications/news/', '/home/nazrul/web2py/applications/admin/'])"
p2522
asbasbasbag57
(g73
g59
NtRp2523
(dp2524
g62
(dp2525
sg71
g2498
sg64
(lp2526
g57
(g78
g59
NtRp2527
(dp2528
g62
(dp2529
g82
g83
ssg71
g2523
sg64
(lp2530
g1253
asbag57
(g78
g59
NtRp2531
(dp2532
g62
(dp2533
g89
g90
ssg71
g2523
sg64
(lp2534
S':'
asbag57
(g78
g59
NtRp2535
(dp2536
g62
(dp2537
sg71
g2523
sg64
(lp2538
g57
(g58
g59
NtRp2539
(dp2540
g62
(dp2541
g70
I4
ssg71
g2535
sg64
(lp2542
g1266
asbasbasbag57
(g73
g59
NtRp2543
(dp2544
g62
(dp2545
sg71
g2498
sg64
(lp2546
g57
(g78
g59
NtRp2547
(dp2548
g62
(dp2549
g82
g83
ssg71
g2543
sg64
(lp2550
g1275
asbag57
(g78
g59
NtRp2551
(dp2552
g62
(dp2553
g89
g90
ssg71
g2543
sg64
(lp2554
S':'
asbag57
(g78
g59
NtRp2555
(dp2556
g62
(dp2557
sg71
g2543
sg64
(lp2558
g57
(g58
g59
NtRp2559
(dp2560
g62
(dp2561
g70
I4
ssg71
g2555
sg64
(lp2562
g57
(g66
g59
NtRp2563
(dp2564
g62
(dp2565
g70
I3
ssg71
Nsg64
(lp2566
sbasbasbasbag57
(g73
g59
NtRp2567
(dp2568
g62
(dp2569
sg71
g2498
sg64
(lp2570
g57
(g78
g59
NtRp2571
(dp2572
g62
(dp2573
g82
g83
ssg71
g2567
sg64
(lp2574
g1300
asbag57
(g78
g59
NtRp2575
(dp2576
g62
(dp2577
g89
g90
ssg71
g2567
sg64
(lp2578
S':'
asbag57
(g78
g59
NtRp2579
(dp2580
g62
(dp2581
sg71
g2567
sg64
(lp2582
g57
(g58
g59
NtRp2583
(dp2584
g62
(dp2585
g70
I4
ssg71
g2579
sg64
(lp2586
S"<Values at 0x8e4a9cc: {'verbose': False, 'ip': '127.0.0.1', 'with_scheduler': False, 'ips': [], 'shutdown_timeout': 5, 'taskbar': False, 'port': 8000, 'maxthreads': None, 'softcron': False, 'server_name': 'nazrul-Compaq-Presario-CQ40-Notebook-PC', 'bpython': False, 'nogui': False, 'pid_filename': 'httpserver.pid', 'extcron': False, 'runcron': False, 'run_system_tests': False, 'test': None, 'folder': '/home/nazrul/web2py', 'config': '', 'import_models': False, 'winservice': '', 'shell': None, 'run': '', 'log_filename': 'httpserver.log', 'debuglevel': 30, 'args': [''], 'socket_timeout': 5, 'ssl_ca_certificate': None, 'scheduler': None, 'profiler_filename': None, 'ssl_private_key': '', 'scheduler_groups': None, 'password': '<ask>', 'request_queue_size': 5, 'ssl_certificate': '', 'cronjob': False, 'numthreads': None, 'quiet': False, 'interfaces': None, 'minthreads': None, 'timeout': 10, 'plain': False, 'nobanner': False}>"
p2587
asbasbasbag57
(g73
g59
NtRp2588
(dp2589
g62
(dp2590
sg71
g2498
sg64
(lp2591
g57
(g78
g59
NtRp2592
(dp2593
g62
(dp2594
g82
g83
ssg71
g2588
sg64
(lp2595
g1366
asbag57
(g78
g59
NtRp2596
(dp2597
g62
(dp2598
g89
g90
ssg71
g2588
sg64
(lp2599
S':'
asbag57
(g78
g59
NtRp2600
(dp2601
g62
(dp2602
sg71
g2588
sg64
(lp2603
g57
(g58
g59
NtRp2604
(dp2605
g62
(dp2606
g70
I4
ssg71
g2600
sg64
(lp2607
S'set([])'
p2608
asbasbasbag57
(g73
g59
NtRp2609
(dp2610
g62
(dp2611
sg71
g2498
sg64
(lp2612
g57
(g78
g59
NtRp2613
(dp2614
g62
(dp2615
g82
g83
ssg71
g2609
sg64
(lp2616
g1388
asbag57
(g78
g59
NtRp2617
(dp2618
g62
(dp2619
g89
g90
ssg71
g2609
sg64
(lp2620
S':'
asbag57
(g78
g59
NtRp2621
(dp2622
g62
(dp2623
sg71
g2609
sg64
(lp2624
g57
(g58
g59
NtRp2625
(dp2626
g62
(dp2627
g70
I4
ssg71
g2621
sg64
(lp2628
g1401
asbasbasbag57
(g73
g59
NtRp2629
(dp2630
g62
(dp2631
sg71
g2498
sg64
(lp2632
g57
(g78
g59
NtRp2633
(dp2634
g62
(dp2635
g82
g83
ssg71
g2629
sg64
(lp2636
g1410
asbag57
(g78
g59
NtRp2637
(dp2638
g62
(dp2639
g89
g90
ssg71
g2629
sg64
(lp2640
S':'
asbag57
(g78
g59
NtRp2641
(dp2642
g62
(dp2643
sg71
g2629
sg64
(lp2644
g57
(g58
g59
NtRp2645
(dp2646
g62
(dp2647
g70
I4
ssg71
g2641
sg64
(lp2648
g1423
asbasbasbag57
(g73
g59
NtRp2649
(dp2650
g62
(dp2651
sg71
g2498
sg64
(lp2652
g57
(g78
g59
NtRp2653
(dp2654
g62
(dp2655
g82
g83
ssg71
g2649
sg64
(lp2656
g1716
asbag57
(g78
g59
NtRp2657
(dp2658
g62
(dp2659
g89
g90
ssg71
g2649
sg64
(lp2660
S':'
asbag57
(g78
g59
NtRp2661
(dp2662
g62
(dp2663
sg71
g2649
sg64
(lp2664
g57
(g58
g59
NtRp2665
(dp2666
g62
(dp2667
g70
I4
ssg71
g2661
sg64
(lp2668
g1401
asbasbasbag57
(g73
g59
NtRp2669
(dp2670
g62
(dp2671
sg71
g2498
sg64
(lp2672
g57
(g78
g59
NtRp2673
(dp2674
g62
(dp2675
g82
g83
ssg71
g2669
sg64
(lp2676
g1737
asbag57
(g78
g59
NtRp2677
(dp2678
g62
(dp2679
g89
g90
ssg71
g2669
sg64
(lp2680
S':'
asbag57
(g78
g59
NtRp2681
(dp2682
g62
(dp2683
sg71
g2669
sg64
(lp2684
g57
(g58
g59
NtRp2685
(dp2686
g62
(dp2687
g70
I4
ssg71
g2681
sg64
(lp2688
g1401
asbasbasbag57
(g73
g59
NtRp2689
(dp2690
g62
(dp2691
sg71
g2498
sg64
(lp2692
g57
(g78
g59
NtRp2693
(dp2694
g62
(dp2695
g82
g83
ssg71
g2689
sg64
(lp2696
g1758
asbag57
(g78
g59
NtRp2697
(dp2698
g62
(dp2699
g89
g90
ssg71
g2689
sg64
(lp2700
S':'
asbag57
(g78
g59
NtRp2701
(dp2702
g62
(dp2703
sg71
g2689
sg64
(lp2704
g57
(g58
g59
NtRp2705
(dp2706
g62
(dp2707
g70
I4
ssg71
g2701
sg64
(lp2708
g57
(g66
g59
NtRp2709
(dp2710
g62
(dp2711
g70
I3
ssg71
Nsg64
(lp2712
g57
(g73
g59
NtRp2713
(dp2714
g62
(dp2715
sg71
g2709
sg64
(lp2716
g57
(g78
g59
NtRp2717
(dp2718
g62
(dp2719
sg71
g2713
sg64
(lp2720
g57
(g58
g59
NtRp2721
(dp2722
g62
(dp2723
g70
I3
ssg71
g2717
sg64
(lp2724
g1787
asbasbasbag57
(g73
g59
NtRp2725
(dp2726
g62
(dp2727
sg71
g2709
sg64
(lp2728
g57
(g78
g59
NtRp2729
(dp2730
g62
(dp2731
sg71
g2725
sg64
(lp2732
g57
(g58
g59
NtRp2733
(dp2734
g62
(dp2735
g70
I3
ssg71
g2729
sg64
(lp2736
g1800
asbasbasbag57
(g73
g59
NtRp2737
(dp2738
g62
(dp2739
sg71
g2709
sg64
(lp2740
g57
(g78
g59
NtRp2741
(dp2742
g62
(dp2743
sg71
g2737
sg64
(lp2744
g57
(g58
g59
NtRp2745
(dp2746
g62
(dp2747
g70
I3
ssg71
g2741
sg64
(lp2748
g1813
asbasbasbag57
(g73
g59
NtRp2749
(dp2750
g62
(dp2751
sg71
g2709
sg64
(lp2752
g57
(g78
g59
NtRp2753
(dp2754
g62
(dp2755
sg71
g2749
sg64
(lp2756
g57
(g58
g59
NtRp2757
(dp2758
g62
(dp2759
g70
I3
ssg71
g2753
sg64
(lp2760
g1826
asbasbasbag57
(g73
g59
NtRp2761
(dp2762
g62
(dp2763
sg71
g2709
sg64
(lp2764
g57
(g78
g59
NtRp2765
(dp2766
g62
(dp2767
sg71
g2761
sg64
(lp2768
g57
(g58
g59
NtRp2769
(dp2770
g62
(dp2771
g70
I3
ssg71
g2765
sg64
(lp2772
g1839
asbasbasbasbasbasbasbag57
(g73
g59
NtRp2773
(dp2774
g62
(dp2775
sg71
g2498
sg64
(lp2776
g57
(g78
g59
NtRp2777
(dp2778
g62
(dp2779
g82
g83
ssg71
g2773
sg64
(lp2780
g2107
asbag57
(g78
g59
NtRp2781
(dp2782
g62
(dp2783
g89
g90
ssg71
g2773
sg64
(lp2784
S':'
asbag57
(g78
g59
NtRp2785
(dp2786
g62
(dp2787
sg71
g2773
sg64
(lp2788
g57
(g58
g59
NtRp2789
(dp2790
g62
(dp2791
g70
I4
ssg71
g2785
sg64
(lp2792
g57
(g66
g59
NtRp2793
(dp2794
g62
(dp2795
g70
I3
ssg71
Nsg64
(lp2796
g57
(g73
g59
NtRp2797
(dp2798
g62
(dp2799
sg71
g2793
sg64
(lp2800
g57
(g78
g59
NtRp2801
(dp2802
g62
(dp2803
sg71
g2797
sg64
(lp2804
g57
(g58
g59
NtRp2805
(dp2806
g62
(dp2807
g70
I3
ssg71
g2801
sg64
(lp2808
S'2'
asbasbasbag57
(g73
g59
NtRp2809
(dp2810
g62
(dp2811
sg71
g2793
sg64
(lp2812
g57
(g78
g59
NtRp2813
(dp2814
g62
(dp2815
sg71
g2809
sg64
(lp2816
g57
(g58
g59
NtRp2817
(dp2818
g62
(dp2819
g70
I3
ssg71
g2813
sg64
(lp2820
S'3'
asbasbasbag57
(g73
g59
NtRp2821
(dp2822
g62
(dp2823
sg71
g2793
sg64
(lp2824
g57
(g78
g59
NtRp2825
(dp2826
g62
(dp2827
sg71
g2821
sg64
(lp2828
g57
(g58
g59
NtRp2829
(dp2830
g62
(dp2831
g70
I3
ssg71
g2825
sg64
(lp2832
S'2'
asbasbasbag57
(g73
g59
NtRp2833
(dp2834
g62
(dp2835
sg71
g2793
sg64
(lp2836
g57
(g78
g59
NtRp2837
(dp2838
g62
(dp2839
sg71
g2833
sg64
(lp2840
g57
(g58
g59
NtRp2841
(dp2842
g62
(dp2843
g70
I3
ssg71
g2837
sg64
(lp2844
S'datetime.datetime(2012, 12, 17, 15, 3, 30)'
p2845
asbasbasbag57
(g73
g59
NtRp2846
(dp2847
g62
(dp2848
sg71
g2793
sg64
(lp2849
g57
(g78
g59
NtRp2850
(dp2851
g62
(dp2852
sg71
g2846
sg64
(lp2853
g57
(g58
g59
NtRp2854
(dp2855
g62
(dp2856
g70
I3
ssg71
g2850
sg64
(lp2857
g2185
asbasbasbasbasbasbasbasbasbasbasbag57
(g73
g59
NtRp2858
(dp2859
g62
(dp2860
sg71
g67
sg64
(lp2861
g57
(g78
g59
NtRp2862
(dp2863
g62
(dp2864
g82
g83
ssg71
g2858
sg64
(lp2865
S'is_https'
p2866
asbag57
(g78
g59
NtRp2867
(dp2868
g62
(dp2869
g89
g90
ssg71
g2858
sg64
(lp2870
S':'
asbag57
(g78
g59
NtRp2871
(dp2872
g62
(dp2873
sg71
g2858
sg64
(lp2874
g57
(g58
g59
NtRp2875
(dp2876
g62
(dp2877
g70
I5
ssg71
g2871
sg64
(lp2878
g1401
asbasbasbag57
(g73
g59
NtRp2879
(dp2880
g62
(dp2881
sg71
g67
sg64
(lp2882
g57
(g78
g59
NtRp2883
(dp2884
g62
(dp2885
g82
g83
ssg71
g2879
sg64
(lp2886
S'is_local'
p2887
asbag57
(g78
g59
NtRp2888
(dp2889
g62
(dp2890
g89
g90
ssg71
g2879
sg64
(lp2891
S':'
asbag57
(g78
g59
NtRp2892
(dp2893
g62
(dp2894
sg71
g2879
sg64
(lp2895
g57
(g58
g59
NtRp2896
(dp2897
g62
(dp2898
g70
I5
ssg71
g2892
sg64
(lp2899
g100
asbasbasbag57
(g73
g59
NtRp2900
(dp2901
g62
(dp2902
sg71
g67
sg64
(lp2903
g57
(g78
g59
NtRp2904
(dp2905
g62
(dp2906
g82
g83
ssg71
g2900
sg64
(lp2907
S'is_restful'
p2908
asbag57
(g78
g59
NtRp2909
(dp2910
g62
(dp2911
g89
g90
ssg71
g2900
sg64
(lp2912
S':'
asbag57
(g78
g59
NtRp2913
(dp2914
g62
(dp2915
sg71
g2900
sg64
(lp2916
g57
(g58
g59
NtRp2917
(dp2918
g62
(dp2919
g70
I5
ssg71
g2913
sg64
(lp2920
g1401
asbasbasbag57
(g73
g59
NtRp2921
(dp2922
g62
(dp2923
sg71
g67
sg64
(lp2924
g57
(g78
g59
NtRp2925
(dp2926
g62
(dp2927
g82
g83
ssg71
g2921
sg64
(lp2928
S'now'
p2929
asbag57
(g78
g59
NtRp2930
(dp2931
g62
(dp2932
g89
g90
ssg71
g2921
sg64
(lp2933
S':'
asbag57
(g78
g59
NtRp2934
(dp2935
g62
(dp2936
sg71
g2921
sg64
(lp2937
g57
(g58
g59
NtRp2938
(dp2939
g62
(dp2940
g70
I5
ssg71
g2934
sg64
(lp2941
S'datetime.datetime(2013, 11, 18, 23, 46, 15, 834635)'
p2942
asbasbasbag57
(g73
g59
NtRp2943
(dp2944
g62
(dp2945
sg71
g67
sg64
(lp2946
g57
(g78
g59
NtRp2947
(dp2948
g62
(dp2949
g82
g83
ssg71
g2943
sg64
(lp2950
S'post_vars'
p2951
asbag57
(g78
g59
NtRp2952
(dp2953
g62
(dp2954
g89
g90
ssg71
g2943
sg64
(lp2955
S':'
asbag57
(g78
g59
NtRp2956
(dp2957
g62
(dp2958
sg71
g2943
sg64
(lp2959
g57
(g58
g59
NtRp2960
(dp2961
g62
(dp2962
g70
I5
ssg71
g2956
sg64
(lp2963
g57
(g66
g59
NtRp2964
(dp2965
g62
(dp2966
g70
I4
ssg71
Nsg64
(lp2967
g57
(g73
g59
NtRp2968
(dp2969
g62
(dp2970
sg71
g2964
sg64
(lp2971
g57
(g78
g59
NtRp2972
(dp2973
g62
(dp2974
g82
g83
ssg71
g2968
sg64
(lp2975
S'property'
p2976
asbag57
(g78
g59
NtRp2977
(dp2978
g62
(dp2979
g89
g90
ssg71
g2968
sg64
(lp2980
S':'
asbag57
(g78
g59
NtRp2981
(dp2982
g62
(dp2983
sg71
g2968
sg64
(lp2984
g57
(g58
g59
NtRp2985
(dp2986
g62
(dp2987
g70
I4
ssg71
g2981
sg64
(lp2988
S'1'
asbasbasbag57
(g73
g59
NtRp2989
(dp2990
g62
(dp2991
sg71
g2964
sg64
(lp2992
g57
(g78
g59
NtRp2993
(dp2994
g62
(dp2995
g82
g83
ssg71
g2989
sg64
(lp2996
S'word'
p2997
asbag57
(g78
g59
NtRp2998
(dp2999
g62
(dp3000
g89
g90
ssg71
g2989
sg64
(lp3001
S':'
asbag57
(g78
g59
NtRp3002
(dp3003
g62
(dp3004
sg71
g2989
sg64
(lp3005
g57
(g58
g59
NtRp3006
(dp3007
g62
(dp3008
g70
I4
ssg71
g3002
sg64
(lp3009
S'Lorillard'
p3010
asbasbasbasbasbasbasbag57
(g73
g59
NtRp3011
(dp3012
g62
(dp3013
sg71
g67
sg64
(lp3014
g57
(g78
g59
NtRp3015
(dp3016
g62
(dp3017
g82
g83
ssg71
g3011
sg64
(lp3018
S'raw_args'
p3019
asbag57
(g78
g59
NtRp3020
(dp3021
g62
(dp3022
g89
g90
ssg71
g3011
sg64
(lp3023
S':'
asbag57
(g78
g59
NtRp3024
(dp3025
g62
(dp3026
sg71
g3011
sg64
(lp3027
g57
(g58
g59
NtRp3028
(dp3029
g62
(dp3030
g70
I5
ssg71
g3024
sg64
(lp3031
S''
asbasbasbag57
(g73
g59
NtRp3032
(dp3033
g62
(dp3034
sg71
g67
sg64
(lp3035
g57
(g78
g59
NtRp3036
(dp3037
g62
(dp3038
g82
g83
ssg71
g3032
sg64
(lp3039
S'raw_extension'
p3040
asbag57
(g78
g59
NtRp3041
(dp3042
g62
(dp3043
g89
g90
ssg71
g3032
sg64
(lp3044
S':'
asbag57
(g78
g59
NtRp3045
(dp3046
g62
(dp3047
sg71
g3032
sg64
(lp3048
g57
(g58
g59
NtRp3049
(dp3050
g62
(dp3051
g70
I5
ssg71
g3045
sg64
(lp3052
S'None'
p3053
asbasbasbag57
(g73
g59
NtRp3054
(dp3055
g62
(dp3056
sg71
g67
sg64
(lp3057
g57
(g78
g59
NtRp3058
(dp3059
g62
(dp3060
g82
g83
ssg71
g3054
sg64
(lp3061
S'url'
p3062
asbag57
(g78
g59
NtRp3063
(dp3064
g62
(dp3065
g89
g90
ssg71
g3054
sg64
(lp3066
S':'
asbag57
(g78
g59
NtRp3067
(dp3068
g62
(dp3069
sg71
g3054
sg64
(lp3070
g57
(g58
g59
NtRp3071
(dp3072
g62
(dp3073
g70
I5
ssg71
g3067
sg64
(lp3074
g1861
asbasbasbag57
(g73
g59
NtRp3075
(dp3076
g62
(dp3077
sg71
g67
sg64
(lp3078
g57
(g78
g59
NtRp3079
(dp3080
g62
(dp3081
g82
g83
ssg71
g3075
sg64
(lp3082
S'utcnow'
p3083
asbag57
(g78
g59
NtRp3084
(dp3085
g62
(dp3086
g89
g90
ssg71
g3075
sg64
(lp3087
S':'
asbag57
(g78
g59
NtRp3088
(dp3089
g62
(dp3090
sg71
g3075
sg64
(lp3091
g57
(g58
g59
NtRp3092
(dp3093
g62
(dp3094
g70
I5
ssg71
g3088
sg64
(lp3095
S'datetime.datetime(2013, 11, 18, 18, 16, 15, 834666)'
p3096
asbasbasbag57
(g73
g59
NtRp3097
(dp3098
g62
(dp3099
sg71
g67
sg64
(lp3100
g57
(g78
g59
NtRp3101
(dp3102
g62
(dp3103
g82
g83
ssg71
g3097
sg64
(lp3104
S'uuid'
p3105
asbag57
(g78
g59
NtRp3106
(dp3107
g62
(dp3108
g89
g90
ssg71
g3097
sg64
(lp3109
S':'
asbag57
(g78
g59
NtRp3110
(dp3111
g62
(dp3112
sg71
g3097
sg64
(lp3113
g57
(g58
g59
NtRp3114
(dp3115
g62
(dp3116
g70
I5
ssg71
g3110
sg64
(lp3117
S'WSD/127.0.0.1.2013-11-18.23-46-15.cb93bfb5-f0c8-4ecc-a900-58b97af0d3eb'
p3118
asbasbasbag57
(g73
g59
NtRp3119
(dp3120
g62
(dp3121
sg71
g67
sg64
(lp3122
g57
(g78
g59
NtRp3123
(dp3124
g62
(dp3125
g82
g83
ssg71
g3119
sg64
(lp3126
S'vars'
p3127
asbag57
(g78
g59
NtRp3128
(dp3129
g62
(dp3130
g89
g90
ssg71
g3119
sg64
(lp3131
S':'
asbag57
(g78
g59
NtRp3132
(dp3133
g62
(dp3134
sg71
g3119
sg64
(lp3135
g57
(g58
g59
NtRp3136
(dp3137
g62
(dp3138
g70
I5
ssg71
g3132
sg64
(lp3139
g57
(g66
g59
NtRp3140
(dp3141
g62
(dp3142
g70
I4
ssg71
Nsg64
(lp3143
g57
(g73
g59
NtRp3144
(dp3145
g62
(dp3146
sg71
g3140
sg64
(lp3147
g57
(g78
g59
NtRp3148
(dp3149
g62
(dp3150
g82
g83
ssg71
g3144
sg64
(lp3151
g2976
asbag57
(g78
g59
NtRp3152
(dp3153
g62
(dp3154
g89
g90
ssg71
g3144
sg64
(lp3155
S':'
asbag57
(g78
g59
NtRp3156
(dp3157
g62
(dp3158
sg71
g3144
sg64
(lp3159
g57
(g58
g59
NtRp3160
(dp3161
g62
(dp3162
g70
I4
ssg71
g3156
sg64
(lp3163
S'1'
asbasbasbag57
(g73
g59
NtRp3164
(dp3165
g62
(dp3166
sg71
g3140
sg64
(lp3167
g57
(g78
g59
NtRp3168
(dp3169
g62
(dp3170
g82
g83
ssg71
g3164
sg64
(lp3171
g2997
asbag57
(g78
g59
NtRp3172
(dp3173
g62
(dp3174
g89
g90
ssg71
g3164
sg64
(lp3175
S':'
asbag57
(g78
g59
NtRp3176
(dp3177
g62
(dp3178
sg71
g3164
sg64
(lp3179
g57
(g58
g59
NtRp3180
(dp3181
g62
(dp3182
g70
I4
ssg71
g3176
sg64
(lp3183
g3010
asbasbasbasbasbasbasbag57
(g73
g59
NtRp3184
(dp3185
g62
(dp3186
sg71
g67
sg64
(lp3187
g57
(g78
g59
NtRp3188
(dp3189
g62
(dp3190
g82
g83
ssg71
g3184
sg64
(lp3191
S'wsgi'
p3192
asbag57
(g78
g59
NtRp3193
(dp3194
g62
(dp3195
g89
g90
ssg71
g3184
sg64
(lp3196
S':'
asbag57
(g78
g59
NtRp3197
(dp3198
g62
(dp3199
sg71
g3184
sg64
(lp3200
g57
(g58
g59
NtRp3201
(dp3202
g62
(dp3203
g70
I5
ssg71
g3197
sg64
(lp3204
g57
(g66
g59
NtRp3205
(dp3206
g62
(dp3207
g70
I4
ssg71
Nsg64
(lp3208
g57
(g73
g59
NtRp3209
(dp3210
g62
(dp3211
sg71
g3205
sg64
(lp3212
g57
(g78
g59
NtRp3213
(dp3214
g62
(dp3215
g82
g83
ssg71
g3209
sg64
(lp3216
S'environ'
p3217
asbag57
(g78
g59
NtRp3218
(dp3219
g62
(dp3220
g89
g90
ssg71
g3209
sg64
(lp3221
S':'
asbag57
(g78
g59
NtRp3222
(dp3223
g62
(dp3224
sg71
g3209
sg64
(lp3225
g57
(g58
g59
NtRp3226
(dp3227
g62
(dp3228
g70
I4
ssg71
g3222
sg64
(lp3229
g57
(g66
g59
NtRp3230
(dp3231
g62
(dp3232
g70
I3
ssg71
Nsg64
(lp3233
g57
(g73
g59
NtRp3234
(dp3235
g62
(dp3236
sg71
g3230
sg64
(lp3237
g57
(g78
g59
NtRp3238
(dp3239
g62
(dp3240
g82
g83
ssg71
g3234
sg64
(lp3241
S'CONTENT_LENGTH'
p3242
asbag57
(g78
g59
NtRp3243
(dp3244
g62
(dp3245
g89
g90
ssg71
g3234
sg64
(lp3246
S':'
asbag57
(g78
g59
NtRp3247
(dp3248
g62
(dp3249
sg71
g3234
sg64
(lp3250
g57
(g58
g59
NtRp3251
(dp3252
g62
(dp3253
g70
I3
ssg71
g3247
sg64
(lp3254
g1335
asbasbasbag57
(g73
g59
NtRp3255
(dp3256
g62
(dp3257
sg71
g3230
sg64
(lp3258
g57
(g78
g59
NtRp3259
(dp3260
g62
(dp3261
g82
g83
ssg71
g3255
sg64
(lp3262
S'CONTENT_TYPE'
p3263
asbag57
(g78
g59
NtRp3264
(dp3265
g62
(dp3266
g89
g90
ssg71
g3255
sg64
(lp3267
S':'
asbag57
(g78
g59
NtRp3268
(dp3269
g62
(dp3270
sg71
g3255
sg64
(lp3271
g57
(g58
g59
NtRp3272
(dp3273
g62
(dp3274
g70
I3
ssg71
g3268
sg64
(lp3275
g1357
asbasbasbag57
(g73
g59
NtRp3276
(dp3277
g62
(dp3278
sg71
g3230
sg64
(lp3279
g57
(g78
g59
NtRp3280
(dp3281
g62
(dp3282
g82
g83
ssg71
g3276
sg64
(lp3283
S'HTTP_ACCEPT'
p3284
asbag57
(g78
g59
NtRp3285
(dp3286
g62
(dp3287
g89
g90
ssg71
g3276
sg64
(lp3288
S':'
asbag57
(g78
g59
NtRp3289
(dp3290
g62
(dp3291
sg71
g3276
sg64
(lp3292
g57
(g58
g59
NtRp3293
(dp3294
g62
(dp3295
g70
I3
ssg71
g3289
sg64
(lp3296
g1445
asbasbasbag57
(g73
g59
NtRp3297
(dp3298
g62
(dp3299
sg71
g3230
sg64
(lp3300
g57
(g78
g59
NtRp3301
(dp3302
g62
(dp3303
g82
g83
ssg71
g3297
sg64
(lp3304
S'HTTP_ACCEPT_ENCODING'
p3305
asbag57
(g78
g59
NtRp3306
(dp3307
g62
(dp3308
g89
g90
ssg71
g3297
sg64
(lp3309
S':'
asbag57
(g78
g59
NtRp3310
(dp3311
g62
(dp3312
sg71
g3297
sg64
(lp3313
g57
(g58
g59
NtRp3314
(dp3315
g62
(dp3316
g70
I3
ssg71
g3310
sg64
(lp3317
g1467
asbasbasbag57
(g73
g59
NtRp3318
(dp3319
g62
(dp3320
sg71
g3230
sg64
(lp3321
g57
(g78
g59
NtRp3322
(dp3323
g62
(dp3324
g82
g83
ssg71
g3318
sg64
(lp3325
S'HTTP_ACCEPT_LANGUAGE'
p3326
asbag57
(g78
g59
NtRp3327
(dp3328
g62
(dp3329
g89
g90
ssg71
g3318
sg64
(lp3330
S':'
asbag57
(g78
g59
NtRp3331
(dp3332
g62
(dp3333
sg71
g3318
sg64
(lp3334
g57
(g58
g59
NtRp3335
(dp3336
g62
(dp3337
g70
I3
ssg71
g3331
sg64
(lp3338
g1489
asbasbasbag57
(g73
g59
NtRp3339
(dp3340
g62
(dp3341
sg71
g3230
sg64
(lp3342
g57
(g78
g59
NtRp3343
(dp3344
g62
(dp3345
g82
g83
ssg71
g3339
sg64
(lp3346
S'HTTP_CACHE_CONTROL'
p3347
asbag57
(g78
g59
NtRp3348
(dp3349
g62
(dp3350
g89
g90
ssg71
g3339
sg64
(lp3351
S':'
asbag57
(g78
g59
NtRp3352
(dp3353
g62
(dp3354
sg71
g3339
sg64
(lp3355
g57
(g58
g59
NtRp3356
(dp3357
g62
(dp3358
g70
I3
ssg71
g3352
sg64
(lp3359
g1511
asbasbasbag57
(g73
g59
NtRp3360
(dp3361
g62
(dp3362
sg71
g3230
sg64
(lp3363
g57
(g78
g59
NtRp3364
(dp3365
g62
(dp3366
g82
g83
ssg71
g3360
sg64
(lp3367
S'HTTP_CONNECTION'
p3368
asbag57
(g78
g59
NtRp3369
(dp3370
g62
(dp3371
g89
g90
ssg71
g3360
sg64
(lp3372
S':'
asbag57
(g78
g59
NtRp3373
(dp3374
g62
(dp3375
sg71
g3360
sg64
(lp3376
g57
(g58
g59
NtRp3377
(dp3378
g62
(dp3379
g70
I3
ssg71
g3373
sg64
(lp3380
g1533
asbasbasbag57
(g73
g59
NtRp3381
(dp3382
g62
(dp3383
sg71
g3230
sg64
(lp3384
g57
(g78
g59
NtRp3385
(dp3386
g62
(dp3387
g82
g83
ssg71
g3381
sg64
(lp3388
S'HTTP_CONTENT_LENGTH'
p3389
asbag57
(g78
g59
NtRp3390
(dp3391
g62
(dp3392
g89
g90
ssg71
g3381
sg64
(lp3393
S':'
asbag57
(g78
g59
NtRp3394
(dp3395
g62
(dp3396
sg71
g3381
sg64
(lp3397
g57
(g58
g59
NtRp3398
(dp3399
g62
(dp3400
g70
I3
ssg71
g3394
sg64
(lp3401
g1335
asbasbasbag57
(g73
g59
NtRp3402
(dp3403
g62
(dp3404
sg71
g3230
sg64
(lp3405
g57
(g78
g59
NtRp3406
(dp3407
g62
(dp3408
g82
g83
ssg71
g3402
sg64
(lp3409
S'HTTP_CONTENT_TYPE'
p3410
asbag57
(g78
g59
NtRp3411
(dp3412
g62
(dp3413
g89
g90
ssg71
g3402
sg64
(lp3414
S':'
asbag57
(g78
g59
NtRp3415
(dp3416
g62
(dp3417
sg71
g3402
sg64
(lp3418
g57
(g58
g59
NtRp3419
(dp3420
g62
(dp3421
g70
I3
ssg71
g3415
sg64
(lp3422
g1357
asbasbasbag57
(g73
g59
NtRp3423
(dp3424
g62
(dp3425
sg71
g3230
sg64
(lp3426
g57
(g78
g59
NtRp3427
(dp3428
g62
(dp3429
g82
g83
ssg71
g3423
sg64
(lp3430
S'HTTP_COOKIE'
p3431
asbag57
(g78
g59
NtRp3432
(dp3433
g62
(dp3434
g89
g90
ssg71
g3423
sg64
(lp3435
S':'
asbag57
(g78
g59
NtRp3436
(dp3437
g62
(dp3438
sg71
g3423
sg64
(lp3439
g57
(g58
g59
NtRp3440
(dp3441
g62
(dp3442
g70
I3
ssg71
g3436
sg64
(lp3443
g1597
asbasbasbag57
(g73
g59
NtRp3444
(dp3445
g62
(dp3446
sg71
g3230
sg64
(lp3447
g57
(g78
g59
NtRp3448
(dp3449
g62
(dp3450
g82
g83
ssg71
g3444
sg64
(lp3451
S'HTTP_HOST'
p3452
asbag57
(g78
g59
NtRp3453
(dp3454
g62
(dp3455
g89
g90
ssg71
g3444
sg64
(lp3456
S':'
asbag57
(g78
g59
NtRp3457
(dp3458
g62
(dp3459
sg71
g3444
sg64
(lp3460
g57
(g58
g59
NtRp3461
(dp3462
g62
(dp3463
g70
I3
ssg71
g3457
sg64
(lp3464
g1619
asbasbasbag57
(g73
g59
NtRp3465
(dp3466
g62
(dp3467
sg71
g3230
sg64
(lp3468
g57
(g78
g59
NtRp3469
(dp3470
g62
(dp3471
g82
g83
ssg71
g3465
sg64
(lp3472
S'HTTP_PRAGMA'
p3473
asbag57
(g78
g59
NtRp3474
(dp3475
g62
(dp3476
g89
g90
ssg71
g3465
sg64
(lp3477
S':'
asbag57
(g78
g59
NtRp3478
(dp3479
g62
(dp3480
sg71
g3465
sg64
(lp3481
g57
(g58
g59
NtRp3482
(dp3483
g62
(dp3484
g70
I3
ssg71
g3478
sg64
(lp3485
g1641
asbasbasbag57
(g73
g59
NtRp3486
(dp3487
g62
(dp3488
sg71
g3230
sg64
(lp3489
g57
(g78
g59
NtRp3490
(dp3491
g62
(dp3492
g82
g83
ssg71
g3486
sg64
(lp3493
S'HTTP_REFERER'
p3494
asbag57
(g78
g59
NtRp3495
(dp3496
g62
(dp3497
g89
g90
ssg71
g3486
sg64
(lp3498
S':'
asbag57
(g78
g59
NtRp3499
(dp3500
g62
(dp3501
sg71
g3486
sg64
(lp3502
g57
(g58
g59
NtRp3503
(dp3504
g62
(dp3505
g70
I3
ssg71
g3499
sg64
(lp3506
g1663
asbasbasbag57
(g73
g59
NtRp3507
(dp3508
g62
(dp3509
sg71
g3230
sg64
(lp3510
g57
(g78
g59
NtRp3511
(dp3512
g62
(dp3513
g82
g83
ssg71
g3507
sg64
(lp3514
S'HTTP_USER_AGENT'
p3515
asbag57
(g78
g59
NtRp3516
(dp3517
g62
(dp3518
g89
g90
ssg71
g3507
sg64
(lp3519
S':'
asbag57
(g78
g59
NtRp3520
(dp3521
g62
(dp3522
sg71
g3507
sg64
(lp3523
g57
(g58
g59
NtRp3524
(dp3525
g62
(dp3526
g70
I3
ssg71
g3520
sg64
(lp3527
g1685
asbasbasbag57
(g73
g59
NtRp3528
(dp3529
g62
(dp3530
sg71
g3230
sg64
(lp3531
g57
(g78
g59
NtRp3532
(dp3533
g62
(dp3534
g82
g83
ssg71
g3528
sg64
(lp3535
S'HTTP_X_REQUESTED_WITH'
p3536
asbag57
(g78
g59
NtRp3537
(dp3538
g62
(dp3539
g89
g90
ssg71
g3528
sg64
(lp3540
S':'
asbag57
(g78
g59
NtRp3541
(dp3542
g62
(dp3543
sg71
g3528
sg64
(lp3544
g57
(g58
g59
NtRp3545
(dp3546
g62
(dp3547
g70
I3
ssg71
g3541
sg64
(lp3548
g1707
asbasbasbag57
(g73
g59
NtRp3549
(dp3550
g62
(dp3551
sg71
g3230
sg64
(lp3552
g57
(g78
g59
NtRp3553
(dp3554
g62
(dp3555
g82
g83
ssg71
g3549
sg64
(lp3556
S'PATH_INFO'
p3557
asbag57
(g78
g59
NtRp3558
(dp3559
g62
(dp3560
g89
g90
ssg71
g3549
sg64
(lp3561
S':'
asbag57
(g78
g59
NtRp3562
(dp3563
g62
(dp3564
sg71
g3549
sg64
(lp3565
g57
(g58
g59
NtRp3566
(dp3567
g62
(dp3568
g70
I3
ssg71
g3562
sg64
(lp3569
g1861
asbasbasbag57
(g73
g59
NtRp3570
(dp3571
g62
(dp3572
sg71
g3230
sg64
(lp3573
g57
(g78
g59
NtRp3574
(dp3575
g62
(dp3576
g82
g83
ssg71
g3570
sg64
(lp3577
S'QUERY_STRING'
p3578
asbag57
(g78
g59
NtRp3579
(dp3580
g62
(dp3581
g89
g90
ssg71
g3570
sg64
(lp3582
S':'
asbag57
(g78
g59
NtRp3583
(dp3584
g62
(dp3585
sg71
g3570
sg64
(lp3586
g57
(g58
g59
NtRp3587
(dp3588
g62
(dp3589
g70
I3
ssg71
g3583
sg64
(lp3590
S''
asbasbasbag57
(g73
g59
NtRp3591
(dp3592
g62
(dp3593
sg71
g3230
sg64
(lp3594
g57
(g78
g59
NtRp3595
(dp3596
g62
(dp3597
g82
g83
ssg71
g3591
sg64
(lp3598
S'REMOTE_ADDR'
p3599
asbag57
(g78
g59
NtRp3600
(dp3601
g62
(dp3602
g89
g90
ssg71
g3591
sg64
(lp3603
S':'
asbag57
(g78
g59
NtRp3604
(dp3605
g62
(dp3606
sg71
g3591
sg64
(lp3607
g57
(g58
g59
NtRp3608
(dp3609
g62
(dp3610
g70
I3
ssg71
g3604
sg64
(lp3611
g212
asbasbasbag57
(g73
g59
NtRp3612
(dp3613
g62
(dp3614
sg71
g3230
sg64
(lp3615
g57
(g78
g59
NtRp3616
(dp3617
g62
(dp3618
g82
g83
ssg71
g3612
sg64
(lp3619
S'REMOTE_PORT'
p3620
asbag57
(g78
g59
NtRp3621
(dp3622
g62
(dp3623
g89
g90
ssg71
g3612
sg64
(lp3624
S':'
asbag57
(g78
g59
NtRp3625
(dp3626
g62
(dp3627
sg71
g3612
sg64
(lp3628
g57
(g58
g59
NtRp3629
(dp3630
g62
(dp3631
g70
I3
ssg71
g3625
sg64
(lp3632
g1925
asbasbasbag57
(g73
g59
NtRp3633
(dp3634
g62
(dp3635
sg71
g3230
sg64
(lp3636
g57
(g78
g59
NtRp3637
(dp3638
g62
(dp3639
g82
g83
ssg71
g3633
sg64
(lp3640
S'REQUEST_METHOD'
p3641
asbag57
(g78
g59
NtRp3642
(dp3643
g62
(dp3644
g89
g90
ssg71
g3633
sg64
(lp3645
S':'
asbag57
(g78
g59
NtRp3646
(dp3647
g62
(dp3648
sg71
g3633
sg64
(lp3649
g57
(g58
g59
NtRp3650
(dp3651
g62
(dp3652
g70
I3
ssg71
g3646
sg64
(lp3653
g1947
asbasbasbag57
(g73
g59
NtRp3654
(dp3655
g62
(dp3656
sg71
g3230
sg64
(lp3657
g57
(g78
g59
NtRp3658
(dp3659
g62
(dp3660
g82
g83
ssg71
g3654
sg64
(lp3661
S'REQUEST_URI'
p3662
asbag57
(g78
g59
NtRp3663
(dp3664
g62
(dp3665
g89
g90
ssg71
g3654
sg64
(lp3666
S':'
asbag57
(g78
g59
NtRp3667
(dp3668
g62
(dp3669
sg71
g3654
sg64
(lp3670
g57
(g58
g59
NtRp3671
(dp3672
g62
(dp3673
g70
I3
ssg71
g3667
sg64
(lp3674
g1861
asbasbasbag57
(g73
g59
NtRp3675
(dp3676
g62
(dp3677
sg71
g3230
sg64
(lp3678
g57
(g78
g59
NtRp3679
(dp3680
g62
(dp3681
g82
g83
ssg71
g3675
sg64
(lp3682
S'SCRIPT_NAME'
p3683
asbag57
(g78
g59
NtRp3684
(dp3685
g62
(dp3686
g89
g90
ssg71
g3675
sg64
(lp3687
S':'
asbag57
(g78
g59
NtRp3688
(dp3689
g62
(dp3690
sg71
g3675
sg64
(lp3691
g57
(g58
g59
NtRp3692
(dp3693
g62
(dp3694
g70
I3
ssg71
g3688
sg64
(lp3695
S''
asbasbasbag57
(g73
g59
NtRp3696
(dp3697
g62
(dp3698
sg71
g3230
sg64
(lp3699
g57
(g78
g59
NtRp3700
(dp3701
g62
(dp3702
g82
g83
ssg71
g3696
sg64
(lp3703
S'SERVER_NAME'
p3704
asbag57
(g78
g59
NtRp3705
(dp3706
g62
(dp3707
g89
g90
ssg71
g3696
sg64
(lp3708
S':'
asbag57
(g78
g59
NtRp3709
(dp3710
g62
(dp3711
sg71
g3696
sg64
(lp3712
g57
(g58
g59
NtRp3713
(dp3714
g62
(dp3715
g70
I3
ssg71
g3709
sg64
(lp3716
g2011
asbasbasbag57
(g73
g59
NtRp3717
(dp3718
g62
(dp3719
sg71
g3230
sg64
(lp3720
g57
(g78
g59
NtRp3721
(dp3722
g62
(dp3723
g82
g83
ssg71
g3717
sg64
(lp3724
S'SERVER_PORT'
p3725
asbag57
(g78
g59
NtRp3726
(dp3727
g62
(dp3728
g89
g90
ssg71
g3717
sg64
(lp3729
S':'
asbag57
(g78
g59
NtRp3730
(dp3731
g62
(dp3732
sg71
g3717
sg64
(lp3733
g57
(g58
g59
NtRp3734
(dp3735
g62
(dp3736
g70
I3
ssg71
g3730
sg64
(lp3737
g2033
asbasbasbag57
(g73
g59
NtRp3738
(dp3739
g62
(dp3740
sg71
g3230
sg64
(lp3741
g57
(g78
g59
NtRp3742
(dp3743
g62
(dp3744
g82
g83
ssg71
g3738
sg64
(lp3745
S'SERVER_PROTOCOL'
p3746
asbag57
(g78
g59
NtRp3747
(dp3748
g62
(dp3749
g89
g90
ssg71
g3738
sg64
(lp3750
S':'
asbag57
(g78
g59
NtRp3751
(dp3752
g62
(dp3753
sg71
g3738
sg64
(lp3754
g57
(g58
g59
NtRp3755
(dp3756
g62
(dp3757
g70
I3
ssg71
g3751
sg64
(lp3758
g2055
asbasbasbag57
(g73
g59
NtRp3759
(dp3760
g62
(dp3761
sg71
g3230
sg64
(lp3762
g57
(g78
g59
NtRp3763
(dp3764
g62
(dp3765
g82
g83
ssg71
g3759
sg64
(lp3766
S'SERVER_SOFTWARE'
p3767
asbag57
(g78
g59
NtRp3768
(dp3769
g62
(dp3770
g89
g90
ssg71
g3759
sg64
(lp3771
S':'
asbag57
(g78
g59
NtRp3772
(dp3773
g62
(dp3774
sg71
g3759
sg64
(lp3775
g57
(g58
g59
NtRp3776
(dp3777
g62
(dp3778
g70
I3
ssg71
g3772
sg64
(lp3779
g2077
asbasbasbag57
(g73
g59
NtRp3780
(dp3781
g62
(dp3782
sg71
g3230
sg64
(lp3783
g57
(g78
g59
NtRp3784
(dp3785
g62
(dp3786
g82
g83
ssg71
g3780
sg64
(lp3787
S'wsgi.errors'
p3788
asbag57
(g78
g59
NtRp3789
(dp3790
g62
(dp3791
g89
g90
ssg71
g3780
sg64
(lp3792
S':'
asbag57
(g78
g59
NtRp3793
(dp3794
g62
(dp3795
sg71
g3780
sg64
(lp3796
g57
(g58
g59
NtRp3797
(dp3798
g62
(dp3799
g70
I3
ssg71
g3793
sg64
(lp3800
S"<open file '<stderr>', mode 'w' at 0xb72d20d0>"
p3801
asbasbasbag57
(g73
g59
NtRp3802
(dp3803
g62
(dp3804
sg71
g3230
sg64
(lp3805
g57
(g78
g59
NtRp3806
(dp3807
g62
(dp3808
g82
g83
ssg71
g3802
sg64
(lp3809
S'wsgi.file_wrapper'
p3810
asbag57
(g78
g59
NtRp3811
(dp3812
g62
(dp3813
g89
g90
ssg71
g3802
sg64
(lp3814
S':'
asbag57
(g78
g59
NtRp3815
(dp3816
g62
(dp3817
sg71
g3802
sg64
(lp3818
g57
(g58
g59
NtRp3819
(dp3820
g62
(dp3821
g70
I3
ssg71
g3815
sg64
(lp3822
S'<class wsgiref.util.FileWrapper at 0x8e0a47c>'
p3823
asbasbasbag57
(g73
g59
NtRp3824
(dp3825
g62
(dp3826
sg71
g3230
sg64
(lp3827
g57
(g78
g59
NtRp3828
(dp3829
g62
(dp3830
g82
g83
ssg71
g3824
sg64
(lp3831
S'wsgi.input'
p3832
asbag57
(g78
g59
NtRp3833
(dp3834
g62
(dp3835
g89
g90
ssg71
g3824
sg64
(lp3836
S':'
asbag57
(g78
g59
NtRp3837
(dp3838
g62
(dp3839
sg71
g3824
sg64
(lp3840
g57
(g58
g59
NtRp3841
(dp3842
g62
(dp3843
g70
I3
ssg71
g3837
sg64
(lp3844
S"<open file '<fdopen>', mode 'w+b' at 0xb4749cd8>"
p3845
asbasbasbag57
(g73
g59
NtRp3846
(dp3847
g62
(dp3848
sg71
g3230
sg64
(lp3849
g57
(g78
g59
NtRp3850
(dp3851
g62
(dp3852
g82
g83
ssg71
g3846
sg64
(lp3853
S'wsgi.multiprocess'
p3854
asbag57
(g78
g59
NtRp3855
(dp3856
g62
(dp3857
g89
g90
ssg71
g3846
sg64
(lp3858
S':'
asbag57
(g78
g59
NtRp3859
(dp3860
g62
(dp3861
sg71
g3846
sg64
(lp3862
g57
(g58
g59
NtRp3863
(dp3864
g62
(dp3865
g70
I3
ssg71
g3859
sg64
(lp3866
g1401
asbasbasbag57
(g73
g59
NtRp3867
(dp3868
g62
(dp3869
sg71
g3230
sg64
(lp3870
g57
(g78
g59
NtRp3871
(dp3872
g62
(dp3873
g82
g83
ssg71
g3867
sg64
(lp3874
S'wsgi.multithread'
p3875
asbag57
(g78
g59
NtRp3876
(dp3877
g62
(dp3878
g89
g90
ssg71
g3867
sg64
(lp3879
S':'
asbag57
(g78
g59
NtRp3880
(dp3881
g62
(dp3882
sg71
g3867
sg64
(lp3883
g57
(g58
g59
NtRp3884
(dp3885
g62
(dp3886
g70
I3
ssg71
g3880
sg64
(lp3887
g100
asbasbasbag57
(g73
g59
NtRp3888
(dp3889
g62
(dp3890
sg71
g3230
sg64
(lp3891
g57
(g78
g59
NtRp3892
(dp3893
g62
(dp3894
g82
g83
ssg71
g3888
sg64
(lp3895
S'wsgi.run_once'
p3896
asbag57
(g78
g59
NtRp3897
(dp3898
g62
(dp3899
g89
g90
ssg71
g3888
sg64
(lp3900
S':'
asbag57
(g78
g59
NtRp3901
(dp3902
g62
(dp3903
sg71
g3888
sg64
(lp3904
g57
(g58
g59
NtRp3905
(dp3906
g62
(dp3907
g70
I3
ssg71
g3901
sg64
(lp3908
g1401
asbasbasbag57
(g73
g59
NtRp3909
(dp3910
g62
(dp3911
sg71
g3230
sg64
(lp3912
g57
(g78
g59
NtRp3913
(dp3914
g62
(dp3915
g82
g83
ssg71
g3909
sg64
(lp3916
S'wsgi.url_scheme'
p3917
asbag57
(g78
g59
NtRp3918
(dp3919
g62
(dp3920
g89
g90
ssg71
g3909
sg64
(lp3921
S':'
asbag57
(g78
g59
NtRp3922
(dp3923
g62
(dp3924
sg71
g3909
sg64
(lp3925
g57
(g58
g59
NtRp3926
(dp3927
g62
(dp3928
g70
I3
ssg71
g3922
sg64
(lp3929
g2336
asbasbasbag57
(g73
g59
NtRp3930
(dp3931
g62
(dp3932
sg71
g3230
sg64
(lp3933
g57
(g78
g59
NtRp3934
(dp3935
g62
(dp3936
g82
g83
ssg71
g3930
sg64
(lp3937
S'wsgi.version'
p3938
asbag57
(g78
g59
NtRp3939
(dp3940
g62
(dp3941
g89
g90
ssg71
g3930
sg64
(lp3942
S':'
asbag57
(g78
g59
NtRp3943
(dp3944
g62
(dp3945
sg71
g3930
sg64
(lp3946
g57
(g58
g59
NtRp3947
(dp3948
g62
(dp3949
g70
I3
ssg71
g3943
sg64
(lp3950
S'1'
asbasbasbasbasbasbasbasbasbasbasbasbasbsS'frames'
p3951
(lp3952
(dp3953
S'file'
p3954
S'/home/nazrul/web2py/gluon/restricted.py'
p3955
sS'dump'
p3956
(dp3957
S'environment'
p3958
S"{'A': <class 'gluon.html.A'>, 'Auth': <class 'gluon.tools.Auth'>, 'B': <class 'gluon.html.B'>, 'BEAUTIFY': <class 'gluon.html.BEAUTIFY'>, 'BODY': <class 'gluon.html.BODY'>, 'BR': <class 'gluon.html.BR'>, 'BUTTON': <class 'gluon.html.BUTTON'>, 'CAT': <class 'gluon.html.CAT'>, 'CENTER': <class 'gluon.html.CENTER'>, 'CLEANUP': <class 'gluon.validators.CLEANUP'>, ...}"
p3959
sS'ccode'
p3960
S'<code object <module> at 0xadf7dba8, file "/home...pplications/WSD/controllers/default.py", line 11>'
p3961
ssS'lnum'
p3962
I212
sS'lines'
p3963
(dp3964
I207
S'    try:'
p3965
sI208
S'        if isinstance(code, types.CodeType):'
p3966
sI209
S'            ccode = code'
p3967
sI210
S'        else:'
p3968
sI211
S'            ccode = compile2(code, layer)'
p3969
sI212
S'        exec ccode in environment'
p3970
sI213
S'    except HTTP:'
p3971
sI214
S'        raise'
p3972
sI215
S'    except RestrictedError:'
p3973
sI216
S'        # do not encapsulate (obfuscate) the original RestrictedError'
p3974
ssS'call'
p3975
S"(code='# -*- coding: utf-8 -*-\\n# this file is released ...v)\\n\\nresponse._vars=response._caller(novi_insert)\\n', environment={'A': <class 'gluon.html.A'>, 'Auth': <class 'gluon.tools.Auth'>, 'B': <class 'gluon.html.B'>, 'BEAUTIFY': <class 'gluon.html.BEAUTIFY'>, 'BODY': <class 'gluon.html.BODY'>, 'BR': <class 'gluon.html.BR'>, 'BUTTON': <class 'gluon.html.BUTTON'>, 'CAT': <class 'gluon.html.CAT'>, 'CENTER': <class 'gluon.html.CENTER'>, 'CLEANUP': <class 'gluon.validators.CLEANUP'>, ...}, layer='/home/nazrul/web2py/applications/WSD/controllers/default.py')"
p3976
sS'func'
p3977
S'restricted'
p3978
sa(dp3979
g3954
S'/home/nazrul/web2py/applications/WSD/controllers/default.py'
p3980
sg3956
(dp3981
sg3962
I394
sg3963
(dp3982
I384
S"        Field('Nature',requires=IS_IN_SET(['Animate','Inanimate','Human','Place','Time']),label='Semantic Property of noun whom it modifies'))"
p3983
sI385
S'    if form.accepts(request.vars,session):'
p3984
sI386
S'        db((db.rules.userid==auth.user.id)&(db.rules.wid==session.ide)&(db.rules.sid==session.sid)).update(property=form.vars.Nature)'
p3985
sI387
S"        redirect(URL('index'))"
p3986
sI388
S'    return dict(form=form)'
p3987
sI389
S''
sI390
S'def testt():'
p3988
sI391
S'    v=db(db.auth_user).select()'
p3989
sI392
S'    return dict(v=v)'
p3990
sI383
S'    form=SQLFORM.factory('
p3991
ssg3975
S'()'
p3992
sg3977
S'<module>'
p3993
sa(dp3994
g3954
S'/home/nazrul/web2py/gluon/globals.py'
p3995
sg3956
(dp3996
S'self'
p3997
S'undefined'
p3998
sS'f'
S'<function novi_insert>'
p3999
ssg3962
I193
sg3963
(dp4000
I192
S'        self._vars = None'
p4001
sI193
S'        self._caller = lambda f: f()'
p4002
sI194
S'        self._view_environment = None'
p4003
sI195
S'        self._custom_commit = None'
p4004
sI196
S'        self._custom_rollback = None'
p4005
sI197
S''
sI188
S'        self.menu = []             # used by the default view layout'
p4006
sI189
S'        self.files = []            # used by web2py_ajax.html'
p4007
sI190
S'        self.generic_patterns = []  # patterns to allow generic views'
p4008
sI191
S"        self.delimiters = ('{{', '}}')"
p4009
ssg3975
S'(f=<function novi_insert>)'
p4010
sg3977
S'<lambda>'
p4011
sa(dp4012
g3954
S'/home/nazrul/web2py/gluon/tools.py'
p4013
sg3956
(dp4014
S'action'
p4015
S'<function novi_insert>'
p4016
sS'a'
S'()'
p4017
sS'b'
g45
ssg3962
I2929
sg3963
(dp4018
I2924
S'                    flag = condition'
p4019
sI2925
S'                if not flag:'
p4020
sI2926
S'                    current.session.flash = self.messages.access_denied'
p4021
sI2927
S'                    return call_or_redirect('
p4022
sI2928
S'                        self.settings.on_failed_authorization)'
p4023
sI2929
S'                return action(*a, **b)'
p4024
sI2930
S'            f.__doc__ = action.__doc__'
p4025
sI2931
S'            f.__name__ = action.__name__'
p4026
sI2932
S'            f.__dict__.update(action.__dict__)'
p4027
sI2933
S'            return f'
p4028
ssg3975
S'(*a=(), **b={})'
p4029
sg3977
S'f'
sa(dp4030
g3954
S'/home/nazrul/web2py/applications/WSD/controllers/default.py'
p4031
sg3956
(dp4032
S'both'
p4033
g3998
sS'auth.user.id'
p4034
S'4'
sS'wid'
p4035
g3998
sS'word'
p4036
g3998
sS'builtinproperty'
p4037
S"<type 'property'>"
p4038
sS'auth.user'
p4039
S"<Row {'first_name': 'root', 'last_name': 'root',...sword_key': '', 'registration_key': '', 'id': 4}>"
p4040
sS'request.vars.word'
p4041
S"'Lorillard'"
p4042
sS'sid'
p4043
g3998
sS'userid'
p4044
g3998
sS'global auth'
p4045
S'<gluon.tools.Auth object>'
p4046
sS'global session'
p4047
S"<Storage {'last_query': 'db.novice.id>0', 'word'...login]': '9cd9cddd-5a6c-461e-ac13-41ca5559866a'}>"
p4048
sS'global request'
p4049
S"<Storage {'function': 'novi_insert', 'body': <op...Storage {'property': '1', 'word': 'Lorillard'}>}>"
p4050
sS'db.novice.insert'
p4051
S'<bound method Table.insert of <Table novice (id,userid,sid,wid,word,relation,property,both)>>'
p4052
sS'relation'
p4053
g3998
sS'db.novice'
p4054
S'<Table novice (id,userid,sid,wid,word,relation,property,both)>'
p4055
sS'global db'
p4056
S'<DAL uri="sqlite://storage.sqlite">'
p4057
sS'sesion'
p4058
g3998
sS'session.sid'
p4059
S'10'
p4060
sS'request.vars'
p4061
S"<Storage {'property': '1', 'word': 'Lorillard'}>"
p4062
ssg3962
I236
sg3963
(dp4063
I231
S'            db((db.novice.userid==auth.user.id)&(db.novice.wid==session.wid)&(db.novice.sid==session.sid)&(db.novice.word==request.vars.word)).update(relation=0,property=1,both=0)'
p4064
sI232
S"        elif request.vars.property=='3':"
p4065
sI233
S'            db((db.novice.userid==auth.user.id)&(db.novice.wid==session.wid)&(db.novice.sid==session.sid)&(db.novice.word==request.vars.word)).update(relation=0,property=0,both=1)'
p4066
sI234
S'    else:'
p4067
sI235
S"        if request.vars.property=='1':"
p4068
sI236
S'            db.novice.insert(userid=auth.user.id,sid=sesion.sid,wid=session.sid,word=request.vars.word,relation=1,property=0,both=0)'
p4069
sI237
S"        elif request.vars.property=='2':"
p4070
sI238
S'            db.novice.insert(userid=auth.user.id,sid=sesion.sid,wid=session.sid,word=request.vars.word,relation=0,property=1,both=0)'
p4071
sI239
S"        elif request.vars.property=='3':"
p4072
sI240
S'            db.novice.insert(userid=auth.user.id,sid=sesion.sid,wid=session.sid,word=request.vars.word,relation=0,property=0,both=1)'
p4073
ssg3975
S'()'
p4074
sg3977
S'novi_insert'
p4075
sasS'pyver'
p4076
S'Python 2.7.3: /usr/bin/python'
p4077
sS'session'
p4078
g57
(g58
g59
NtRp4079
(dp4080
g62
(dp4081
sg64
(lp4082
g57
(g66
g59
NtRp4083
(dp4084
g62
(dp4085
g70
I5
ssg71
Nsg64
(lp4086
g57
(g73
g59
NtRp4087
(dp4088
g62
(dp4089
sg71
g4083
sg64
(lp4090
g57
(g78
g59
NtRp4091
(dp4092
g62
(dp4093
g82
g83
ssg71
g4087
sg64
(lp4094
S'auth'
p4095
asbag57
(g78
g59
NtRp4096
(dp4097
g62
(dp4098
g89
g90
ssg71
g4087
sg64
(lp4099
S':'
asbag57
(g78
g59
NtRp4100
(dp4101
g62
(dp4102
sg71
g4087
sg64
(lp4103
g57
(g58
g59
NtRp4104
(dp4105
g62
(dp4106
g70
I5
ssg71
g4100
sg64
(lp4107
g57
(g66
g59
NtRp4108
(dp4109
g62
(dp4110
g70
I4
ssg71
Nsg64
(lp4111
g57
(g73
g59
NtRp4112
(dp4113
g62
(dp4114
sg71
g4108
sg64
(lp4115
g57
(g78
g59
NtRp4116
(dp4117
g62
(dp4118
g82
g83
ssg71
g4112
sg64
(lp4119
S'expiration'
p4120
asbag57
(g78
g59
NtRp4121
(dp4122
g62
(dp4123
g89
g90
ssg71
g4112
sg64
(lp4124
S':'
asbag57
(g78
g59
NtRp4125
(dp4126
g62
(dp4127
sg71
g4112
sg64
(lp4128
g57
(g58
g59
NtRp4129
(dp4130
g62
(dp4131
g70
I4
ssg71
g4125
sg64
(lp4132
S'3600'
p4133
asbasbasbag57
(g73
g59
NtRp4134
(dp4135
g62
(dp4136
sg71
g4108
sg64
(lp4137
g57
(g78
g59
NtRp4138
(dp4139
g62
(dp4140
g82
g83
ssg71
g4134
sg64
(lp4141
S'hmac_key'
p4142
asbag57
(g78
g59
NtRp4143
(dp4144
g62
(dp4145
g89
g90
ssg71
g4134
sg64
(lp4146
S':'
asbag57
(g78
g59
NtRp4147
(dp4148
g62
(dp4149
sg71
g4134
sg64
(lp4150
g57
(g58
g59
NtRp4151
(dp4152
g62
(dp4153
g70
I4
ssg71
g4147
sg64
(lp4154
S'5dd30fcf-3b85-48d3-9559-bfbc4c793899'
p4155
asbasbasbag57
(g73
g59
NtRp4156
(dp4157
g62
(dp4158
sg71
g4108
sg64
(lp4159
g57
(g78
g59
NtRp4160
(dp4161
g62
(dp4162
g82
g83
ssg71
g4156
sg64
(lp4163
S'last_visit'
p4164
asbag57
(g78
g59
NtRp4165
(dp4166
g62
(dp4167
g89
g90
ssg71
g4156
sg64
(lp4168
S':'
asbag57
(g78
g59
NtRp4169
(dp4170
g62
(dp4171
sg71
g4156
sg64
(lp4172
g57
(g58
g59
NtRp4173
(dp4174
g62
(dp4175
g70
I4
ssg71
g4169
sg64
(lp4176
S'datetime.datetime(2013, 11, 18, 23, 40, 20, 393055)'
p4177
asbasbasbag57
(g73
g59
NtRp4178
(dp4179
g62
(dp4180
sg71
g4108
sg64
(lp4181
g57
(g78
g59
NtRp4182
(dp4183
g62
(dp4184
g82
g83
ssg71
g4178
sg64
(lp4185
S'remember'
p4186
asbag57
(g78
g59
NtRp4187
(dp4188
g62
(dp4189
g89
g90
ssg71
g4178
sg64
(lp4190
S':'
asbag57
(g78
g59
NtRp4191
(dp4192
g62
(dp4193
sg71
g4178
sg64
(lp4194
g57
(g58
g59
NtRp4195
(dp4196
g62
(dp4197
g70
I4
ssg71
g4191
sg64
(lp4198
g1401
asbasbasbag57
(g73
g59
NtRp4199
(dp4200
g62
(dp4201
sg71
g4108
sg64
(lp4202
g57
(g78
g59
NtRp4203
(dp4204
g62
(dp4205
g82
g83
ssg71
g4199
sg64
(lp4206
S'user'
p4207
asbag57
(g78
g59
NtRp4208
(dp4209
g62
(dp4210
g89
g90
ssg71
g4199
sg64
(lp4211
S':'
asbag57
(g78
g59
NtRp4212
(dp4213
g62
(dp4214
sg71
g4199
sg64
(lp4215
g57
(g58
g59
NtRp4216
(dp4217
g62
(dp4218
g70
I4
ssg71
g4212
sg64
(lp4219
g57
(g66
g59
NtRp4220
(dp4221
g62
(dp4222
g70
I3
ssg71
Nsg64
(lp4223
g57
(g73
g59
NtRp4224
(dp4225
g62
(dp4226
sg71
g4220
sg64
(lp4227
g57
(g78
g59
NtRp4228
(dp4229
g62
(dp4230
g82
g83
ssg71
g4224
sg64
(lp4231
S'email'
p4232
asbag57
(g78
g59
NtRp4233
(dp4234
g62
(dp4235
g89
g90
ssg71
g4224
sg64
(lp4236
S':'
asbag57
(g78
g59
NtRp4237
(dp4238
g62
(dp4239
sg71
g4224
sg64
(lp4240
g57
(g58
g59
NtRp4241
(dp4242
g62
(dp4243
g70
I3
ssg71
g4237
sg64
(lp4244
S'root@sys.com'
p4245
asbasbasbag57
(g73
g59
NtRp4246
(dp4247
g62
(dp4248
sg71
g4220
sg64
(lp4249
g57
(g78
g59
NtRp4250
(dp4251
g62
(dp4252
g82
g83
ssg71
g4246
sg64
(lp4253
S'first_name'
p4254
asbag57
(g78
g59
NtRp4255
(dp4256
g62
(dp4257
g89
g90
ssg71
g4246
sg64
(lp4258
S':'
asbag57
(g78
g59
NtRp4259
(dp4260
g62
(dp4261
sg71
g4246
sg64
(lp4262
g57
(g58
g59
NtRp4263
(dp4264
g62
(dp4265
g70
I3
ssg71
g4259
sg64
(lp4266
S'root'
p4267
asbasbasbag57
(g73
g59
NtRp4268
(dp4269
g62
(dp4270
sg71
g4220
sg64
(lp4271
g57
(g78
g59
NtRp4272
(dp4273
g62
(dp4274
g82
g83
ssg71
g4268
sg64
(lp4275
S'id'
p4276
asbag57
(g78
g59
NtRp4277
(dp4278
g62
(dp4279
g89
g90
ssg71
g4268
sg64
(lp4280
S':'
asbag57
(g78
g59
NtRp4281
(dp4282
g62
(dp4283
sg71
g4268
sg64
(lp4284
g57
(g58
g59
NtRp4285
(dp4286
g62
(dp4287
g70
I3
ssg71
g4281
sg64
(lp4288
S'4'
asbasbasbag57
(g73
g59
NtRp4289
(dp4290
g62
(dp4291
sg71
g4220
sg64
(lp4292
g57
(g78
g59
NtRp4293
(dp4294
g62
(dp4295
g82
g83
ssg71
g4289
sg64
(lp4296
S'last_name'
p4297
asbag57
(g78
g59
NtRp4298
(dp4299
g62
(dp4300
g89
g90
ssg71
g4289
sg64
(lp4301
S':'
asbag57
(g78
g59
NtRp4302
(dp4303
g62
(dp4304
sg71
g4289
sg64
(lp4305
g57
(g58
g59
NtRp4306
(dp4307
g62
(dp4308
g70
I3
ssg71
g4302
sg64
(lp4309
S'root'
p4310
asbasbasbag57
(g73
g59
NtRp4311
(dp4312
g62
(dp4313
sg71
g4220
sg64
(lp4314
g57
(g78
g59
NtRp4315
(dp4316
g62
(dp4317
g82
g83
ssg71
g4311
sg64
(lp4318
S'registration_id'
p4319
asbag57
(g78
g59
NtRp4320
(dp4321
g62
(dp4322
g89
g90
ssg71
g4311
sg64
(lp4323
S':'
asbag57
(g78
g59
NtRp4324
(dp4325
g62
(dp4326
sg71
g4311
sg64
(lp4327
g57
(g58
g59
NtRp4328
(dp4329
g62
(dp4330
g70
I3
ssg71
g4324
sg64
(lp4331
S''
asbasbasbag57
(g73
g59
NtRp4332
(dp4333
g62
(dp4334
sg71
g4220
sg64
(lp4335
g57
(g78
g59
NtRp4336
(dp4337
g62
(dp4338
g82
g83
ssg71
g4332
sg64
(lp4339
S'registration_key'
p4340
asbag57
(g78
g59
NtRp4341
(dp4342
g62
(dp4343
g89
g90
ssg71
g4332
sg64
(lp4344
S':'
asbag57
(g78
g59
NtRp4345
(dp4346
g62
(dp4347
sg71
g4332
sg64
(lp4348
g57
(g58
g59
NtRp4349
(dp4350
g62
(dp4351
g70
I3
ssg71
g4345
sg64
(lp4352
S''
asbasbasbag57
(g73
g59
NtRp4353
(dp4354
g62
(dp4355
sg71
g4220
sg64
(lp4356
g57
(g78
g59
NtRp4357
(dp4358
g62
(dp4359
g82
g83
ssg71
g4353
sg64
(lp4360
S'reset_password_key'
p4361
asbag57
(g78
g59
NtRp4362
(dp4363
g62
(dp4364
g89
g90
ssg71
g4353
sg64
(lp4365
S':'
asbag57
(g78
g59
NtRp4366
(dp4367
g62
(dp4368
sg71
g4353
sg64
(lp4369
g57
(g58
g59
NtRp4370
(dp4371
g62
(dp4372
g70
I3
ssg71
g4366
sg64
(lp4373
S''
asbasbasbasbasbasbasbag57
(g73
g59
NtRp4374
(dp4375
g62
(dp4376
sg71
g4108
sg64
(lp4377
g57
(g78
g59
NtRp4378
(dp4379
g62
(dp4380
g82
g83
ssg71
g4374
sg64
(lp4381
S'user_groups'
p4382
asbag57
(g78
g59
NtRp4383
(dp4384
g62
(dp4385
g89
g90
ssg71
g4374
sg64
(lp4386
S':'
asbag57
(g78
g59
NtRp4387
(dp4388
g62
(dp4389
sg71
g4374
sg64
(lp4390
g57
(g58
g59
NtRp4391
(dp4392
g62
(dp4393
g70
I4
ssg71
g4387
sg64
(lp4394
g57
(g66
g59
NtRp4395
(dp4396
g62
(dp4397
g70
I3
ssg71
Nsg64
(lp4398
sbasbasbasbasbasbasbasbag57
(g73
g59
NtRp4399
(dp4400
g62
(dp4401
sg71
g4083
sg64
(lp4402
g57
(g78
g59
NtRp4403
(dp4404
g62
(dp4405
g82
g83
ssg71
g4399
sg64
(lp4406
S'f'
asbag57
(g78
g59
NtRp4407
(dp4408
g62
(dp4409
g89
g90
ssg71
g4399
sg64
(lp4410
S':'
asbag57
(g78
g59
NtRp4411
(dp4412
g62
(dp4413
sg71
g4399
sg64
(lp4414
g57
(g58
g59
NtRp4415
(dp4416
g62
(dp4417
g70
I5
ssg71
g4411
sg64
(lp4418
S'0'
asbasbasbag57
(g73
g59
NtRp4419
(dp4420
g62
(dp4421
sg71
g4083
sg64
(lp4422
g57
(g78
g59
NtRp4423
(dp4424
g62
(dp4425
g82
g83
ssg71
g4419
sg64
(lp4426
S'flash'
p4427
asbag57
(g78
g59
NtRp4428
(dp4429
g62
(dp4430
g89
g90
ssg71
g4419
sg64
(lp4431
S':'
asbag57
(g78
g59
NtRp4432
(dp4433
g62
(dp4434
sg71
g4419
sg64
(lp4435
g57
(g58
g59
NtRp4436
(dp4437
g62
(dp4438
g70
I5
ssg71
g4432
sg64
(lp4439
S'None'
p4440
asbasbasbag57
(g73
g59
NtRp4441
(dp4442
g62
(dp4443
sg71
g4083
sg64
(lp4444
g57
(g78
g59
NtRp4445
(dp4446
g62
(dp4447
g82
g83
ssg71
g4441
sg64
(lp4448
S'ide'
p4449
asbag57
(g78
g59
NtRp4450
(dp4451
g62
(dp4452
g89
g90
ssg71
g4441
sg64
(lp4453
S':'
asbag57
(g78
g59
NtRp4454
(dp4455
g62
(dp4456
sg71
g4441
sg64
(lp4457
g57
(g58
g59
NtRp4458
(dp4459
g62
(dp4460
g70
I5
ssg71
g4454
sg64
(lp4461
S'9'
asbasbasbag57
(g73
g59
NtRp4462
(dp4463
g62
(dp4464
sg71
g4083
sg64
(lp4465
g57
(g78
g59
NtRp4466
(dp4467
g62
(dp4468
g82
g83
ssg71
g4462
sg64
(lp4469
S'last_orderby'
p4470
asbag57
(g78
g59
NtRp4471
(dp4472
g62
(dp4473
g89
g90
ssg71
g4462
sg64
(lp4474
S':'
asbag57
(g78
g59
NtRp4475
(dp4476
g62
(dp4477
sg71
g4462
sg64
(lp4478
g57
(g58
g59
NtRp4479
(dp4480
g62
(dp4481
g70
I5
ssg71
g4475
sg64
(lp4482
S'None'
p4483
asbasbasbag57
(g73
g59
NtRp4484
(dp4485
g62
(dp4486
sg71
g4083
sg64
(lp4487
g57
(g78
g59
NtRp4488
(dp4489
g62
(dp4490
g82
g83
ssg71
g4484
sg64
(lp4491
S'last_query'
p4492
asbag57
(g78
g59
NtRp4493
(dp4494
g62
(dp4495
g89
g90
ssg71
g4484
sg64
(lp4496
S':'
asbag57
(g78
g59
NtRp4497
(dp4498
g62
(dp4499
sg71
g4484
sg64
(lp4500
g57
(g58
g59
NtRp4501
(dp4502
g62
(dp4503
g70
I5
ssg71
g4497
sg64
(lp4504
S'db.novice.id>0'
p4505
asbasbasbag57
(g73
g59
NtRp4506
(dp4507
g62
(dp4508
sg71
g4083
sg64
(lp4509
g57
(g78
g59
NtRp4510
(dp4511
g62
(dp4512
g82
g83
ssg71
g4506
sg64
(lp4513
S'level'
p4514
asbag57
(g78
g59
NtRp4515
(dp4516
g62
(dp4517
g89
g90
ssg71
g4506
sg64
(lp4518
S':'
asbag57
(g78
g59
NtRp4519
(dp4520
g62
(dp4521
sg71
g4506
sg64
(lp4522
g57
(g58
g59
NtRp4523
(dp4524
g62
(dp4525
g70
I5
ssg71
g4519
sg64
(lp4526
S'1'
asbasbasbag57
(g73
g59
NtRp4527
(dp4528
g62
(dp4529
sg71
g4083
sg64
(lp4530
g57
(g78
g59
NtRp4531
(dp4532
g62
(dp4533
g82
g83
ssg71
g4527
sg64
(lp4534
S'sid'
p4535
asbag57
(g78
g59
NtRp4536
(dp4537
g62
(dp4538
g89
g90
ssg71
g4527
sg64
(lp4539
S':'
asbag57
(g78
g59
NtRp4540
(dp4541
g62
(dp4542
sg71
g4527
sg64
(lp4543
g57
(g58
g59
NtRp4544
(dp4545
g62
(dp4546
g70
I5
ssg71
g4540
sg64
(lp4547
S'10'
p4548
asbasbasbag57
(g73
g59
NtRp4549
(dp4550
g62
(dp4551
sg71
g4083
sg64
(lp4552
g57
(g78
g59
NtRp4553
(dp4554
g62
(dp4555
g82
g83
ssg71
g4549
sg64
(lp4556
S'word'
p4557
asbag57
(g78
g59
NtRp4558
(dp4559
g62
(dp4560
g89
g90
ssg71
g4549
sg64
(lp4561
S':'
asbag57
(g78
g59
NtRp4562
(dp4563
g62
(dp4564
sg71
g4549
sg64
(lp4565
g57
(g58
g59
NtRp4566
(dp4567
g62
(dp4568
g70
I5
ssg71
g4562
sg64
(lp4569
S'old'
p4570
asbasbasbasbasbsS'etype'
p4571
S"<type 'exceptions.NameError'>"
p4572
sS'date'
p4573
S'Mon Nov 18 23:46:15 2013'
p4574
sS'response'
p4575
g57
(g58
g59
NtRp4576
(dp4577
g62
(dp4578
sg64
(lp4579
g57
(g66
g59
NtRp4580
(dp4581
g62
(dp4582
g70
I5
ssg71
Nsg64
(lp4583
g57
(g73
g59
NtRp4584
(dp4585
g62
(dp4586
sg71
g4580
sg64
(lp4587
g57
(g78
g59
NtRp4588
(dp4589
g62
(dp4590
g82
g83
ssg71
g4584
sg64
(lp4591
g155
asbag57
(g78
g59
NtRp4592
(dp4593
g62
(dp4594
g89
g90
ssg71
g4584
sg64
(lp4595
S':'
asbag57
(g78
g59
NtRp4596
(dp4597
g62
(dp4598
sg71
g4584
sg64
(lp4599
g57
(g58
g59
NtRp4600
(dp4601
g62
(dp4602
g70
I5
ssg71
g4596
sg64
(lp4603
S'<cStringIO.StringO object at 0xad8aa240>'
p4604
asbasbasbag57
(g73
g59
NtRp4605
(dp4606
g62
(dp4607
sg71
g4580
sg64
(lp4608
g57
(g78
g59
NtRp4609
(dp4610
g62
(dp4611
g82
g83
ssg71
g4605
sg64
(lp4612
g243
asbag57
(g78
g59
NtRp4613
(dp4614
g62
(dp4615
g89
g90
ssg71
g4605
sg64
(lp4616
S':'
asbag57
(g78
g59
NtRp4617
(dp4618
g62
(dp4619
sg71
g4605
sg64
(lp4620
g57
(g58
g59
NtRp4621
(dp4622
g62
(dp4623
g70
I5
ssg71
g4617
sg64
(lp4624
g57
(g66
g59
NtRp4625
(dp4626
g62
(dp4627
g70
I4
ssg71
Nsg64
(lp4628
g57
(g73
g59
NtRp4629
(dp4630
g62
(dp4631
sg71
g4625
sg64
(lp4632
g57
(g78
g59
NtRp4633
(dp4634
g62
(dp4635
g82
g83
ssg71
g4629
sg64
(lp4636
S'session_id_wsd'
p4637
asbag57
(g78
g59
NtRp4638
(dp4639
g62
(dp4640
g89
g90
ssg71
g4629
sg64
(lp4641
S':'
asbag57
(g78
g59
NtRp4642
(dp4643
g62
(dp4644
sg71
g4629
sg64
(lp4645
g57
(g58
g59
NtRp4646
(dp4647
g62
(dp4648
g70
I4
ssg71
g4642
sg64
(lp4649
g1033
ag57
(g66
g59
NtRp4650
(dp4651
g62
(dp4652
g70
I3
ssg71
Nsg64
(lp4653
g57
(g73
g59
NtRp4654
(dp4655
g62
(dp4656
sg71
g4650
sg64
(lp4657
g57
(g78
g59
NtRp4658
(dp4659
g62
(dp4660
g82
g83
ssg71
g4654
sg64
(lp4661
g294
asbag57
(g78
g59
NtRp4662
(dp4663
g62
(dp4664
g89
g90
ssg71
g4654
sg64
(lp4665
S':'
asbag57
(g78
g59
NtRp4666
(dp4667
g62
(dp4668
sg71
g4654
sg64
(lp4669
g57
(g58
g59
NtRp4670
(dp4671
g62
(dp4672
g70
I3
ssg71
g4666
sg64
(lp4673
S''
asbasbasbag57
(g73
g59
NtRp4674
(dp4675
g62
(dp4676
sg71
g4650
sg64
(lp4677
g57
(g78
g59
NtRp4678
(dp4679
g62
(dp4680
g82
g83
ssg71
g4674
sg64
(lp4681
g315
asbag57
(g78
g59
NtRp4682
(dp4683
g62
(dp4684
g89
g90
ssg71
g4674
sg64
(lp4685
S':'
asbag57
(g78
g59
NtRp4686
(dp4687
g62
(dp4688
sg71
g4674
sg64
(lp4689
g57
(g58
g59
NtRp4690
(dp4691
g62
(dp4692
g70
I3
ssg71
g4686
sg64
(lp4693
S''
asbasbasbag57
(g73
g59
NtRp4694
(dp4695
g62
(dp4696
sg71
g4650
sg64
(lp4697
g57
(g78
g59
NtRp4698
(dp4699
g62
(dp4700
g82
g83
ssg71
g4694
sg64
(lp4701
g336
asbag57
(g78
g59
NtRp4702
(dp4703
g62
(dp4704
g89
g90
ssg71
g4694
sg64
(lp4705
S':'
asbag57
(g78
g59
NtRp4706
(dp4707
g62
(dp4708
sg71
g4694
sg64
(lp4709
g57
(g58
g59
NtRp4710
(dp4711
g62
(dp4712
g70
I3
ssg71
g4706
sg64
(lp4713
S''
asbasbasbag57
(g73
g59
NtRp4714
(dp4715
g62
(dp4716
sg71
g4650
sg64
(lp4717
g57
(g78
g59
NtRp4718
(dp4719
g62
(dp4720
g82
g83
ssg71
g4714
sg64
(lp4721
g357
asbag57
(g78
g59
NtRp4722
(dp4723
g62
(dp4724
g89
g90
ssg71
g4714
sg64
(lp4725
S':'
asbag57
(g78
g59
NtRp4726
(dp4727
g62
(dp4728
sg71
g4714
sg64
(lp4729
g57
(g58
g59
NtRp4730
(dp4731
g62
(dp4732
g70
I3
ssg71
g4726
sg64
(lp4733
S''
asbasbasbag57
(g73
g59
NtRp4734
(dp4735
g62
(dp4736
sg71
g4650
sg64
(lp4737
g57
(g78
g59
NtRp4738
(dp4739
g62
(dp4740
g82
g83
ssg71
g4734
sg64
(lp4741
g378
asbag57
(g78
g59
NtRp4742
(dp4743
g62
(dp4744
g89
g90
ssg71
g4734
sg64
(lp4745
S':'
asbag57
(g78
g59
NtRp4746
(dp4747
g62
(dp4748
sg71
g4734
sg64
(lp4749
g57
(g58
g59
NtRp4750
(dp4751
g62
(dp4752
g70
I3
ssg71
g4746
sg64
(lp4753
S''
asbasbasbag57
(g73
g59
NtRp4754
(dp4755
g62
(dp4756
sg71
g4650
sg64
(lp4757
g57
(g78
g59
NtRp4758
(dp4759
g62
(dp4760
g82
g83
ssg71
g4754
sg64
(lp4761
g399
asbag57
(g78
g59
NtRp4762
(dp4763
g62
(dp4764
g89
g90
ssg71
g4754
sg64
(lp4765
S':'
asbag57
(g78
g59
NtRp4766
(dp4767
g62
(dp4768
sg71
g4754
sg64
(lp4769
g57
(g58
g59
NtRp4770
(dp4771
g62
(dp4772
g70
I3
ssg71
g4766
sg64
(lp4773
S'/'
asbasbasbag57
(g73
g59
NtRp4774
(dp4775
g62
(dp4776
sg71
g4650
sg64
(lp4777
g57
(g78
g59
NtRp4778
(dp4779
g62
(dp4780
g82
g83
ssg71
g4774
sg64
(lp4781
g420
asbag57
(g78
g59
NtRp4782
(dp4783
g62
(dp4784
g89
g90
ssg71
g4774
sg64
(lp4785
S':'
asbag57
(g78
g59
NtRp4786
(dp4787
g62
(dp4788
sg71
g4774
sg64
(lp4789
g57
(g58
g59
NtRp4790
(dp4791
g62
(dp4792
g70
I3
ssg71
g4786
sg64
(lp4793
S''
asbasbasbag57
(g73
g59
NtRp4794
(dp4795
g62
(dp4796
sg71
g4650
sg64
(lp4797
g57
(g78
g59
NtRp4798
(dp4799
g62
(dp4800
g82
g83
ssg71
g4794
sg64
(lp4801
g441
asbag57
(g78
g59
NtRp4802
(dp4803
g62
(dp4804
g89
g90
ssg71
g4794
sg64
(lp4805
S':'
asbag57
(g78
g59
NtRp4806
(dp4807
g62
(dp4808
sg71
g4794
sg64
(lp4809
g57
(g58
g59
NtRp4810
(dp4811
g62
(dp4812
g70
I3
ssg71
g4806
sg64
(lp4813
S''
asbasbasbasbasbasbasbasbasbasbasbag57
(g73
g59
NtRp4814
(dp4815
g62
(dp4816
sg71
g4580
sg64
(lp4817
g57
(g78
g59
NtRp4818
(dp4819
g62
(dp4820
g82
g83
ssg71
g4814
sg64
(lp4821
S'delimiters'
p4822
asbag57
(g78
g59
NtRp4823
(dp4824
g62
(dp4825
g89
g90
ssg71
g4814
sg64
(lp4826
S':'
asbag57
(g78
g59
NtRp4827
(dp4828
g62
(dp4829
sg71
g4814
sg64
(lp4830
g57
(g58
g59
NtRp4831
(dp4832
g62
(dp4833
g70
I5
ssg71
g4827
sg64
(lp4834
g57
(g66
g59
NtRp4835
(dp4836
g62
(dp4837
g70
I4
ssg71
Nsg64
(lp4838
g57
(g73
g59
NtRp4839
(dp4840
g62
(dp4841
sg71
g4835
sg64
(lp4842
g57
(g78
g59
NtRp4843
(dp4844
g62
(dp4845
sg71
g4839
sg64
(lp4846
g57
(g58
g59
NtRp4847
(dp4848
g62
(dp4849
g70
I4
ssg71
g4843
sg64
(lp4850
S'{{'
p4851
asbasbasbag57
(g73
g59
NtRp4852
(dp4853
g62
(dp4854
sg71
g4835
sg64
(lp4855
g57
(g78
g59
NtRp4856
(dp4857
g62
(dp4858
sg71
g4852
sg64
(lp4859
g57
(g58
g59
NtRp4860
(dp4861
g62
(dp4862
g70
I4
ssg71
g4856
sg64
(lp4863
S'}}'
p4864
asbasbasbasbasbasbasbag57
(g73
g59
NtRp4865
(dp4866
g62
(dp4867
sg71
g4580
sg64
(lp4868
g57
(g78
g59
NtRp4869
(dp4870
g62
(dp4871
g82
g83
ssg71
g4865
sg64
(lp4872
S'files'
p4873
asbag57
(g78
g59
NtRp4874
(dp4875
g62
(dp4876
g89
g90
ssg71
g4865
sg64
(lp4877
S':'
asbag57
(g78
g59
NtRp4878
(dp4879
g62
(dp4880
sg71
g4865
sg64
(lp4881
g57
(g58
g59
NtRp4882
(dp4883
g62
(dp4884
g70
I5
ssg71
g4878
sg64
(lp4885
g57
(g66
g59
NtRp4886
(dp4887
g62
(dp4888
g70
I4
ssg71
Nsg64
(lp4889
sbasbasbasbag57
(g73
g59
NtRp4890
(dp4891
g62
(dp4892
sg71
g4580
sg64
(lp4893
g57
(g78
g59
NtRp4894
(dp4895
g62
(dp4896
g82
g83
ssg71
g4890
sg64
(lp4897
S'flash'
p4898
asbag57
(g78
g59
NtRp4899
(dp4900
g62
(dp4901
g89
g90
ssg71
g4890
sg64
(lp4902
S':'
asbag57
(g78
g59
NtRp4903
(dp4904
g62
(dp4905
sg71
g4890
sg64
(lp4906
g57
(g58
g59
NtRp4907
(dp4908
g62
(dp4909
g70
I5
ssg71
g4903
sg64
(lp4910
S''
asbasbasbag57
(g73
g59
NtRp4911
(dp4912
g62
(dp4913
sg71
g4580
sg64
(lp4914
g57
(g78
g59
NtRp4915
(dp4916
g62
(dp4917
g82
g83
ssg71
g4911
sg64
(lp4918
S'generic_patterns'
p4919
asbag57
(g78
g59
NtRp4920
(dp4921
g62
(dp4922
g89
g90
ssg71
g4911
sg64
(lp4923
S':'
asbag57
(g78
g59
NtRp4924
(dp4925
g62
(dp4926
sg71
g4911
sg64
(lp4927
g57
(g58
g59
NtRp4928
(dp4929
g62
(dp4930
g70
I5
ssg71
g4924
sg64
(lp4931
g57
(g66
g59
NtRp4932
(dp4933
g62
(dp4934
g70
I4
ssg71
Nsg64
(lp4935
g57
(g73
g59
NtRp4936
(dp4937
g62
(dp4938
sg71
g4932
sg64
(lp4939
g57
(g78
g59
NtRp4940
(dp4941
g62
(dp4942
sg71
g4936
sg64
(lp4943
g57
(g58
g59
NtRp4944
(dp4945
g62
(dp4946
g70
I4
ssg71
g4940
sg64
(lp4947
S'*'
asbasbasbasbasbasbasbag57
(g73
g59
NtRp4948
(dp4949
g62
(dp4950
sg71
g4580
sg64
(lp4951
g57
(g78
g59
NtRp4952
(dp4953
g62
(dp4954
g82
g83
ssg71
g4948
sg64
(lp4955
S'google_analytics_id'
p4956
asbag57
(g78
g59
NtRp4957
(dp4958
g62
(dp4959
g89
g90
ssg71
g4948
sg64
(lp4960
S':'
asbag57
(g78
g59
NtRp4961
(dp4962
g62
(dp4963
sg71
g4948
sg64
(lp4964
g57
(g58
g59
NtRp4965
(dp4966
g62
(dp4967
g70
I5
ssg71
g4961
sg64
(lp4968
S'None'
p4969
asbasbasbag57
(g73
g59
NtRp4970
(dp4971
g62
(dp4972
sg71
g4580
sg64
(lp4973
g57
(g78
g59
NtRp4974
(dp4975
g62
(dp4976
g82
g83
ssg71
g4970
sg64
(lp4977
S'headers'
p4978
asbag57
(g78
g59
NtRp4979
(dp4980
g62
(dp4981
g89
g90
ssg71
g4970
sg64
(lp4982
S':'
asbag57
(g78
g59
NtRp4983
(dp4984
g62
(dp4985
sg71
g4970
sg64
(lp4986
g57
(g58
g59
NtRp4987
(dp4988
g62
(dp4989
g70
I5
ssg71
g4983
sg64
(lp4990
g57
(g66
g59
NtRp4991
(dp4992
g62
(dp4993
g70
I4
ssg71
Nsg64
(lp4994
g57
(g73
g59
NtRp4995
(dp4996
g62
(dp4997
sg71
g4991
sg64
(lp4998
g57
(g78
g59
NtRp4999
(dp5000
g62
(dp5001
g82
g83
ssg71
g4995
sg64
(lp5002
S'X-Powered-By'
p5003
asbag57
(g78
g59
NtRp5004
(dp5005
g62
(dp5006
g89
g90
ssg71
g4995
sg64
(lp5007
S':'
asbag57
(g78
g59
NtRp5008
(dp5009
g62
(dp5010
sg71
g4995
sg64
(lp5011
g57
(g58
g59
NtRp5012
(dp5013
g62
(dp5014
g70
I4
ssg71
g5008
sg64
(lp5015
S'web2py'
p5016
asbasbasbasbasbasbasbag57
(g73
g59
NtRp5017
(dp5018
g62
(dp5019
sg71
g4580
sg64
(lp5020
g57
(g78
g59
NtRp5021
(dp5022
g62
(dp5023
g82
g83
ssg71
g5017
sg64
(lp5024
S'menu'
p5025
asbag57
(g78
g59
NtRp5026
(dp5027
g62
(dp5028
g89
g90
ssg71
g5017
sg64
(lp5029
S':'
asbag57
(g78
g59
NtRp5030
(dp5031
g62
(dp5032
sg71
g5017
sg64
(lp5033
g57
(g58
g59
NtRp5034
(dp5035
g62
(dp5036
g70
I5
ssg71
g5030
sg64
(lp5037
g57
(g66
g59
NtRp5038
(dp5039
g62
(dp5040
g70
I4
ssg71
Nsg64
(lp5041
g57
(g73
g59
NtRp5042
(dp5043
g62
(dp5044
sg71
g5038
sg64
(lp5045
g57
(g78
g59
NtRp5046
(dp5047
g62
(dp5048
sg71
g5042
sg64
(lp5049
g57
(g58
g59
NtRp5050
(dp5051
g62
(dp5052
g70
I4
ssg71
g5046
sg64
(lp5053
g57
(g66
g59
NtRp5054
(dp5055
g62
(dp5056
g70
I3
ssg71
Nsg64
(lp5057
g57
(g73
g59
NtRp5058
(dp5059
g62
(dp5060
sg71
g5054
sg64
(lp5061
g57
(g78
g59
NtRp5062
(dp5063
g62
(dp5064
sg71
g5058
sg64
(lp5065
g57
(g58
g59
NtRp5066
(dp5067
g62
(dp5068
g70
I3
ssg71
g5062
sg64
(lp5069
cgluon.languages
lazyT_unpickle
p5070
(S't\x04\x00\x00\x00Home'
tRp5071
asbasbasbag57
(g73
g59
NtRp5072
(dp5073
g62
(dp5074
sg71
g5054
sg64
(lp5075
g57
(g78
g59
NtRp5076
(dp5077
g62
(dp5078
sg71
g5072
sg64
(lp5079
g57
(g58
g59
NtRp5080
(dp5081
g62
(dp5082
g70
I3
ssg71
g5076
sg64
(lp5083
g1401
asbasbasbag57
(g73
g59
NtRp5084
(dp5085
g62
(dp5086
sg71
g5054
sg64
(lp5087
g57
(g78
g59
NtRp5088
(dp5089
g62
(dp5090
sg71
g5084
sg64
(lp5091
g57
(g58
g59
NtRp5092
(dp5093
g62
(dp5094
g70
I3
ssg71
g5088
sg64
(lp5095
S'/WSD/default/index'
p5096
asbasbasbag57
(g73
g59
NtRp5097
(dp5098
g62
(dp5099
sg71
g5054
sg64
(lp5100
g57
(g78
g59
NtRp5101
(dp5102
g62
(dp5103
sg71
g5097
sg64
(lp5104
g57
(g58
g59
NtRp5105
(dp5106
g62
(dp5107
g70
I3
ssg71
g5101
sg64
(lp5108
g57
(g66
g59
NtRp5109
(dp5110
g62
(dp5111
g70
I2
ssg71
Nsg64
(lp5112
sbasbasbasbasbasbasbasbag57
(g73
g59
NtRp5113
(dp5114
g62
(dp5115
sg71
g5038
sg64
(lp5116
g57
(g78
g59
NtRp5117
(dp5118
g62
(dp5119
sg71
g5113
sg64
(lp5120
g57
(g58
g59
NtRp5121
(dp5122
g62
(dp5123
g70
I4
ssg71
g5117
sg64
(lp5124
g57
(g66
g59
NtRp5125
(dp5126
g62
(dp5127
g70
I3
ssg71
Nsg64
(lp5128
g57
(g73
g59
NtRp5129
(dp5130
g62
(dp5131
sg71
g5125
sg64
(lp5132
g57
(g78
g59
NtRp5133
(dp5134
g62
(dp5135
sg71
g5129
sg64
(lp5136
g57
(g58
g59
NtRp5137
(dp5138
g62
(dp5139
g70
I3
ssg71
g5133
sg64
(lp5140
g57
(cgluon.html
SPAN
p5141
g59
NtRp5142
(dp5143
g62
(dp5144
g82
S'color:yellow'
p5145
ssg71
Nsg64
(lp5146
g5016
asbasbasbasbag57
(g73
g59
NtRp5147
(dp5148
g62
(dp5149
sg71
g5125
sg64
(lp5150
g57
(g78
g59
NtRp5151
(dp5152
g62
(dp5153
sg71
g5147
sg64
(lp5154
g57
(g58
g59
NtRp5155
(dp5156
g62
(dp5157
g70
I3
ssg71
g5151
sg64
(lp5158
g1401
asbasbasbag57
(g73
g59
NtRp5159
(dp5160
g62
(dp5161
sg71
g5125
sg64
(lp5162
g57
(g78
g59
NtRp5163
(dp5164
g62
(dp5165
sg71
g5159
sg64
(lp5166
g57
(g58
g59
NtRp5167
(dp5168
g62
(dp5169
g70
I3
ssg71
g5163
sg64
(lp5170
S'None'
p5171
asbasbasbag57
(g73
g59
NtRp5172
(dp5173
g62
(dp5174
sg71
g5125
sg64
(lp5175
g57
(g78
g59
NtRp5176
(dp5177
g62
(dp5178
sg71
g5172
sg64
(lp5179
g57
(g58
g59
NtRp5180
(dp5181
g62
(dp5182
g70
I3
ssg71
g5176
sg64
(lp5183
g57
(g66
g59
NtRp5184
(dp5185
g62
(dp5186
g70
I2
ssg71
Nsg64
(lp5187
g57
(g73
g59
NtRp5188
(dp5189
g62
(dp5190
sg71
g5184
sg64
(lp5191
g57
(g78
g59
NtRp5192
(dp5193
g62
(dp5194
sg71
g5188
sg64
(lp5195
g57
(g58
g59
NtRp5196
(dp5197
g62
(dp5198
g70
I2
ssg71
g5192
sg64
(lp5199
g57
(g66
g59
NtRp5200
(dp5201
g62
(dp5202
g70
I1
ssg71
Nsg64
(lp5203
g57
(g73
g59
NtRp5204
(dp5205
g62
(dp5206
sg71
g5200
sg64
(lp5207
g57
(g78
g59
NtRp5208
(dp5209
g62
(dp5210
sg71
g5204
sg64
(lp5211
g57
(g58
g59
NtRp5212
(dp5213
g62
(dp5214
g70
I1
ssg71
g5208
sg64
(lp5215
g5070
(S's\x08\x00\x00\x00My Sites'
tRp5216
asbasbasbag57
(g73
g59
NtRp5217
(dp5218
g62
(dp5219
sg71
g5200
sg64
(lp5220
g57
(g78
g59
NtRp5221
(dp5222
g62
(dp5223
sg71
g5217
sg64
(lp5224
g57
(g58
g59
NtRp5225
(dp5226
g62
(dp5227
g70
I1
ssg71
g5221
sg64
(lp5228
I00
asbasbasbag57
(g73
g59
NtRp5229
(dp5230
g62
(dp5231
sg71
g5200
sg64
(lp5232
g57
(g78
g59
NtRp5233
(dp5234
g62
(dp5235
sg71
g5229
sg64
(lp5236
g57
(g58
g59
NtRp5237
(dp5238
g62
(dp5239
g70
I1
ssg71
g5233
sg64
(lp5240
S'/admin/default/site'
p5241
asbasbasbasbasbasbasbag57
(g73
g59
NtRp5242
(dp5243
g62
(dp5244
sg71
g5184
sg64
(lp5245
g57
(g78
g59
NtRp5246
(dp5247
g62
(dp5248
sg71
g5242
sg64
(lp5249
g57
(g58
g59
NtRp5250
(dp5251
g62
(dp5252
g70
I2
ssg71
g5246
sg64
(lp5253
g57
(g66
g59
NtRp5254
(dp5255
g62
(dp5256
g70
I1
ssg71
Nsg64
(lp5257
g57
(g73
g59
NtRp5258
(dp5259
g62
(dp5260
sg71
g5254
sg64
(lp5261
g57
(g78
g59
NtRp5262
(dp5263
g62
(dp5264
sg71
g5258
sg64
(lp5265
g57
(g58
g59
NtRp5266
(dp5267
g62
(dp5268
g70
I1
ssg71
g5262
sg64
(lp5269
g5070
(S's\x08\x00\x00\x00This App'
tRp5270
asbasbasbag57
(g73
g59
NtRp5271
(dp5272
g62
(dp5273
sg71
g5254
sg64
(lp5274
g57
(g78
g59
NtRp5275
(dp5276
g62
(dp5277
sg71
g5271
sg64
(lp5278
g57
(g58
g59
NtRp5279
(dp5280
g62
(dp5281
g70
I1
ssg71
g5275
sg64
(lp5282
I00
asbasbasbag57
(g73
g59
NtRp5283
(dp5284
g62
(dp5285
sg71
g5254
sg64
(lp5286
g57
(g78
g59
NtRp5287
(dp5288
g62
(dp5289
sg71
g5283
sg64
(lp5290
g57
(g58
g59
NtRp5291
(dp5292
g62
(dp5293
g70
I1
ssg71
g5287
sg64
(lp5294
S'/admin/default/design/WSD'
p5295
asbasbasbag57
(g73
g59
NtRp5296
(dp5297
g62
(dp5298
sg71
g5254
sg64
(lp5299
g57
(g78
g59
NtRp5300
(dp5301
g62
(dp5302
sg71
g5296
sg64
(lp5303
g57
(g58
g59
NtRp5304
(dp5305
g62
(dp5306
g70
I1
ssg71
g5300
sg64
(lp5307
(lp5308
(g5070
(S't\n\x00\x00\x00Controller'
tRp5309
I00
S'/admin/default/edit/WSD/controllers/default.py'
tp5310
a(g5070
(S't\x04\x00\x00\x00View'
tRp5311
I00
S'/admin/default/edit/WSD/views/default/novi_insert.html'
tp5312
a(g5070
(S't\x06\x00\x00\x00Layout'
tRp5313
I00
S'/admin/default/edit/WSD/views/layout.html'
tp5314
a(g5070
(S't\n\x00\x00\x00Stylesheet'
tRp5315
I00
S'/admin/default/edit/WSD/static/css/web2py.css'
tp5316
a(g5070
(S's\x08\x00\x00\x00DB Model'
tRp5317
I00
S'/admin/default/edit/WSD/models/db.py'
tp5318
a(g5070
(S's\n\x00\x00\x00Menu Model'
tRp5319
I00
S'/admin/default/edit/WSD/models/menu.py'
tp5320
a(g5070
(S't\x08\x00\x00\x00Database'
tRp5321
I00
S'/WSD/appadmin/index'
tp5322
a(g5070
(S't\x06\x00\x00\x00Errors'
tRp5323
I00
S'/admin/default/errors/WSD'
tp5324
a(g5070
(S't\x05\x00\x00\x00About'
tRp5325
I00
S'/admin/default/about/WSD'
tp5326
aasbasbasbasbasbasbasbag57
(g73
g59
NtRp5327
(dp5328
g62
(dp5329
sg71
g5184
sg64
(lp5330
g57
(g78
g59
NtRp5331
(dp5332
g62
(dp5333
sg71
g5327
sg64
(lp5334
g57
(g58
g59
NtRp5335
(dp5336
g62
(dp5337
g70
I2
ssg71
g5331
sg64
(lp5338
g57
(g66
g59
NtRp5339
(dp5340
g62
(dp5341
g70
I1
ssg71
Nsg64
(lp5342
g57
(g73
g59
NtRp5343
(dp5344
g62
(dp5345
sg71
g5339
sg64
(lp5346
g57
(g78
g59
NtRp5347
(dp5348
g62
(dp5349
sg71
g5343
sg64
(lp5350
g57
(g58
g59
NtRp5351
(dp5352
g62
(dp5353
g70
I1
ssg71
g5347
sg64
(lp5354
S'web2py.com'
p5355
asbasbasbag57
(g73
g59
NtRp5356
(dp5357
g62
(dp5358
sg71
g5339
sg64
(lp5359
g57
(g78
g59
NtRp5360
(dp5361
g62
(dp5362
sg71
g5356
sg64
(lp5363
g57
(g58
g59
NtRp5364
(dp5365
g62
(dp5366
g70
I1
ssg71
g5360
sg64
(lp5367
I00
asbasbasbag57
(g73
g59
NtRp5368
(dp5369
g62
(dp5370
sg71
g5339
sg64
(lp5371
g57
(g78
g59
NtRp5372
(dp5373
g62
(dp5374
sg71
g5368
sg64
(lp5375
g57
(g58
g59
NtRp5376
(dp5377
g62
(dp5378
g70
I1
ssg71
g5372
sg64
(lp5379
S'http://www.web2py.com'
p5380
asbasbasbag57
(g73
g59
NtRp5381
(dp5382
g62
(dp5383
sg71
g5339
sg64
(lp5384
g57
(g78
g59
NtRp5385
(dp5386
g62
(dp5387
sg71
g5381
sg64
(lp5388
g57
(g58
g59
NtRp5389
(dp5390
g62
(dp5391
g70
I1
ssg71
g5385
sg64
(lp5392
(lp5393
(g5070
(S't\x08\x00\x00\x00Download'
tRp5394
I00
S'http://www.web2py.com/examples/default/download'
p5395
tp5396
a(g5070
(S't\x07\x00\x00\x00Support'
tRp5397
I00
S'http://www.web2py.com/examples/default/support'
p5398
tp5399
a(g5070
(S't\x04\x00\x00\x00Demo'
tRp5400
I00
S'http://web2py.com/demo_admin'
p5401
tp5402
a(g5070
(S's\x0e\x00\x00\x00Quick Examples'
tRp5403
I00
S'http://web2py.com/examples/default/examples'
p5404
tp5405
a(g5070
(S't\x03\x00\x00\x00FAQ'
tRp5406
I00
S'http://web2py.com/AlterEgo'
p5407
tp5408
a(g5070
(S't\x06\x00\x00\x00Videos'
tRp5409
I00
S'http://www.web2py.com/examples/default/videos/'
p5410
tp5411
a(g5070
(S's\x11\x00\x00\x00Free Applications'
tRp5412
I00
S'http://web2py.com/appliances'
p5413
tp5414
a(g5070
(S't\x07\x00\x00\x00Plugins'
tRp5415
I00
S'http://web2py.com/plugins'
p5416
tp5417
a(g5070
(S't\x07\x00\x00\x00Layouts'
tRp5418
I00
S'http://web2py.com/layouts'
p5419
tp5420
a(g5070
(S't\x07\x00\x00\x00Recipes'
tRp5421
I00
S'http://web2pyslices.com/'
p5422
tp5423
a(g5070
(S't\x08\x00\x00\x00Semantic'
tRp5424
I00
S'http://web2py.com/semantic'
p5425
tp5426
aasbasbasbasbasbasbasbag57
(g73
g59
NtRp5427
(dp5428
g62
(dp5429
sg71
g5184
sg64
(lp5430
g57
(g78
g59
NtRp5431
(dp5432
g62
(dp5433
sg71
g5427
sg64
(lp5434
g57
(g58
g59
NtRp5435
(dp5436
g62
(dp5437
g70
I2
ssg71
g5431
sg64
(lp5438
g57
(g66
g59
NtRp5439
(dp5440
g62
(dp5441
g70
I1
ssg71
Nsg64
(lp5442
g57
(g73
g59
NtRp5443
(dp5444
g62
(dp5445
sg71
g5439
sg64
(lp5446
g57
(g78
g59
NtRp5447
(dp5448
g62
(dp5449
sg71
g5443
sg64
(lp5450
g57
(g58
g59
NtRp5451
(dp5452
g62
(dp5453
g70
I1
ssg71
g5447
sg64
(lp5454
g5070
(S't\r\x00\x00\x00Documentation'
tRp5455
asbasbasbag57
(g73
g59
NtRp5456
(dp5457
g62
(dp5458
sg71
g5439
sg64
(lp5459
g57
(g78
g59
NtRp5460
(dp5461
g62
(dp5462
sg71
g5456
sg64
(lp5463
g57
(g58
g59
NtRp5464
(dp5465
g62
(dp5466
g70
I1
ssg71
g5460
sg64
(lp5467
I00
asbasbasbag57
(g73
g59
NtRp5468
(dp5469
g62
(dp5470
sg71
g5439
sg64
(lp5471
g57
(g78
g59
NtRp5472
(dp5473
g62
(dp5474
sg71
g5468
sg64
(lp5475
g57
(g58
g59
NtRp5476
(dp5477
g62
(dp5478
g70
I1
ssg71
g5472
sg64
(lp5479
S'http://www.web2py.com/book'
p5480
asbasbasbag57
(g73
g59
NtRp5481
(dp5482
g62
(dp5483
sg71
g5439
sg64
(lp5484
g57
(g78
g59
NtRp5485
(dp5486
g62
(dp5487
sg71
g5481
sg64
(lp5488
g57
(g58
g59
NtRp5489
(dp5490
g62
(dp5491
g70
I1
ssg71
g5485
sg64
(lp5492
(lp5493
(g5070
(S't\x07\x00\x00\x00Preface'
tRp5494
I00
S'http://www.web2py.com/book/default/chapter/00'
p5495
tp5496
a(g5070
(S't\x0c\x00\x00\x00Introduction'
tRp5497
I00
S'http://www.web2py.com/book/default/chapter/01'
p5498
tp5499
a(g5070
(S't\x06\x00\x00\x00Python'
tRp5500
I00
S'http://www.web2py.com/book/default/chapter/02'
p5501
tp5502
a(g5070
(S't\x08\x00\x00\x00Overview'
tRp5503
I00
S'http://www.web2py.com/book/default/chapter/03'
p5504
tp5505
a(g5070
(S's\x08\x00\x00\x00The Core'
tRp5506
I00
S'http://www.web2py.com/book/default/chapter/04'
p5507
tp5508
a(g5070
(S's\t\x00\x00\x00The Views'
tRp5509
I00
S'http://www.web2py.com/book/default/chapter/05'
p5510
tp5511
a(g5070
(S't\x08\x00\x00\x00Database'
tRp5512
I00
S'http://www.web2py.com/book/default/chapter/06'
p5513
tp5514
a(g5070
(S's\x14\x00\x00\x00Forms and Validators'
tRp5515
I00
S'http://www.web2py.com/book/default/chapter/07'
p5516
tp5517
a(g5070
(S's\r\x00\x00\x00Email and SMS'
tRp5518
I00
S'http://www.web2py.com/book/default/chapter/08'
p5519
tp5520
a(g5070
(S's\x0e\x00\x00\x00Access Control'
tRp5521
I00
S'http://www.web2py.com/book/default/chapter/09'
p5522
tp5523
a(g5070
(S't\x08\x00\x00\x00Services'
tRp5524
I00
S'http://www.web2py.com/book/default/chapter/10'
p5525
tp5526
a(g5070
(S's\x0c\x00\x00\x00Ajax Recipes'
tRp5527
I00
S'http://www.web2py.com/book/default/chapter/11'
p5528
tp5529
a(g5070
(S's\x16\x00\x00\x00Components and Plugins'
tRp5530
I00
S'http://www.web2py.com/book/default/chapter/12'
p5531
tp5532
a(g5070
(S's\x12\x00\x00\x00Deployment Recipes'
tRp5533
I00
S'http://www.web2py.com/book/default/chapter/13'
p5534
tp5535
a(g5070
(S's\r\x00\x00\x00Other Recipes'
tRp5536
I00
S'http://www.web2py.com/book/default/chapter/14'
p5537
tp5538
a(g5070
(S's\r\x00\x00\x00Buy this book'
tRp5539
I00
S'http://stores.lulu.com/web2py'
p5540
tp5541
aasbasbasbasbasbasbasbag57
(g73
g59
NtRp5542
(dp5543
g62
(dp5544
sg71
g5184
sg64
(lp5545
g57
(g78
g59
NtRp5546
(dp5547
g62
(dp5548
sg71
g5542
sg64
(lp5549
g57
(g58
g59
NtRp5550
(dp5551
g62
(dp5552
g70
I2
ssg71
g5546
sg64
(lp5553
g57
(g66
g59
NtRp5554
(dp5555
g62
(dp5556
g70
I1
ssg71
Nsg64
(lp5557
g57
(g73
g59
NtRp5558
(dp5559
g62
(dp5560
sg71
g5554
sg64
(lp5561
g57
(g78
g59
NtRp5562
(dp5563
g62
(dp5564
sg71
g5558
sg64
(lp5565
g57
(g58
g59
NtRp5566
(dp5567
g62
(dp5568
g70
I1
ssg71
g5562
sg64
(lp5569
g5070
(S't\t\x00\x00\x00Community'
tRp5570
asbasbasbag57
(g73
g59
NtRp5571
(dp5572
g62
(dp5573
sg71
g5554
sg64
(lp5574
g57
(g78
g59
NtRp5575
(dp5576
g62
(dp5577
sg71
g5571
sg64
(lp5578
g57
(g58
g59
NtRp5579
(dp5580
g62
(dp5581
g70
I1
ssg71
g5575
sg64
(lp5582
I00
asbasbasbag57
(g73
g59
NtRp5583
(dp5584
g62
(dp5585
sg71
g5554
sg64
(lp5586
g57
(g78
g59
NtRp5587
(dp5588
g62
(dp5589
sg71
g5583
sg64
(lp5590
g57
(g58
g59
NtRp5591
(dp5592
g62
(dp5593
g70
I1
ssg71
g5587
sg64
(lp5594
Nasbasbasbag57
(g73
g59
NtRp5595
(dp5596
g62
(dp5597
sg71
g5554
sg64
(lp5598
g57
(g78
g59
NtRp5599
(dp5600
g62
(dp5601
sg71
g5595
sg64
(lp5602
g57
(g58
g59
NtRp5603
(dp5604
g62
(dp5605
g70
I1
ssg71
g5599
sg64
(lp5606
(lp5607
(g5070
(S't\x06\x00\x00\x00Groups'
tRp5608
I00
S'http://www.web2py.com/examples/default/usergroups'
p5609
tp5610
a(g5070
(S't\x07\x00\x00\x00Twitter'
tRp5611
I00
S'http://twitter.com/web2py'
p5612
tp5613
a(g5070
(S's\t\x00\x00\x00Live Chat'
tRp5614
I00
S'http://webchat.freenode.net/?channels=web2py'
p5615
tp5616
aasbasbasbasbasbasbasbag57
(g73
g59
NtRp5617
(dp5618
g62
(dp5619
sg71
g5184
sg64
(lp5620
g57
(g78
g59
NtRp5621
(dp5622
g62
(dp5623
sg71
g5617
sg64
(lp5624
g57
(g58
g59
NtRp5625
(dp5626
g62
(dp5627
g70
I2
ssg71
g5621
sg64
(lp5628
g57
(g66
g59
NtRp5629
(dp5630
g62
(dp5631
g70
I1
ssg71
Nsg64
(lp5632
g57
(g73
g59
NtRp5633
(dp5634
g62
(dp5635
sg71
g5629
sg64
(lp5636
g57
(g78
g59
NtRp5637
(dp5638
g62
(dp5639
sg71
g5633
sg64
(lp5640
g57
(g58
g59
NtRp5641
(dp5642
g62
(dp5643
g70
I1
ssg71
g5637
sg64
(lp5644
g5070
(S't\x07\x00\x00\x00Plugins'
tRp5645
asbasbasbag57
(g73
g59
NtRp5646
(dp5647
g62
(dp5648
sg71
g5629
sg64
(lp5649
g57
(g78
g59
NtRp5650
(dp5651
g62
(dp5652
sg71
g5646
sg64
(lp5653
g57
(g58
g59
NtRp5654
(dp5655
g62
(dp5656
g70
I1
ssg71
g5650
sg64
(lp5657
I00
asbasbasbag57
(g73
g59
NtRp5658
(dp5659
g62
(dp5660
sg71
g5629
sg64
(lp5661
g57
(g78
g59
NtRp5662
(dp5663
g62
(dp5664
sg71
g5658
sg64
(lp5665
g57
(g58
g59
NtRp5666
(dp5667
g62
(dp5668
g70
I1
ssg71
g5662
sg64
(lp5669
Nasbasbasbag57
(g73
g59
NtRp5670
(dp5671
g62
(dp5672
sg71
g5629
sg64
(lp5673
g57
(g78
g59
NtRp5674
(dp5675
g62
(dp5676
sg71
g5670
sg64
(lp5677
g57
(g58
g59
NtRp5678
(dp5679
g62
(dp5680
g70
I1
ssg71
g5674
sg64
(lp5681
(lp5682
(S'plugin_wiki'
p5683
I00
S'http://web2py.com/examples/default/download'
p5684
tp5685
a(g5070
(S's\r\x00\x00\x00Other Plugins'
tRp5686
I00
g5416
tp5687
a(g5070
(S's\x0e\x00\x00\x00Layout Plugins'
tRp5688
I00
g5419
tp5689
aasbasbasbasbasbasbasbasbasbasbasbasbasbasbasbasbasbasbasbag57
(g73
g59
NtRp5690
(dp5691
g62
(dp5692
sg71
g4580
sg64
(lp5693
g57
(g78
g59
NtRp5694
(dp5695
g62
(dp5696
g82
g83
ssg71
g5690
sg64
(lp5697
S'meta'
p5698
asbag57
(g78
g59
NtRp5699
(dp5700
g62
(dp5701
g89
g90
ssg71
g5690
sg64
(lp5702
S':'
asbag57
(g78
g59
NtRp5703
(dp5704
g62
(dp5705
sg71
g5690
sg64
(lp5706
g57
(g58
g59
NtRp5707
(dp5708
g62
(dp5709
g70
I5
ssg71
g5703
sg64
(lp5710
g57
(g66
g59
NtRp5711
(dp5712
g62
(dp5713
g70
I4
ssg71
Nsg64
(lp5714
g57
(g73
g59
NtRp5715
(dp5716
g62
(dp5717
sg71
g5711
sg64
(lp5718
g57
(g78
g59
NtRp5719
(dp5720
g62
(dp5721
g82
g83
ssg71
g5715
sg64
(lp5722
S'author'
p5723
asbag57
(g78
g59
NtRp5724
(dp5725
g62
(dp5726
g89
g90
ssg71
g5715
sg64
(lp5727
S':'
asbag57
(g78
g59
NtRp5728
(dp5729
g62
(dp5730
sg71
g5715
sg64
(lp5731
g57
(g58
g59
NtRp5732
(dp5733
g62
(dp5734
g70
I4
ssg71
g5728
sg64
(lp5735
S'Your Name <you@example.com>'
p5736
asbasbasbag57
(g73
g59
NtRp5737
(dp5738
g62
(dp5739
sg71
g5711
sg64
(lp5740
g57
(g78
g59
NtRp5741
(dp5742
g62
(dp5743
g82
g83
ssg71
g5737
sg64
(lp5744
S'copyright'
p5745
asbag57
(g78
g59
NtRp5746
(dp5747
g62
(dp5748
g89
g90
ssg71
g5737
sg64
(lp5749
S':'
asbag57
(g78
g59
NtRp5750
(dp5751
g62
(dp5752
sg71
g5737
sg64
(lp5753
g57
(g58
g59
NtRp5754
(dp5755
g62
(dp5756
g70
I4
ssg71
g5750
sg64
(lp5757
S'Copyright 2011'
p5758
asbasbasbag57
(g73
g59
NtRp5759
(dp5760
g62
(dp5761
sg71
g5711
sg64
(lp5762
g57
(g78
g59
NtRp5763
(dp5764
g62
(dp5765
g82
g83
ssg71
g5759
sg64
(lp5766
S'description'
p5767
asbag57
(g78
g59
NtRp5768
(dp5769
g62
(dp5770
g89
g90
ssg71
g5759
sg64
(lp5771
S':'
asbag57
(g78
g59
NtRp5772
(dp5773
g62
(dp5774
sg71
g5759
sg64
(lp5775
g57
(g58
g59
NtRp5776
(dp5777
g62
(dp5778
g70
I4
ssg71
g5772
sg64
(lp5779
S'a cool new app'
p5780
asbasbasbag57
(g73
g59
NtRp5781
(dp5782
g62
(dp5783
sg71
g5711
sg64
(lp5784
g57
(g78
g59
NtRp5785
(dp5786
g62
(dp5787
g82
g83
ssg71
g5781
sg64
(lp5788
S'generator'
p5789
asbag57
(g78
g59
NtRp5790
(dp5791
g62
(dp5792
g89
g90
ssg71
g5781
sg64
(lp5793
S':'
asbag57
(g78
g59
NtRp5794
(dp5795
g62
(dp5796
sg71
g5781
sg64
(lp5797
g57
(g58
g59
NtRp5798
(dp5799
g62
(dp5800
g70
I4
ssg71
g5794
sg64
(lp5801
S'Web2py Web Framework'
p5802
asbasbasbag57
(g73
g59
NtRp5803
(dp5804
g62
(dp5805
sg71
g5711
sg64
(lp5806
g57
(g78
g59
NtRp5807
(dp5808
g62
(dp5809
g82
g83
ssg71
g5803
sg64
(lp5810
S'keywords'
p5811
asbag57
(g78
g59
NtRp5812
(dp5813
g62
(dp5814
g89
g90
ssg71
g5803
sg64
(lp5815
S':'
asbag57
(g78
g59
NtRp5816
(dp5817
g62
(dp5818
sg71
g5803
sg64
(lp5819
g57
(g58
g59
NtRp5820
(dp5821
g62
(dp5822
g70
I4
ssg71
g5816
sg64
(lp5823
S'web2py, python, framework'
p5824
asbasbasbasbasbasbasbag57
(g73
g59
NtRp5825
(dp5826
g62
(dp5827
sg71
g4580
sg64
(lp5828
g57
(g78
g59
NtRp5829
(dp5830
g62
(dp5831
g82
g83
ssg71
g5825
sg64
(lp5832
S'models_to_run'
p5833
asbag57
(g78
g59
NtRp5834
(dp5835
g62
(dp5836
g89
g90
ssg71
g5825
sg64
(lp5837
S':'
asbag57
(g78
g59
NtRp5838
(dp5839
g62
(dp5840
sg71
g5825
sg64
(lp5841
g57
(g58
g59
NtRp5842
(dp5843
g62
(dp5844
g70
I5
ssg71
g5838
sg64
(lp5845
g57
(g66
g59
NtRp5846
(dp5847
g62
(dp5848
g70
I4
ssg71
Nsg64
(lp5849
g57
(g73
g59
NtRp5850
(dp5851
g62
(dp5852
sg71
g5846
sg64
(lp5853
g57
(g78
g59
NtRp5854
(dp5855
g62
(dp5856
sg71
g5850
sg64
(lp5857
g57
(g58
g59
NtRp5858
(dp5859
g62
(dp5860
g70
I4
ssg71
g5854
sg64
(lp5861
S'^\\w+\\.py$'
p5862
asbasbasbag57
(g73
g59
NtRp5863
(dp5864
g62
(dp5865
sg71
g5846
sg64
(lp5866
g57
(g78
g59
NtRp5867
(dp5868
g62
(dp5869
sg71
g5863
sg64
(lp5870
g57
(g58
g59
NtRp5871
(dp5872
g62
(dp5873
g70
I4
ssg71
g5867
sg64
(lp5874
S'^default/\\w+\\.py$'
p5875
asbasbasbag57
(g73
g59
NtRp5876
(dp5877
g62
(dp5878
sg71
g5846
sg64
(lp5879
g57
(g78
g59
NtRp5880
(dp5881
g62
(dp5882
sg71
g5876
sg64
(lp5883
g57
(g58
g59
NtRp5884
(dp5885
g62
(dp5886
g70
I4
ssg71
g5880
sg64
(lp5887
S'^default/novi_insert/\\w+\\.py$'
p5888
asbasbasbasbasbasbasbag57
(g73
g59
NtRp5889
(dp5890
g62
(dp5891
sg71
g4580
sg64
(lp5892
g57
(g78
g59
NtRp5893
(dp5894
g62
(dp5895
g82
g83
ssg71
g5889
sg64
(lp5896
S'postprocessing'
p5897
asbag57
(g78
g59
NtRp5898
(dp5899
g62
(dp5900
g89
g90
ssg71
g5889
sg64
(lp5901
S':'
asbag57
(g78
g59
NtRp5902
(dp5903
g62
(dp5904
sg71
g5889
sg64
(lp5905
g57
(g58
g59
NtRp5906
(dp5907
g62
(dp5908
g70
I5
ssg71
g5902
sg64
(lp5909
g57
(g66
g59
NtRp5910
(dp5911
g62
(dp5912
g70
I4
ssg71
Nsg64
(lp5913
sbasbasbasbag57
(g73
g59
NtRp5914
(dp5915
g62
(dp5916
sg71
g4580
sg64
(lp5917
g57
(g78
g59
NtRp5918
(dp5919
g62
(dp5920
g82
g83
ssg71
g5914
sg64
(lp5921
S'session_cookie_expires'
p5922
asbag57
(g78
g59
NtRp5923
(dp5924
g62
(dp5925
g89
g90
ssg71
g5914
sg64
(lp5926
S':'
asbag57
(g78
g59
NtRp5927
(dp5928
g62
(dp5929
sg71
g5914
sg64
(lp5930
g57
(g58
g59
NtRp5931
(dp5932
g62
(dp5933
g70
I5
ssg71
g5927
sg64
(lp5934
S'None'
p5935
asbasbasbag57
(g73
g59
NtRp5936
(dp5937
g62
(dp5938
sg71
g4580
sg64
(lp5939
g57
(g78
g59
NtRp5940
(dp5941
g62
(dp5942
g82
g83
ssg71
g5936
sg64
(lp5943
S'session_data_name'
p5944
asbag57
(g78
g59
NtRp5945
(dp5946
g62
(dp5947
g89
g90
ssg71
g5936
sg64
(lp5948
S':'
asbag57
(g78
g59
NtRp5949
(dp5950
g62
(dp5951
sg71
g5936
sg64
(lp5952
g57
(g58
g59
NtRp5953
(dp5954
g62
(dp5955
g70
I5
ssg71
g5949
sg64
(lp5956
S'session_data_wsd'
p5957
asbasbasbag57
(g73
g59
NtRp5958
(dp5959
g62
(dp5960
sg71
g4580
sg64
(lp5961
g57
(g78
g59
NtRp5962
(dp5963
g62
(dp5964
g82
g83
ssg71
g5958
sg64
(lp5965
S'session_file'
p5966
asbag57
(g78
g59
NtRp5967
(dp5968
g62
(dp5969
g89
g90
ssg71
g5958
sg64
(lp5970
S':'
asbag57
(g78
g59
NtRp5971
(dp5972
g62
(dp5973
sg71
g5958
sg64
(lp5974
g57
(g58
g59
NtRp5975
(dp5976
g62
(dp5977
g70
I5
ssg71
g5971
sg64
(lp5978
S"<open file '/home/nazrul/web2py/applications/WSD/sessions/127.0.0.1-d76d2f66-a702-4d08-8b16-65a16f46815e', mode 'rb+' at 0xb4756a70>"
p5979
asbasbasbag57
(g73
g59
NtRp5980
(dp5981
g62
(dp5982
sg71
g4580
sg64
(lp5983
g57
(g78
g59
NtRp5984
(dp5985
g62
(dp5986
g82
g83
ssg71
g5980
sg64
(lp5987
S'session_filename'
p5988
asbag57
(g78
g59
NtRp5989
(dp5990
g62
(dp5991
g89
g90
ssg71
g5980
sg64
(lp5992
S':'
asbag57
(g78
g59
NtRp5993
(dp5994
g62
(dp5995
sg71
g5980
sg64
(lp5996
g57
(g58
g59
NtRp5997
(dp5998
g62
(dp5999
g70
I5
ssg71
g5993
sg64
(lp6000
S'/home/nazrul/web2py/applications/WSD/sessions/127.0.0.1-d76d2f66-a702-4d08-8b16-65a16f46815e'
p6001
asbasbasbag57
(g73
g59
NtRp6002
(dp6003
g62
(dp6004
sg71
g4580
sg64
(lp6005
g57
(g78
g59
NtRp6006
(dp6007
g62
(dp6008
g82
g83
ssg71
g6002
sg64
(lp6009
S'session_id'
p6010
asbag57
(g78
g59
NtRp6011
(dp6012
g62
(dp6013
g89
g90
ssg71
g6002
sg64
(lp6014
S':'
asbag57
(g78
g59
NtRp6015
(dp6016
g62
(dp6017
sg71
g6002
sg64
(lp6018
g57
(g58
g59
NtRp6019
(dp6020
g62
(dp6021
g70
I5
ssg71
g6015
sg64
(lp6022
g1033
asbasbasbag57
(g73
g59
NtRp6023
(dp6024
g62
(dp6025
sg71
g4580
sg64
(lp6026
g57
(g78
g59
NtRp6027
(dp6028
g62
(dp6029
g82
g83
ssg71
g6023
sg64
(lp6030
S'session_id_name'
p6031
asbag57
(g78
g59
NtRp6032
(dp6033
g62
(dp6034
g89
g90
ssg71
g6023
sg64
(lp6035
S':'
asbag57
(g78
g59
NtRp6036
(dp6037
g62
(dp6038
sg71
g6023
sg64
(lp6039
g57
(g58
g59
NtRp6040
(dp6041
g62
(dp6042
g70
I5
ssg71
g6036
sg64
(lp6043
g4637
asbasbasbag57
(g73
g59
NtRp6044
(dp6045
g62
(dp6046
sg71
g4580
sg64
(lp6047
g57
(g78
g59
NtRp6048
(dp6049
g62
(dp6050
g82
g83
ssg71
g6044
sg64
(lp6051
S'session_locked'
p6052
asbag57
(g78
g59
NtRp6053
(dp6054
g62
(dp6055
g89
g90
ssg71
g6044
sg64
(lp6056
S':'
asbag57
(g78
g59
NtRp6057
(dp6058
g62
(dp6059
sg71
g6044
sg64
(lp6060
g57
(g58
g59
NtRp6061
(dp6062
g62
(dp6063
g70
I5
ssg71
g6057
sg64
(lp6064
g100
asbasbasbag57
(g73
g59
NtRp6065
(dp6066
g62
(dp6067
sg71
g4580
sg64
(lp6068
g57
(g78
g59
NtRp6069
(dp6070
g62
(dp6071
g82
g83
ssg71
g6065
sg64
(lp6072
S'session_new'
p6073
asbag57
(g78
g59
NtRp6074
(dp6075
g62
(dp6076
g89
g90
ssg71
g6065
sg64
(lp6077
S':'
asbag57
(g78
g59
NtRp6078
(dp6079
g62
(dp6080
sg71
g6065
sg64
(lp6081
g57
(g58
g59
NtRp6082
(dp6083
g62
(dp6084
g70
I5
ssg71
g6078
sg64
(lp6085
g1401
asbasbasbag57
(g73
g59
NtRp6086
(dp6087
g62
(dp6088
sg71
g4580
sg64
(lp6089
g57
(g78
g59
NtRp6090
(dp6091
g62
(dp6092
g82
g83
ssg71
g6086
sg64
(lp6093
S'session_storage_type'
p6094
asbag57
(g78
g59
NtRp6095
(dp6096
g62
(dp6097
g89
g90
ssg71
g6086
sg64
(lp6098
S':'
asbag57
(g78
g59
NtRp6099
(dp6100
g62
(dp6101
sg71
g6086
sg64
(lp6102
g57
(g58
g59
NtRp6103
(dp6104
g62
(dp6105
g70
I5
ssg71
g6099
sg64
(lp6106
g3954
asbasbasbag57
(g73
g59
NtRp6107
(dp6108
g62
(dp6109
sg71
g4580
sg64
(lp6110
g57
(g78
g59
NtRp6111
(dp6112
g62
(dp6113
g82
g83
ssg71
g6107
sg64
(lp6114
S'status'
p6115
asbag57
(g78
g59
NtRp6116
(dp6117
g62
(dp6118
g89
g90
ssg71
g6107
sg64
(lp6119
S':'
asbag57
(g78
g59
NtRp6120
(dp6121
g62
(dp6122
sg71
g6107
sg64
(lp6123
g57
(g58
g59
NtRp6124
(dp6125
g62
(dp6126
g70
I5
ssg71
g6120
sg64
(lp6127
S'200'
p6128
asbasbasbag57
(g73
g59
NtRp6129
(dp6130
g62
(dp6131
sg71
g4580
sg64
(lp6132
g57
(g78
g59
NtRp6133
(dp6134
g62
(dp6135
g82
g83
ssg71
g6129
sg64
(lp6136
S'subtitle'
p6137
asbag57
(g78
g59
NtRp6138
(dp6139
g62
(dp6140
g89
g90
ssg71
g6129
sg64
(lp6141
S':'
asbag57
(g78
g59
NtRp6142
(dp6143
g62
(dp6144
sg71
g6129
sg64
(lp6145
g57
(g58
g59
NtRp6146
(dp6147
g62
(dp6148
g70
I5
ssg71
g6142
sg64
(lp6149
g5070
(S's\r\x00\x00\x00customize me!'
tRp6150
asbasbasbag57
(g73
g59
NtRp6151
(dp6152
g62
(dp6153
sg71
g4580
sg64
(lp6154
g57
(g78
g59
NtRp6155
(dp6156
g62
(dp6157
g82
g83
ssg71
g6151
sg64
(lp6158
S'title'
p6159
asbag57
(g78
g59
NtRp6160
(dp6161
g62
(dp6162
g89
g90
ssg71
g6151
sg64
(lp6163
S':'
asbag57
(g78
g59
NtRp6164
(dp6165
g62
(dp6166
sg71
g6151
sg64
(lp6167
g57
(g58
g59
NtRp6168
(dp6169
g62
(dp6170
g70
I5
ssg71
g6164
sg64
(lp6171
S'Wsd'
p6172
asbasbasbag57
(g73
g59
NtRp6173
(dp6174
g62
(dp6175
sg71
g4580
sg64
(lp6176
g57
(g78
g59
NtRp6177
(dp6178
g62
(dp6179
g82
g83
ssg71
g6173
sg64
(lp6180
S'view'
p6181
asbag57
(g78
g59
NtRp6182
(dp6183
g62
(dp6184
g89
g90
ssg71
g6173
sg64
(lp6185
S':'
asbag57
(g78
g59
NtRp6186
(dp6187
g62
(dp6188
sg71
g6173
sg64
(lp6189
g57
(g58
g59
NtRp6190
(dp6191
g62
(dp6192
g70
I5
ssg71
g6186
sg64
(lp6193
S'default/novi_insert.html'
p6194
asbasbasbasbasbsS'locals'
p6195
(dp6196
S'a'
S'<Rows (0)>'
p6197
sssS'traceback'
p6198
S'Traceback (most recent call last):\n  File "/home/nazrul/web2py/gluon/restricted.py", line 212, in restricted\n    exec ccode in environment\n  File "/home/nazrul/web2py/applications/WSD/controllers/default.py", line 394, in <module>\n  File "/home/nazrul/web2py/gluon/globals.py", line 193, in <lambda>\n    self._caller = lambda f: f()\n  File "/home/nazrul/web2py/gluon/tools.py", line 2929, in f\n    return action(*a, **b)\n  File "/home/nazrul/web2py/applications/WSD/controllers/default.py", line 236, in novi_insert\n    db.novice.insert(userid=auth.user.id,sid=sesion.sid,wid=session.sid,word=request.vars.word,relation=1,property=0,both=0)\nNameError: global name \'sesion\' is not defined\n'
p6199
s.