(dp1
S'output'
p2
S''
sS'layer'
p3
S'Framework'
p4
sS'code'
p5
S''
sS'snapshot'
p6
(dp7
S'exception'
p8
(dp9
S'__hash__'
p10
S"<method-wrapper '__hash__' of exceptions.TypeError object>"
p11
sS'__setattr__'
p12
S"<method-wrapper '__setattr__' of exceptions.TypeError object>"
p13
sS'__reduce_ex__'
p14
S'<built-in method __reduce_ex__ of exceptions.TypeError object>'
p15
sS'__getslice__'
p16
S"<method-wrapper '__getslice__' of exceptions.TypeError object>"
p17
sS'__getitem__'
p18
S"<method-wrapper '__getitem__' of exceptions.TypeError object>"
p19
sS'__setstate__'
p20
S'<built-in method __setstate__ of exceptions.TypeError object>'
p21
sS'__reduce__'
p22
S'<built-in method __reduce__ of exceptions.TypeError object>'
p23
sS'__str__'
p24
S"<method-wrapper '__str__' of exceptions.TypeError object>"
p25
sS'__format__'
p26
S'<built-in method __format__ of exceptions.TypeError object>'
p27
sS'__getattribute__'
p28
S"<method-wrapper '__getattribute__' of exceptions.TypeError object>"
p29
sS'__class__'
p30
S"<type 'exceptions.TypeError'>"
p31
sS'__unicode__'
p32
S'<built-in method __unicode__ of exceptions.TypeError object>'
p33
sS'__delattr__'
p34
S"<method-wrapper '__delattr__' of exceptions.TypeError object>"
p35
sS'__subclasshook__'
p36
S'<built-in method __subclasshook__ of type object>'
p37
sS'__repr__'
p38
S"<method-wrapper '__repr__' of exceptions.TypeError object>"
p39
sS'args'
p40
S'("can\'t pickle instancemethod objects",)'
p41
sS'__dict__'
p42
S'{}'
p43
sS'__sizeof__'
p44
S'<built-in method __sizeof__ of exceptions.TypeError object>'
p45
sS'__doc__'
p46
S"'Inappropriate argument type.'"
p47
sS'__init__'
p48
S"<method-wrapper '__init__' of exceptions.TypeError object>"
p49
sS'__new__'
p50
S'<built-in method __new__ of type object>'
p51
ssS'evalue'
p52
S"can't pickle instancemethod objects"
p53
sS'request'
p54
ccopy_reg
_reconstructor
p55
(cgluon.html
BEAUTIFY
p56
c__builtin__
object
p57
NtRp58
(dp59
S'attributes'
p60
(dp61
sS'components'
p62
(lp63
g55
(cgluon.html
TABLE
p64
g57
NtRp65
(dp66
g60
(dp67
S'level'
p68
I5
ssS'parent'
p69
Nsg62
(lp70
g55
(cgluon.html
TR
p71
g57
NtRp72
(dp73
g60
(dp74
sg69
g65
sg62
(lp75
g55
(cgluon.html
TD
p76
g57
NtRp77
(dp78
g60
(dp79
S'_style'
p80
S'font-weight:bold;vertical-align:top'
p81
ssg69
g72
sg62
(lp82
S'ajax'
p83
asbag55
(g76
g57
NtRp84
(dp85
g60
(dp86
S'_valign'
p87
S'top'
p88
ssg69
g72
sg62
(lp89
S':'
asbag55
(g76
g57
NtRp90
(dp91
g60
(dp92
sg69
g72
sg62
(lp93
g55
(g56
g57
NtRp94
(dp95
g60
(dp96
g68
I5
ssg69
g90
sg62
(lp97
S'False'
p98
asbasbasbag55
(g71
g57
NtRp99
(dp100
g60
(dp101
sg69
g65
sg62
(lp102
g55
(g76
g57
NtRp103
(dp104
g60
(dp105
g80
g81
ssg69
g99
sg62
(lp106
S'application'
p107
asbag55
(g76
g57
NtRp108
(dp109
g60
(dp110
g87
g88
ssg69
g99
sg62
(lp111
S':'
asbag55
(g76
g57
NtRp112
(dp113
g60
(dp114
sg69
g99
sg62
(lp115
g55
(g56
g57
NtRp116
(dp117
g60
(dp118
g68
I5
ssg69
g112
sg62
(lp119
S'WSD'
p120
asbasbasbag55
(g71
g57
NtRp121
(dp122
g60
(dp123
sg69
g65
sg62
(lp124
g55
(g76
g57
NtRp125
(dp126
g60
(dp127
g80
g81
ssg69
g121
sg62
(lp128
g40
asbag55
(g76
g57
NtRp129
(dp130
g60
(dp131
g87
g88
ssg69
g121
sg62
(lp132
S':'
asbag55
(g76
g57
NtRp133
(dp134
g60
(dp135
sg69
g121
sg62
(lp136
g55
(g56
g57
NtRp137
(dp138
g60
(dp139
g68
I5
ssg69
g133
sg62
(lp140
g55
(g64
g57
NtRp141
(dp142
g60
(dp143
g68
I4
ssg69
Nsg62
(lp144
sbasbasbasbag55
(g71
g57
NtRp145
(dp146
g60
(dp147
sg69
g65
sg62
(lp148
g55
(g76
g57
NtRp149
(dp150
g60
(dp151
g80
g81
ssg69
g145
sg62
(lp152
S'body'
p153
asbag55
(g76
g57
NtRp154
(dp155
g60
(dp156
g87
g88
ssg69
g145
sg62
(lp157
S':'
asbag55
(g76
g57
NtRp158
(dp159
g60
(dp160
sg69
g145
sg62
(lp161
g55
(g56
g57
NtRp162
(dp163
g60
(dp164
g68
I5
ssg69
g158
sg62
(lp165
S'<cStringIO.StringO object at 0xad2b9aa0>'
p166
asbasbasbag55
(g71
g57
NtRp167
(dp168
g60
(dp169
sg69
g65
sg62
(lp170
g55
(g76
g57
NtRp171
(dp172
g60
(dp173
g80
g81
ssg69
g167
sg62
(lp174
S'cid'
p175
asbag55
(g76
g57
NtRp176
(dp177
g60
(dp178
g87
g88
ssg69
g167
sg62
(lp179
S':'
asbag55
(g76
g57
NtRp180
(dp181
g60
(dp182
sg69
g167
sg62
(lp183
g55
(g56
g57
NtRp184
(dp185
g60
(dp186
g68
I5
ssg69
g180
sg62
(lp187
S'None'
p188
asbasbasbag55
(g71
g57
NtRp189
(dp190
g60
(dp191
sg69
g65
sg62
(lp192
g55
(g76
g57
NtRp193
(dp194
g60
(dp195
g80
g81
ssg69
g189
sg62
(lp196
S'client'
p197
asbag55
(g76
g57
NtRp198
(dp199
g60
(dp200
g87
g88
ssg69
g189
sg62
(lp201
S':'
asbag55
(g76
g57
NtRp202
(dp203
g60
(dp204
sg69
g189
sg62
(lp205
g55
(g56
g57
NtRp206
(dp207
g60
(dp208
g68
I5
ssg69
g202
sg62
(lp209
S'127.0.0.1'
p210
asbasbasbag55
(g71
g57
NtRp211
(dp212
g60
(dp213
sg69
g65
sg62
(lp214
g55
(g76
g57
NtRp215
(dp216
g60
(dp217
g80
g81
ssg69
g211
sg62
(lp218
S'controller'
p219
asbag55
(g76
g57
NtRp220
(dp221
g60
(dp222
g87
g88
ssg69
g211
sg62
(lp223
S':'
asbag55
(g76
g57
NtRp224
(dp225
g60
(dp226
sg69
g211
sg62
(lp227
g55
(g56
g57
NtRp228
(dp229
g60
(dp230
g68
I5
ssg69
g224
sg62
(lp231
S'default'
p232
asbasbasbag55
(g71
g57
NtRp233
(dp234
g60
(dp235
sg69
g65
sg62
(lp236
g55
(g76
g57
NtRp237
(dp238
g60
(dp239
g80
g81
ssg69
g233
sg62
(lp240
S'cookies'
p241
asbag55
(g76
g57
NtRp242
(dp243
g60
(dp244
g87
g88
ssg69
g233
sg62
(lp245
S':'
asbag55
(g76
g57
NtRp246
(dp247
g60
(dp248
sg69
g233
sg62
(lp249
g55
(g56
g57
NtRp250
(dp251
g60
(dp252
g68
I5
ssg69
g246
sg62
(lp253
g55
(g64
g57
NtRp254
(dp255
g60
(dp256
g68
I4
ssg69
Nsg62
(lp257
g55
(g71
g57
NtRp258
(dp259
g60
(dp260
sg69
g254
sg62
(lp261
g55
(g76
g57
NtRp262
(dp263
g60
(dp264
g80
g81
ssg69
g258
sg62
(lp265
S'KBD'
p266
asbag55
(g76
g57
NtRp267
(dp268
g60
(dp269
g87
g88
ssg69
g258
sg62
(lp270
S':'
asbag55
(g76
g57
NtRp271
(dp272
g60
(dp273
sg69
g258
sg62
(lp274
g55
(g56
g57
NtRp275
(dp276
g60
(dp277
g68
I4
ssg69
g271
sg62
(lp278
S'0hi-0'
p279
ag55
(g64
g57
NtRp280
(dp281
g60
(dp282
g68
I3
ssg69
Nsg62
(lp283
g55
(g71
g57
NtRp284
(dp285
g60
(dp286
sg69
g280
sg62
(lp287
g55
(g76
g57
NtRp288
(dp289
g60
(dp290
g80
g81
ssg69
g284
sg62
(lp291
S'comment'
p292
asbag55
(g76
g57
NtRp293
(dp294
g60
(dp295
g87
g88
ssg69
g284
sg62
(lp296
S':'
asbag55
(g76
g57
NtRp297
(dp298
g60
(dp299
sg69
g284
sg62
(lp300
g55
(g56
g57
NtRp301
(dp302
g60
(dp303
g68
I3
ssg69
g297
sg62
(lp304
S''
asbasbasbag55
(g71
g57
NtRp305
(dp306
g60
(dp307
sg69
g280
sg62
(lp308
g55
(g76
g57
NtRp309
(dp310
g60
(dp311
g80
g81
ssg69
g305
sg62
(lp312
S'domain'
p313
asbag55
(g76
g57
NtRp314
(dp315
g60
(dp316
g87
g88
ssg69
g305
sg62
(lp317
S':'
asbag55
(g76
g57
NtRp318
(dp319
g60
(dp320
sg69
g305
sg62
(lp321
g55
(g56
g57
NtRp322
(dp323
g60
(dp324
g68
I3
ssg69
g318
sg62
(lp325
S''
asbasbasbag55
(g71
g57
NtRp326
(dp327
g60
(dp328
sg69
g280
sg62
(lp329
g55
(g76
g57
NtRp330
(dp331
g60
(dp332
g80
g81
ssg69
g326
sg62
(lp333
S'expires'
p334
asbag55
(g76
g57
NtRp335
(dp336
g60
(dp337
g87
g88
ssg69
g326
sg62
(lp338
S':'
asbag55
(g76
g57
NtRp339
(dp340
g60
(dp341
sg69
g326
sg62
(lp342
g55
(g56
g57
NtRp343
(dp344
g60
(dp345
g68
I3
ssg69
g339
sg62
(lp346
S''
asbasbasbag55
(g71
g57
NtRp347
(dp348
g60
(dp349
sg69
g280
sg62
(lp350
g55
(g76
g57
NtRp351
(dp352
g60
(dp353
g80
g81
ssg69
g347
sg62
(lp354
S'httponly'
p355
asbag55
(g76
g57
NtRp356
(dp357
g60
(dp358
g87
g88
ssg69
g347
sg62
(lp359
S':'
asbag55
(g76
g57
NtRp360
(dp361
g60
(dp362
sg69
g347
sg62
(lp363
g55
(g56
g57
NtRp364
(dp365
g60
(dp366
g68
I3
ssg69
g360
sg62
(lp367
S''
asbasbasbag55
(g71
g57
NtRp368
(dp369
g60
(dp370
sg69
g280
sg62
(lp371
g55
(g76
g57
NtRp372
(dp373
g60
(dp374
g80
g81
ssg69
g368
sg62
(lp375
S'max-age'
p376
asbag55
(g76
g57
NtRp377
(dp378
g60
(dp379
g87
g88
ssg69
g368
sg62
(lp380
S':'
asbag55
(g76
g57
NtRp381
(dp382
g60
(dp383
sg69
g368
sg62
(lp384
g55
(g56
g57
NtRp385
(dp386
g60
(dp387
g68
I3
ssg69
g381
sg62
(lp388
S''
asbasbasbag55
(g71
g57
NtRp389
(dp390
g60
(dp391
sg69
g280
sg62
(lp392
g55
(g76
g57
NtRp393
(dp394
g60
(dp395
g80
g81
ssg69
g389
sg62
(lp396
S'path'
p397
asbag55
(g76
g57
NtRp398
(dp399
g60
(dp400
g87
g88
ssg69
g389
sg62
(lp401
S':'
asbag55
(g76
g57
NtRp402
(dp403
g60
(dp404
sg69
g389
sg62
(lp405
g55
(g56
g57
NtRp406
(dp407
g60
(dp408
g68
I3
ssg69
g402
sg62
(lp409
S''
asbasbasbag55
(g71
g57
NtRp410
(dp411
g60
(dp412
sg69
g280
sg62
(lp413
g55
(g76
g57
NtRp414
(dp415
g60
(dp416
g80
g81
ssg69
g410
sg62
(lp417
S'secure'
p418
asbag55
(g76
g57
NtRp419
(dp420
g60
(dp421
g87
g88
ssg69
g410
sg62
(lp422
S':'
asbag55
(g76
g57
NtRp423
(dp424
g60
(dp425
sg69
g410
sg62
(lp426
g55
(g56
g57
NtRp427
(dp428
g60
(dp429
g68
I3
ssg69
g423
sg62
(lp430
S''
asbasbasbag55
(g71
g57
NtRp431
(dp432
g60
(dp433
sg69
g280
sg62
(lp434
g55
(g76
g57
NtRp435
(dp436
g60
(dp437
g80
g81
ssg69
g431
sg62
(lp438
S'version'
p439
asbag55
(g76
g57
NtRp440
(dp441
g60
(dp442
g87
g88
ssg69
g431
sg62
(lp443
S':'
asbag55
(g76
g57
NtRp444
(dp445
g60
(dp446
sg69
g431
sg62
(lp447
g55
(g56
g57
NtRp448
(dp449
g60
(dp450
g68
I3
ssg69
g444
sg62
(lp451
S''
asbasbasbasbasbasbasbag55
(g71
g57
NtRp452
(dp453
g60
(dp454
sg69
g254
sg62
(lp455
g55
(g76
g57
NtRp456
(dp457
g60
(dp458
g80
g81
ssg69
g452
sg62
(lp459
S'session_id_admin'
p460
asbag55
(g76
g57
NtRp461
(dp462
g60
(dp463
g87
g88
ssg69
g452
sg62
(lp464
S':'
asbag55
(g76
g57
NtRp465
(dp466
g60
(dp467
sg69
g452
sg62
(lp468
g55
(g56
g57
NtRp469
(dp470
g60
(dp471
g68
I4
ssg69
g465
sg62
(lp472
S'127.0.0.1-451e400d-95c6-4798-aa5b-0b8737d4b703'
p473
ag55
(g64
g57
NtRp474
(dp475
g60
(dp476
g68
I3
ssg69
Nsg62
(lp477
g55
(g71
g57
NtRp478
(dp479
g60
(dp480
sg69
g474
sg62
(lp481
g55
(g76
g57
NtRp482
(dp483
g60
(dp484
g80
g81
ssg69
g478
sg62
(lp485
g292
asbag55
(g76
g57
NtRp486
(dp487
g60
(dp488
g87
g88
ssg69
g478
sg62
(lp489
S':'
asbag55
(g76
g57
NtRp490
(dp491
g60
(dp492
sg69
g478
sg62
(lp493
g55
(g56
g57
NtRp494
(dp495
g60
(dp496
g68
I3
ssg69
g490
sg62
(lp497
S''
asbasbasbag55
(g71
g57
NtRp498
(dp499
g60
(dp500
sg69
g474
sg62
(lp501
g55
(g76
g57
NtRp502
(dp503
g60
(dp504
g80
g81
ssg69
g498
sg62
(lp505
g313
asbag55
(g76
g57
NtRp506
(dp507
g60
(dp508
g87
g88
ssg69
g498
sg62
(lp509
S':'
asbag55
(g76
g57
NtRp510
(dp511
g60
(dp512
sg69
g498
sg62
(lp513
g55
(g56
g57
NtRp514
(dp515
g60
(dp516
g68
I3
ssg69
g510
sg62
(lp517
S''
asbasbasbag55
(g71
g57
NtRp518
(dp519
g60
(dp520
sg69
g474
sg62
(lp521
g55
(g76
g57
NtRp522
(dp523
g60
(dp524
g80
g81
ssg69
g518
sg62
(lp525
g334
asbag55
(g76
g57
NtRp526
(dp527
g60
(dp528
g87
g88
ssg69
g518
sg62
(lp529
S':'
asbag55
(g76
g57
NtRp530
(dp531
g60
(dp532
sg69
g518
sg62
(lp533
g55
(g56
g57
NtRp534
(dp535
g60
(dp536
g68
I3
ssg69
g530
sg62
(lp537
S''
asbasbasbag55
(g71
g57
NtRp538
(dp539
g60
(dp540
sg69
g474
sg62
(lp541
g55
(g76
g57
NtRp542
(dp543
g60
(dp544
g80
g81
ssg69
g538
sg62
(lp545
g355
asbag55
(g76
g57
NtRp546
(dp547
g60
(dp548
g87
g88
ssg69
g538
sg62
(lp549
S':'
asbag55
(g76
g57
NtRp550
(dp551
g60
(dp552
sg69
g538
sg62
(lp553
g55
(g56
g57
NtRp554
(dp555
g60
(dp556
g68
I3
ssg69
g550
sg62
(lp557
S''
asbasbasbag55
(g71
g57
NtRp558
(dp559
g60
(dp560
sg69
g474
sg62
(lp561
g55
(g76
g57
NtRp562
(dp563
g60
(dp564
g80
g81
ssg69
g558
sg62
(lp565
g376
asbag55
(g76
g57
NtRp566
(dp567
g60
(dp568
g87
g88
ssg69
g558
sg62
(lp569
S':'
asbag55
(g76
g57
NtRp570
(dp571
g60
(dp572
sg69
g558
sg62
(lp573
g55
(g56
g57
NtRp574
(dp575
g60
(dp576
g68
I3
ssg69
g570
sg62
(lp577
S''
asbasbasbag55
(g71
g57
NtRp578
(dp579
g60
(dp580
sg69
g474
sg62
(lp581
g55
(g76
g57
NtRp582
(dp583
g60
(dp584
g80
g81
ssg69
g578
sg62
(lp585
g397
asbag55
(g76
g57
NtRp586
(dp587
g60
(dp588
g87
g88
ssg69
g578
sg62
(lp589
S':'
asbag55
(g76
g57
NtRp590
(dp591
g60
(dp592
sg69
g578
sg62
(lp593
g55
(g56
g57
NtRp594
(dp595
g60
(dp596
g68
I3
ssg69
g590
sg62
(lp597
S''
asbasbasbag55
(g71
g57
NtRp598
(dp599
g60
(dp600
sg69
g474
sg62
(lp601
g55
(g76
g57
NtRp602
(dp603
g60
(dp604
g80
g81
ssg69
g598
sg62
(lp605
g418
asbag55
(g76
g57
NtRp606
(dp607
g60
(dp608
g87
g88
ssg69
g598
sg62
(lp609
S':'
asbag55
(g76
g57
NtRp610
(dp611
g60
(dp612
sg69
g598
sg62
(lp613
g55
(g56
g57
NtRp614
(dp615
g60
(dp616
g68
I3
ssg69
g610
sg62
(lp617
S''
asbasbasbag55
(g71
g57
NtRp618
(dp619
g60
(dp620
sg69
g474
sg62
(lp621
g55
(g76
g57
NtRp622
(dp623
g60
(dp624
g80
g81
ssg69
g618
sg62
(lp625
g439
asbag55
(g76
g57
NtRp626
(dp627
g60
(dp628
g87
g88
ssg69
g618
sg62
(lp629
S':'
asbag55
(g76
g57
NtRp630
(dp631
g60
(dp632
sg69
g618
sg62
(lp633
g55
(g56
g57
NtRp634
(dp635
g60
(dp636
g68
I3
ssg69
g630
sg62
(lp637
S''
asbasbasbasbasbasbasbag55
(g71
g57
NtRp638
(dp639
g60
(dp640
sg69
g254
sg62
(lp641
g55
(g76
g57
NtRp642
(dp643
g60
(dp644
g80
g81
ssg69
g638
sg62
(lp645
S'session_id_welcome'
p646
asbag55
(g76
g57
NtRp647
(dp648
g60
(dp649
g87
g88
ssg69
g638
sg62
(lp650
S':'
asbag55
(g76
g57
NtRp651
(dp652
g60
(dp653
sg69
g638
sg62
(lp654
g55
(g56
g57
NtRp655
(dp656
g60
(dp657
g68
I4
ssg69
g651
sg62
(lp658
S'127.0.0.1-95c46222-74b7-463f-9016-75c6960e2569'
p659
ag55
(g64
g57
NtRp660
(dp661
g60
(dp662
g68
I3
ssg69
Nsg62
(lp663
g55
(g71
g57
NtRp664
(dp665
g60
(dp666
sg69
g660
sg62
(lp667
g55
(g76
g57
NtRp668
(dp669
g60
(dp670
g80
g81
ssg69
g664
sg62
(lp671
g292
asbag55
(g76
g57
NtRp672
(dp673
g60
(dp674
g87
g88
ssg69
g664
sg62
(lp675
S':'
asbag55
(g76
g57
NtRp676
(dp677
g60
(dp678
sg69
g664
sg62
(lp679
g55
(g56
g57
NtRp680
(dp681
g60
(dp682
g68
I3
ssg69
g676
sg62
(lp683
S''
asbasbasbag55
(g71
g57
NtRp684
(dp685
g60
(dp686
sg69
g660
sg62
(lp687
g55
(g76
g57
NtRp688
(dp689
g60
(dp690
g80
g81
ssg69
g684
sg62
(lp691
g313
asbag55
(g76
g57
NtRp692
(dp693
g60
(dp694
g87
g88
ssg69
g684
sg62
(lp695
S':'
asbag55
(g76
g57
NtRp696
(dp697
g60
(dp698
sg69
g684
sg62
(lp699
g55
(g56
g57
NtRp700
(dp701
g60
(dp702
g68
I3
ssg69
g696
sg62
(lp703
S''
asbasbasbag55
(g71
g57
NtRp704
(dp705
g60
(dp706
sg69
g660
sg62
(lp707
g55
(g76
g57
NtRp708
(dp709
g60
(dp710
g80
g81
ssg69
g704
sg62
(lp711
g334
asbag55
(g76
g57
NtRp712
(dp713
g60
(dp714
g87
g88
ssg69
g704
sg62
(lp715
S':'
asbag55
(g76
g57
NtRp716
(dp717
g60
(dp718
sg69
g704
sg62
(lp719
g55
(g56
g57
NtRp720
(dp721
g60
(dp722
g68
I3
ssg69
g716
sg62
(lp723
S''
asbasbasbag55
(g71
g57
NtRp724
(dp725
g60
(dp726
sg69
g660
sg62
(lp727
g55
(g76
g57
NtRp728
(dp729
g60
(dp730
g80
g81
ssg69
g724
sg62
(lp731
g355
asbag55
(g76
g57
NtRp732
(dp733
g60
(dp734
g87
g88
ssg69
g724
sg62
(lp735
S':'
asbag55
(g76
g57
NtRp736
(dp737
g60
(dp738
sg69
g724
sg62
(lp739
g55
(g56
g57
NtRp740
(dp741
g60
(dp742
g68
I3
ssg69
g736
sg62
(lp743
S''
asbasbasbag55
(g71
g57
NtRp744
(dp745
g60
(dp746
sg69
g660
sg62
(lp747
g55
(g76
g57
NtRp748
(dp749
g60
(dp750
g80
g81
ssg69
g744
sg62
(lp751
g376
asbag55
(g76
g57
NtRp752
(dp753
g60
(dp754
g87
g88
ssg69
g744
sg62
(lp755
S':'
asbag55
(g76
g57
NtRp756
(dp757
g60
(dp758
sg69
g744
sg62
(lp759
g55
(g56
g57
NtRp760
(dp761
g60
(dp762
g68
I3
ssg69
g756
sg62
(lp763
S''
asbasbasbag55
(g71
g57
NtRp764
(dp765
g60
(dp766
sg69
g660
sg62
(lp767
g55
(g76
g57
NtRp768
(dp769
g60
(dp770
g80
g81
ssg69
g764
sg62
(lp771
g397
asbag55
(g76
g57
NtRp772
(dp773
g60
(dp774
g87
g88
ssg69
g764
sg62
(lp775
S':'
asbag55
(g76
g57
NtRp776
(dp777
g60
(dp778
sg69
g764
sg62
(lp779
g55
(g56
g57
NtRp780
(dp781
g60
(dp782
g68
I3
ssg69
g776
sg62
(lp783
S''
asbasbasbag55
(g71
g57
NtRp784
(dp785
g60
(dp786
sg69
g660
sg62
(lp787
g55
(g76
g57
NtRp788
(dp789
g60
(dp790
g80
g81
ssg69
g784
sg62
(lp791
g418
asbag55
(g76
g57
NtRp792
(dp793
g60
(dp794
g87
g88
ssg69
g784
sg62
(lp795
S':'
asbag55
(g76
g57
NtRp796
(dp797
g60
(dp798
sg69
g784
sg62
(lp799
g55
(g56
g57
NtRp800
(dp801
g60
(dp802
g68
I3
ssg69
g796
sg62
(lp803
S''
asbasbasbag55
(g71
g57
NtRp804
(dp805
g60
(dp806
sg69
g660
sg62
(lp807
g55
(g76
g57
NtRp808
(dp809
g60
(dp810
g80
g81
ssg69
g804
sg62
(lp811
g439
asbag55
(g76
g57
NtRp812
(dp813
g60
(dp814
g87
g88
ssg69
g804
sg62
(lp815
S':'
asbag55
(g76
g57
NtRp816
(dp817
g60
(dp818
sg69
g804
sg62
(lp819
g55
(g56
g57
NtRp820
(dp821
g60
(dp822
g68
I3
ssg69
g816
sg62
(lp823
S''
asbasbasbasbasbasbasbag55
(g71
g57
NtRp824
(dp825
g60
(dp826
sg69
g254
sg62
(lp827
g55
(g76
g57
NtRp828
(dp829
g60
(dp830
g80
g81
ssg69
g824
sg62
(lp831
S'session_id_wsd'
p832
asbag55
(g76
g57
NtRp833
(dp834
g60
(dp835
g87
g88
ssg69
g824
sg62
(lp836
S':'
asbag55
(g76
g57
NtRp837
(dp838
g60
(dp839
sg69
g824
sg62
(lp840
g55
(g56
g57
NtRp841
(dp842
g60
(dp843
g68
I4
ssg69
g837
sg62
(lp844
S'127.0.0.1-6a7c3401-059b-4dac-aafc-9a0a37e89b81'
p845
ag55
(g64
g57
NtRp846
(dp847
g60
(dp848
g68
I3
ssg69
Nsg62
(lp849
g55
(g71
g57
NtRp850
(dp851
g60
(dp852
sg69
g846
sg62
(lp853
g55
(g76
g57
NtRp854
(dp855
g60
(dp856
g80
g81
ssg69
g850
sg62
(lp857
g292
asbag55
(g76
g57
NtRp858
(dp859
g60
(dp860
g87
g88
ssg69
g850
sg62
(lp861
S':'
asbag55
(g76
g57
NtRp862
(dp863
g60
(dp864
sg69
g850
sg62
(lp865
g55
(g56
g57
NtRp866
(dp867
g60
(dp868
g68
I3
ssg69
g862
sg62
(lp869
S''
asbasbasbag55
(g71
g57
NtRp870
(dp871
g60
(dp872
sg69
g846
sg62
(lp873
g55
(g76
g57
NtRp874
(dp875
g60
(dp876
g80
g81
ssg69
g870
sg62
(lp877
g313
asbag55
(g76
g57
NtRp878
(dp879
g60
(dp880
g87
g88
ssg69
g870
sg62
(lp881
S':'
asbag55
(g76
g57
NtRp882
(dp883
g60
(dp884
sg69
g870
sg62
(lp885
g55
(g56
g57
NtRp886
(dp887
g60
(dp888
g68
I3
ssg69
g882
sg62
(lp889
S''
asbasbasbag55
(g71
g57
NtRp890
(dp891
g60
(dp892
sg69
g846
sg62
(lp893
g55
(g76
g57
NtRp894
(dp895
g60
(dp896
g80
g81
ssg69
g890
sg62
(lp897
g334
asbag55
(g76
g57
NtRp898
(dp899
g60
(dp900
g87
g88
ssg69
g890
sg62
(lp901
S':'
asbag55
(g76
g57
NtRp902
(dp903
g60
(dp904
sg69
g890
sg62
(lp905
g55
(g56
g57
NtRp906
(dp907
g60
(dp908
g68
I3
ssg69
g902
sg62
(lp909
S''
asbasbasbag55
(g71
g57
NtRp910
(dp911
g60
(dp912
sg69
g846
sg62
(lp913
g55
(g76
g57
NtRp914
(dp915
g60
(dp916
g80
g81
ssg69
g910
sg62
(lp917
g355
asbag55
(g76
g57
NtRp918
(dp919
g60
(dp920
g87
g88
ssg69
g910
sg62
(lp921
S':'
asbag55
(g76
g57
NtRp922
(dp923
g60
(dp924
sg69
g910
sg62
(lp925
g55
(g56
g57
NtRp926
(dp927
g60
(dp928
g68
I3
ssg69
g922
sg62
(lp929
S''
asbasbasbag55
(g71
g57
NtRp930
(dp931
g60
(dp932
sg69
g846
sg62
(lp933
g55
(g76
g57
NtRp934
(dp935
g60
(dp936
g80
g81
ssg69
g930
sg62
(lp937
g376
asbag55
(g76
g57
NtRp938
(dp939
g60
(dp940
g87
g88
ssg69
g930
sg62
(lp941
S':'
asbag55
(g76
g57
NtRp942
(dp943
g60
(dp944
sg69
g930
sg62
(lp945
g55
(g56
g57
NtRp946
(dp947
g60
(dp948
g68
I3
ssg69
g942
sg62
(lp949
S''
asbasbasbag55
(g71
g57
NtRp950
(dp951
g60
(dp952
sg69
g846
sg62
(lp953
g55
(g76
g57
NtRp954
(dp955
g60
(dp956
g80
g81
ssg69
g950
sg62
(lp957
g397
asbag55
(g76
g57
NtRp958
(dp959
g60
(dp960
g87
g88
ssg69
g950
sg62
(lp961
S':'
asbag55
(g76
g57
NtRp962
(dp963
g60
(dp964
sg69
g950
sg62
(lp965
g55
(g56
g57
NtRp966
(dp967
g60
(dp968
g68
I3
ssg69
g962
sg62
(lp969
S''
asbasbasbag55
(g71
g57
NtRp970
(dp971
g60
(dp972
sg69
g846
sg62
(lp973
g55
(g76
g57
NtRp974
(dp975
g60
(dp976
g80
g81
ssg69
g970
sg62
(lp977
g418
asbag55
(g76
g57
NtRp978
(dp979
g60
(dp980
g87
g88
ssg69
g970
sg62
(lp981
S':'
asbag55
(g76
g57
NtRp982
(dp983
g60
(dp984
sg69
g970
sg62
(lp985
g55
(g56
g57
NtRp986
(dp987
g60
(dp988
g68
I3
ssg69
g982
sg62
(lp989
S''
asbasbasbag55
(g71
g57
NtRp990
(dp991
g60
(dp992
sg69
g846
sg62
(lp993
g55
(g76
g57
NtRp994
(dp995
g60
(dp996
g80
g81
ssg69
g990
sg62
(lp997
g439
asbag55
(g76
g57
NtRp998
(dp999
g60
(dp1000
g87
g88
ssg69
g990
sg62
(lp1001
S':'
asbag55
(g76
g57
NtRp1002
(dp1003
g60
(dp1004
sg69
g990
sg62
(lp1005
g55
(g56
g57
NtRp1006
(dp1007
g60
(dp1008
g68
I3
ssg69
g1002
sg62
(lp1009
S''
asbasbasbasbasbasbasbag55
(g71
g57
NtRp1010
(dp1011
g60
(dp1012
sg69
g254
sg62
(lp1013
g55
(g76
g57
NtRp1014
(dp1015
g60
(dp1016
g80
g81
ssg69
g1010
sg62
(lp1017
S'session_id_wsd_tool'
p1018
asbag55
(g76
g57
NtRp1019
(dp1020
g60
(dp1021
g87
g88
ssg69
g1010
sg62
(lp1022
S':'
asbag55
(g76
g57
NtRp1023
(dp1024
g60
(dp1025
sg69
g1010
sg62
(lp1026
g55
(g56
g57
NtRp1027
(dp1028
g60
(dp1029
g68
I4
ssg69
g1023
sg62
(lp1030
S'127.0.0.1-8aee5378-76ff-46f8-b728-b1bcd2634b28'
p1031
ag55
(g64
g57
NtRp1032
(dp1033
g60
(dp1034
g68
I3
ssg69
Nsg62
(lp1035
g55
(g71
g57
NtRp1036
(dp1037
g60
(dp1038
sg69
g1032
sg62
(lp1039
g55
(g76
g57
NtRp1040
(dp1041
g60
(dp1042
g80
g81
ssg69
g1036
sg62
(lp1043
g292
asbag55
(g76
g57
NtRp1044
(dp1045
g60
(dp1046
g87
g88
ssg69
g1036
sg62
(lp1047
S':'
asbag55
(g76
g57
NtRp1048
(dp1049
g60
(dp1050
sg69
g1036
sg62
(lp1051
g55
(g56
g57
NtRp1052
(dp1053
g60
(dp1054
g68
I3
ssg69
g1048
sg62
(lp1055
S''
asbasbasbag55
(g71
g57
NtRp1056
(dp1057
g60
(dp1058
sg69
g1032
sg62
(lp1059
g55
(g76
g57
NtRp1060
(dp1061
g60
(dp1062
g80
g81
ssg69
g1056
sg62
(lp1063
g313
asbag55
(g76
g57
NtRp1064
(dp1065
g60
(dp1066
g87
g88
ssg69
g1056
sg62
(lp1067
S':'
asbag55
(g76
g57
NtRp1068
(dp1069
g60
(dp1070
sg69
g1056
sg62
(lp1071
g55
(g56
g57
NtRp1072
(dp1073
g60
(dp1074
g68
I3
ssg69
g1068
sg62
(lp1075
S''
asbasbasbag55
(g71
g57
NtRp1076
(dp1077
g60
(dp1078
sg69
g1032
sg62
(lp1079
g55
(g76
g57
NtRp1080
(dp1081
g60
(dp1082
g80
g81
ssg69
g1076
sg62
(lp1083
g334
asbag55
(g76
g57
NtRp1084
(dp1085
g60
(dp1086
g87
g88
ssg69
g1076
sg62
(lp1087
S':'
asbag55
(g76
g57
NtRp1088
(dp1089
g60
(dp1090
sg69
g1076
sg62
(lp1091
g55
(g56
g57
NtRp1092
(dp1093
g60
(dp1094
g68
I3
ssg69
g1088
sg62
(lp1095
S''
asbasbasbag55
(g71
g57
NtRp1096
(dp1097
g60
(dp1098
sg69
g1032
sg62
(lp1099
g55
(g76
g57
NtRp1100
(dp1101
g60
(dp1102
g80
g81
ssg69
g1096
sg62
(lp1103
g355
asbag55
(g76
g57
NtRp1104
(dp1105
g60
(dp1106
g87
g88
ssg69
g1096
sg62
(lp1107
S':'
asbag55
(g76
g57
NtRp1108
(dp1109
g60
(dp1110
sg69
g1096
sg62
(lp1111
g55
(g56
g57
NtRp1112
(dp1113
g60
(dp1114
g68
I3
ssg69
g1108
sg62
(lp1115
S''
asbasbasbag55
(g71
g57
NtRp1116
(dp1117
g60
(dp1118
sg69
g1032
sg62
(lp1119
g55
(g76
g57
NtRp1120
(dp1121
g60
(dp1122
g80
g81
ssg69
g1116
sg62
(lp1123
g376
asbag55
(g76
g57
NtRp1124
(dp1125
g60
(dp1126
g87
g88
ssg69
g1116
sg62
(lp1127
S':'
asbag55
(g76
g57
NtRp1128
(dp1129
g60
(dp1130
sg69
g1116
sg62
(lp1131
g55
(g56
g57
NtRp1132
(dp1133
g60
(dp1134
g68
I3
ssg69
g1128
sg62
(lp1135
S''
asbasbasbag55
(g71
g57
NtRp1136
(dp1137
g60
(dp1138
sg69
g1032
sg62
(lp1139
g55
(g76
g57
NtRp1140
(dp1141
g60
(dp1142
g80
g81
ssg69
g1136
sg62
(lp1143
g397
asbag55
(g76
g57
NtRp1144
(dp1145
g60
(dp1146
g87
g88
ssg69
g1136
sg62
(lp1147
S':'
asbag55
(g76
g57
NtRp1148
(dp1149
g60
(dp1150
sg69
g1136
sg62
(lp1151
g55
(g56
g57
NtRp1152
(dp1153
g60
(dp1154
g68
I3
ssg69
g1148
sg62
(lp1155
S''
asbasbasbag55
(g71
g57
NtRp1156
(dp1157
g60
(dp1158
sg69
g1032
sg62
(lp1159
g55
(g76
g57
NtRp1160
(dp1161
g60
(dp1162
g80
g81
ssg69
g1156
sg62
(lp1163
g418
asbag55
(g76
g57
NtRp1164
(dp1165
g60
(dp1166
g87
g88
ssg69
g1156
sg62
(lp1167
S':'
asbag55
(g76
g57
NtRp1168
(dp1169
g60
(dp1170
sg69
g1156
sg62
(lp1171
g55
(g56
g57
NtRp1172
(dp1173
g60
(dp1174
g68
I3
ssg69
g1168
sg62
(lp1175
S''
asbasbasbag55
(g71
g57
NtRp1176
(dp1177
g60
(dp1178
sg69
g1032
sg62
(lp1179
g55
(g76
g57
NtRp1180
(dp1181
g60
(dp1182
g80
g81
ssg69
g1176
sg62
(lp1183
g439
asbag55
(g76
g57
NtRp1184
(dp1185
g60
(dp1186
g87
g88
ssg69
g1176
sg62
(lp1187
S':'
asbag55
(g76
g57
NtRp1188
(dp1189
g60
(dp1190
sg69
g1176
sg62
(lp1191
g55
(g56
g57
NtRp1192
(dp1193
g60
(dp1194
g68
I3
ssg69
g1188
sg62
(lp1195
S''
asbasbasbasbasbasbasbasbasbasbasbag55
(g71
g57
NtRp1196
(dp1197
g60
(dp1198
sg69
g65
sg62
(lp1199
g55
(g76
g57
NtRp1200
(dp1201
g60
(dp1202
g80
g81
ssg69
g1196
sg62
(lp1203
S'env'
p1204
asbag55
(g76
g57
NtRp1205
(dp1206
g60
(dp1207
g87
g88
ssg69
g1196
sg62
(lp1208
S':'
asbag55
(g76
g57
NtRp1209
(dp1210
g60
(dp1211
sg69
g1196
sg62
(lp1212
g55
(g56
g57
NtRp1213
(dp1214
g60
(dp1215
g68
I5
ssg69
g1209
sg62
(lp1216
g55
(g64
g57
NtRp1217
(dp1218
g60
(dp1219
g68
I4
ssg69
Nsg62
(lp1220
g55
(g71
g57
NtRp1221
(dp1222
g60
(dp1223
sg69
g1217
sg62
(lp1224
g55
(g76
g57
NtRp1225
(dp1226
g60
(dp1227
g80
g81
ssg69
g1221
sg62
(lp1228
S'app_folders'
p1229
asbag55
(g76
g57
NtRp1230
(dp1231
g60
(dp1232
g87
g88
ssg69
g1221
sg62
(lp1233
S':'
asbag55
(g76
g57
NtRp1234
(dp1235
g60
(dp1236
sg69
g1221
sg62
(lp1237
g55
(g56
g57
NtRp1238
(dp1239
g60
(dp1240
g68
I4
ssg69
g1234
sg62
(lp1241
S"set(['/home/nazrul/web2py/applications/isas/', '/home/nazrul/web2py/applications/welcome/', '/home/nazrul/web2py/applications/WSD_Tool/', '/home/nazrul/web2py/applications/admin/', '/home/nazrul/web2py/applications/WSD/', '/home/nazrul/web2py/applications/news/'])"
p1242
asbasbasbag55
(g71
g57
NtRp1243
(dp1244
g60
(dp1245
sg69
g1217
sg62
(lp1246
g55
(g76
g57
NtRp1247
(dp1248
g60
(dp1249
g80
g81
ssg69
g1243
sg62
(lp1250
S'applications_parent'
p1251
asbag55
(g76
g57
NtRp1252
(dp1253
g60
(dp1254
g87
g88
ssg69
g1243
sg62
(lp1255
S':'
asbag55
(g76
g57
NtRp1256
(dp1257
g60
(dp1258
sg69
g1243
sg62
(lp1259
g55
(g56
g57
NtRp1260
(dp1261
g60
(dp1262
g68
I4
ssg69
g1256
sg62
(lp1263
S'/home/nazrul/web2py'
p1264
asbasbasbag55
(g71
g57
NtRp1265
(dp1266
g60
(dp1267
sg69
g1217
sg62
(lp1268
g55
(g76
g57
NtRp1269
(dp1270
g60
(dp1271
g80
g81
ssg69
g1265
sg62
(lp1272
S'cmd_args'
p1273
asbag55
(g76
g57
NtRp1274
(dp1275
g60
(dp1276
g87
g88
ssg69
g1265
sg62
(lp1277
S':'
asbag55
(g76
g57
NtRp1278
(dp1279
g60
(dp1280
sg69
g1265
sg62
(lp1281
g55
(g56
g57
NtRp1282
(dp1283
g60
(dp1284
g68
I4
ssg69
g1278
sg62
(lp1285
g55
(g64
g57
NtRp1286
(dp1287
g60
(dp1288
g68
I3
ssg69
Nsg62
(lp1289
sbasbasbasbag55
(g71
g57
NtRp1290
(dp1291
g60
(dp1292
sg69
g1217
sg62
(lp1293
g55
(g76
g57
NtRp1294
(dp1295
g60
(dp1296
g80
g81
ssg69
g1290
sg62
(lp1297
S'cmd_options'
p1298
asbag55
(g76
g57
NtRp1299
(dp1300
g60
(dp1301
g87
g88
ssg69
g1290
sg62
(lp1302
S':'
asbag55
(g76
g57
NtRp1303
(dp1304
g60
(dp1305
sg69
g1290
sg62
(lp1306
g55
(g56
g57
NtRp1307
(dp1308
g60
(dp1309
g68
I4
ssg69
g1303
sg62
(lp1310
S"<Values at 0x941394c: {'verbose': False, 'ip': '127.0.0.1', 'with_scheduler': False, 'ips': [], 'shutdown_timeout': 5, 'taskbar': False, 'port': 8000, 'maxthreads': None, 'softcron': False, 'server_name': 'nazrul-Compaq-Presario-CQ40-Notebook-PC', 'bpython': False, 'nogui': False, 'pid_filename': 'httpserver.pid', 'extcron': False, 'runcron': False, 'run_system_tests': False, 'test': None, 'folder': '/home/nazrul/web2py', 'config': '', 'import_models': False, 'winservice': '', 'shell': None, 'run': '', 'log_filename': 'httpserver.log', 'debuglevel': 30, 'args': [''], 'socket_timeout': 5, 'ssl_ca_certificate': None, 'scheduler': None, 'profiler_filename': None, 'ssl_private_key': '', 'scheduler_groups': None, 'password': '<ask>', 'request_queue_size': 5, 'ssl_certificate': '', 'cronjob': False, 'numthreads': None, 'quiet': False, 'interfaces': None, 'minthreads': None, 'timeout': 10, 'plain': False, 'nobanner': False}>"
p1311
asbasbasbag55
(g71
g57
NtRp1312
(dp1313
g60
(dp1314
sg69
g1217
sg62
(lp1315
g55
(g76
g57
NtRp1316
(dp1317
g60
(dp1318
g80
g81
ssg69
g1312
sg62
(lp1319
S'db_sessions'
p1320
asbag55
(g76
g57
NtRp1321
(dp1322
g60
(dp1323
g87
g88
ssg69
g1312
sg62
(lp1324
S':'
asbag55
(g76
g57
NtRp1325
(dp1326
g60
(dp1327
sg69
g1312
sg62
(lp1328
g55
(g56
g57
NtRp1329
(dp1330
g60
(dp1331
g68
I4
ssg69
g1325
sg62
(lp1332
S'set([])'
p1333
asbasbasbag55
(g71
g57
NtRp1334
(dp1335
g60
(dp1336
sg69
g1217
sg62
(lp1337
g55
(g76
g57
NtRp1338
(dp1339
g60
(dp1340
g80
g81
ssg69
g1334
sg62
(lp1341
S'debugging'
p1342
asbag55
(g76
g57
NtRp1343
(dp1344
g60
(dp1345
g87
g88
ssg69
g1334
sg62
(lp1346
S':'
asbag55
(g76
g57
NtRp1347
(dp1348
g60
(dp1349
sg69
g1334
sg62
(lp1350
g55
(g56
g57
NtRp1351
(dp1352
g60
(dp1353
g68
I4
ssg69
g1347
sg62
(lp1354
g98
asbasbasbag55
(g71
g57
NtRp1355
(dp1356
g60
(dp1357
sg69
g1217
sg62
(lp1358
g55
(g76
g57
NtRp1359
(dp1360
g60
(dp1361
g80
g81
ssg69
g1355
sg62
(lp1362
S'gluon_parent'
p1363
asbag55
(g76
g57
NtRp1364
(dp1365
g60
(dp1366
g87
g88
ssg69
g1355
sg62
(lp1367
S':'
asbag55
(g76
g57
NtRp1368
(dp1369
g60
(dp1370
sg69
g1355
sg62
(lp1371
g55
(g56
g57
NtRp1372
(dp1373
g60
(dp1374
g68
I4
ssg69
g1368
sg62
(lp1375
S'/home/nazrul/web2py'
p1376
asbasbasbag55
(g71
g57
NtRp1377
(dp1378
g60
(dp1379
sg69
g1217
sg62
(lp1380
g55
(g76
g57
NtRp1381
(dp1382
g60
(dp1383
g80
g81
ssg69
g1377
sg62
(lp1384
S'http_accept'
p1385
asbag55
(g76
g57
NtRp1386
(dp1387
g60
(dp1388
g87
g88
ssg69
g1377
sg62
(lp1389
S':'
asbag55
(g76
g57
NtRp1390
(dp1391
g60
(dp1392
sg69
g1377
sg62
(lp1393
g55
(g56
g57
NtRp1394
(dp1395
g60
(dp1396
g68
I4
ssg69
g1390
sg62
(lp1397
S'text/html,application/xhtml+xml,application/xml;q=0.9,*/*;q=0.8'
p1398
asbasbasbag55
(g71
g57
NtRp1399
(dp1400
g60
(dp1401
sg69
g1217
sg62
(lp1402
g55
(g76
g57
NtRp1403
(dp1404
g60
(dp1405
g80
g81
ssg69
g1399
sg62
(lp1406
S'http_accept_encoding'
p1407
asbag55
(g76
g57
NtRp1408
(dp1409
g60
(dp1410
g87
g88
ssg69
g1399
sg62
(lp1411
S':'
asbag55
(g76
g57
NtRp1412
(dp1413
g60
(dp1414
sg69
g1399
sg62
(lp1415
g55
(g56
g57
NtRp1416
(dp1417
g60
(dp1418
g68
I4
ssg69
g1412
sg62
(lp1419
S'gzip, deflate'
p1420
asbasbasbag55
(g71
g57
NtRp1421
(dp1422
g60
(dp1423
sg69
g1217
sg62
(lp1424
g55
(g76
g57
NtRp1425
(dp1426
g60
(dp1427
g80
g81
ssg69
g1421
sg62
(lp1428
S'http_accept_language'
p1429
asbag55
(g76
g57
NtRp1430
(dp1431
g60
(dp1432
g87
g88
ssg69
g1421
sg62
(lp1433
S':'
asbag55
(g76
g57
NtRp1434
(dp1435
g60
(dp1436
sg69
g1421
sg62
(lp1437
g55
(g56
g57
NtRp1438
(dp1439
g60
(dp1440
g68
I4
ssg69
g1434
sg62
(lp1441
S'en-US,en;q=0.5'
p1442
asbasbasbag55
(g71
g57
NtRp1443
(dp1444
g60
(dp1445
sg69
g1217
sg62
(lp1446
g55
(g76
g57
NtRp1447
(dp1448
g60
(dp1449
g80
g81
ssg69
g1443
sg62
(lp1450
S'http_connection'
p1451
asbag55
(g76
g57
NtRp1452
(dp1453
g60
(dp1454
g87
g88
ssg69
g1443
sg62
(lp1455
S':'
asbag55
(g76
g57
NtRp1456
(dp1457
g60
(dp1458
sg69
g1443
sg62
(lp1459
g55
(g56
g57
NtRp1460
(dp1461
g60
(dp1462
g68
I4
ssg69
g1456
sg62
(lp1463
S'keep-alive'
p1464
asbasbasbag55
(g71
g57
NtRp1465
(dp1466
g60
(dp1467
sg69
g1217
sg62
(lp1468
g55
(g76
g57
NtRp1469
(dp1470
g60
(dp1471
g80
g81
ssg69
g1465
sg62
(lp1472
S'http_cookie'
p1473
asbag55
(g76
g57
NtRp1474
(dp1475
g60
(dp1476
g87
g88
ssg69
g1465
sg62
(lp1477
S':'
asbag55
(g76
g57
NtRp1478
(dp1479
g60
(dp1480
sg69
g1465
sg62
(lp1481
g55
(g56
g57
NtRp1482
(dp1483
g60
(dp1484
g68
I4
ssg69
g1478
sg62
(lp1485
S'KBD=0hi-0; session_id_welcome=127.0.0.1-95c46222-74b7-463f-9016-75c6960e2569; session_id_admin=127.0.0.1-451e400d-95c6-4798-aa5b-0b8737d4b703; session_id_wsd=127.0.0.1-6a7c3401-059b-4dac-aafc-9a0a37e89b81; session_id_wsd_tool=127.0.0.1-8aee5378-76ff-46f8-b728-b1bcd2634b28'
p1486
asbasbasbag55
(g71
g57
NtRp1487
(dp1488
g60
(dp1489
sg69
g1217
sg62
(lp1490
g55
(g76
g57
NtRp1491
(dp1492
g60
(dp1493
g80
g81
ssg69
g1487
sg62
(lp1494
S'http_host'
p1495
asbag55
(g76
g57
NtRp1496
(dp1497
g60
(dp1498
g87
g88
ssg69
g1487
sg62
(lp1499
S':'
asbag55
(g76
g57
NtRp1500
(dp1501
g60
(dp1502
sg69
g1487
sg62
(lp1503
g55
(g56
g57
NtRp1504
(dp1505
g60
(dp1506
g68
I4
ssg69
g1500
sg62
(lp1507
S'127.0.0.1:8000'
p1508
asbasbasbag55
(g71
g57
NtRp1509
(dp1510
g60
(dp1511
sg69
g1217
sg62
(lp1512
g55
(g76
g57
NtRp1513
(dp1514
g60
(dp1515
g80
g81
ssg69
g1509
sg62
(lp1516
S'http_user_agent'
p1517
asbag55
(g76
g57
NtRp1518
(dp1519
g60
(dp1520
g87
g88
ssg69
g1509
sg62
(lp1521
S':'
asbag55
(g76
g57
NtRp1522
(dp1523
g60
(dp1524
sg69
g1509
sg62
(lp1525
g55
(g56
g57
NtRp1526
(dp1527
g60
(dp1528
g68
I4
ssg69
g1522
sg62
(lp1529
S'Mozilla/5.0 (X11; Ubuntu; Linux i686; rv:18.0) Gecko/20100101 Firefox/18.0'
p1530
asbasbasbag55
(g71
g57
NtRp1531
(dp1532
g60
(dp1533
sg69
g1217
sg62
(lp1534
g55
(g76
g57
NtRp1535
(dp1536
g60
(dp1537
g80
g81
ssg69
g1531
sg62
(lp1538
S'is_jython'
p1539
asbag55
(g76
g57
NtRp1540
(dp1541
g60
(dp1542
g87
g88
ssg69
g1531
sg62
(lp1543
S':'
asbag55
(g76
g57
NtRp1544
(dp1545
g60
(dp1546
sg69
g1531
sg62
(lp1547
g55
(g56
g57
NtRp1548
(dp1549
g60
(dp1550
g68
I4
ssg69
g1544
sg62
(lp1551
g98
asbasbasbag55
(g71
g57
NtRp1552
(dp1553
g60
(dp1554
sg69
g1217
sg62
(lp1555
g55
(g76
g57
NtRp1556
(dp1557
g60
(dp1558
g80
g81
ssg69
g1552
sg62
(lp1559
S'is_pypy'
p1560
asbag55
(g76
g57
NtRp1561
(dp1562
g60
(dp1563
g87
g88
ssg69
g1552
sg62
(lp1564
S':'
asbag55
(g76
g57
NtRp1565
(dp1566
g60
(dp1567
sg69
g1552
sg62
(lp1568
g55
(g56
g57
NtRp1569
(dp1570
g60
(dp1571
g68
I4
ssg69
g1565
sg62
(lp1572
g98
asbasbasbag55
(g71
g57
NtRp1573
(dp1574
g60
(dp1575
sg69
g1217
sg62
(lp1576
g55
(g76
g57
NtRp1577
(dp1578
g60
(dp1579
g80
g81
ssg69
g1573
sg62
(lp1580
S'local_hosts'
p1581
asbag55
(g76
g57
NtRp1582
(dp1583
g60
(dp1584
g87
g88
ssg69
g1573
sg62
(lp1585
S':'
asbag55
(g76
g57
NtRp1586
(dp1587
g60
(dp1588
sg69
g1573
sg62
(lp1589
g55
(g56
g57
NtRp1590
(dp1591
g60
(dp1592
g68
I4
ssg69
g1586
sg62
(lp1593
g55
(g64
g57
NtRp1594
(dp1595
g60
(dp1596
g68
I3
ssg69
Nsg62
(lp1597
g55
(g71
g57
NtRp1598
(dp1599
g60
(dp1600
sg69
g1594
sg62
(lp1601
g55
(g76
g57
NtRp1602
(dp1603
g60
(dp1604
sg69
g1598
sg62
(lp1605
g55
(g56
g57
NtRp1606
(dp1607
g60
(dp1608
g68
I3
ssg69
g1602
sg62
(lp1609
S'::1'
p1610
asbasbasbag55
(g71
g57
NtRp1611
(dp1612
g60
(dp1613
sg69
g1594
sg62
(lp1614
g55
(g76
g57
NtRp1615
(dp1616
g60
(dp1617
sg69
g1611
sg62
(lp1618
g55
(g56
g57
NtRp1619
(dp1620
g60
(dp1621
g68
I3
ssg69
g1615
sg62
(lp1622
S'127.0.1.1'
p1623
asbasbasbag55
(g71
g57
NtRp1624
(dp1625
g60
(dp1626
sg69
g1594
sg62
(lp1627
g55
(g76
g57
NtRp1628
(dp1629
g60
(dp1630
sg69
g1624
sg62
(lp1631
g55
(g56
g57
NtRp1632
(dp1633
g60
(dp1634
g68
I3
ssg69
g1628
sg62
(lp1635
S'::ffff:127.0.0.1'
p1636
asbasbasbag55
(g71
g57
NtRp1637
(dp1638
g60
(dp1639
sg69
g1594
sg62
(lp1640
g55
(g76
g57
NtRp1641
(dp1642
g60
(dp1643
sg69
g1637
sg62
(lp1644
g55
(g56
g57
NtRp1645
(dp1646
g60
(dp1647
g68
I3
ssg69
g1641
sg62
(lp1648
S'127.0.0.1'
p1649
asbasbasbag55
(g71
g57
NtRp1650
(dp1651
g60
(dp1652
sg69
g1594
sg62
(lp1653
g55
(g76
g57
NtRp1654
(dp1655
g60
(dp1656
sg69
g1650
sg62
(lp1657
g55
(g56
g57
NtRp1658
(dp1659
g60
(dp1660
g68
I3
ssg69
g1654
sg62
(lp1661
S'nazrul-Compaq-Presario-CQ40-Notebook-PC'
p1662
asbasbasbasbasbasbasbag55
(g71
g57
NtRp1663
(dp1664
g60
(dp1665
sg69
g1217
sg62
(lp1666
g55
(g76
g57
NtRp1667
(dp1668
g60
(dp1669
g80
g81
ssg69
g1663
sg62
(lp1670
S'path_info'
p1671
asbag55
(g76
g57
NtRp1672
(dp1673
g60
(dp1674
g87
g88
ssg69
g1663
sg62
(lp1675
S':'
asbag55
(g76
g57
NtRp1676
(dp1677
g60
(dp1678
sg69
g1663
sg62
(lp1679
g55
(g56
g57
NtRp1680
(dp1681
g60
(dp1682
g68
I4
ssg69
g1676
sg62
(lp1683
S'/WSD/default/rel'
p1684
asbasbasbag55
(g71
g57
NtRp1685
(dp1686
g60
(dp1687
sg69
g1217
sg62
(lp1688
g55
(g76
g57
NtRp1689
(dp1690
g60
(dp1691
g80
g81
ssg69
g1685
sg62
(lp1692
S'query_string'
p1693
asbag55
(g76
g57
NtRp1694
(dp1695
g60
(dp1696
g87
g88
ssg69
g1685
sg62
(lp1697
S':'
asbag55
(g76
g57
NtRp1698
(dp1699
g60
(dp1700
sg69
g1685
sg62
(lp1701
g55
(g56
g57
NtRp1702
(dp1703
g60
(dp1704
g68
I4
ssg69
g1698
sg62
(lp1705
S''
asbasbasbag55
(g71
g57
NtRp1706
(dp1707
g60
(dp1708
sg69
g1217
sg62
(lp1709
g55
(g76
g57
NtRp1710
(dp1711
g60
(dp1712
g80
g81
ssg69
g1706
sg62
(lp1713
S'remote_addr'
p1714
asbag55
(g76
g57
NtRp1715
(dp1716
g60
(dp1717
g87
g88
ssg69
g1706
sg62
(lp1718
S':'
asbag55
(g76
g57
NtRp1719
(dp1720
g60
(dp1721
sg69
g1706
sg62
(lp1722
g55
(g56
g57
NtRp1723
(dp1724
g60
(dp1725
g68
I4
ssg69
g1719
sg62
(lp1726
g210
asbasbasbag55
(g71
g57
NtRp1727
(dp1728
g60
(dp1729
sg69
g1217
sg62
(lp1730
g55
(g76
g57
NtRp1731
(dp1732
g60
(dp1733
g80
g81
ssg69
g1727
sg62
(lp1734
S'remote_port'
p1735
asbag55
(g76
g57
NtRp1736
(dp1737
g60
(dp1738
g87
g88
ssg69
g1727
sg62
(lp1739
S':'
asbag55
(g76
g57
NtRp1740
(dp1741
g60
(dp1742
sg69
g1727
sg62
(lp1743
g55
(g56
g57
NtRp1744
(dp1745
g60
(dp1746
g68
I4
ssg69
g1740
sg62
(lp1747
S'60200'
p1748
asbasbasbag55
(g71
g57
NtRp1749
(dp1750
g60
(dp1751
sg69
g1217
sg62
(lp1752
g55
(g76
g57
NtRp1753
(dp1754
g60
(dp1755
g80
g81
ssg69
g1749
sg62
(lp1756
S'request_method'
p1757
asbag55
(g76
g57
NtRp1758
(dp1759
g60
(dp1760
g87
g88
ssg69
g1749
sg62
(lp1761
S':'
asbag55
(g76
g57
NtRp1762
(dp1763
g60
(dp1764
sg69
g1749
sg62
(lp1765
g55
(g56
g57
NtRp1766
(dp1767
g60
(dp1768
g68
I4
ssg69
g1762
sg62
(lp1769
S'GET'
p1770
asbasbasbag55
(g71
g57
NtRp1771
(dp1772
g60
(dp1773
sg69
g1217
sg62
(lp1774
g55
(g76
g57
NtRp1775
(dp1776
g60
(dp1777
g80
g81
ssg69
g1771
sg62
(lp1778
S'request_uri'
p1779
asbag55
(g76
g57
NtRp1780
(dp1781
g60
(dp1782
g87
g88
ssg69
g1771
sg62
(lp1783
S':'
asbag55
(g76
g57
NtRp1784
(dp1785
g60
(dp1786
sg69
g1771
sg62
(lp1787
g55
(g56
g57
NtRp1788
(dp1789
g60
(dp1790
g68
I4
ssg69
g1784
sg62
(lp1791
g1684
asbasbasbag55
(g71
g57
NtRp1792
(dp1793
g60
(dp1794
sg69
g1217
sg62
(lp1795
g55
(g76
g57
NtRp1796
(dp1797
g60
(dp1798
g80
g81
ssg69
g1792
sg62
(lp1799
S'script_name'
p1800
asbag55
(g76
g57
NtRp1801
(dp1802
g60
(dp1803
g87
g88
ssg69
g1792
sg62
(lp1804
S':'
asbag55
(g76
g57
NtRp1805
(dp1806
g60
(dp1807
sg69
g1792
sg62
(lp1808
g55
(g56
g57
NtRp1809
(dp1810
g60
(dp1811
g68
I4
ssg69
g1805
sg62
(lp1812
S''
asbasbasbag55
(g71
g57
NtRp1813
(dp1814
g60
(dp1815
sg69
g1217
sg62
(lp1816
g55
(g76
g57
NtRp1817
(dp1818
g60
(dp1819
g80
g81
ssg69
g1813
sg62
(lp1820
S'server_name'
p1821
asbag55
(g76
g57
NtRp1822
(dp1823
g60
(dp1824
g87
g88
ssg69
g1813
sg62
(lp1825
S':'
asbag55
(g76
g57
NtRp1826
(dp1827
g60
(dp1828
sg69
g1813
sg62
(lp1829
g55
(g56
g57
NtRp1830
(dp1831
g60
(dp1832
g68
I4
ssg69
g1826
sg62
(lp1833
S'nazrul-Compaq-Presario-CQ40-Notebook-PC'
p1834
asbasbasbag55
(g71
g57
NtRp1835
(dp1836
g60
(dp1837
sg69
g1217
sg62
(lp1838
g55
(g76
g57
NtRp1839
(dp1840
g60
(dp1841
g80
g81
ssg69
g1835
sg62
(lp1842
S'server_port'
p1843
asbag55
(g76
g57
NtRp1844
(dp1845
g60
(dp1846
g87
g88
ssg69
g1835
sg62
(lp1847
S':'
asbag55
(g76
g57
NtRp1848
(dp1849
g60
(dp1850
sg69
g1835
sg62
(lp1851
g55
(g56
g57
NtRp1852
(dp1853
g60
(dp1854
g68
I4
ssg69
g1848
sg62
(lp1855
S'8000'
p1856
asbasbasbag55
(g71
g57
NtRp1857
(dp1858
g60
(dp1859
sg69
g1217
sg62
(lp1860
g55
(g76
g57
NtRp1861
(dp1862
g60
(dp1863
g80
g81
ssg69
g1857
sg62
(lp1864
S'server_protocol'
p1865
asbag55
(g76
g57
NtRp1866
(dp1867
g60
(dp1868
g87
g88
ssg69
g1857
sg62
(lp1869
S':'
asbag55
(g76
g57
NtRp1870
(dp1871
g60
(dp1872
sg69
g1857
sg62
(lp1873
g55
(g56
g57
NtRp1874
(dp1875
g60
(dp1876
g68
I4
ssg69
g1870
sg62
(lp1877
S'HTTP/1.1'
p1878
asbasbasbag55
(g71
g57
NtRp1879
(dp1880
g60
(dp1881
sg69
g1217
sg62
(lp1882
g55
(g76
g57
NtRp1883
(dp1884
g60
(dp1885
g80
g81
ssg69
g1879
sg62
(lp1886
S'server_software'
p1887
asbag55
(g76
g57
NtRp1888
(dp1889
g60
(dp1890
g87
g88
ssg69
g1879
sg62
(lp1891
S':'
asbag55
(g76
g57
NtRp1892
(dp1893
g60
(dp1894
sg69
g1879
sg62
(lp1895
g55
(g56
g57
NtRp1896
(dp1897
g60
(dp1898
g68
I4
ssg69
g1892
sg62
(lp1899
S'Rocket 1.2.6'
p1900
asbasbasbag55
(g71
g57
NtRp1901
(dp1902
g60
(dp1903
sg69
g1217
sg62
(lp1904
g55
(g76
g57
NtRp1905
(dp1906
g60
(dp1907
g80
g81
ssg69
g1901
sg62
(lp1908
S'web2py_path'
p1909
asbag55
(g76
g57
NtRp1910
(dp1911
g60
(dp1912
g87
g88
ssg69
g1901
sg62
(lp1913
S':'
asbag55
(g76
g57
NtRp1914
(dp1915
g60
(dp1916
sg69
g1901
sg62
(lp1917
g55
(g56
g57
NtRp1918
(dp1919
g60
(dp1920
g68
I4
ssg69
g1914
sg62
(lp1921
g1264
asbasbasbag55
(g71
g57
NtRp1922
(dp1923
g60
(dp1924
sg69
g1217
sg62
(lp1925
g55
(g76
g57
NtRp1926
(dp1927
g60
(dp1928
g80
g81
ssg69
g1922
sg62
(lp1929
S'web2py_version'
p1930
asbag55
(g76
g57
NtRp1931
(dp1932
g60
(dp1933
g87
g88
ssg69
g1922
sg62
(lp1934
S':'
asbag55
(g76
g57
NtRp1935
(dp1936
g60
(dp1937
sg69
g1922
sg62
(lp1938
g55
(g56
g57
NtRp1939
(dp1940
g60
(dp1941
g68
I4
ssg69
g1935
sg62
(lp1942
g55
(g64
g57
NtRp1943
(dp1944
g60
(dp1945
g68
I3
ssg69
Nsg62
(lp1946
g55
(g71
g57
NtRp1947
(dp1948
g60
(dp1949
sg69
g1943
sg62
(lp1950
g55
(g76
g57
NtRp1951
(dp1952
g60
(dp1953
sg69
g1947
sg62
(lp1954
g55
(g56
g57
NtRp1955
(dp1956
g60
(dp1957
g68
I3
ssg69
g1951
sg62
(lp1958
S'2'
asbasbasbag55
(g71
g57
NtRp1959
(dp1960
g60
(dp1961
sg69
g1943
sg62
(lp1962
g55
(g76
g57
NtRp1963
(dp1964
g60
(dp1965
sg69
g1959
sg62
(lp1966
g55
(g56
g57
NtRp1967
(dp1968
g60
(dp1969
g68
I3
ssg69
g1963
sg62
(lp1970
S'3'
asbasbasbag55
(g71
g57
NtRp1971
(dp1972
g60
(dp1973
sg69
g1943
sg62
(lp1974
g55
(g76
g57
NtRp1975
(dp1976
g60
(dp1977
sg69
g1971
sg62
(lp1978
g55
(g56
g57
NtRp1979
(dp1980
g60
(dp1981
g68
I3
ssg69
g1975
sg62
(lp1982
S'2'
asbasbasbag55
(g71
g57
NtRp1983
(dp1984
g60
(dp1985
sg69
g1943
sg62
(lp1986
g55
(g76
g57
NtRp1987
(dp1988
g60
(dp1989
sg69
g1983
sg62
(lp1990
g55
(g56
g57
NtRp1991
(dp1992
g60
(dp1993
g68
I3
ssg69
g1987
sg62
(lp1994
S'datetime.datetime(2012, 12, 17, 15, 3, 30)'
p1995
asbasbasbag55
(g71
g57
NtRp1996
(dp1997
g60
(dp1998
sg69
g1943
sg62
(lp1999
g55
(g76
g57
NtRp2000
(dp2001
g60
(dp2002
sg69
g1996
sg62
(lp2003
g55
(g56
g57
NtRp2004
(dp2005
g60
(dp2006
g68
I3
ssg69
g2000
sg62
(lp2007
S'stable'
p2008
asbasbasbasbasbasbasbag55
(g71
g57
NtRp2009
(dp2010
g60
(dp2011
sg69
g1217
sg62
(lp2012
g55
(g76
g57
NtRp2013
(dp2014
g60
(dp2015
g80
g81
ssg69
g2009
sg62
(lp2016
S'wsgi_errors'
p2017
asbag55
(g76
g57
NtRp2018
(dp2019
g60
(dp2020
g87
g88
ssg69
g2009
sg62
(lp2021
S':'
asbag55
(g76
g57
NtRp2022
(dp2023
g60
(dp2024
sg69
g2009
sg62
(lp2025
g55
(g56
g57
NtRp2026
(dp2027
g60
(dp2028
g68
I4
ssg69
g2022
sg62
(lp2029
S"<open file '<stderr>', mode 'w' at 0xb72da0d0>"
p2030
asbasbasbag55
(g71
g57
NtRp2031
(dp2032
g60
(dp2033
sg69
g1217
sg62
(lp2034
g55
(g76
g57
NtRp2035
(dp2036
g60
(dp2037
g80
g81
ssg69
g2031
sg62
(lp2038
S'wsgi_file_wrapper'
p2039
asbag55
(g76
g57
NtRp2040
(dp2041
g60
(dp2042
g87
g88
ssg69
g2031
sg62
(lp2043
S':'
asbag55
(g76
g57
NtRp2044
(dp2045
g60
(dp2046
sg69
g2031
sg62
(lp2047
g55
(g56
g57
NtRp2048
(dp2049
g60
(dp2050
g68
I4
ssg69
g2044
sg62
(lp2051
S'<class wsgiref.util.FileWrapper at 0x93d347c>'
p2052
asbasbasbag55
(g71
g57
NtRp2053
(dp2054
g60
(dp2055
sg69
g1217
sg62
(lp2056
g55
(g76
g57
NtRp2057
(dp2058
g60
(dp2059
g80
g81
ssg69
g2053
sg62
(lp2060
S'wsgi_input'
p2061
asbag55
(g76
g57
NtRp2062
(dp2063
g60
(dp2064
g87
g88
ssg69
g2053
sg62
(lp2065
S':'
asbag55
(g76
g57
NtRp2066
(dp2067
g60
(dp2068
sg69
g2053
sg62
(lp2069
g55
(g56
g57
NtRp2070
(dp2071
g60
(dp2072
g68
I4
ssg69
g2066
sg62
(lp2073
S'<socket._fileobject object at 0xae470f2c>'
p2074
asbasbasbag55
(g71
g57
NtRp2075
(dp2076
g60
(dp2077
sg69
g1217
sg62
(lp2078
g55
(g76
g57
NtRp2079
(dp2080
g60
(dp2081
g80
g81
ssg69
g2075
sg62
(lp2082
S'wsgi_multiprocess'
p2083
asbag55
(g76
g57
NtRp2084
(dp2085
g60
(dp2086
g87
g88
ssg69
g2075
sg62
(lp2087
S':'
asbag55
(g76
g57
NtRp2088
(dp2089
g60
(dp2090
sg69
g2075
sg62
(lp2091
g55
(g56
g57
NtRp2092
(dp2093
g60
(dp2094
g68
I4
ssg69
g2088
sg62
(lp2095
g98
asbasbasbag55
(g71
g57
NtRp2096
(dp2097
g60
(dp2098
sg69
g1217
sg62
(lp2099
g55
(g76
g57
NtRp2100
(dp2101
g60
(dp2102
g80
g81
ssg69
g2096
sg62
(lp2103
S'wsgi_multithread'
p2104
asbag55
(g76
g57
NtRp2105
(dp2106
g60
(dp2107
g87
g88
ssg69
g2096
sg62
(lp2108
S':'
asbag55
(g76
g57
NtRp2109
(dp2110
g60
(dp2111
sg69
g2096
sg62
(lp2112
g55
(g56
g57
NtRp2113
(dp2114
g60
(dp2115
g68
I4
ssg69
g2109
sg62
(lp2116
S'True'
p2117
asbasbasbag55
(g71
g57
NtRp2118
(dp2119
g60
(dp2120
sg69
g1217
sg62
(lp2121
g55
(g76
g57
NtRp2122
(dp2123
g60
(dp2124
g80
g81
ssg69
g2118
sg62
(lp2125
S'wsgi_run_once'
p2126
asbag55
(g76
g57
NtRp2127
(dp2128
g60
(dp2129
g87
g88
ssg69
g2118
sg62
(lp2130
S':'
asbag55
(g76
g57
NtRp2131
(dp2132
g60
(dp2133
sg69
g2118
sg62
(lp2134
g55
(g56
g57
NtRp2135
(dp2136
g60
(dp2137
g68
I4
ssg69
g2131
sg62
(lp2138
g98
asbasbasbag55
(g71
g57
NtRp2139
(dp2140
g60
(dp2141
sg69
g1217
sg62
(lp2142
g55
(g76
g57
NtRp2143
(dp2144
g60
(dp2145
g80
g81
ssg69
g2139
sg62
(lp2146
S'wsgi_url_scheme'
p2147
asbag55
(g76
g57
NtRp2148
(dp2149
g60
(dp2150
g87
g88
ssg69
g2139
sg62
(lp2151
S':'
asbag55
(g76
g57
NtRp2152
(dp2153
g60
(dp2154
sg69
g2139
sg62
(lp2155
g55
(g56
g57
NtRp2156
(dp2157
g60
(dp2158
g68
I4
ssg69
g2152
sg62
(lp2159
S'http'
p2160
asbasbasbag55
(g71
g57
NtRp2161
(dp2162
g60
(dp2163
sg69
g1217
sg62
(lp2164
g55
(g76
g57
NtRp2165
(dp2166
g60
(dp2167
g80
g81
ssg69
g2161
sg62
(lp2168
S'wsgi_version'
p2169
asbag55
(g76
g57
NtRp2170
(dp2171
g60
(dp2172
g87
g88
ssg69
g2161
sg62
(lp2173
S':'
asbag55
(g76
g57
NtRp2174
(dp2175
g60
(dp2176
sg69
g2161
sg62
(lp2177
g55
(g56
g57
NtRp2178
(dp2179
g60
(dp2180
g68
I4
ssg69
g2174
sg62
(lp2181
g55
(g64
g57
NtRp2182
(dp2183
g60
(dp2184
g68
I3
ssg69
Nsg62
(lp2185
g55
(g71
g57
NtRp2186
(dp2187
g60
(dp2188
sg69
g2182
sg62
(lp2189
g55
(g76
g57
NtRp2190
(dp2191
g60
(dp2192
sg69
g2186
sg62
(lp2193
g55
(g56
g57
NtRp2194
(dp2195
g60
(dp2196
g68
I3
ssg69
g2190
sg62
(lp2197
S'1'
asbasbasbag55
(g71
g57
NtRp2198
(dp2199
g60
(dp2200
sg69
g2182
sg62
(lp2201
g55
(g76
g57
NtRp2202
(dp2203
g60
(dp2204
sg69
g2198
sg62
(lp2205
g55
(g56
g57
NtRp2206
(dp2207
g60
(dp2208
g68
I3
ssg69
g2202
sg62
(lp2209
S'0'
asbasbasbasbasbasbasbasbasbasbasbag55
(g71
g57
NtRp2210
(dp2211
g60
(dp2212
sg69
g65
sg62
(lp2213
g55
(g76
g57
NtRp2214
(dp2215
g60
(dp2216
g80
g81
ssg69
g2210
sg62
(lp2217
S'extension'
p2218
asbag55
(g76
g57
NtRp2219
(dp2220
g60
(dp2221
g87
g88
ssg69
g2210
sg62
(lp2222
S':'
asbag55
(g76
g57
NtRp2223
(dp2224
g60
(dp2225
sg69
g2210
sg62
(lp2226
g55
(g56
g57
NtRp2227
(dp2228
g60
(dp2229
g68
I5
ssg69
g2223
sg62
(lp2230
S'html'
p2231
asbasbasbag55
(g71
g57
NtRp2232
(dp2233
g60
(dp2234
sg69
g65
sg62
(lp2235
g55
(g76
g57
NtRp2236
(dp2237
g60
(dp2238
g80
g81
ssg69
g2232
sg62
(lp2239
S'folder'
p2240
asbag55
(g76
g57
NtRp2241
(dp2242
g60
(dp2243
g87
g88
ssg69
g2232
sg62
(lp2244
S':'
asbag55
(g76
g57
NtRp2245
(dp2246
g60
(dp2247
sg69
g2232
sg62
(lp2248
g55
(g56
g57
NtRp2249
(dp2250
g60
(dp2251
g68
I5
ssg69
g2245
sg62
(lp2252
S'/home/nazrul/web2py/applications/WSD/'
p2253
asbasbasbag55
(g71
g57
NtRp2254
(dp2255
g60
(dp2256
sg69
g65
sg62
(lp2257
g55
(g76
g57
NtRp2258
(dp2259
g60
(dp2260
g80
g81
ssg69
g2254
sg62
(lp2261
S'function'
p2262
asbag55
(g76
g57
NtRp2263
(dp2264
g60
(dp2265
g87
g88
ssg69
g2254
sg62
(lp2266
S':'
asbag55
(g76
g57
NtRp2267
(dp2268
g60
(dp2269
sg69
g2254
sg62
(lp2270
g55
(g56
g57
NtRp2271
(dp2272
g60
(dp2273
g68
I5
ssg69
g2267
sg62
(lp2274
S'rel'
p2275
asbasbasbag55
(g71
g57
NtRp2276
(dp2277
g60
(dp2278
sg69
g65
sg62
(lp2279
g55
(g76
g57
NtRp2280
(dp2281
g60
(dp2282
g80
g81
ssg69
g2276
sg62
(lp2283
S'get_vars'
p2284
asbag55
(g76
g57
NtRp2285
(dp2286
g60
(dp2287
g87
g88
ssg69
g2276
sg62
(lp2288
S':'
asbag55
(g76
g57
NtRp2289
(dp2290
g60
(dp2291
sg69
g2276
sg62
(lp2292
g55
(g56
g57
NtRp2293
(dp2294
g60
(dp2295
g68
I5
ssg69
g2289
sg62
(lp2296
g55
(g64
g57
NtRp2297
(dp2298
g60
(dp2299
g68
I4
ssg69
Nsg62
(lp2300
sbasbasbasbag55
(g71
g57
NtRp2301
(dp2302
g60
(dp2303
sg69
g65
sg62
(lp2304
g55
(g76
g57
NtRp2305
(dp2306
g60
(dp2307
g80
g81
ssg69
g2301
sg62
(lp2308
S'global_settings'
p2309
asbag55
(g76
g57
NtRp2310
(dp2311
g60
(dp2312
g87
g88
ssg69
g2301
sg62
(lp2313
S':'
asbag55
(g76
g57
NtRp2314
(dp2315
g60
(dp2316
sg69
g2301
sg62
(lp2317
g55
(g56
g57
NtRp2318
(dp2319
g60
(dp2320
g68
I5
ssg69
g2314
sg62
(lp2321
g55
(g64
g57
NtRp2322
(dp2323
g60
(dp2324
g68
I4
ssg69
Nsg62
(lp2325
g55
(g71
g57
NtRp2326
(dp2327
g60
(dp2328
sg69
g2322
sg62
(lp2329
g55
(g76
g57
NtRp2330
(dp2331
g60
(dp2332
g80
g81
ssg69
g2326
sg62
(lp2333
g1229
asbag55
(g76
g57
NtRp2334
(dp2335
g60
(dp2336
g87
g88
ssg69
g2326
sg62
(lp2337
S':'
asbag55
(g76
g57
NtRp2338
(dp2339
g60
(dp2340
sg69
g2326
sg62
(lp2341
g55
(g56
g57
NtRp2342
(dp2343
g60
(dp2344
g68
I4
ssg69
g2338
sg62
(lp2345
S"set(['/home/nazrul/web2py/applications/isas/', '/home/nazrul/web2py/applications/welcome/', '/home/nazrul/web2py/applications/WSD_Tool/', '/home/nazrul/web2py/applications/admin/', '/home/nazrul/web2py/applications/WSD/', '/home/nazrul/web2py/applications/news/'])"
p2346
asbasbasbag55
(g71
g57
NtRp2347
(dp2348
g60
(dp2349
sg69
g2322
sg62
(lp2350
g55
(g76
g57
NtRp2351
(dp2352
g60
(dp2353
g80
g81
ssg69
g2347
sg62
(lp2354
g1251
asbag55
(g76
g57
NtRp2355
(dp2356
g60
(dp2357
g87
g88
ssg69
g2347
sg62
(lp2358
S':'
asbag55
(g76
g57
NtRp2359
(dp2360
g60
(dp2361
sg69
g2347
sg62
(lp2362
g55
(g56
g57
NtRp2363
(dp2364
g60
(dp2365
g68
I4
ssg69
g2359
sg62
(lp2366
g1264
asbasbasbag55
(g71
g57
NtRp2367
(dp2368
g60
(dp2369
sg69
g2322
sg62
(lp2370
g55
(g76
g57
NtRp2371
(dp2372
g60
(dp2373
g80
g81
ssg69
g2367
sg62
(lp2374
g1273
asbag55
(g76
g57
NtRp2375
(dp2376
g60
(dp2377
g87
g88
ssg69
g2367
sg62
(lp2378
S':'
asbag55
(g76
g57
NtRp2379
(dp2380
g60
(dp2381
sg69
g2367
sg62
(lp2382
g55
(g56
g57
NtRp2383
(dp2384
g60
(dp2385
g68
I4
ssg69
g2379
sg62
(lp2386
g55
(g64
g57
NtRp2387
(dp2388
g60
(dp2389
g68
I3
ssg69
Nsg62
(lp2390
sbasbasbasbag55
(g71
g57
NtRp2391
(dp2392
g60
(dp2393
sg69
g2322
sg62
(lp2394
g55
(g76
g57
NtRp2395
(dp2396
g60
(dp2397
g80
g81
ssg69
g2391
sg62
(lp2398
g1298
asbag55
(g76
g57
NtRp2399
(dp2400
g60
(dp2401
g87
g88
ssg69
g2391
sg62
(lp2402
S':'
asbag55
(g76
g57
NtRp2403
(dp2404
g60
(dp2405
sg69
g2391
sg62
(lp2406
g55
(g56
g57
NtRp2407
(dp2408
g60
(dp2409
g68
I4
ssg69
g2403
sg62
(lp2410
S"<Values at 0x941394c: {'verbose': False, 'ip': '127.0.0.1', 'with_scheduler': False, 'ips': [], 'shutdown_timeout': 5, 'taskbar': False, 'port': 8000, 'maxthreads': None, 'softcron': False, 'server_name': 'nazrul-Compaq-Presario-CQ40-Notebook-PC', 'bpython': False, 'nogui': False, 'pid_filename': 'httpserver.pid', 'extcron': False, 'runcron': False, 'run_system_tests': False, 'test': None, 'folder': '/home/nazrul/web2py', 'config': '', 'import_models': False, 'winservice': '', 'shell': None, 'run': '', 'log_filename': 'httpserver.log', 'debuglevel': 30, 'args': [''], 'socket_timeout': 5, 'ssl_ca_certificate': None, 'scheduler': None, 'profiler_filename': None, 'ssl_private_key': '', 'scheduler_groups': None, 'password': '<ask>', 'request_queue_size': 5, 'ssl_certificate': '', 'cronjob': False, 'numthreads': None, 'quiet': False, 'interfaces': None, 'minthreads': None, 'timeout': 10, 'plain': False, 'nobanner': False}>"
p2411
asbasbasbag55
(g71
g57
NtRp2412
(dp2413
g60
(dp2414
sg69
g2322
sg62
(lp2415
g55
(g76
g57
NtRp2416
(dp2417
g60
(dp2418
g80
g81
ssg69
g2412
sg62
(lp2419
g1320
asbag55
(g76
g57
NtRp2420
(dp2421
g60
(dp2422
g87
g88
ssg69
g2412
sg62
(lp2423
S':'
asbag55
(g76
g57
NtRp2424
(dp2425
g60
(dp2426
sg69
g2412
sg62
(lp2427
g55
(g56
g57
NtRp2428
(dp2429
g60
(dp2430
g68
I4
ssg69
g2424
sg62
(lp2431
S'set([])'
p2432
asbasbasbag55
(g71
g57
NtRp2433
(dp2434
g60
(dp2435
sg69
g2322
sg62
(lp2436
g55
(g76
g57
NtRp2437
(dp2438
g60
(dp2439
g80
g81
ssg69
g2433
sg62
(lp2440
g1342
asbag55
(g76
g57
NtRp2441
(dp2442
g60
(dp2443
g87
g88
ssg69
g2433
sg62
(lp2444
S':'
asbag55
(g76
g57
NtRp2445
(dp2446
g60
(dp2447
sg69
g2433
sg62
(lp2448
g55
(g56
g57
NtRp2449
(dp2450
g60
(dp2451
g68
I4
ssg69
g2445
sg62
(lp2452
g98
asbasbasbag55
(g71
g57
NtRp2453
(dp2454
g60
(dp2455
sg69
g2322
sg62
(lp2456
g55
(g76
g57
NtRp2457
(dp2458
g60
(dp2459
g80
g81
ssg69
g2453
sg62
(lp2460
g1363
asbag55
(g76
g57
NtRp2461
(dp2462
g60
(dp2463
g87
g88
ssg69
g2453
sg62
(lp2464
S':'
asbag55
(g76
g57
NtRp2465
(dp2466
g60
(dp2467
sg69
g2453
sg62
(lp2468
g55
(g56
g57
NtRp2469
(dp2470
g60
(dp2471
g68
I4
ssg69
g2465
sg62
(lp2472
g1376
asbasbasbag55
(g71
g57
NtRp2473
(dp2474
g60
(dp2475
sg69
g2322
sg62
(lp2476
g55
(g76
g57
NtRp2477
(dp2478
g60
(dp2479
g80
g81
ssg69
g2473
sg62
(lp2480
g1539
asbag55
(g76
g57
NtRp2481
(dp2482
g60
(dp2483
g87
g88
ssg69
g2473
sg62
(lp2484
S':'
asbag55
(g76
g57
NtRp2485
(dp2486
g60
(dp2487
sg69
g2473
sg62
(lp2488
g55
(g56
g57
NtRp2489
(dp2490
g60
(dp2491
g68
I4
ssg69
g2485
sg62
(lp2492
g98
asbasbasbag55
(g71
g57
NtRp2493
(dp2494
g60
(dp2495
sg69
g2322
sg62
(lp2496
g55
(g76
g57
NtRp2497
(dp2498
g60
(dp2499
g80
g81
ssg69
g2493
sg62
(lp2500
g1560
asbag55
(g76
g57
NtRp2501
(dp2502
g60
(dp2503
g87
g88
ssg69
g2493
sg62
(lp2504
S':'
asbag55
(g76
g57
NtRp2505
(dp2506
g60
(dp2507
sg69
g2493
sg62
(lp2508
g55
(g56
g57
NtRp2509
(dp2510
g60
(dp2511
g68
I4
ssg69
g2505
sg62
(lp2512
g98
asbasbasbag55
(g71
g57
NtRp2513
(dp2514
g60
(dp2515
sg69
g2322
sg62
(lp2516
g55
(g76
g57
NtRp2517
(dp2518
g60
(dp2519
g80
g81
ssg69
g2513
sg62
(lp2520
g1581
asbag55
(g76
g57
NtRp2521
(dp2522
g60
(dp2523
g87
g88
ssg69
g2513
sg62
(lp2524
S':'
asbag55
(g76
g57
NtRp2525
(dp2526
g60
(dp2527
sg69
g2513
sg62
(lp2528
g55
(g56
g57
NtRp2529
(dp2530
g60
(dp2531
g68
I4
ssg69
g2525
sg62
(lp2532
g55
(g64
g57
NtRp2533
(dp2534
g60
(dp2535
g68
I3
ssg69
Nsg62
(lp2536
g55
(g71
g57
NtRp2537
(dp2538
g60
(dp2539
sg69
g2533
sg62
(lp2540
g55
(g76
g57
NtRp2541
(dp2542
g60
(dp2543
sg69
g2537
sg62
(lp2544
g55
(g56
g57
NtRp2545
(dp2546
g60
(dp2547
g68
I3
ssg69
g2541
sg62
(lp2548
g1610
asbasbasbag55
(g71
g57
NtRp2549
(dp2550
g60
(dp2551
sg69
g2533
sg62
(lp2552
g55
(g76
g57
NtRp2553
(dp2554
g60
(dp2555
sg69
g2549
sg62
(lp2556
g55
(g56
g57
NtRp2557
(dp2558
g60
(dp2559
g68
I3
ssg69
g2553
sg62
(lp2560
g1623
asbasbasbag55
(g71
g57
NtRp2561
(dp2562
g60
(dp2563
sg69
g2533
sg62
(lp2564
g55
(g76
g57
NtRp2565
(dp2566
g60
(dp2567
sg69
g2561
sg62
(lp2568
g55
(g56
g57
NtRp2569
(dp2570
g60
(dp2571
g68
I3
ssg69
g2565
sg62
(lp2572
g1636
asbasbasbag55
(g71
g57
NtRp2573
(dp2574
g60
(dp2575
sg69
g2533
sg62
(lp2576
g55
(g76
g57
NtRp2577
(dp2578
g60
(dp2579
sg69
g2573
sg62
(lp2580
g55
(g56
g57
NtRp2581
(dp2582
g60
(dp2583
g68
I3
ssg69
g2577
sg62
(lp2584
g1649
asbasbasbag55
(g71
g57
NtRp2585
(dp2586
g60
(dp2587
sg69
g2533
sg62
(lp2588
g55
(g76
g57
NtRp2589
(dp2590
g60
(dp2591
sg69
g2585
sg62
(lp2592
g55
(g56
g57
NtRp2593
(dp2594
g60
(dp2595
g68
I3
ssg69
g2589
sg62
(lp2596
g1662
asbasbasbasbasbasbasbag55
(g71
g57
NtRp2597
(dp2598
g60
(dp2599
sg69
g2322
sg62
(lp2600
g55
(g76
g57
NtRp2601
(dp2602
g60
(dp2603
g80
g81
ssg69
g2597
sg62
(lp2604
g1930
asbag55
(g76
g57
NtRp2605
(dp2606
g60
(dp2607
g87
g88
ssg69
g2597
sg62
(lp2608
S':'
asbag55
(g76
g57
NtRp2609
(dp2610
g60
(dp2611
sg69
g2597
sg62
(lp2612
g55
(g56
g57
NtRp2613
(dp2614
g60
(dp2615
g68
I4
ssg69
g2609
sg62
(lp2616
g55
(g64
g57
NtRp2617
(dp2618
g60
(dp2619
g68
I3
ssg69
Nsg62
(lp2620
g55
(g71
g57
NtRp2621
(dp2622
g60
(dp2623
sg69
g2617
sg62
(lp2624
g55
(g76
g57
NtRp2625
(dp2626
g60
(dp2627
sg69
g2621
sg62
(lp2628
g55
(g56
g57
NtRp2629
(dp2630
g60
(dp2631
g68
I3
ssg69
g2625
sg62
(lp2632
S'2'
asbasbasbag55
(g71
g57
NtRp2633
(dp2634
g60
(dp2635
sg69
g2617
sg62
(lp2636
g55
(g76
g57
NtRp2637
(dp2638
g60
(dp2639
sg69
g2633
sg62
(lp2640
g55
(g56
g57
NtRp2641
(dp2642
g60
(dp2643
g68
I3
ssg69
g2637
sg62
(lp2644
S'3'
asbasbasbag55
(g71
g57
NtRp2645
(dp2646
g60
(dp2647
sg69
g2617
sg62
(lp2648
g55
(g76
g57
NtRp2649
(dp2650
g60
(dp2651
sg69
g2645
sg62
(lp2652
g55
(g56
g57
NtRp2653
(dp2654
g60
(dp2655
g68
I3
ssg69
g2649
sg62
(lp2656
S'2'
asbasbasbag55
(g71
g57
NtRp2657
(dp2658
g60
(dp2659
sg69
g2617
sg62
(lp2660
g55
(g76
g57
NtRp2661
(dp2662
g60
(dp2663
sg69
g2657
sg62
(lp2664
g55
(g56
g57
NtRp2665
(dp2666
g60
(dp2667
g68
I3
ssg69
g2661
sg62
(lp2668
S'datetime.datetime(2012, 12, 17, 15, 3, 30)'
p2669
asbasbasbag55
(g71
g57
NtRp2670
(dp2671
g60
(dp2672
sg69
g2617
sg62
(lp2673
g55
(g76
g57
NtRp2674
(dp2675
g60
(dp2676
sg69
g2670
sg62
(lp2677
g55
(g56
g57
NtRp2678
(dp2679
g60
(dp2680
g68
I3
ssg69
g2674
sg62
(lp2681
g2008
asbasbasbasbasbasbasbasbasbasbasbag55
(g71
g57
NtRp2682
(dp2683
g60
(dp2684
sg69
g65
sg62
(lp2685
g55
(g76
g57
NtRp2686
(dp2687
g60
(dp2688
g80
g81
ssg69
g2682
sg62
(lp2689
S'is_https'
p2690
asbag55
(g76
g57
NtRp2691
(dp2692
g60
(dp2693
g87
g88
ssg69
g2682
sg62
(lp2694
S':'
asbag55
(g76
g57
NtRp2695
(dp2696
g60
(dp2697
sg69
g2682
sg62
(lp2698
g55
(g56
g57
NtRp2699
(dp2700
g60
(dp2701
g68
I5
ssg69
g2695
sg62
(lp2702
g98
asbasbasbag55
(g71
g57
NtRp2703
(dp2704
g60
(dp2705
sg69
g65
sg62
(lp2706
g55
(g76
g57
NtRp2707
(dp2708
g60
(dp2709
g80
g81
ssg69
g2703
sg62
(lp2710
S'is_local'
p2711
asbag55
(g76
g57
NtRp2712
(dp2713
g60
(dp2714
g87
g88
ssg69
g2703
sg62
(lp2715
S':'
asbag55
(g76
g57
NtRp2716
(dp2717
g60
(dp2718
sg69
g2703
sg62
(lp2719
g55
(g56
g57
NtRp2720
(dp2721
g60
(dp2722
g68
I5
ssg69
g2716
sg62
(lp2723
g2117
asbasbasbag55
(g71
g57
NtRp2724
(dp2725
g60
(dp2726
sg69
g65
sg62
(lp2727
g55
(g76
g57
NtRp2728
(dp2729
g60
(dp2730
g80
g81
ssg69
g2724
sg62
(lp2731
S'is_restful'
p2732
asbag55
(g76
g57
NtRp2733
(dp2734
g60
(dp2735
g87
g88
ssg69
g2724
sg62
(lp2736
S':'
asbag55
(g76
g57
NtRp2737
(dp2738
g60
(dp2739
sg69
g2724
sg62
(lp2740
g55
(g56
g57
NtRp2741
(dp2742
g60
(dp2743
g68
I5
ssg69
g2737
sg62
(lp2744
g98
asbasbasbag55
(g71
g57
NtRp2745
(dp2746
g60
(dp2747
sg69
g65
sg62
(lp2748
g55
(g76
g57
NtRp2749
(dp2750
g60
(dp2751
g80
g81
ssg69
g2745
sg62
(lp2752
S'now'
p2753
asbag55
(g76
g57
NtRp2754
(dp2755
g60
(dp2756
g87
g88
ssg69
g2745
sg62
(lp2757
S':'
asbag55
(g76
g57
NtRp2758
(dp2759
g60
(dp2760
sg69
g2745
sg62
(lp2761
g55
(g56
g57
NtRp2762
(dp2763
g60
(dp2764
g68
I5
ssg69
g2758
sg62
(lp2765
S'datetime.datetime(2013, 11, 15, 17, 58, 37, 565061)'
p2766
asbasbasbag55
(g71
g57
NtRp2767
(dp2768
g60
(dp2769
sg69
g65
sg62
(lp2770
g55
(g76
g57
NtRp2771
(dp2772
g60
(dp2773
g80
g81
ssg69
g2767
sg62
(lp2774
S'post_vars'
p2775
asbag55
(g76
g57
NtRp2776
(dp2777
g60
(dp2778
g87
g88
ssg69
g2767
sg62
(lp2779
S':'
asbag55
(g76
g57
NtRp2780
(dp2781
g60
(dp2782
sg69
g2767
sg62
(lp2783
g55
(g56
g57
NtRp2784
(dp2785
g60
(dp2786
g68
I5
ssg69
g2780
sg62
(lp2787
g55
(g64
g57
NtRp2788
(dp2789
g60
(dp2790
g68
I4
ssg69
Nsg62
(lp2791
sbasbasbasbag55
(g71
g57
NtRp2792
(dp2793
g60
(dp2794
sg69
g65
sg62
(lp2795
g55
(g76
g57
NtRp2796
(dp2797
g60
(dp2798
g80
g81
ssg69
g2792
sg62
(lp2799
S'raw_args'
p2800
asbag55
(g76
g57
NtRp2801
(dp2802
g60
(dp2803
g87
g88
ssg69
g2792
sg62
(lp2804
S':'
asbag55
(g76
g57
NtRp2805
(dp2806
g60
(dp2807
sg69
g2792
sg62
(lp2808
g55
(g56
g57
NtRp2809
(dp2810
g60
(dp2811
g68
I5
ssg69
g2805
sg62
(lp2812
S''
asbasbasbag55
(g71
g57
NtRp2813
(dp2814
g60
(dp2815
sg69
g65
sg62
(lp2816
g55
(g76
g57
NtRp2817
(dp2818
g60
(dp2819
g80
g81
ssg69
g2813
sg62
(lp2820
S'raw_extension'
p2821
asbag55
(g76
g57
NtRp2822
(dp2823
g60
(dp2824
g87
g88
ssg69
g2813
sg62
(lp2825
S':'
asbag55
(g76
g57
NtRp2826
(dp2827
g60
(dp2828
sg69
g2813
sg62
(lp2829
g55
(g56
g57
NtRp2830
(dp2831
g60
(dp2832
g68
I5
ssg69
g2826
sg62
(lp2833
S'None'
p2834
asbasbasbag55
(g71
g57
NtRp2835
(dp2836
g60
(dp2837
sg69
g65
sg62
(lp2838
g55
(g76
g57
NtRp2839
(dp2840
g60
(dp2841
g80
g81
ssg69
g2835
sg62
(lp2842
S'url'
p2843
asbag55
(g76
g57
NtRp2844
(dp2845
g60
(dp2846
g87
g88
ssg69
g2835
sg62
(lp2847
S':'
asbag55
(g76
g57
NtRp2848
(dp2849
g60
(dp2850
sg69
g2835
sg62
(lp2851
g55
(g56
g57
NtRp2852
(dp2853
g60
(dp2854
g68
I5
ssg69
g2848
sg62
(lp2855
g1684
asbasbasbag55
(g71
g57
NtRp2856
(dp2857
g60
(dp2858
sg69
g65
sg62
(lp2859
g55
(g76
g57
NtRp2860
(dp2861
g60
(dp2862
g80
g81
ssg69
g2856
sg62
(lp2863
S'utcnow'
p2864
asbag55
(g76
g57
NtRp2865
(dp2866
g60
(dp2867
g87
g88
ssg69
g2856
sg62
(lp2868
S':'
asbag55
(g76
g57
NtRp2869
(dp2870
g60
(dp2871
sg69
g2856
sg62
(lp2872
g55
(g56
g57
NtRp2873
(dp2874
g60
(dp2875
g68
I5
ssg69
g2869
sg62
(lp2876
S'datetime.datetime(2013, 11, 15, 12, 28, 37, 565098)'
p2877
asbasbasbag55
(g71
g57
NtRp2878
(dp2879
g60
(dp2880
sg69
g65
sg62
(lp2881
g55
(g76
g57
NtRp2882
(dp2883
g60
(dp2884
g80
g81
ssg69
g2878
sg62
(lp2885
S'uuid'
p2886
asbag55
(g76
g57
NtRp2887
(dp2888
g60
(dp2889
g87
g88
ssg69
g2878
sg62
(lp2890
S':'
asbag55
(g76
g57
NtRp2891
(dp2892
g60
(dp2893
sg69
g2878
sg62
(lp2894
g55
(g56
g57
NtRp2895
(dp2896
g60
(dp2897
g68
I5
ssg69
g2891
sg62
(lp2898
S'WSD/127.0.0.1.2013-11-15.17-58-37.4c1a59d2-af43-49fe-b9f2-7a78cec89f2b'
p2899
asbasbasbag55
(g71
g57
NtRp2900
(dp2901
g60
(dp2902
sg69
g65
sg62
(lp2903
g55
(g76
g57
NtRp2904
(dp2905
g60
(dp2906
g80
g81
ssg69
g2900
sg62
(lp2907
S'vars'
p2908
asbag55
(g76
g57
NtRp2909
(dp2910
g60
(dp2911
g87
g88
ssg69
g2900
sg62
(lp2912
S':'
asbag55
(g76
g57
NtRp2913
(dp2914
g60
(dp2915
sg69
g2900
sg62
(lp2916
g55
(g56
g57
NtRp2917
(dp2918
g60
(dp2919
g68
I5
ssg69
g2913
sg62
(lp2920
g55
(g64
g57
NtRp2921
(dp2922
g60
(dp2923
g68
I4
ssg69
Nsg62
(lp2924
sbasbasbasbag55
(g71
g57
NtRp2925
(dp2926
g60
(dp2927
sg69
g65
sg62
(lp2928
g55
(g76
g57
NtRp2929
(dp2930
g60
(dp2931
g80
g81
ssg69
g2925
sg62
(lp2932
S'wsgi'
p2933
asbag55
(g76
g57
NtRp2934
(dp2935
g60
(dp2936
g87
g88
ssg69
g2925
sg62
(lp2937
S':'
asbag55
(g76
g57
NtRp2938
(dp2939
g60
(dp2940
sg69
g2925
sg62
(lp2941
g55
(g56
g57
NtRp2942
(dp2943
g60
(dp2944
g68
I5
ssg69
g2938
sg62
(lp2945
g55
(g64
g57
NtRp2946
(dp2947
g60
(dp2948
g68
I4
ssg69
Nsg62
(lp2949
g55
(g71
g57
NtRp2950
(dp2951
g60
(dp2952
sg69
g2946
sg62
(lp2953
g55
(g76
g57
NtRp2954
(dp2955
g60
(dp2956
g80
g81
ssg69
g2950
sg62
(lp2957
S'environ'
p2958
asbag55
(g76
g57
NtRp2959
(dp2960
g60
(dp2961
g87
g88
ssg69
g2950
sg62
(lp2962
S':'
asbag55
(g76
g57
NtRp2963
(dp2964
g60
(dp2965
sg69
g2950
sg62
(lp2966
g55
(g56
g57
NtRp2967
(dp2968
g60
(dp2969
g68
I4
ssg69
g2963
sg62
(lp2970
g55
(g64
g57
NtRp2971
(dp2972
g60
(dp2973
g68
I3
ssg69
Nsg62
(lp2974
g55
(g71
g57
NtRp2975
(dp2976
g60
(dp2977
sg69
g2971
sg62
(lp2978
g55
(g76
g57
NtRp2979
(dp2980
g60
(dp2981
g80
g81
ssg69
g2975
sg62
(lp2982
S'HTTP_ACCEPT'
p2983
asbag55
(g76
g57
NtRp2984
(dp2985
g60
(dp2986
g87
g88
ssg69
g2975
sg62
(lp2987
S':'
asbag55
(g76
g57
NtRp2988
(dp2989
g60
(dp2990
sg69
g2975
sg62
(lp2991
g55
(g56
g57
NtRp2992
(dp2993
g60
(dp2994
g68
I3
ssg69
g2988
sg62
(lp2995
g1398
asbasbasbag55
(g71
g57
NtRp2996
(dp2997
g60
(dp2998
sg69
g2971
sg62
(lp2999
g55
(g76
g57
NtRp3000
(dp3001
g60
(dp3002
g80
g81
ssg69
g2996
sg62
(lp3003
S'HTTP_ACCEPT_ENCODING'
p3004
asbag55
(g76
g57
NtRp3005
(dp3006
g60
(dp3007
g87
g88
ssg69
g2996
sg62
(lp3008
S':'
asbag55
(g76
g57
NtRp3009
(dp3010
g60
(dp3011
sg69
g2996
sg62
(lp3012
g55
(g56
g57
NtRp3013
(dp3014
g60
(dp3015
g68
I3
ssg69
g3009
sg62
(lp3016
g1420
asbasbasbag55
(g71
g57
NtRp3017
(dp3018
g60
(dp3019
sg69
g2971
sg62
(lp3020
g55
(g76
g57
NtRp3021
(dp3022
g60
(dp3023
g80
g81
ssg69
g3017
sg62
(lp3024
S'HTTP_ACCEPT_LANGUAGE'
p3025
asbag55
(g76
g57
NtRp3026
(dp3027
g60
(dp3028
g87
g88
ssg69
g3017
sg62
(lp3029
S':'
asbag55
(g76
g57
NtRp3030
(dp3031
g60
(dp3032
sg69
g3017
sg62
(lp3033
g55
(g56
g57
NtRp3034
(dp3035
g60
(dp3036
g68
I3
ssg69
g3030
sg62
(lp3037
g1442
asbasbasbag55
(g71
g57
NtRp3038
(dp3039
g60
(dp3040
sg69
g2971
sg62
(lp3041
g55
(g76
g57
NtRp3042
(dp3043
g60
(dp3044
g80
g81
ssg69
g3038
sg62
(lp3045
S'HTTP_CONNECTION'
p3046
asbag55
(g76
g57
NtRp3047
(dp3048
g60
(dp3049
g87
g88
ssg69
g3038
sg62
(lp3050
S':'
asbag55
(g76
g57
NtRp3051
(dp3052
g60
(dp3053
sg69
g3038
sg62
(lp3054
g55
(g56
g57
NtRp3055
(dp3056
g60
(dp3057
g68
I3
ssg69
g3051
sg62
(lp3058
g1464
asbasbasbag55
(g71
g57
NtRp3059
(dp3060
g60
(dp3061
sg69
g2971
sg62
(lp3062
g55
(g76
g57
NtRp3063
(dp3064
g60
(dp3065
g80
g81
ssg69
g3059
sg62
(lp3066
S'HTTP_COOKIE'
p3067
asbag55
(g76
g57
NtRp3068
(dp3069
g60
(dp3070
g87
g88
ssg69
g3059
sg62
(lp3071
S':'
asbag55
(g76
g57
NtRp3072
(dp3073
g60
(dp3074
sg69
g3059
sg62
(lp3075
g55
(g56
g57
NtRp3076
(dp3077
g60
(dp3078
g68
I3
ssg69
g3072
sg62
(lp3079
g1486
asbasbasbag55
(g71
g57
NtRp3080
(dp3081
g60
(dp3082
sg69
g2971
sg62
(lp3083
g55
(g76
g57
NtRp3084
(dp3085
g60
(dp3086
g80
g81
ssg69
g3080
sg62
(lp3087
S'HTTP_HOST'
p3088
asbag55
(g76
g57
NtRp3089
(dp3090
g60
(dp3091
g87
g88
ssg69
g3080
sg62
(lp3092
S':'
asbag55
(g76
g57
NtRp3093
(dp3094
g60
(dp3095
sg69
g3080
sg62
(lp3096
g55
(g56
g57
NtRp3097
(dp3098
g60
(dp3099
g68
I3
ssg69
g3093
sg62
(lp3100
g1508
asbasbasbag55
(g71
g57
NtRp3101
(dp3102
g60
(dp3103
sg69
g2971
sg62
(lp3104
g55
(g76
g57
NtRp3105
(dp3106
g60
(dp3107
g80
g81
ssg69
g3101
sg62
(lp3108
S'HTTP_USER_AGENT'
p3109
asbag55
(g76
g57
NtRp3110
(dp3111
g60
(dp3112
g87
g88
ssg69
g3101
sg62
(lp3113
S':'
asbag55
(g76
g57
NtRp3114
(dp3115
g60
(dp3116
sg69
g3101
sg62
(lp3117
g55
(g56
g57
NtRp3118
(dp3119
g60
(dp3120
g68
I3
ssg69
g3114
sg62
(lp3121
g1530
asbasbasbag55
(g71
g57
NtRp3122
(dp3123
g60
(dp3124
sg69
g2971
sg62
(lp3125
g55
(g76
g57
NtRp3126
(dp3127
g60
(dp3128
g80
g81
ssg69
g3122
sg62
(lp3129
S'PATH_INFO'
p3130
asbag55
(g76
g57
NtRp3131
(dp3132
g60
(dp3133
g87
g88
ssg69
g3122
sg62
(lp3134
S':'
asbag55
(g76
g57
NtRp3135
(dp3136
g60
(dp3137
sg69
g3122
sg62
(lp3138
g55
(g56
g57
NtRp3139
(dp3140
g60
(dp3141
g68
I3
ssg69
g3135
sg62
(lp3142
g1684
asbasbasbag55
(g71
g57
NtRp3143
(dp3144
g60
(dp3145
sg69
g2971
sg62
(lp3146
g55
(g76
g57
NtRp3147
(dp3148
g60
(dp3149
g80
g81
ssg69
g3143
sg62
(lp3150
S'QUERY_STRING'
p3151
asbag55
(g76
g57
NtRp3152
(dp3153
g60
(dp3154
g87
g88
ssg69
g3143
sg62
(lp3155
S':'
asbag55
(g76
g57
NtRp3156
(dp3157
g60
(dp3158
sg69
g3143
sg62
(lp3159
g55
(g56
g57
NtRp3160
(dp3161
g60
(dp3162
g68
I3
ssg69
g3156
sg62
(lp3163
S''
asbasbasbag55
(g71
g57
NtRp3164
(dp3165
g60
(dp3166
sg69
g2971
sg62
(lp3167
g55
(g76
g57
NtRp3168
(dp3169
g60
(dp3170
g80
g81
ssg69
g3164
sg62
(lp3171
S'REMOTE_ADDR'
p3172
asbag55
(g76
g57
NtRp3173
(dp3174
g60
(dp3175
g87
g88
ssg69
g3164
sg62
(lp3176
S':'
asbag55
(g76
g57
NtRp3177
(dp3178
g60
(dp3179
sg69
g3164
sg62
(lp3180
g55
(g56
g57
NtRp3181
(dp3182
g60
(dp3183
g68
I3
ssg69
g3177
sg62
(lp3184
g210
asbasbasbag55
(g71
g57
NtRp3185
(dp3186
g60
(dp3187
sg69
g2971
sg62
(lp3188
g55
(g76
g57
NtRp3189
(dp3190
g60
(dp3191
g80
g81
ssg69
g3185
sg62
(lp3192
S'REMOTE_PORT'
p3193
asbag55
(g76
g57
NtRp3194
(dp3195
g60
(dp3196
g87
g88
ssg69
g3185
sg62
(lp3197
S':'
asbag55
(g76
g57
NtRp3198
(dp3199
g60
(dp3200
sg69
g3185
sg62
(lp3201
g55
(g56
g57
NtRp3202
(dp3203
g60
(dp3204
g68
I3
ssg69
g3198
sg62
(lp3205
g1748
asbasbasbag55
(g71
g57
NtRp3206
(dp3207
g60
(dp3208
sg69
g2971
sg62
(lp3209
g55
(g76
g57
NtRp3210
(dp3211
g60
(dp3212
g80
g81
ssg69
g3206
sg62
(lp3213
S'REQUEST_METHOD'
p3214
asbag55
(g76
g57
NtRp3215
(dp3216
g60
(dp3217
g87
g88
ssg69
g3206
sg62
(lp3218
S':'
asbag55
(g76
g57
NtRp3219
(dp3220
g60
(dp3221
sg69
g3206
sg62
(lp3222
g55
(g56
g57
NtRp3223
(dp3224
g60
(dp3225
g68
I3
ssg69
g3219
sg62
(lp3226
g1770
asbasbasbag55
(g71
g57
NtRp3227
(dp3228
g60
(dp3229
sg69
g2971
sg62
(lp3230
g55
(g76
g57
NtRp3231
(dp3232
g60
(dp3233
g80
g81
ssg69
g3227
sg62
(lp3234
S'REQUEST_URI'
p3235
asbag55
(g76
g57
NtRp3236
(dp3237
g60
(dp3238
g87
g88
ssg69
g3227
sg62
(lp3239
S':'
asbag55
(g76
g57
NtRp3240
(dp3241
g60
(dp3242
sg69
g3227
sg62
(lp3243
g55
(g56
g57
NtRp3244
(dp3245
g60
(dp3246
g68
I3
ssg69
g3240
sg62
(lp3247
g1684
asbasbasbag55
(g71
g57
NtRp3248
(dp3249
g60
(dp3250
sg69
g2971
sg62
(lp3251
g55
(g76
g57
NtRp3252
(dp3253
g60
(dp3254
g80
g81
ssg69
g3248
sg62
(lp3255
S'SCRIPT_NAME'
p3256
asbag55
(g76
g57
NtRp3257
(dp3258
g60
(dp3259
g87
g88
ssg69
g3248
sg62
(lp3260
S':'
asbag55
(g76
g57
NtRp3261
(dp3262
g60
(dp3263
sg69
g3248
sg62
(lp3264
g55
(g56
g57
NtRp3265
(dp3266
g60
(dp3267
g68
I3
ssg69
g3261
sg62
(lp3268
S''
asbasbasbag55
(g71
g57
NtRp3269
(dp3270
g60
(dp3271
sg69
g2971
sg62
(lp3272
g55
(g76
g57
NtRp3273
(dp3274
g60
(dp3275
g80
g81
ssg69
g3269
sg62
(lp3276
S'SERVER_NAME'
p3277
asbag55
(g76
g57
NtRp3278
(dp3279
g60
(dp3280
g87
g88
ssg69
g3269
sg62
(lp3281
S':'
asbag55
(g76
g57
NtRp3282
(dp3283
g60
(dp3284
sg69
g3269
sg62
(lp3285
g55
(g56
g57
NtRp3286
(dp3287
g60
(dp3288
g68
I3
ssg69
g3282
sg62
(lp3289
g1834
asbasbasbag55
(g71
g57
NtRp3290
(dp3291
g60
(dp3292
sg69
g2971
sg62
(lp3293
g55
(g76
g57
NtRp3294
(dp3295
g60
(dp3296
g80
g81
ssg69
g3290
sg62
(lp3297
S'SERVER_PORT'
p3298
asbag55
(g76
g57
NtRp3299
(dp3300
g60
(dp3301
g87
g88
ssg69
g3290
sg62
(lp3302
S':'
asbag55
(g76
g57
NtRp3303
(dp3304
g60
(dp3305
sg69
g3290
sg62
(lp3306
g55
(g56
g57
NtRp3307
(dp3308
g60
(dp3309
g68
I3
ssg69
g3303
sg62
(lp3310
g1856
asbasbasbag55
(g71
g57
NtRp3311
(dp3312
g60
(dp3313
sg69
g2971
sg62
(lp3314
g55
(g76
g57
NtRp3315
(dp3316
g60
(dp3317
g80
g81
ssg69
g3311
sg62
(lp3318
S'SERVER_PROTOCOL'
p3319
asbag55
(g76
g57
NtRp3320
(dp3321
g60
(dp3322
g87
g88
ssg69
g3311
sg62
(lp3323
S':'
asbag55
(g76
g57
NtRp3324
(dp3325
g60
(dp3326
sg69
g3311
sg62
(lp3327
g55
(g56
g57
NtRp3328
(dp3329
g60
(dp3330
g68
I3
ssg69
g3324
sg62
(lp3331
g1878
asbasbasbag55
(g71
g57
NtRp3332
(dp3333
g60
(dp3334
sg69
g2971
sg62
(lp3335
g55
(g76
g57
NtRp3336
(dp3337
g60
(dp3338
g80
g81
ssg69
g3332
sg62
(lp3339
S'SERVER_SOFTWARE'
p3340
asbag55
(g76
g57
NtRp3341
(dp3342
g60
(dp3343
g87
g88
ssg69
g3332
sg62
(lp3344
S':'
asbag55
(g76
g57
NtRp3345
(dp3346
g60
(dp3347
sg69
g3332
sg62
(lp3348
g55
(g56
g57
NtRp3349
(dp3350
g60
(dp3351
g68
I3
ssg69
g3345
sg62
(lp3352
g1900
asbasbasbag55
(g71
g57
NtRp3353
(dp3354
g60
(dp3355
sg69
g2971
sg62
(lp3356
g55
(g76
g57
NtRp3357
(dp3358
g60
(dp3359
g80
g81
ssg69
g3353
sg62
(lp3360
S'wsgi.errors'
p3361
asbag55
(g76
g57
NtRp3362
(dp3363
g60
(dp3364
g87
g88
ssg69
g3353
sg62
(lp3365
S':'
asbag55
(g76
g57
NtRp3366
(dp3367
g60
(dp3368
sg69
g3353
sg62
(lp3369
g55
(g56
g57
NtRp3370
(dp3371
g60
(dp3372
g68
I3
ssg69
g3366
sg62
(lp3373
S"<open file '<stderr>', mode 'w' at 0xb72da0d0>"
p3374
asbasbasbag55
(g71
g57
NtRp3375
(dp3376
g60
(dp3377
sg69
g2971
sg62
(lp3378
g55
(g76
g57
NtRp3379
(dp3380
g60
(dp3381
g80
g81
ssg69
g3375
sg62
(lp3382
S'wsgi.file_wrapper'
p3383
asbag55
(g76
g57
NtRp3384
(dp3385
g60
(dp3386
g87
g88
ssg69
g3375
sg62
(lp3387
S':'
asbag55
(g76
g57
NtRp3388
(dp3389
g60
(dp3390
sg69
g3375
sg62
(lp3391
g55
(g56
g57
NtRp3392
(dp3393
g60
(dp3394
g68
I3
ssg69
g3388
sg62
(lp3395
S'<class wsgiref.util.FileWrapper at 0x93d347c>'
p3396
asbasbasbag55
(g71
g57
NtRp3397
(dp3398
g60
(dp3399
sg69
g2971
sg62
(lp3400
g55
(g76
g57
NtRp3401
(dp3402
g60
(dp3403
g80
g81
ssg69
g3397
sg62
(lp3404
S'wsgi.input'
p3405
asbag55
(g76
g57
NtRp3406
(dp3407
g60
(dp3408
g87
g88
ssg69
g3397
sg62
(lp3409
S':'
asbag55
(g76
g57
NtRp3410
(dp3411
g60
(dp3412
sg69
g3397
sg62
(lp3413
g55
(g56
g57
NtRp3414
(dp3415
g60
(dp3416
g68
I3
ssg69
g3410
sg62
(lp3417
S'<cStringIO.StringO object at 0xad2b9aa0>'
p3418
asbasbasbag55
(g71
g57
NtRp3419
(dp3420
g60
(dp3421
sg69
g2971
sg62
(lp3422
g55
(g76
g57
NtRp3423
(dp3424
g60
(dp3425
g80
g81
ssg69
g3419
sg62
(lp3426
S'wsgi.multiprocess'
p3427
asbag55
(g76
g57
NtRp3428
(dp3429
g60
(dp3430
g87
g88
ssg69
g3419
sg62
(lp3431
S':'
asbag55
(g76
g57
NtRp3432
(dp3433
g60
(dp3434
sg69
g3419
sg62
(lp3435
g55
(g56
g57
NtRp3436
(dp3437
g60
(dp3438
g68
I3
ssg69
g3432
sg62
(lp3439
g98
asbasbasbag55
(g71
g57
NtRp3440
(dp3441
g60
(dp3442
sg69
g2971
sg62
(lp3443
g55
(g76
g57
NtRp3444
(dp3445
g60
(dp3446
g80
g81
ssg69
g3440
sg62
(lp3447
S'wsgi.multithread'
p3448
asbag55
(g76
g57
NtRp3449
(dp3450
g60
(dp3451
g87
g88
ssg69
g3440
sg62
(lp3452
S':'
asbag55
(g76
g57
NtRp3453
(dp3454
g60
(dp3455
sg69
g3440
sg62
(lp3456
g55
(g56
g57
NtRp3457
(dp3458
g60
(dp3459
g68
I3
ssg69
g3453
sg62
(lp3460
g2117
asbasbasbag55
(g71
g57
NtRp3461
(dp3462
g60
(dp3463
sg69
g2971
sg62
(lp3464
g55
(g76
g57
NtRp3465
(dp3466
g60
(dp3467
g80
g81
ssg69
g3461
sg62
(lp3468
S'wsgi.run_once'
p3469
asbag55
(g76
g57
NtRp3470
(dp3471
g60
(dp3472
g87
g88
ssg69
g3461
sg62
(lp3473
S':'
asbag55
(g76
g57
NtRp3474
(dp3475
g60
(dp3476
sg69
g3461
sg62
(lp3477
g55
(g56
g57
NtRp3478
(dp3479
g60
(dp3480
g68
I3
ssg69
g3474
sg62
(lp3481
g98
asbasbasbag55
(g71
g57
NtRp3482
(dp3483
g60
(dp3484
sg69
g2971
sg62
(lp3485
g55
(g76
g57
NtRp3486
(dp3487
g60
(dp3488
g80
g81
ssg69
g3482
sg62
(lp3489
S'wsgi.url_scheme'
p3490
asbag55
(g76
g57
NtRp3491
(dp3492
g60
(dp3493
g87
g88
ssg69
g3482
sg62
(lp3494
S':'
asbag55
(g76
g57
NtRp3495
(dp3496
g60
(dp3497
sg69
g3482
sg62
(lp3498
g55
(g56
g57
NtRp3499
(dp3500
g60
(dp3501
g68
I3
ssg69
g3495
sg62
(lp3502
g2160
asbasbasbag55
(g71
g57
NtRp3503
(dp3504
g60
(dp3505
sg69
g2971
sg62
(lp3506
g55
(g76
g57
NtRp3507
(dp3508
g60
(dp3509
g80
g81
ssg69
g3503
sg62
(lp3510
S'wsgi.version'
p3511
asbag55
(g76
g57
NtRp3512
(dp3513
g60
(dp3514
g87
g88
ssg69
g3503
sg62
(lp3515
S':'
asbag55
(g76
g57
NtRp3516
(dp3517
g60
(dp3518
sg69
g3503
sg62
(lp3519
g55
(g56
g57
NtRp3520
(dp3521
g60
(dp3522
g68
I3
ssg69
g3516
sg62
(lp3523
S'1'
asbasbasbasbasbasbasbasbasbasbasbasbasbsS'frames'
p3524
(lp3525
(dp3526
S'file'
p3527
S'/home/nazrul/web2py/gluon/main.py'
p3528
sS'dump'
p3529
(dp3530
S'session._try_store_in_cookie_or_file'
p3531
S"<bound method Session._try_store_in_cookie_or_fi...-40ad-ae20-f4eb210768d1', 'sid': 36, 'ide': 35}>>"
p3532
sS'session'
p3533
S"<Storage {'flash': None, 'fields': [<gluon.dal.F...7-40ad-ae20-f4eb210768d1', 'sid': 36, 'ide': 35}>"
p3534
sS'request'
p3535
S"<Storage {'function': 'rel', 'body': <cStringIO....y/applications/WSD/', 'post_vars': <Storage {}>}>"
p3536
sS'response'
p3537
S"<Storage {'body': <cStringIO.StringO object at 0...bda> at 0xae03abc4>, 'view': 'default/rel.html'}>"
p3538
ssS'lnum'
p3539
I576
sS'lines'
p3540
(dp3541
I576
S'                session._try_store_in_cookie_or_file(request, response)'
p3542
sI577
S''
sI578
S'                if request.cid:'
p3543
sI579
S'                    if response.flash:'
p3544
sI580
S"                        http_response.headers['web2py-component-flash'] = \\"
p3545
sI571
S'                # ##################################################'
p3546
sI572
S'                # if session not in db try store session on filesystem'
p3547
sI573
S'                # this must be done after trying to commit database!'
p3548
sI574
S'                # ##################################################'
p3549
sI575
S''
ssS'call'
p3550
S"(environ={'HTTP_ACCEPT': 'text/html,application/xhtml+xml,application/xml;q=0.9,*/*;q=0.8', 'HTTP_ACCEPT_ENCODING': 'gzip, deflate', 'HTTP_ACCEPT_LANGUAGE': 'en-US,en;q=0.5', 'HTTP_CONNECTION': 'keep-alive', 'HTTP_COOKIE': 'KBD=0hi-0; session_id_welcome=127.0.0.1-95c46222...ol=127.0.0.1-8aee5378-76ff-46f8-b728-b1bcd2634b28', 'HTTP_HOST': '127.0.0.1:8000', 'HTTP_USER_AGENT': 'Mozilla/5.0 (X11; Ubuntu; Linux i686; rv:18.0) Gecko/20100101 Firefox/18.0', 'PATH_INFO': '/WSD/default/rel', 'QUERY_STRING': '', 'REMOTE_ADDR': '127.0.0.1', ...}, responder=<function responder2>)"
p3551
sS'func'
p3552
S'wsgibase'
p3553
sa(dp3554
g3527
S'/home/nazrul/web2py/gluon/globals.py'
p3555
sg3529
(dp3556
S'self._try_store_in_file'
p3557
S"<bound method Session._try_store_in_file of <Sto...-40ad-ae20-f4eb210768d1', 'sid': 36, 'ide': 35}>>"
p3558
sS'self'
p3559
S"<Storage {'flash': None, 'fields': [<gluon.dal.F...7-40ad-ae20-f4eb210768d1', 'sid': 36, 'ide': 35}>"
p3560
sS'request'
p3561
S"<Storage {'function': 'rel', 'body': <cStringIO....y/applications/WSD/', 'post_vars': <Storage {}>}>"
p3562
sS'response'
p3563
S"<Storage {'body': <cStringIO.StringO object at 0...bda> at 0xae03abc4>, 'view': 'default/rel.html'}>"
p3564
ssg3539
I749
sg3540
(dp3565
I744
S'        return True'
p3566
sI745
S''
sI746
S'    def _try_store_in_cookie_or_file(self, request, response):'
p3567
sI747
S'        return \\'
p3568
sI748
S'            self._try_store_in_cookie(request, response) or \\'
p3569
sI749
S'            self._try_store_in_file(request, response)'
p3570
sI750
S''
sI751
S'    def _try_store_in_file(self, request, response):'
p3571
sI752
S"        if response.session_storage_type != 'file':"
p3572
sI753
S'            return False'
p3573
ssg3550
S"(self=<Storage {'flash': None, 'fields': [<gluon.dal.F...7-40ad-ae20-f4eb210768d1', 'sid': 36, 'ide': 35}>, request=<Storage {'function': 'rel', 'body': <cStringIO....y/applications/WSD/', 'post_vars': <Storage {}>}>, response=<Storage {'body': <cStringIO.StringO object at 0...bda> at 0xae03abc4>, 'view': 'default/rel.html'}>)"
p3574
sg3552
S'_try_store_in_cookie_or_file'
p3575
sa(dp3576
g3527
S'/home/nazrul/web2py/gluon/globals.py'
p3577
sg3529
(dp3578
S'self._unchanged'
p3579
S"<bound method Session._unchanged of <Storage {'f...-40ad-ae20-f4eb210768d1', 'sid': 36, 'ide': 35}>>"
p3580
sS'response.session_id'
p3581
S"'127.0.0.1-6a7c3401-059b-4dac-aafc-9a0a37e89b81'"
p3582
sS'self._forget'
p3583
S'None'
p3584
sS'response'
p3585
S"<Storage {'body': <cStringIO.StringO object at 0...bda> at 0xae03abc4>, 'view': 'default/rel.html'}>"
p3586
sS'self'
p3587
S"<Storage {'flash': None, 'fields': [<gluon.dal.F...7-40ad-ae20-f4eb210768d1', 'sid': 36, 'ide': 35}>"
p3588
ssg3539
I755
sg3540
(dp3589
I750
S''
sI751
S'    def _try_store_in_file(self, request, response):'
p3590
sI752
S"        if response.session_storage_type != 'file':"
p3591
sI753
S'            return False'
p3592
sI754
S'        try:'
p3593
sI755
S'            if not response.session_id or self._forget or self._unchanged():'
p3594
sI756
S'                return False'
p3595
sI757
S'            if response.session_new or not response.session_file:'
p3596
sI758
S'                # Tests if the session sub-folder exists, if not, create it'
p3597
sI759
S'                session_folder = os.path.dirname(response.session_filename)'
p3598
ssg3550
S"(self=<Storage {'flash': None, 'fields': [<gluon.dal.F...7-40ad-ae20-f4eb210768d1', 'sid': 36, 'ide': 35}>, request=<Storage {'function': 'rel', 'body': <cStringIO....y/applications/WSD/', 'post_vars': <Storage {}>}>, response=<Storage {'body': <cStringIO.StringO object at 0...bda> at 0xae03abc4>, 'view': 'default/rel.html'}>)"
p3599
sg3552
S'_try_store_in_file'
p3600
sa(dp3601
g3527
S'/home/nazrul/web2py/gluon/globals.py'
p3602
sg3529
(dp3603
S'self'
p3604
S"<Storage {'flash': None, 'fields': [<gluon.dal.F...7-40ad-ae20-f4eb210768d1', 'sid': 36, 'ide': 35}>"
p3605
sS'cPickle.dumps'
p3606
S'<built-in function dumps>'
p3607
sS'session_pickled'
p3608
S'undefined'
p3609
sS'builtindict'
p3610
S"<type 'dict'>"
p3611
sS'global cPickle'
p3612
S"<module 'cPickle' (built-in)>"
p3613
ssg3539
I711
sg3540
(dp3614
I706
S'    def _unchanged(self):'
p3615
sI707
S"        previous_session_hash = self.pop('_session_hash', None)"
p3616
sI708
S'        if not previous_session_hash and not \\'
p3617
sI709
S'                any(value is not None for value in self.itervalues()):'
p3618
sI710
S'            return True'
p3619
sI711
S'        session_pickled = cPickle.dumps(dict(self))'
p3620
sI712
S'        session_hash = hashlib.md5(session_pickled).hexdigest()'
p3621
sI713
S'        if previous_session_hash == session_hash:'
p3622
sI714
S'            return True'
p3623
sI715
S'        else:'
p3624
ssg3550
S"(self=<Storage {'flash': None, 'fields': [<gluon.dal.F...7-40ad-ae20-f4eb210768d1', 'sid': 36, 'ide': 35}>)"
p3625
sg3552
S'_unchanged'
p3626
sa(dp3627
g3527
S'/usr/lib/python2.7/copy_reg.py'
p3628
sg3529
(dp3629
S'base.__name__'
p3630
S"'instancemethod'"
p3631
sS'base'
p3632
S"<type 'instancemethod'>"
p3633
sS'builtinTypeError'
p3634
S"<type 'exceptions.TypeError'>"
p3635
ssg3539
I70
sg3540
(dp3636
I65
S'        base = object # not really reachable'
p3637
sI66
S'    if base is object:'
p3638
sI67
S'        state = None'
p3639
sI68
S'    else:'
p3640
sI69
S'        if base is self.__class__:'
p3641
sI70
S'            raise TypeError, "can\'t pickle %s objects" % base.__name__'
p3642
sI71
S'        state = base(self)'
p3643
sI72
S'    args = (self.__class__, base, state)'
p3644
sI73
S'    try:'
p3645
sI74
S'        getstate = self.__getstate__'
p3646
ssg3550
S"(self=<bound method type.widget of <class 'gluon.sqlhtml.RadioWidget'>>, proto=0)"
p3647
sg3552
S'_reduce_ex'
p3648
sasS'pyver'
p3649
S'Python 2.7.3: /usr/bin/python'
p3650
sS'session'
p3651
g55
(g56
g57
NtRp3652
(dp3653
g60
(dp3654
sg62
(lp3655
g55
(g64
g57
NtRp3656
(dp3657
g60
(dp3658
g68
I5
ssg69
Nsg62
(lp3659
g55
(g71
g57
NtRp3660
(dp3661
g60
(dp3662
sg69
g3656
sg62
(lp3663
g55
(g76
g57
NtRp3664
(dp3665
g60
(dp3666
g80
g81
ssg69
g3660
sg62
(lp3667
S'auth'
p3668
asbag55
(g76
g57
NtRp3669
(dp3670
g60
(dp3671
g87
g88
ssg69
g3660
sg62
(lp3672
S':'
asbag55
(g76
g57
NtRp3673
(dp3674
g60
(dp3675
sg69
g3660
sg62
(lp3676
g55
(g56
g57
NtRp3677
(dp3678
g60
(dp3679
g68
I5
ssg69
g3673
sg62
(lp3680
g55
(g64
g57
NtRp3681
(dp3682
g60
(dp3683
g68
I4
ssg69
Nsg62
(lp3684
g55
(g71
g57
NtRp3685
(dp3686
g60
(dp3687
sg69
g3681
sg62
(lp3688
g55
(g76
g57
NtRp3689
(dp3690
g60
(dp3691
g80
g81
ssg69
g3685
sg62
(lp3692
S'expiration'
p3693
asbag55
(g76
g57
NtRp3694
(dp3695
g60
(dp3696
g87
g88
ssg69
g3685
sg62
(lp3697
S':'
asbag55
(g76
g57
NtRp3698
(dp3699
g60
(dp3700
sg69
g3685
sg62
(lp3701
g55
(g56
g57
NtRp3702
(dp3703
g60
(dp3704
g68
I4
ssg69
g3698
sg62
(lp3705
S'3600'
p3706
asbasbasbag55
(g71
g57
NtRp3707
(dp3708
g60
(dp3709
sg69
g3681
sg62
(lp3710
g55
(g76
g57
NtRp3711
(dp3712
g60
(dp3713
g80
g81
ssg69
g3707
sg62
(lp3714
S'hmac_key'
p3715
asbag55
(g76
g57
NtRp3716
(dp3717
g60
(dp3718
g87
g88
ssg69
g3707
sg62
(lp3719
S':'
asbag55
(g76
g57
NtRp3720
(dp3721
g60
(dp3722
sg69
g3707
sg62
(lp3723
g55
(g56
g57
NtRp3724
(dp3725
g60
(dp3726
g68
I4
ssg69
g3720
sg62
(lp3727
S'1454b12c-2420-46dd-8a4d-f02f05d086ab'
p3728
asbasbasbag55
(g71
g57
NtRp3729
(dp3730
g60
(dp3731
sg69
g3681
sg62
(lp3732
g55
(g76
g57
NtRp3733
(dp3734
g60
(dp3735
g80
g81
ssg69
g3729
sg62
(lp3736
S'last_visit'
p3737
asbag55
(g76
g57
NtRp3738
(dp3739
g60
(dp3740
g87
g88
ssg69
g3729
sg62
(lp3741
S':'
asbag55
(g76
g57
NtRp3742
(dp3743
g60
(dp3744
sg69
g3729
sg62
(lp3745
g55
(g56
g57
NtRp3746
(dp3747
g60
(dp3748
g68
I4
ssg69
g3742
sg62
(lp3749
S'datetime.datetime(2013, 11, 15, 17, 55, 48, 127571)'
p3750
asbasbasbag55
(g71
g57
NtRp3751
(dp3752
g60
(dp3753
sg69
g3681
sg62
(lp3754
g55
(g76
g57
NtRp3755
(dp3756
g60
(dp3757
g80
g81
ssg69
g3751
sg62
(lp3758
S'remember'
p3759
asbag55
(g76
g57
NtRp3760
(dp3761
g60
(dp3762
g87
g88
ssg69
g3751
sg62
(lp3763
S':'
asbag55
(g76
g57
NtRp3764
(dp3765
g60
(dp3766
sg69
g3751
sg62
(lp3767
g55
(g56
g57
NtRp3768
(dp3769
g60
(dp3770
g68
I4
ssg69
g3764
sg62
(lp3771
g98
asbasbasbag55
(g71
g57
NtRp3772
(dp3773
g60
(dp3774
sg69
g3681
sg62
(lp3775
g55
(g76
g57
NtRp3776
(dp3777
g60
(dp3778
g80
g81
ssg69
g3772
sg62
(lp3779
S'user'
p3780
asbag55
(g76
g57
NtRp3781
(dp3782
g60
(dp3783
g87
g88
ssg69
g3772
sg62
(lp3784
S':'
asbag55
(g76
g57
NtRp3785
(dp3786
g60
(dp3787
sg69
g3772
sg62
(lp3788
g55
(g56
g57
NtRp3789
(dp3790
g60
(dp3791
g68
I4
ssg69
g3785
sg62
(lp3792
g55
(g64
g57
NtRp3793
(dp3794
g60
(dp3795
g68
I3
ssg69
Nsg62
(lp3796
g55
(g71
g57
NtRp3797
(dp3798
g60
(dp3799
sg69
g3793
sg62
(lp3800
g55
(g76
g57
NtRp3801
(dp3802
g60
(dp3803
g80
g81
ssg69
g3797
sg62
(lp3804
S'email'
p3805
asbag55
(g76
g57
NtRp3806
(dp3807
g60
(dp3808
g87
g88
ssg69
g3797
sg62
(lp3809
S':'
asbag55
(g76
g57
NtRp3810
(dp3811
g60
(dp3812
sg69
g3797
sg62
(lp3813
g55
(g56
g57
NtRp3814
(dp3815
g60
(dp3816
g68
I3
ssg69
g3810
sg62
(lp3817
S'root@sys.com'
p3818
asbasbasbag55
(g71
g57
NtRp3819
(dp3820
g60
(dp3821
sg69
g3793
sg62
(lp3822
g55
(g76
g57
NtRp3823
(dp3824
g60
(dp3825
g80
g81
ssg69
g3819
sg62
(lp3826
S'first_name'
p3827
asbag55
(g76
g57
NtRp3828
(dp3829
g60
(dp3830
g87
g88
ssg69
g3819
sg62
(lp3831
S':'
asbag55
(g76
g57
NtRp3832
(dp3833
g60
(dp3834
sg69
g3819
sg62
(lp3835
g55
(g56
g57
NtRp3836
(dp3837
g60
(dp3838
g68
I3
ssg69
g3832
sg62
(lp3839
S'root'
p3840
asbasbasbag55
(g71
g57
NtRp3841
(dp3842
g60
(dp3843
sg69
g3793
sg62
(lp3844
g55
(g76
g57
NtRp3845
(dp3846
g60
(dp3847
g80
g81
ssg69
g3841
sg62
(lp3848
S'id'
p3849
asbag55
(g76
g57
NtRp3850
(dp3851
g60
(dp3852
g87
g88
ssg69
g3841
sg62
(lp3853
S':'
asbag55
(g76
g57
NtRp3854
(dp3855
g60
(dp3856
sg69
g3841
sg62
(lp3857
g55
(g56
g57
NtRp3858
(dp3859
g60
(dp3860
g68
I3
ssg69
g3854
sg62
(lp3861
S'4'
asbasbasbag55
(g71
g57
NtRp3862
(dp3863
g60
(dp3864
sg69
g3793
sg62
(lp3865
g55
(g76
g57
NtRp3866
(dp3867
g60
(dp3868
g80
g81
ssg69
g3862
sg62
(lp3869
S'last_name'
p3870
asbag55
(g76
g57
NtRp3871
(dp3872
g60
(dp3873
g87
g88
ssg69
g3862
sg62
(lp3874
S':'
asbag55
(g76
g57
NtRp3875
(dp3876
g60
(dp3877
sg69
g3862
sg62
(lp3878
g55
(g56
g57
NtRp3879
(dp3880
g60
(dp3881
g68
I3
ssg69
g3875
sg62
(lp3882
S'root'
p3883
asbasbasbag55
(g71
g57
NtRp3884
(dp3885
g60
(dp3886
sg69
g3793
sg62
(lp3887
g55
(g76
g57
NtRp3888
(dp3889
g60
(dp3890
g80
g81
ssg69
g3884
sg62
(lp3891
S'registration_id'
p3892
asbag55
(g76
g57
NtRp3893
(dp3894
g60
(dp3895
g87
g88
ssg69
g3884
sg62
(lp3896
S':'
asbag55
(g76
g57
NtRp3897
(dp3898
g60
(dp3899
sg69
g3884
sg62
(lp3900
g55
(g56
g57
NtRp3901
(dp3902
g60
(dp3903
g68
I3
ssg69
g3897
sg62
(lp3904
S''
asbasbasbag55
(g71
g57
NtRp3905
(dp3906
g60
(dp3907
sg69
g3793
sg62
(lp3908
g55
(g76
g57
NtRp3909
(dp3910
g60
(dp3911
g80
g81
ssg69
g3905
sg62
(lp3912
S'registration_key'
p3913
asbag55
(g76
g57
NtRp3914
(dp3915
g60
(dp3916
g87
g88
ssg69
g3905
sg62
(lp3917
S':'
asbag55
(g76
g57
NtRp3918
(dp3919
g60
(dp3920
sg69
g3905
sg62
(lp3921
g55
(g56
g57
NtRp3922
(dp3923
g60
(dp3924
g68
I3
ssg69
g3918
sg62
(lp3925
S''
asbasbasbag55
(g71
g57
NtRp3926
(dp3927
g60
(dp3928
sg69
g3793
sg62
(lp3929
g55
(g76
g57
NtRp3930
(dp3931
g60
(dp3932
g80
g81
ssg69
g3926
sg62
(lp3933
S'reset_password_key'
p3934
asbag55
(g76
g57
NtRp3935
(dp3936
g60
(dp3937
g87
g88
ssg69
g3926
sg62
(lp3938
S':'
asbag55
(g76
g57
NtRp3939
(dp3940
g60
(dp3941
sg69
g3926
sg62
(lp3942
g55
(g56
g57
NtRp3943
(dp3944
g60
(dp3945
g68
I3
ssg69
g3939
sg62
(lp3946
S''
asbasbasbasbasbasbasbag55
(g71
g57
NtRp3947
(dp3948
g60
(dp3949
sg69
g3681
sg62
(lp3950
g55
(g76
g57
NtRp3951
(dp3952
g60
(dp3953
g80
g81
ssg69
g3947
sg62
(lp3954
S'user_groups'
p3955
asbag55
(g76
g57
NtRp3956
(dp3957
g60
(dp3958
g87
g88
ssg69
g3947
sg62
(lp3959
S':'
asbag55
(g76
g57
NtRp3960
(dp3961
g60
(dp3962
sg69
g3947
sg62
(lp3963
g55
(g56
g57
NtRp3964
(dp3965
g60
(dp3966
g68
I4
ssg69
g3960
sg62
(lp3967
g55
(g64
g57
NtRp3968
(dp3969
g60
(dp3970
g68
I3
ssg69
Nsg62
(lp3971
sbasbasbasbasbasbasbasbag55
(g71
g57
NtRp3972
(dp3973
g60
(dp3974
sg69
g3656
sg62
(lp3975
g55
(g76
g57
NtRp3976
(dp3977
g60
(dp3978
g80
g81
ssg69
g3972
sg62
(lp3979
S'f'
asbag55
(g76
g57
NtRp3980
(dp3981
g60
(dp3982
g87
g88
ssg69
g3972
sg62
(lp3983
S':'
asbag55
(g76
g57
NtRp3984
(dp3985
g60
(dp3986
sg69
g3972
sg62
(lp3987
g55
(g56
g57
NtRp3988
(dp3989
g60
(dp3990
g68
I5
ssg69
g3984
sg62
(lp3991
S'1'
asbasbasbag55
(g71
g57
NtRp3992
(dp3993
g60
(dp3994
sg69
g3656
sg62
(lp3995
g55
(g76
g57
NtRp3996
(dp3997
g60
(dp3998
g80
g81
ssg69
g3992
sg62
(lp3999
S'fields'
p4000
asbag55
(g76
g57
NtRp4001
(dp4002
g60
(dp4003
g87
g88
ssg69
g3992
sg62
(lp4004
S':'
asbag55
(g76
g57
NtRp4005
(dp4006
g60
(dp4007
sg69
g3992
sg62
(lp4008
g55
(g56
g57
NtRp4009
(dp4010
g60
(dp4011
g68
I5
ssg69
g4005
sg62
(lp4012
g55
(g64
g57
NtRp4013
(dp4014
g60
(dp4015
g68
I4
ssg69
Nsg62
(lp4016
g55
(g71
g57
NtRp4017
(dp4018
g60
(dp4019
sg69
g4013
sg62
(lp4020
g55
(g76
g57
NtRp4021
(dp4022
g60
(dp4023
sg69
g4017
sg62
(lp4024
g55
(g56
g57
NtRp4025
(dp4026
g60
(dp4027
g68
I4
ssg69
g4021
sg62
(lp4028
S'<gluon.dal.Field object at 0xae459e8c>'
p4029
asbasbasbag55
(g71
g57
NtRp4030
(dp4031
g60
(dp4032
sg69
g4013
sg62
(lp4033
g55
(g76
g57
NtRp4034
(dp4035
g60
(dp4036
sg69
g4030
sg62
(lp4037
g55
(g56
g57
NtRp4038
(dp4039
g60
(dp4040
g68
I4
ssg69
g4034
sg62
(lp4041
S'<gluon.dal.Field object at 0xae459eec>'
p4042
asbasbasbasbasbasbasbag55
(g71
g57
NtRp4043
(dp4044
g60
(dp4045
sg69
g3656
sg62
(lp4046
g55
(g76
g57
NtRp4047
(dp4048
g60
(dp4049
g80
g81
ssg69
g4043
sg62
(lp4050
S'flash'
p4051
asbag55
(g76
g57
NtRp4052
(dp4053
g60
(dp4054
g87
g88
ssg69
g4043
sg62
(lp4055
S':'
asbag55
(g76
g57
NtRp4056
(dp4057
g60
(dp4058
sg69
g4043
sg62
(lp4059
g55
(g56
g57
NtRp4060
(dp4061
g60
(dp4062
g68
I5
ssg69
g4056
sg62
(lp4063
S'None'
p4064
asbasbasbag55
(g71
g57
NtRp4065
(dp4066
g60
(dp4067
sg69
g3656
sg62
(lp4068
g55
(g76
g57
NtRp4069
(dp4070
g60
(dp4071
g80
g81
ssg69
g4065
sg62
(lp4072
S'ide'
p4073
asbag55
(g76
g57
NtRp4074
(dp4075
g60
(dp4076
g87
g88
ssg69
g4065
sg62
(lp4077
S':'
asbag55
(g76
g57
NtRp4078
(dp4079
g60
(dp4080
sg69
g4065
sg62
(lp4081
g55
(g56
g57
NtRp4082
(dp4083
g60
(dp4084
g68
I5
ssg69
g4078
sg62
(lp4085
S'35'
p4086
asbasbasbag55
(g71
g57
NtRp4087
(dp4088
g60
(dp4089
sg69
g3656
sg62
(lp4090
g55
(g76
g57
NtRp4091
(dp4092
g60
(dp4093
g80
g81
ssg69
g4087
sg62
(lp4094
S'last_orderby'
p4095
asbag55
(g76
g57
NtRp4096
(dp4097
g60
(dp4098
g87
g88
ssg69
g4087
sg62
(lp4099
S':'
asbag55
(g76
g57
NtRp4100
(dp4101
g60
(dp4102
sg69
g4087
sg62
(lp4103
g55
(g56
g57
NtRp4104
(dp4105
g60
(dp4106
g68
I5
ssg69
g4100
sg62
(lp4107
S'None'
p4108
asbasbasbag55
(g71
g57
NtRp4109
(dp4110
g60
(dp4111
sg69
g3656
sg62
(lp4112
g55
(g76
g57
NtRp4113
(dp4114
g60
(dp4115
g80
g81
ssg69
g4109
sg62
(lp4116
S'last_query'
p4117
asbag55
(g76
g57
NtRp4118
(dp4119
g60
(dp4120
g87
g88
ssg69
g4109
sg62
(lp4121
S':'
asbag55
(g76
g57
NtRp4122
(dp4123
g60
(dp4124
sg69
g4109
sg62
(lp4125
g55
(g56
g57
NtRp4126
(dp4127
g60
(dp4128
g68
I5
ssg69
g4122
sg62
(lp4129
S'db.words.id>0'
p4130
asbasbasbag55
(g71
g57
NtRp4131
(dp4132
g60
(dp4133
sg69
g3656
sg62
(lp4134
g55
(g76
g57
NtRp4135
(dp4136
g60
(dp4137
g80
g81
ssg69
g4131
sg62
(lp4138
S'level'
p4139
asbag55
(g76
g57
NtRp4140
(dp4141
g60
(dp4142
g87
g88
ssg69
g4131
sg62
(lp4143
S':'
asbag55
(g76
g57
NtRp4144
(dp4145
g60
(dp4146
sg69
g4131
sg62
(lp4147
g55
(g56
g57
NtRp4148
(dp4149
g60
(dp4150
g68
I5
ssg69
g4144
sg62
(lp4151
S'1'
asbasbasbag55
(g71
g57
NtRp4152
(dp4153
g60
(dp4154
sg69
g3656
sg62
(lp4155
g55
(g76
g57
NtRp4156
(dp4157
g60
(dp4158
g80
g81
ssg69
g4152
sg62
(lp4159
S'psp'
p4160
asbag55
(g76
g57
NtRp4161
(dp4162
g60
(dp4163
g87
g88
ssg69
g4152
sg62
(lp4164
S':'
asbag55
(g76
g57
NtRp4165
(dp4166
g60
(dp4167
sg69
g4152
sg62
(lp4168
g55
(g56
g57
NtRp4169
(dp4170
g60
(dp4171
g68
I5
ssg69
g4165
sg62
(lp4172
S'noun'
p4173
asbasbasbag55
(g71
g57
NtRp4174
(dp4175
g60
(dp4176
sg69
g3656
sg62
(lp4177
g55
(g76
g57
NtRp4178
(dp4179
g60
(dp4180
g80
g81
ssg69
g4174
sg62
(lp4181
S'sid'
p4182
asbag55
(g76
g57
NtRp4183
(dp4184
g60
(dp4185
g87
g88
ssg69
g4174
sg62
(lp4186
S':'
asbag55
(g76
g57
NtRp4187
(dp4188
g60
(dp4189
sg69
g4174
sg62
(lp4190
g55
(g56
g57
NtRp4191
(dp4192
g60
(dp4193
g68
I5
ssg69
g4187
sg62
(lp4194
S'36'
p4195
asbasbasbag55
(g71
g57
NtRp4196
(dp4197
g60
(dp4198
sg69
g3656
sg62
(lp4199
g55
(g76
g57
NtRp4200
(dp4201
g60
(dp4202
g80
g81
ssg69
g4196
sg62
(lp4203
S'word'
p4204
asbag55
(g76
g57
NtRp4205
(dp4206
g60
(dp4207
g87
g88
ssg69
g4196
sg62
(lp4208
S':'
asbag55
(g76
g57
NtRp4209
(dp4210
g60
(dp4211
sg69
g4196
sg62
(lp4212
g55
(g56
g57
NtRp4213
(dp4214
g60
(dp4215
g68
I5
ssg69
g4209
sg62
(lp4216
S'word'
p4217
asbasbasbasbasbsS'etype'
p4218
S"<type 'exceptions.TypeError'>"
p4219
sS'date'
p4220
S'Fri Nov 15 17:58:37 2013'
p4221
sS'response'
p4222
g55
(g56
g57
NtRp4223
(dp4224
g60
(dp4225
sg62
(lp4226
g55
(g64
g57
NtRp4227
(dp4228
g60
(dp4229
g68
I5
ssg69
Nsg62
(lp4230
g55
(g71
g57
NtRp4231
(dp4232
g60
(dp4233
sg69
g4227
sg62
(lp4234
g55
(g76
g57
NtRp4235
(dp4236
g60
(dp4237
g80
g81
ssg69
g4231
sg62
(lp4238
g153
asbag55
(g76
g57
NtRp4239
(dp4240
g60
(dp4241
g87
g88
ssg69
g4231
sg62
(lp4242
S':'
asbag55
(g76
g57
NtRp4243
(dp4244
g60
(dp4245
sg69
g4231
sg62
(lp4246
g55
(g56
g57
NtRp4247
(dp4248
g60
(dp4249
g68
I5
ssg69
g4243
sg62
(lp4250
S'<cStringIO.StringO object at 0xae4215a0>'
p4251
asbasbasbag55
(g71
g57
NtRp4252
(dp4253
g60
(dp4254
sg69
g4227
sg62
(lp4255
g55
(g76
g57
NtRp4256
(dp4257
g60
(dp4258
g80
g81
ssg69
g4252
sg62
(lp4259
g241
asbag55
(g76
g57
NtRp4260
(dp4261
g60
(dp4262
g87
g88
ssg69
g4252
sg62
(lp4263
S':'
asbag55
(g76
g57
NtRp4264
(dp4265
g60
(dp4266
sg69
g4252
sg62
(lp4267
g55
(g56
g57
NtRp4268
(dp4269
g60
(dp4270
g68
I5
ssg69
g4264
sg62
(lp4271
g55
(g64
g57
NtRp4272
(dp4273
g60
(dp4274
g68
I4
ssg69
Nsg62
(lp4275
g55
(g71
g57
NtRp4276
(dp4277
g60
(dp4278
sg69
g4272
sg62
(lp4279
g55
(g76
g57
NtRp4280
(dp4281
g60
(dp4282
g80
g81
ssg69
g4276
sg62
(lp4283
S'session_id_wsd'
p4284
asbag55
(g76
g57
NtRp4285
(dp4286
g60
(dp4287
g87
g88
ssg69
g4276
sg62
(lp4288
S':'
asbag55
(g76
g57
NtRp4289
(dp4290
g60
(dp4291
sg69
g4276
sg62
(lp4292
g55
(g56
g57
NtRp4293
(dp4294
g60
(dp4295
g68
I4
ssg69
g4289
sg62
(lp4296
g845
ag55
(g64
g57
NtRp4297
(dp4298
g60
(dp4299
g68
I3
ssg69
Nsg62
(lp4300
g55
(g71
g57
NtRp4301
(dp4302
g60
(dp4303
sg69
g4297
sg62
(lp4304
g55
(g76
g57
NtRp4305
(dp4306
g60
(dp4307
g80
g81
ssg69
g4301
sg62
(lp4308
g292
asbag55
(g76
g57
NtRp4309
(dp4310
g60
(dp4311
g87
g88
ssg69
g4301
sg62
(lp4312
S':'
asbag55
(g76
g57
NtRp4313
(dp4314
g60
(dp4315
sg69
g4301
sg62
(lp4316
g55
(g56
g57
NtRp4317
(dp4318
g60
(dp4319
g68
I3
ssg69
g4313
sg62
(lp4320
S''
asbasbasbag55
(g71
g57
NtRp4321
(dp4322
g60
(dp4323
sg69
g4297
sg62
(lp4324
g55
(g76
g57
NtRp4325
(dp4326
g60
(dp4327
g80
g81
ssg69
g4321
sg62
(lp4328
g313
asbag55
(g76
g57
NtRp4329
(dp4330
g60
(dp4331
g87
g88
ssg69
g4321
sg62
(lp4332
S':'
asbag55
(g76
g57
NtRp4333
(dp4334
g60
(dp4335
sg69
g4321
sg62
(lp4336
g55
(g56
g57
NtRp4337
(dp4338
g60
(dp4339
g68
I3
ssg69
g4333
sg62
(lp4340
S''
asbasbasbag55
(g71
g57
NtRp4341
(dp4342
g60
(dp4343
sg69
g4297
sg62
(lp4344
g55
(g76
g57
NtRp4345
(dp4346
g60
(dp4347
g80
g81
ssg69
g4341
sg62
(lp4348
g334
asbag55
(g76
g57
NtRp4349
(dp4350
g60
(dp4351
g87
g88
ssg69
g4341
sg62
(lp4352
S':'
asbag55
(g76
g57
NtRp4353
(dp4354
g60
(dp4355
sg69
g4341
sg62
(lp4356
g55
(g56
g57
NtRp4357
(dp4358
g60
(dp4359
g68
I3
ssg69
g4353
sg62
(lp4360
S''
asbasbasbag55
(g71
g57
NtRp4361
(dp4362
g60
(dp4363
sg69
g4297
sg62
(lp4364
g55
(g76
g57
NtRp4365
(dp4366
g60
(dp4367
g80
g81
ssg69
g4361
sg62
(lp4368
g355
asbag55
(g76
g57
NtRp4369
(dp4370
g60
(dp4371
g87
g88
ssg69
g4361
sg62
(lp4372
S':'
asbag55
(g76
g57
NtRp4373
(dp4374
g60
(dp4375
sg69
g4361
sg62
(lp4376
g55
(g56
g57
NtRp4377
(dp4378
g60
(dp4379
g68
I3
ssg69
g4373
sg62
(lp4380
S''
asbasbasbag55
(g71
g57
NtRp4381
(dp4382
g60
(dp4383
sg69
g4297
sg62
(lp4384
g55
(g76
g57
NtRp4385
(dp4386
g60
(dp4387
g80
g81
ssg69
g4381
sg62
(lp4388
g376
asbag55
(g76
g57
NtRp4389
(dp4390
g60
(dp4391
g87
g88
ssg69
g4381
sg62
(lp4392
S':'
asbag55
(g76
g57
NtRp4393
(dp4394
g60
(dp4395
sg69
g4381
sg62
(lp4396
g55
(g56
g57
NtRp4397
(dp4398
g60
(dp4399
g68
I3
ssg69
g4393
sg62
(lp4400
S''
asbasbasbag55
(g71
g57
NtRp4401
(dp4402
g60
(dp4403
sg69
g4297
sg62
(lp4404
g55
(g76
g57
NtRp4405
(dp4406
g60
(dp4407
g80
g81
ssg69
g4401
sg62
(lp4408
g397
asbag55
(g76
g57
NtRp4409
(dp4410
g60
(dp4411
g87
g88
ssg69
g4401
sg62
(lp4412
S':'
asbag55
(g76
g57
NtRp4413
(dp4414
g60
(dp4415
sg69
g4401
sg62
(lp4416
g55
(g56
g57
NtRp4417
(dp4418
g60
(dp4419
g68
I3
ssg69
g4413
sg62
(lp4420
S'/'
asbasbasbag55
(g71
g57
NtRp4421
(dp4422
g60
(dp4423
sg69
g4297
sg62
(lp4424
g55
(g76
g57
NtRp4425
(dp4426
g60
(dp4427
g80
g81
ssg69
g4421
sg62
(lp4428
g418
asbag55
(g76
g57
NtRp4429
(dp4430
g60
(dp4431
g87
g88
ssg69
g4421
sg62
(lp4432
S':'
asbag55
(g76
g57
NtRp4433
(dp4434
g60
(dp4435
sg69
g4421
sg62
(lp4436
g55
(g56
g57
NtRp4437
(dp4438
g60
(dp4439
g68
I3
ssg69
g4433
sg62
(lp4440
S''
asbasbasbag55
(g71
g57
NtRp4441
(dp4442
g60
(dp4443
sg69
g4297
sg62
(lp4444
g55
(g76
g57
NtRp4445
(dp4446
g60
(dp4447
g80
g81
ssg69
g4441
sg62
(lp4448
g439
asbag55
(g76
g57
NtRp4449
(dp4450
g60
(dp4451
g87
g88
ssg69
g4441
sg62
(lp4452
S':'
asbag55
(g76
g57
NtRp4453
(dp4454
g60
(dp4455
sg69
g4441
sg62
(lp4456
g55
(g56
g57
NtRp4457
(dp4458
g60
(dp4459
g68
I3
ssg69
g4453
sg62
(lp4460
S''
asbasbasbasbasbasbasbasbasbasbasbag55
(g71
g57
NtRp4461
(dp4462
g60
(dp4463
sg69
g4227
sg62
(lp4464
g55
(g76
g57
NtRp4465
(dp4466
g60
(dp4467
g80
g81
ssg69
g4461
sg62
(lp4468
S'delimiters'
p4469
asbag55
(g76
g57
NtRp4470
(dp4471
g60
(dp4472
g87
g88
ssg69
g4461
sg62
(lp4473
S':'
asbag55
(g76
g57
NtRp4474
(dp4475
g60
(dp4476
sg69
g4461
sg62
(lp4477
g55
(g56
g57
NtRp4478
(dp4479
g60
(dp4480
g68
I5
ssg69
g4474
sg62
(lp4481
g55
(g64
g57
NtRp4482
(dp4483
g60
(dp4484
g68
I4
ssg69
Nsg62
(lp4485
g55
(g71
g57
NtRp4486
(dp4487
g60
(dp4488
sg69
g4482
sg62
(lp4489
g55
(g76
g57
NtRp4490
(dp4491
g60
(dp4492
sg69
g4486
sg62
(lp4493
g55
(g56
g57
NtRp4494
(dp4495
g60
(dp4496
g68
I4
ssg69
g4490
sg62
(lp4497
S'{{'
p4498
asbasbasbag55
(g71
g57
NtRp4499
(dp4500
g60
(dp4501
sg69
g4482
sg62
(lp4502
g55
(g76
g57
NtRp4503
(dp4504
g60
(dp4505
sg69
g4499
sg62
(lp4506
g55
(g56
g57
NtRp4507
(dp4508
g60
(dp4509
g68
I4
ssg69
g4503
sg62
(lp4510
S'}}'
p4511
asbasbasbasbasbasbasbag55
(g71
g57
NtRp4512
(dp4513
g60
(dp4514
sg69
g4227
sg62
(lp4515
g55
(g76
g57
NtRp4516
(dp4517
g60
(dp4518
g80
g81
ssg69
g4512
sg62
(lp4519
S'files'
p4520
asbag55
(g76
g57
NtRp4521
(dp4522
g60
(dp4523
g87
g88
ssg69
g4512
sg62
(lp4524
S':'
asbag55
(g76
g57
NtRp4525
(dp4526
g60
(dp4527
sg69
g4512
sg62
(lp4528
g55
(g56
g57
NtRp4529
(dp4530
g60
(dp4531
g68
I5
ssg69
g4525
sg62
(lp4532
g55
(g64
g57
NtRp4533
(dp4534
g60
(dp4535
g68
I4
ssg69
Nsg62
(lp4536
g55
(g71
g57
NtRp4537
(dp4538
g60
(dp4539
sg69
g4533
sg62
(lp4540
g55
(g76
g57
NtRp4541
(dp4542
g60
(dp4543
sg69
g4537
sg62
(lp4544
g55
(g56
g57
NtRp4545
(dp4546
g60
(dp4547
g68
I4
ssg69
g4541
sg62
(lp4548
S'/WSD/static/js/jquery.js'
p4549
asbasbasbag55
(g71
g57
NtRp4550
(dp4551
g60
(dp4552
sg69
g4533
sg62
(lp4553
g55
(g76
g57
NtRp4554
(dp4555
g60
(dp4556
sg69
g4550
sg62
(lp4557
g55
(g56
g57
NtRp4558
(dp4559
g60
(dp4560
g68
I4
ssg69
g4554
sg62
(lp4561
S'/WSD/static/css/calendar.css'
p4562
asbasbasbag55
(g71
g57
NtRp4563
(dp4564
g60
(dp4565
sg69
g4533
sg62
(lp4566
g55
(g76
g57
NtRp4567
(dp4568
g60
(dp4569
sg69
g4563
sg62
(lp4570
g55
(g56
g57
NtRp4571
(dp4572
g60
(dp4573
g68
I4
ssg69
g4567
sg62
(lp4574
S'/WSD/static/js/calendar.js'
p4575
asbasbasbag55
(g71
g57
NtRp4576
(dp4577
g60
(dp4578
sg69
g4533
sg62
(lp4579
g55
(g76
g57
NtRp4580
(dp4581
g60
(dp4582
sg69
g4576
sg62
(lp4583
g55
(g56
g57
NtRp4584
(dp4585
g60
(dp4586
g68
I4
ssg69
g4580
sg62
(lp4587
S'/WSD/static/js/web2py.js'
p4588
asbasbasbag55
(g71
g57
NtRp4589
(dp4590
g60
(dp4591
sg69
g4533
sg62
(lp4592
g55
(g76
g57
NtRp4593
(dp4594
g60
(dp4595
sg69
g4589
sg62
(lp4596
g55
(g56
g57
NtRp4597
(dp4598
g60
(dp4599
g68
I4
ssg69
g4593
sg62
(lp4600
S'/WSD/static/plugin_layouts/layouts/Interlude/default.css'
p4601
asbasbasbag55
(g71
g57
NtRp4602
(dp4603
g60
(dp4604
sg69
g4533
sg62
(lp4605
g55
(g76
g57
NtRp4606
(dp4607
g60
(dp4608
sg69
g4602
sg62
(lp4609
g55
(g56
g57
NtRp4610
(dp4611
g60
(dp4612
g68
I4
ssg69
g4606
sg62
(lp4613
S'/WSD/static/plugin_layouts/superfish.js'
p4614
asbasbasbasbasbasbasbag55
(g71
g57
NtRp4615
(dp4616
g60
(dp4617
sg69
g4227
sg62
(lp4618
g55
(g76
g57
NtRp4619
(dp4620
g60
(dp4621
g80
g81
ssg69
g4615
sg62
(lp4622
S'flash'
p4623
asbag55
(g76
g57
NtRp4624
(dp4625
g60
(dp4626
g87
g88
ssg69
g4615
sg62
(lp4627
S':'
asbag55
(g76
g57
NtRp4628
(dp4629
g60
(dp4630
sg69
g4615
sg62
(lp4631
g55
(g56
g57
NtRp4632
(dp4633
g60
(dp4634
g68
I5
ssg69
g4628
sg62
(lp4635
S''
asbasbasbag55
(g71
g57
NtRp4636
(dp4637
g60
(dp4638
sg69
g4227
sg62
(lp4639
g55
(g76
g57
NtRp4640
(dp4641
g60
(dp4642
g80
g81
ssg69
g4636
sg62
(lp4643
S'generic_patterns'
p4644
asbag55
(g76
g57
NtRp4645
(dp4646
g60
(dp4647
g87
g88
ssg69
g4636
sg62
(lp4648
S':'
asbag55
(g76
g57
NtRp4649
(dp4650
g60
(dp4651
sg69
g4636
sg62
(lp4652
g55
(g56
g57
NtRp4653
(dp4654
g60
(dp4655
g68
I5
ssg69
g4649
sg62
(lp4656
g55
(g64
g57
NtRp4657
(dp4658
g60
(dp4659
g68
I4
ssg69
Nsg62
(lp4660
g55
(g71
g57
NtRp4661
(dp4662
g60
(dp4663
sg69
g4657
sg62
(lp4664
g55
(g76
g57
NtRp4665
(dp4666
g60
(dp4667
sg69
g4661
sg62
(lp4668
g55
(g56
g57
NtRp4669
(dp4670
g60
(dp4671
g68
I4
ssg69
g4665
sg62
(lp4672
S'*'
asbasbasbasbasbasbasbag55
(g71
g57
NtRp4673
(dp4674
g60
(dp4675
sg69
g4227
sg62
(lp4676
g55
(g76
g57
NtRp4677
(dp4678
g60
(dp4679
g80
g81
ssg69
g4673
sg62
(lp4680
S'google_analytics_id'
p4681
asbag55
(g76
g57
NtRp4682
(dp4683
g60
(dp4684
g87
g88
ssg69
g4673
sg62
(lp4685
S':'
asbag55
(g76
g57
NtRp4686
(dp4687
g60
(dp4688
sg69
g4673
sg62
(lp4689
g55
(g56
g57
NtRp4690
(dp4691
g60
(dp4692
g68
I5
ssg69
g4686
sg62
(lp4693
S'None'
p4694
asbasbasbag55
(g71
g57
NtRp4695
(dp4696
g60
(dp4697
sg69
g4227
sg62
(lp4698
g55
(g76
g57
NtRp4699
(dp4700
g60
(dp4701
g80
g81
ssg69
g4695
sg62
(lp4702
S'headers'
p4703
asbag55
(g76
g57
NtRp4704
(dp4705
g60
(dp4706
g87
g88
ssg69
g4695
sg62
(lp4707
S':'
asbag55
(g76
g57
NtRp4708
(dp4709
g60
(dp4710
sg69
g4695
sg62
(lp4711
g55
(g56
g57
NtRp4712
(dp4713
g60
(dp4714
g68
I5
ssg69
g4708
sg62
(lp4715
g55
(g64
g57
NtRp4716
(dp4717
g60
(dp4718
g68
I4
ssg69
Nsg62
(lp4719
g55
(g71
g57
NtRp4720
(dp4721
g60
(dp4722
sg69
g4716
sg62
(lp4723
g55
(g76
g57
NtRp4724
(dp4725
g60
(dp4726
g80
g81
ssg69
g4720
sg62
(lp4727
S'X-Powered-By'
p4728
asbag55
(g76
g57
NtRp4729
(dp4730
g60
(dp4731
g87
g88
ssg69
g4720
sg62
(lp4732
S':'
asbag55
(g76
g57
NtRp4733
(dp4734
g60
(dp4735
sg69
g4720
sg62
(lp4736
g55
(g56
g57
NtRp4737
(dp4738
g60
(dp4739
g68
I4
ssg69
g4733
sg62
(lp4740
S'web2py'
p4741
asbasbasbasbasbasbasbag55
(g71
g57
NtRp4742
(dp4743
g60
(dp4744
sg69
g4227
sg62
(lp4745
g55
(g76
g57
NtRp4746
(dp4747
g60
(dp4748
g80
g81
ssg69
g4742
sg62
(lp4749
S'menu'
p4750
asbag55
(g76
g57
NtRp4751
(dp4752
g60
(dp4753
g87
g88
ssg69
g4742
sg62
(lp4754
S':'
asbag55
(g76
g57
NtRp4755
(dp4756
g60
(dp4757
sg69
g4742
sg62
(lp4758
g55
(g56
g57
NtRp4759
(dp4760
g60
(dp4761
g68
I5
ssg69
g4755
sg62
(lp4762
g55
(g64
g57
NtRp4763
(dp4764
g60
(dp4765
g68
I4
ssg69
Nsg62
(lp4766
g55
(g71
g57
NtRp4767
(dp4768
g60
(dp4769
sg69
g4763
sg62
(lp4770
g55
(g76
g57
NtRp4771
(dp4772
g60
(dp4773
sg69
g4767
sg62
(lp4774
g55
(g56
g57
NtRp4775
(dp4776
g60
(dp4777
g68
I4
ssg69
g4771
sg62
(lp4778
g55
(g64
g57
NtRp4779
(dp4780
g60
(dp4781
g68
I3
ssg69
Nsg62
(lp4782
g55
(g71
g57
NtRp4783
(dp4784
g60
(dp4785
sg69
g4779
sg62
(lp4786
g55
(g76
g57
NtRp4787
(dp4788
g60
(dp4789
sg69
g4783
sg62
(lp4790
g55
(g56
g57
NtRp4791
(dp4792
g60
(dp4793
g68
I3
ssg69
g4787
sg62
(lp4794
cgluon.languages
lazyT_unpickle
p4795
(S't\x04\x00\x00\x00Home'
tRp4796
asbasbasbag55
(g71
g57
NtRp4797
(dp4798
g60
(dp4799
sg69
g4779
sg62
(lp4800
g55
(g76
g57
NtRp4801
(dp4802
g60
(dp4803
sg69
g4797
sg62
(lp4804
g55
(g56
g57
NtRp4805
(dp4806
g60
(dp4807
g68
I3
ssg69
g4801
sg62
(lp4808
g98
asbasbasbag55
(g71
g57
NtRp4809
(dp4810
g60
(dp4811
sg69
g4779
sg62
(lp4812
g55
(g76
g57
NtRp4813
(dp4814
g60
(dp4815
sg69
g4809
sg62
(lp4816
g55
(g56
g57
NtRp4817
(dp4818
g60
(dp4819
g68
I3
ssg69
g4813
sg62
(lp4820
S'/WSD/default/index'
p4821
asbasbasbag55
(g71
g57
NtRp4822
(dp4823
g60
(dp4824
sg69
g4779
sg62
(lp4825
g55
(g76
g57
NtRp4826
(dp4827
g60
(dp4828
sg69
g4822
sg62
(lp4829
g55
(g56
g57
NtRp4830
(dp4831
g60
(dp4832
g68
I3
ssg69
g4826
sg62
(lp4833
g55
(g64
g57
NtRp4834
(dp4835
g60
(dp4836
g68
I2
ssg69
Nsg62
(lp4837
sbasbasbasbasbasbasbasbag55
(g71
g57
NtRp4838
(dp4839
g60
(dp4840
sg69
g4763
sg62
(lp4841
g55
(g76
g57
NtRp4842
(dp4843
g60
(dp4844
sg69
g4838
sg62
(lp4845
g55
(g56
g57
NtRp4846
(dp4847
g60
(dp4848
g68
I4
ssg69
g4842
sg62
(lp4849
g55
(g64
g57
NtRp4850
(dp4851
g60
(dp4852
g68
I3
ssg69
Nsg62
(lp4853
g55
(g71
g57
NtRp4854
(dp4855
g60
(dp4856
sg69
g4850
sg62
(lp4857
g55
(g76
g57
NtRp4858
(dp4859
g60
(dp4860
sg69
g4854
sg62
(lp4861
g55
(g56
g57
NtRp4862
(dp4863
g60
(dp4864
g68
I3
ssg69
g4858
sg62
(lp4865
g55
(cgluon.html
SPAN
p4866
g57
NtRp4867
(dp4868
g60
(dp4869
g80
S'color:yellow'
p4870
ssg69
g55
(cgluon.html
A
p4871
g57
NtRp4872
(dp4873
g60
(dp4874
S'_onclick'
p4875
S'javascript:void(0);return false;'
p4876
sS'_href'
p4877
S'#'
ssg69
g55
(cgluon.html
LI
p4878
g57
NtRp4879
(dp4880
g60
(dp4881
S'_class'
p4882
S'web2py-menu-expand'
p4883
ssg69
g55
(cgluon.html
UL
p4884
g57
NtRp4885
(dp4886
g60
(dp4887
S'mobile'
p4888
I00
sS'ul_class'
p4889
S'web2py-menu-vertical'
p4890
sS'li_active'
p4891
S'web2py-menu-active'
p4892
sS'li_class'
p4893
g4883
sS'li_first'
p4894
S'web2py-menu-first'
p4895
sg4882
S'web2py-menu'
p4896
sS'li_last'
p4897
S'web2py-menu-last'
p4898
ssg69
Nsg62
(lp4899
g55
(g4878
g57
NtRp4900
(dp4901
g60
(dp4902
g4882
g4895
ssg69
g4885
sg62
(lp4903
g55
(g4871
g57
NtRp4904
(dp4905
g60
(dp4906
g4877
g4821
ssg69
g4900
sg62
(lp4907
g4796
asbasbag4879
asbsg62
(lp4908
g4872
ag55
(g4884
g57
NtRp4909
(dp4910
g60
(dp4911
g4882
g4890
ssg69
g4879
sg62
(lp4912
g55
(g4878
g57
NtRp4913
(dp4914
g60
(dp4915
sg69
g4909
sg62
(lp4916
g55
(g4871
g57
NtRp4917
(dp4918
g60
(dp4919
g4877
S'/admin/default/site'
p4920
ssg69
g4913
sg62
(lp4921
g4795
(S's\x08\x00\x00\x00My Sites'
tRp4922
asbasbag55
(g4878
g57
NtRp4923
(dp4924
g60
(dp4925
g4882
g4883
ssg69
g4909
sg62
(lp4926
g55
(g4871
g57
NtRp4927
(dp4928
g60
(dp4929
g4877
S'/admin/default/design/WSD'
p4930
ssg69
g4923
sg62
(lp4931
g4795
(S's\x08\x00\x00\x00This App'
tRp4932
asbag55
(g4884
g57
NtRp4933
(dp4934
g60
(dp4935
g4882
g4890
ssg69
g4923
sg62
(lp4936
g55
(g4878
g57
NtRp4937
(dp4938
g60
(dp4939
sg69
g4933
sg62
(lp4940
g55
(g4871
g57
NtRp4941
(dp4942
g60
(dp4943
g4877
S'/admin/default/edit/WSD/controllers/default.py'
p4944
ssg69
g4937
sg62
(lp4945
g4795
(S't\n\x00\x00\x00Controller'
tRp4946
asbasbag55
(g4878
g57
NtRp4947
(dp4948
g60
(dp4949
sg69
g4933
sg62
(lp4950
g55
(g4871
g57
NtRp4951
(dp4952
g60
(dp4953
g4877
S'/admin/default/edit/WSD/views/default/rel.html'
p4954
ssg69
g4947
sg62
(lp4955
g4795
(S't\x04\x00\x00\x00View'
tRp4956
asbasbag55
(g4878
g57
NtRp4957
(dp4958
g60
(dp4959
sg69
g4933
sg62
(lp4960
g55
(g4871
g57
NtRp4961
(dp4962
g60
(dp4963
g4877
S'/admin/default/edit/WSD/views/layout.html'
p4964
ssg69
g4957
sg62
(lp4965
g4795
(S't\x06\x00\x00\x00Layout'
tRp4966
asbasbag55
(g4878
g57
NtRp4967
(dp4968
g60
(dp4969
sg69
g4933
sg62
(lp4970
g55
(g4871
g57
NtRp4971
(dp4972
g60
(dp4973
g4877
S'/admin/default/edit/WSD/static/css/web2py.css'
p4974
ssg69
g4967
sg62
(lp4975
g4795
(S't\n\x00\x00\x00Stylesheet'
tRp4976
asbasbag55
(g4878
g57
NtRp4977
(dp4978
g60
(dp4979
sg69
g4933
sg62
(lp4980
g55
(g4871
g57
NtRp4981
(dp4982
g60
(dp4983
g4877
S'/admin/default/edit/WSD/models/db.py'
p4984
ssg69
g4977
sg62
(lp4985
g4795
(S's\x08\x00\x00\x00DB Model'
tRp4986
asbasbag55
(g4878
g57
NtRp4987
(dp4988
g60
(dp4989
sg69
g4933
sg62
(lp4990
g55
(g4871
g57
NtRp4991
(dp4992
g60
(dp4993
g4877
S'/admin/default/edit/WSD/models/menu.py'
p4994
ssg69
g4987
sg62
(lp4995
g4795
(S's\n\x00\x00\x00Menu Model'
tRp4996
asbasbag55
(g4878
g57
NtRp4997
(dp4998
g60
(dp4999
sg69
g4933
sg62
(lp5000
g55
(g4871
g57
NtRp5001
(dp5002
g60
(dp5003
g4877
S'/WSD/appadmin/index'
p5004
ssg69
g4997
sg62
(lp5005
g4795
(S't\x08\x00\x00\x00Database'
tRp5006
asbasbag55
(g4878
g57
NtRp5007
(dp5008
g60
(dp5009
sg69
g4933
sg62
(lp5010
g55
(g4871
g57
NtRp5011
(dp5012
g60
(dp5013
g4877
S'/admin/default/errors/WSD'
p5014
ssg69
g5007
sg62
(lp5015
g4795
(S't\x06\x00\x00\x00Errors'
tRp5016
asbasbag55
(g4878
g57
NtRp5017
(dp5018
g60
(dp5019
sg69
g4933
sg62
(lp5020
g55
(g4871
g57
NtRp5021
(dp5022
g60
(dp5023
g4877
S'/admin/default/about/WSD'
p5024
ssg69
g5017
sg62
(lp5025
g4795
(S't\x05\x00\x00\x00About'
tRp5026
asbasbasbasbag55
(g4878
g57
NtRp5027
(dp5028
g60
(dp5029
g4882
g4883
ssg69
g4909
sg62
(lp5030
g55
(g4871
g57
NtRp5031
(dp5032
g60
(dp5033
g4877
S'http://www.web2py.com'
p5034
ssg69
g5027
sg62
(lp5035
S'web2py.com'
p5036
asbag55
(g4884
g57
NtRp5037
(dp5038
g60
(dp5039
g4882
g4890
ssg69
g5027
sg62
(lp5040
g55
(g4878
g57
NtRp5041
(dp5042
g60
(dp5043
sg69
g5037
sg62
(lp5044
g55
(g4871
g57
NtRp5045
(dp5046
g60
(dp5047
g4877
S'http://www.web2py.com/examples/default/download'
p5048
ssg69
g5041
sg62
(lp5049
g4795
(S't\x08\x00\x00\x00Download'
tRp5050
asbasbag55
(g4878
g57
NtRp5051
(dp5052
g60
(dp5053
sg69
g5037
sg62
(lp5054
g55
(g4871
g57
NtRp5055
(dp5056
g60
(dp5057
g4877
S'http://www.web2py.com/examples/default/support'
p5058
ssg69
g5051
sg62
(lp5059
g4795
(S't\x07\x00\x00\x00Support'
tRp5060
asbasbag55
(g4878
g57
NtRp5061
(dp5062
g60
(dp5063
sg69
g5037
sg62
(lp5064
g55
(g4871
g57
NtRp5065
(dp5066
g60
(dp5067
g4877
S'http://web2py.com/demo_admin'
p5068
ssg69
g5061
sg62
(lp5069
g4795
(S't\x04\x00\x00\x00Demo'
tRp5070
asbasbag55
(g4878
g57
NtRp5071
(dp5072
g60
(dp5073
sg69
g5037
sg62
(lp5074
g55
(g4871
g57
NtRp5075
(dp5076
g60
(dp5077
g4877
S'http://web2py.com/examples/default/examples'
p5078
ssg69
g5071
sg62
(lp5079
g4795
(S's\x0e\x00\x00\x00Quick Examples'
tRp5080
asbasbag55
(g4878
g57
NtRp5081
(dp5082
g60
(dp5083
sg69
g5037
sg62
(lp5084
g55
(g4871
g57
NtRp5085
(dp5086
g60
(dp5087
g4877
S'http://web2py.com/AlterEgo'
p5088
ssg69
g5081
sg62
(lp5089
g4795
(S't\x03\x00\x00\x00FAQ'
tRp5090
asbasbag55
(g4878
g57
NtRp5091
(dp5092
g60
(dp5093
sg69
g5037
sg62
(lp5094
g55
(g4871
g57
NtRp5095
(dp5096
g60
(dp5097
g4877
S'http://www.web2py.com/examples/default/videos/'
p5098
ssg69
g5091
sg62
(lp5099
g4795
(S't\x06\x00\x00\x00Videos'
tRp5100
asbasbag55
(g4878
g57
NtRp5101
(dp5102
g60
(dp5103
sg69
g5037
sg62
(lp5104
g55
(g4871
g57
NtRp5105
(dp5106
g60
(dp5107
g4877
S'http://web2py.com/appliances'
p5108
ssg69
g5101
sg62
(lp5109
g4795
(S's\x11\x00\x00\x00Free Applications'
tRp5110
asbasbag55
(g4878
g57
NtRp5111
(dp5112
g60
(dp5113
sg69
g5037
sg62
(lp5114
g55
(g4871
g57
NtRp5115
(dp5116
g60
(dp5117
g4877
S'http://web2py.com/plugins'
p5118
ssg69
g5111
sg62
(lp5119
g4795
(S't\x07\x00\x00\x00Plugins'
tRp5120
asbasbag55
(g4878
g57
NtRp5121
(dp5122
g60
(dp5123
sg69
g5037
sg62
(lp5124
g55
(g4871
g57
NtRp5125
(dp5126
g60
(dp5127
g4877
S'http://web2py.com/layouts'
p5128
ssg69
g5121
sg62
(lp5129
g4795
(S't\x07\x00\x00\x00Layouts'
tRp5130
asbasbag55
(g4878
g57
NtRp5131
(dp5132
g60
(dp5133
sg69
g5037
sg62
(lp5134
g55
(g4871
g57
NtRp5135
(dp5136
g60
(dp5137
g4877
S'http://web2pyslices.com/'
p5138
ssg69
g5131
sg62
(lp5139
g4795
(S't\x07\x00\x00\x00Recipes'
tRp5140
asbasbag55
(g4878
g57
NtRp5141
(dp5142
g60
(dp5143
sg69
g5037
sg62
(lp5144
g55
(g4871
g57
NtRp5145
(dp5146
g60
(dp5147
g4877
S'http://web2py.com/semantic'
p5148
ssg69
g5141
sg62
(lp5149
g4795
(S't\x08\x00\x00\x00Semantic'
tRp5150
asbasbasbasbag55
(g4878
g57
NtRp5151
(dp5152
g60
(dp5153
g4882
g4883
ssg69
g4909
sg62
(lp5154
g55
(g4871
g57
NtRp5155
(dp5156
g60
(dp5157
g4877
S'http://www.web2py.com/book'
p5158
ssg69
g5151
sg62
(lp5159
g4795
(S't\r\x00\x00\x00Documentation'
tRp5160
asbag55
(g4884
g57
NtRp5161
(dp5162
g60
(dp5163
g4882
g4890
ssg69
g5151
sg62
(lp5164
g55
(g4878
g57
NtRp5165
(dp5166
g60
(dp5167
sg69
g5161
sg62
(lp5168
g55
(g4871
g57
NtRp5169
(dp5170
g60
(dp5171
g4877
S'http://www.web2py.com/book/default/chapter/00'
p5172
ssg69
g5165
sg62
(lp5173
g4795
(S't\x07\x00\x00\x00Preface'
tRp5174
asbasbag55
(g4878
g57
NtRp5175
(dp5176
g60
(dp5177
sg69
g5161
sg62
(lp5178
g55
(g4871
g57
NtRp5179
(dp5180
g60
(dp5181
g4877
S'http://www.web2py.com/book/default/chapter/01'
p5182
ssg69
g5175
sg62
(lp5183
g4795
(S't\x0c\x00\x00\x00Introduction'
tRp5184
asbasbag55
(g4878
g57
NtRp5185
(dp5186
g60
(dp5187
sg69
g5161
sg62
(lp5188
g55
(g4871
g57
NtRp5189
(dp5190
g60
(dp5191
g4877
S'http://www.web2py.com/book/default/chapter/02'
p5192
ssg69
g5185
sg62
(lp5193
g4795
(S't\x06\x00\x00\x00Python'
tRp5194
asbasbag55
(g4878
g57
NtRp5195
(dp5196
g60
(dp5197
sg69
g5161
sg62
(lp5198
g55
(g4871
g57
NtRp5199
(dp5200
g60
(dp5201
g4877
S'http://www.web2py.com/book/default/chapter/03'
p5202
ssg69
g5195
sg62
(lp5203
g4795
(S't\x08\x00\x00\x00Overview'
tRp5204
asbasbag55
(g4878
g57
NtRp5205
(dp5206
g60
(dp5207
sg69
g5161
sg62
(lp5208
g55
(g4871
g57
NtRp5209
(dp5210
g60
(dp5211
g4877
S'http://www.web2py.com/book/default/chapter/04'
p5212
ssg69
g5205
sg62
(lp5213
g4795
(S's\x08\x00\x00\x00The Core'
tRp5214
asbasbag55
(g4878
g57
NtRp5215
(dp5216
g60
(dp5217
sg69
g5161
sg62
(lp5218
g55
(g4871
g57
NtRp5219
(dp5220
g60
(dp5221
g4877
S'http://www.web2py.com/book/default/chapter/05'
p5222
ssg69
g5215
sg62
(lp5223
g4795
(S's\t\x00\x00\x00The Views'
tRp5224
asbasbag55
(g4878
g57
NtRp5225
(dp5226
g60
(dp5227
sg69
g5161
sg62
(lp5228
g55
(g4871
g57
NtRp5229
(dp5230
g60
(dp5231
g4877
S'http://www.web2py.com/book/default/chapter/06'
p5232
ssg69
g5225
sg62
(lp5233
g4795
(S't\x08\x00\x00\x00Database'
tRp5234
asbasbag55
(g4878
g57
NtRp5235
(dp5236
g60
(dp5237
sg69
g5161
sg62
(lp5238
g55
(g4871
g57
NtRp5239
(dp5240
g60
(dp5241
g4877
S'http://www.web2py.com/book/default/chapter/07'
p5242
ssg69
g5235
sg62
(lp5243
g4795
(S's\x14\x00\x00\x00Forms and Validators'
tRp5244
asbasbag55
(g4878
g57
NtRp5245
(dp5246
g60
(dp5247
sg69
g5161
sg62
(lp5248
g55
(g4871
g57
NtRp5249
(dp5250
g60
(dp5251
g4877
S'http://www.web2py.com/book/default/chapter/08'
p5252
ssg69
g5245
sg62
(lp5253
g4795
(S's\r\x00\x00\x00Email and SMS'
tRp5254
asbasbag55
(g4878
g57
NtRp5255
(dp5256
g60
(dp5257
sg69
g5161
sg62
(lp5258
g55
(g4871
g57
NtRp5259
(dp5260
g60
(dp5261
g4877
S'http://www.web2py.com/book/default/chapter/09'
p5262
ssg69
g5255
sg62
(lp5263
g4795
(S's\x0e\x00\x00\x00Access Control'
tRp5264
asbasbag55
(g4878
g57
NtRp5265
(dp5266
g60
(dp5267
sg69
g5161
sg62
(lp5268
g55
(g4871
g57
NtRp5269
(dp5270
g60
(dp5271
g4877
S'http://www.web2py.com/book/default/chapter/10'
p5272
ssg69
g5265
sg62
(lp5273
g4795
(S't\x08\x00\x00\x00Services'
tRp5274
asbasbag55
(g4878
g57
NtRp5275
(dp5276
g60
(dp5277
sg69
g5161
sg62
(lp5278
g55
(g4871
g57
NtRp5279
(dp5280
g60
(dp5281
g4877
S'http://www.web2py.com/book/default/chapter/11'
p5282
ssg69
g5275
sg62
(lp5283
g4795
(S's\x0c\x00\x00\x00Ajax Recipes'
tRp5284
asbasbag55
(g4878
g57
NtRp5285
(dp5286
g60
(dp5287
sg69
g5161
sg62
(lp5288
g55
(g4871
g57
NtRp5289
(dp5290
g60
(dp5291
g4877
S'http://www.web2py.com/book/default/chapter/12'
p5292
ssg69
g5285
sg62
(lp5293
g4795
(S's\x16\x00\x00\x00Components and Plugins'
tRp5294
asbasbag55
(g4878
g57
NtRp5295
(dp5296
g60
(dp5297
sg69
g5161
sg62
(lp5298
g55
(g4871
g57
NtRp5299
(dp5300
g60
(dp5301
g4877
S'http://www.web2py.com/book/default/chapter/13'
p5302
ssg69
g5295
sg62
(lp5303
g4795
(S's\x12\x00\x00\x00Deployment Recipes'
tRp5304
asbasbag55
(g4878
g57
NtRp5305
(dp5306
g60
(dp5307
sg69
g5161
sg62
(lp5308
g55
(g4871
g57
NtRp5309
(dp5310
g60
(dp5311
g4877
S'http://www.web2py.com/book/default/chapter/14'
p5312
ssg69
g5305
sg62
(lp5313
g4795
(S's\r\x00\x00\x00Other Recipes'
tRp5314
asbasbag55
(g4878
g57
NtRp5315
(dp5316
g60
(dp5317
sg69
g5161
sg62
(lp5318
g55
(g4871
g57
NtRp5319
(dp5320
g60
(dp5321
g4877
S'http://stores.lulu.com/web2py'
p5322
ssg69
g5315
sg62
(lp5323
g4795
(S's\r\x00\x00\x00Buy this book'
tRp5324
asbasbasbasbag55
(g4878
g57
NtRp5325
(dp5326
g60
(dp5327
g4882
g4883
ssg69
g4909
sg62
(lp5328
g55
(g4871
g57
NtRp5329
(dp5330
g60
(dp5331
g4875
g4876
sg4877
S'#'
ssg69
g5325
sg62
(lp5332
g4795
(S't\t\x00\x00\x00Community'
tRp5333
asbag55
(g4884
g57
NtRp5334
(dp5335
g60
(dp5336
g4882
g4890
ssg69
g5325
sg62
(lp5337
g55
(g4878
g57
NtRp5338
(dp5339
g60
(dp5340
sg69
g5334
sg62
(lp5341
g55
(g4871
g57
NtRp5342
(dp5343
g60
(dp5344
g4877
S'http://www.web2py.com/examples/default/usergroups'
p5345
ssg69
g5338
sg62
(lp5346
g4795
(S't\x06\x00\x00\x00Groups'
tRp5347
asbasbag55
(g4878
g57
NtRp5348
(dp5349
g60
(dp5350
sg69
g5334
sg62
(lp5351
g55
(g4871
g57
NtRp5352
(dp5353
g60
(dp5354
g4877
S'http://twitter.com/web2py'
p5355
ssg69
g5348
sg62
(lp5356
g4795
(S't\x07\x00\x00\x00Twitter'
tRp5357
asbasbag55
(g4878
g57
NtRp5358
(dp5359
g60
(dp5360
sg69
g5334
sg62
(lp5361
g55
(g4871
g57
NtRp5362
(dp5363
g60
(dp5364
g4877
S'http://webchat.freenode.net/?channels=web2py'
p5365
ssg69
g5358
sg62
(lp5366
g4795
(S's\t\x00\x00\x00Live Chat'
tRp5367
asbasbasbasbag55
(g4878
g57
NtRp5368
(dp5369
g60
(dp5370
g4882
g4883
ssg69
g4909
sg62
(lp5371
g55
(g4871
g57
NtRp5372
(dp5373
g60
(dp5374
g4875
g4876
sg4877
S'#'
ssg69
g5368
sg62
(lp5375
g4795
(S't\x07\x00\x00\x00Plugins'
tRp5376
asbag55
(g4884
g57
NtRp5377
(dp5378
g60
(dp5379
g4882
g4890
ssg69
g5368
sg62
(lp5380
g55
(g4878
g57
NtRp5381
(dp5382
g60
(dp5383
sg69
g5377
sg62
(lp5384
g55
(g4871
g57
NtRp5385
(dp5386
g60
(dp5387
g4877
S'http://web2py.com/examples/default/download'
p5388
ssg69
g5381
sg62
(lp5389
S'plugin_wiki'
p5390
asbasbag55
(g4878
g57
NtRp5391
(dp5392
g60
(dp5393
sg69
g5377
sg62
(lp5394
g55
(g4871
g57
NtRp5395
(dp5396
g60
(dp5397
g4877
g5118
ssg69
g5391
sg62
(lp5398
g4795
(S's\r\x00\x00\x00Other Plugins'
tRp5399
asbasbag55
(g4878
g57
NtRp5400
(dp5401
g60
(dp5402
sg69
g5377
sg62
(lp5403
g55
(g4871
g57
NtRp5404
(dp5405
g60
(dp5406
g4877
g5128
ssg69
g5400
sg62
(lp5407
g4795
(S's\x0e\x00\x00\x00Layout Plugins'
tRp5408
asbasbasbasbasbasbsg62
(lp5409
g4867
asbsg62
(lp5410
g4741
asbasbasbasbag55
(g71
g57
NtRp5411
(dp5412
g60
(dp5413
sg69
g4850
sg62
(lp5414
g55
(g76
g57
NtRp5415
(dp5416
g60
(dp5417
sg69
g5411
sg62
(lp5418
g55
(g56
g57
NtRp5419
(dp5420
g60
(dp5421
g68
I3
ssg69
g5415
sg62
(lp5422
g98
asbasbasbag55
(g71
g57
NtRp5423
(dp5424
g60
(dp5425
sg69
g4850
sg62
(lp5426
g55
(g76
g57
NtRp5427
(dp5428
g60
(dp5429
sg69
g5423
sg62
(lp5430
g55
(g56
g57
NtRp5431
(dp5432
g60
(dp5433
g68
I3
ssg69
g5427
sg62
(lp5434
S'None'
p5435
asbasbasbag55
(g71
g57
NtRp5436
(dp5437
g60
(dp5438
sg69
g4850
sg62
(lp5439
g55
(g76
g57
NtRp5440
(dp5441
g60
(dp5442
sg69
g5436
sg62
(lp5443
g55
(g56
g57
NtRp5444
(dp5445
g60
(dp5446
g68
I3
ssg69
g5440
sg62
(lp5447
g55
(g64
g57
NtRp5448
(dp5449
g60
(dp5450
g68
I2
ssg69
Nsg62
(lp5451
g55
(g71
g57
NtRp5452
(dp5453
g60
(dp5454
sg69
g5448
sg62
(lp5455
g55
(g76
g57
NtRp5456
(dp5457
g60
(dp5458
sg69
g5452
sg62
(lp5459
g55
(g56
g57
NtRp5460
(dp5461
g60
(dp5462
g68
I2
ssg69
g5456
sg62
(lp5463
g55
(g64
g57
NtRp5464
(dp5465
g60
(dp5466
g68
I1
ssg69
Nsg62
(lp5467
g55
(g71
g57
NtRp5468
(dp5469
g60
(dp5470
sg69
g5464
sg62
(lp5471
g55
(g76
g57
NtRp5472
(dp5473
g60
(dp5474
sg69
g5468
sg62
(lp5475
g55
(g56
g57
NtRp5476
(dp5477
g60
(dp5478
g68
I1
ssg69
g5472
sg62
(lp5479
g4922
asbasbasbag55
(g71
g57
NtRp5480
(dp5481
g60
(dp5482
sg69
g5464
sg62
(lp5483
g55
(g76
g57
NtRp5484
(dp5485
g60
(dp5486
sg69
g5480
sg62
(lp5487
g55
(g56
g57
NtRp5488
(dp5489
g60
(dp5490
g68
I1
ssg69
g5484
sg62
(lp5491
I00
asbasbasbag55
(g71
g57
NtRp5492
(dp5493
g60
(dp5494
sg69
g5464
sg62
(lp5495
g55
(g76
g57
NtRp5496
(dp5497
g60
(dp5498
sg69
g5492
sg62
(lp5499
g55
(g56
g57
NtRp5500
(dp5501
g60
(dp5502
g68
I1
ssg69
g5496
sg62
(lp5503
g4920
asbasbasbasbasbasbasbag55
(g71
g57
NtRp5504
(dp5505
g60
(dp5506
sg69
g5448
sg62
(lp5507
g55
(g76
g57
NtRp5508
(dp5509
g60
(dp5510
sg69
g5504
sg62
(lp5511
g55
(g56
g57
NtRp5512
(dp5513
g60
(dp5514
g68
I2
ssg69
g5508
sg62
(lp5515
g55
(g64
g57
NtRp5516
(dp5517
g60
(dp5518
g68
I1
ssg69
Nsg62
(lp5519
g55
(g71
g57
NtRp5520
(dp5521
g60
(dp5522
sg69
g5516
sg62
(lp5523
g55
(g76
g57
NtRp5524
(dp5525
g60
(dp5526
sg69
g5520
sg62
(lp5527
g55
(g56
g57
NtRp5528
(dp5529
g60
(dp5530
g68
I1
ssg69
g5524
sg62
(lp5531
g4932
asbasbasbag55
(g71
g57
NtRp5532
(dp5533
g60
(dp5534
sg69
g5516
sg62
(lp5535
g55
(g76
g57
NtRp5536
(dp5537
g60
(dp5538
sg69
g5532
sg62
(lp5539
g55
(g56
g57
NtRp5540
(dp5541
g60
(dp5542
g68
I1
ssg69
g5536
sg62
(lp5543
I00
asbasbasbag55
(g71
g57
NtRp5544
(dp5545
g60
(dp5546
sg69
g5516
sg62
(lp5547
g55
(g76
g57
NtRp5548
(dp5549
g60
(dp5550
sg69
g5544
sg62
(lp5551
g55
(g56
g57
NtRp5552
(dp5553
g60
(dp5554
g68
I1
ssg69
g5548
sg62
(lp5555
g4930
asbasbasbag55
(g71
g57
NtRp5556
(dp5557
g60
(dp5558
sg69
g5516
sg62
(lp5559
g55
(g76
g57
NtRp5560
(dp5561
g60
(dp5562
sg69
g5556
sg62
(lp5563
g55
(g56
g57
NtRp5564
(dp5565
g60
(dp5566
g68
I1
ssg69
g5560
sg62
(lp5567
(lp5568
(g4946
I00
g4944
tp5569
a(g4956
I00
g4954
tp5570
a(g4966
I00
g4964
tp5571
a(g4976
I00
g4974
tp5572
a(g4986
I00
g4984
tp5573
a(g4996
I00
g4994
tp5574
a(g5006
I00
g5004
tp5575
a(g5016
I00
g5014
tp5576
a(g5026
I00
g5024
tp5577
aasbasbasbasbasbasbasbag55
(g71
g57
NtRp5578
(dp5579
g60
(dp5580
sg69
g5448
sg62
(lp5581
g55
(g76
g57
NtRp5582
(dp5583
g60
(dp5584
sg69
g5578
sg62
(lp5585
g55
(g56
g57
NtRp5586
(dp5587
g60
(dp5588
g68
I2
ssg69
g5582
sg62
(lp5589
g55
(g64
g57
NtRp5590
(dp5591
g60
(dp5592
g68
I1
ssg69
Nsg62
(lp5593
g55
(g71
g57
NtRp5594
(dp5595
g60
(dp5596
sg69
g5590
sg62
(lp5597
g55
(g76
g57
NtRp5598
(dp5599
g60
(dp5600
sg69
g5594
sg62
(lp5601
g55
(g56
g57
NtRp5602
(dp5603
g60
(dp5604
g68
I1
ssg69
g5598
sg62
(lp5605
g5036
asbasbasbag55
(g71
g57
NtRp5606
(dp5607
g60
(dp5608
sg69
g5590
sg62
(lp5609
g55
(g76
g57
NtRp5610
(dp5611
g60
(dp5612
sg69
g5606
sg62
(lp5613
g55
(g56
g57
NtRp5614
(dp5615
g60
(dp5616
g68
I1
ssg69
g5610
sg62
(lp5617
I00
asbasbasbag55
(g71
g57
NtRp5618
(dp5619
g60
(dp5620
sg69
g5590
sg62
(lp5621
g55
(g76
g57
NtRp5622
(dp5623
g60
(dp5624
sg69
g5618
sg62
(lp5625
g55
(g56
g57
NtRp5626
(dp5627
g60
(dp5628
g68
I1
ssg69
g5622
sg62
(lp5629
g5034
asbasbasbag55
(g71
g57
NtRp5630
(dp5631
g60
(dp5632
sg69
g5590
sg62
(lp5633
g55
(g76
g57
NtRp5634
(dp5635
g60
(dp5636
sg69
g5630
sg62
(lp5637
g55
(g56
g57
NtRp5638
(dp5639
g60
(dp5640
g68
I1
ssg69
g5634
sg62
(lp5641
(lp5642
(g5050
I00
g5048
tp5643
a(g5060
I00
g5058
tp5644
a(g5070
I00
g5068
tp5645
a(g5080
I00
g5078
tp5646
a(g5090
I00
g5088
tp5647
a(g5100
I00
g5098
tp5648
a(g5110
I00
g5108
tp5649
a(g5120
I00
g5118
tp5650
a(g5130
I00
g5128
tp5651
a(g5140
I00
g5138
tp5652
a(g5150
I00
g5148
tp5653
aasbasbasbasbasbasbasbag55
(g71
g57
NtRp5654
(dp5655
g60
(dp5656
sg69
g5448
sg62
(lp5657
g55
(g76
g57
NtRp5658
(dp5659
g60
(dp5660
sg69
g5654
sg62
(lp5661
g55
(g56
g57
NtRp5662
(dp5663
g60
(dp5664
g68
I2
ssg69
g5658
sg62
(lp5665
g55
(g64
g57
NtRp5666
(dp5667
g60
(dp5668
g68
I1
ssg69
Nsg62
(lp5669
g55
(g71
g57
NtRp5670
(dp5671
g60
(dp5672
sg69
g5666
sg62
(lp5673
g55
(g76
g57
NtRp5674
(dp5675
g60
(dp5676
sg69
g5670
sg62
(lp5677
g55
(g56
g57
NtRp5678
(dp5679
g60
(dp5680
g68
I1
ssg69
g5674
sg62
(lp5681
g5160
asbasbasbag55
(g71
g57
NtRp5682
(dp5683
g60
(dp5684
sg69
g5666
sg62
(lp5685
g55
(g76
g57
NtRp5686
(dp5687
g60
(dp5688
sg69
g5682
sg62
(lp5689
g55
(g56
g57
NtRp5690
(dp5691
g60
(dp5692
g68
I1
ssg69
g5686
sg62
(lp5693
I00
asbasbasbag55
(g71
g57
NtRp5694
(dp5695
g60
(dp5696
sg69
g5666
sg62
(lp5697
g55
(g76
g57
NtRp5698
(dp5699
g60
(dp5700
sg69
g5694
sg62
(lp5701
g55
(g56
g57
NtRp5702
(dp5703
g60
(dp5704
g68
I1
ssg69
g5698
sg62
(lp5705
g5158
asbasbasbag55
(g71
g57
NtRp5706
(dp5707
g60
(dp5708
sg69
g5666
sg62
(lp5709
g55
(g76
g57
NtRp5710
(dp5711
g60
(dp5712
sg69
g5706
sg62
(lp5713
g55
(g56
g57
NtRp5714
(dp5715
g60
(dp5716
g68
I1
ssg69
g5710
sg62
(lp5717
(lp5718
(g5174
I00
g5172
tp5719
a(g5184
I00
g5182
tp5720
a(g5194
I00
g5192
tp5721
a(g5204
I00
g5202
tp5722
a(g5214
I00
g5212
tp5723
a(g5224
I00
g5222
tp5724
a(g5234
I00
g5232
tp5725
a(g5244
I00
g5242
tp5726
a(g5254
I00
g5252
tp5727
a(g5264
I00
g5262
tp5728
a(g5274
I00
g5272
tp5729
a(g5284
I00
g5282
tp5730
a(g5294
I00
g5292
tp5731
a(g5304
I00
g5302
tp5732
a(g5314
I00
g5312
tp5733
a(g5324
I00
g5322
tp5734
aasbasbasbasbasbasbasbag55
(g71
g57
NtRp5735
(dp5736
g60
(dp5737
sg69
g5448
sg62
(lp5738
g55
(g76
g57
NtRp5739
(dp5740
g60
(dp5741
sg69
g5735
sg62
(lp5742
g55
(g56
g57
NtRp5743
(dp5744
g60
(dp5745
g68
I2
ssg69
g5739
sg62
(lp5746
g55
(g64
g57
NtRp5747
(dp5748
g60
(dp5749
g68
I1
ssg69
Nsg62
(lp5750
g55
(g71
g57
NtRp5751
(dp5752
g60
(dp5753
sg69
g5747
sg62
(lp5754
g55
(g76
g57
NtRp5755
(dp5756
g60
(dp5757
sg69
g5751
sg62
(lp5758
g55
(g56
g57
NtRp5759
(dp5760
g60
(dp5761
g68
I1
ssg69
g5755
sg62
(lp5762
g5333
asbasbasbag55
(g71
g57
NtRp5763
(dp5764
g60
(dp5765
sg69
g5747
sg62
(lp5766
g55
(g76
g57
NtRp5767
(dp5768
g60
(dp5769
sg69
g5763
sg62
(lp5770
g55
(g56
g57
NtRp5771
(dp5772
g60
(dp5773
g68
I1
ssg69
g5767
sg62
(lp5774
I00
asbasbasbag55
(g71
g57
NtRp5775
(dp5776
g60
(dp5777
sg69
g5747
sg62
(lp5778
g55
(g76
g57
NtRp5779
(dp5780
g60
(dp5781
sg69
g5775
sg62
(lp5782
g55
(g56
g57
NtRp5783
(dp5784
g60
(dp5785
g68
I1
ssg69
g5779
sg62
(lp5786
Nasbasbasbag55
(g71
g57
NtRp5787
(dp5788
g60
(dp5789
sg69
g5747
sg62
(lp5790
g55
(g76
g57
NtRp5791
(dp5792
g60
(dp5793
sg69
g5787
sg62
(lp5794
g55
(g56
g57
NtRp5795
(dp5796
g60
(dp5797
g68
I1
ssg69
g5791
sg62
(lp5798
(lp5799
(g5347
I00
g5345
tp5800
a(g5357
I00
g5355
tp5801
a(g5367
I00
g5365
tp5802
aasbasbasbasbasbasbasbag55
(g71
g57
NtRp5803
(dp5804
g60
(dp5805
sg69
g5448
sg62
(lp5806
g55
(g76
g57
NtRp5807
(dp5808
g60
(dp5809
sg69
g5803
sg62
(lp5810
g55
(g56
g57
NtRp5811
(dp5812
g60
(dp5813
g68
I2
ssg69
g5807
sg62
(lp5814
g55
(g64
g57
NtRp5815
(dp5816
g60
(dp5817
g68
I1
ssg69
Nsg62
(lp5818
g55
(g71
g57
NtRp5819
(dp5820
g60
(dp5821
sg69
g5815
sg62
(lp5822
g55
(g76
g57
NtRp5823
(dp5824
g60
(dp5825
sg69
g5819
sg62
(lp5826
g55
(g56
g57
NtRp5827
(dp5828
g60
(dp5829
g68
I1
ssg69
g5823
sg62
(lp5830
g5376
asbasbasbag55
(g71
g57
NtRp5831
(dp5832
g60
(dp5833
sg69
g5815
sg62
(lp5834
g55
(g76
g57
NtRp5835
(dp5836
g60
(dp5837
sg69
g5831
sg62
(lp5838
g55
(g56
g57
NtRp5839
(dp5840
g60
(dp5841
g68
I1
ssg69
g5835
sg62
(lp5842
I00
asbasbasbag55
(g71
g57
NtRp5843
(dp5844
g60
(dp5845
sg69
g5815
sg62
(lp5846
g55
(g76
g57
NtRp5847
(dp5848
g60
(dp5849
sg69
g5843
sg62
(lp5850
g55
(g56
g57
NtRp5851
(dp5852
g60
(dp5853
g68
I1
ssg69
g5847
sg62
(lp5854
Nasbasbasbag55
(g71
g57
NtRp5855
(dp5856
g60
(dp5857
sg69
g5815
sg62
(lp5858
g55
(g76
g57
NtRp5859
(dp5860
g60
(dp5861
sg69
g5855
sg62
(lp5862
g55
(g56
g57
NtRp5863
(dp5864
g60
(dp5865
g68
I1
ssg69
g5859
sg62
(lp5866
(lp5867
(g5390
I00
g5388
tp5868
a(g5399
I00
g5118
tp5869
a(g5408
I00
g5128
tp5870
aasbasbasbasbasbasbasbasbasbasbasbasbasbasbasbasbasbasbasbag55
(g71
g57
NtRp5871
(dp5872
g60
(dp5873
sg69
g4227
sg62
(lp5874
g55
(g76
g57
NtRp5875
(dp5876
g60
(dp5877
g80
g81
ssg69
g5871
sg62
(lp5878
S'meta'
p5879
asbag55
(g76
g57
NtRp5880
(dp5881
g60
(dp5882
g87
g88
ssg69
g5871
sg62
(lp5883
S':'
asbag55
(g76
g57
NtRp5884
(dp5885
g60
(dp5886
sg69
g5871
sg62
(lp5887
g55
(g56
g57
NtRp5888
(dp5889
g60
(dp5890
g68
I5
ssg69
g5884
sg62
(lp5891
g55
(g64
g57
NtRp5892
(dp5893
g60
(dp5894
g68
I4
ssg69
Nsg62
(lp5895
g55
(g71
g57
NtRp5896
(dp5897
g60
(dp5898
sg69
g5892
sg62
(lp5899
g55
(g76
g57
NtRp5900
(dp5901
g60
(dp5902
g80
g81
ssg69
g5896
sg62
(lp5903
S'author'
p5904
asbag55
(g76
g57
NtRp5905
(dp5906
g60
(dp5907
g87
g88
ssg69
g5896
sg62
(lp5908
S':'
asbag55
(g76
g57
NtRp5909
(dp5910
g60
(dp5911
sg69
g5896
sg62
(lp5912
g55
(g56
g57
NtRp5913
(dp5914
g60
(dp5915
g68
I4
ssg69
g5909
sg62
(lp5916
S'Your Name <you@example.com>'
p5917
asbasbasbag55
(g71
g57
NtRp5918
(dp5919
g60
(dp5920
sg69
g5892
sg62
(lp5921
g55
(g76
g57
NtRp5922
(dp5923
g60
(dp5924
g80
g81
ssg69
g5918
sg62
(lp5925
S'copyright'
p5926
asbag55
(g76
g57
NtRp5927
(dp5928
g60
(dp5929
g87
g88
ssg69
g5918
sg62
(lp5930
S':'
asbag55
(g76
g57
NtRp5931
(dp5932
g60
(dp5933
sg69
g5918
sg62
(lp5934
g55
(g56
g57
NtRp5935
(dp5936
g60
(dp5937
g68
I4
ssg69
g5931
sg62
(lp5938
S'Copyright 2011'
p5939
asbasbasbag55
(g71
g57
NtRp5940
(dp5941
g60
(dp5942
sg69
g5892
sg62
(lp5943
g55
(g76
g57
NtRp5944
(dp5945
g60
(dp5946
g80
g81
ssg69
g5940
sg62
(lp5947
S'description'
p5948
asbag55
(g76
g57
NtRp5949
(dp5950
g60
(dp5951
g87
g88
ssg69
g5940
sg62
(lp5952
S':'
asbag55
(g76
g57
NtRp5953
(dp5954
g60
(dp5955
sg69
g5940
sg62
(lp5956
g55
(g56
g57
NtRp5957
(dp5958
g60
(dp5959
g68
I4
ssg69
g5953
sg62
(lp5960
S'a cool new app'
p5961
asbasbasbag55
(g71
g57
NtRp5962
(dp5963
g60
(dp5964
sg69
g5892
sg62
(lp5965
g55
(g76
g57
NtRp5966
(dp5967
g60
(dp5968
g80
g81
ssg69
g5962
sg62
(lp5969
S'generator'
p5970
asbag55
(g76
g57
NtRp5971
(dp5972
g60
(dp5973
g87
g88
ssg69
g5962
sg62
(lp5974
S':'
asbag55
(g76
g57
NtRp5975
(dp5976
g60
(dp5977
sg69
g5962
sg62
(lp5978
g55
(g56
g57
NtRp5979
(dp5980
g60
(dp5981
g68
I4
ssg69
g5975
sg62
(lp5982
S'Web2py Web Framework'
p5983
asbasbasbag55
(g71
g57
NtRp5984
(dp5985
g60
(dp5986
sg69
g5892
sg62
(lp5987
g55
(g76
g57
NtRp5988
(dp5989
g60
(dp5990
g80
g81
ssg69
g5984
sg62
(lp5991
S'keywords'
p5992
asbag55
(g76
g57
NtRp5993
(dp5994
g60
(dp5995
g87
g88
ssg69
g5984
sg62
(lp5996
S':'
asbag55
(g76
g57
NtRp5997
(dp5998
g60
(dp5999
sg69
g5984
sg62
(lp6000
g55
(g56
g57
NtRp6001
(dp6002
g60
(dp6003
g68
I4
ssg69
g5997
sg62
(lp6004
S'web2py, python, framework'
p6005
asbasbasbasbasbasbasbag55
(g71
g57
NtRp6006
(dp6007
g60
(dp6008
sg69
g4227
sg62
(lp6009
g55
(g76
g57
NtRp6010
(dp6011
g60
(dp6012
g80
g81
ssg69
g6006
sg62
(lp6013
S'models_to_run'
p6014
asbag55
(g76
g57
NtRp6015
(dp6016
g60
(dp6017
g87
g88
ssg69
g6006
sg62
(lp6018
S':'
asbag55
(g76
g57
NtRp6019
(dp6020
g60
(dp6021
sg69
g6006
sg62
(lp6022
g55
(g56
g57
NtRp6023
(dp6024
g60
(dp6025
g68
I5
ssg69
g6019
sg62
(lp6026
g55
(g64
g57
NtRp6027
(dp6028
g60
(dp6029
g68
I4
ssg69
Nsg62
(lp6030
g55
(g71
g57
NtRp6031
(dp6032
g60
(dp6033
sg69
g6027
sg62
(lp6034
g55
(g76
g57
NtRp6035
(dp6036
g60
(dp6037
sg69
g6031
sg62
(lp6038
g55
(g56
g57
NtRp6039
(dp6040
g60
(dp6041
g68
I4
ssg69
g6035
sg62
(lp6042
S'^\\w+\\.py$'
p6043
asbasbasbag55
(g71
g57
NtRp6044
(dp6045
g60
(dp6046
sg69
g6027
sg62
(lp6047
g55
(g76
g57
NtRp6048
(dp6049
g60
(dp6050
sg69
g6044
sg62
(lp6051
g55
(g56
g57
NtRp6052
(dp6053
g60
(dp6054
g68
I4
ssg69
g6048
sg62
(lp6055
S'^default/\\w+\\.py$'
p6056
asbasbasbag55
(g71
g57
NtRp6057
(dp6058
g60
(dp6059
sg69
g6027
sg62
(lp6060
g55
(g76
g57
NtRp6061
(dp6062
g60
(dp6063
sg69
g6057
sg62
(lp6064
g55
(g56
g57
NtRp6065
(dp6066
g60
(dp6067
g68
I4
ssg69
g6061
sg62
(lp6068
S'^default/rel/\\w+\\.py$'
p6069
asbasbasbasbasbasbasbag55
(g71
g57
NtRp6070
(dp6071
g60
(dp6072
sg69
g4227
sg62
(lp6073
g55
(g76
g57
NtRp6074
(dp6075
g60
(dp6076
g80
g81
ssg69
g6070
sg62
(lp6077
S'postprocessing'
p6078
asbag55
(g76
g57
NtRp6079
(dp6080
g60
(dp6081
g87
g88
ssg69
g6070
sg62
(lp6082
S':'
asbag55
(g76
g57
NtRp6083
(dp6084
g60
(dp6085
sg69
g6070
sg62
(lp6086
g55
(g56
g57
NtRp6087
(dp6088
g60
(dp6089
g68
I5
ssg69
g6083
sg62
(lp6090
g55
(g64
g57
NtRp6091
(dp6092
g60
(dp6093
g68
I4
ssg69
Nsg62
(lp6094
sbasbasbasbag55
(g71
g57
NtRp6095
(dp6096
g60
(dp6097
sg69
g4227
sg62
(lp6098
g55
(g76
g57
NtRp6099
(dp6100
g60
(dp6101
g80
g81
ssg69
g6095
sg62
(lp6102
S'session_cookie_expires'
p6103
asbag55
(g76
g57
NtRp6104
(dp6105
g60
(dp6106
g87
g88
ssg69
g6095
sg62
(lp6107
S':'
asbag55
(g76
g57
NtRp6108
(dp6109
g60
(dp6110
sg69
g6095
sg62
(lp6111
g55
(g56
g57
NtRp6112
(dp6113
g60
(dp6114
g68
I5
ssg69
g6108
sg62
(lp6115
S'None'
p6116
asbasbasbag55
(g71
g57
NtRp6117
(dp6118
g60
(dp6119
sg69
g4227
sg62
(lp6120
g55
(g76
g57
NtRp6121
(dp6122
g60
(dp6123
g80
g81
ssg69
g6117
sg62
(lp6124
S'session_data_name'
p6125
asbag55
(g76
g57
NtRp6126
(dp6127
g60
(dp6128
g87
g88
ssg69
g6117
sg62
(lp6129
S':'
asbag55
(g76
g57
NtRp6130
(dp6131
g60
(dp6132
sg69
g6117
sg62
(lp6133
g55
(g56
g57
NtRp6134
(dp6135
g60
(dp6136
g68
I5
ssg69
g6130
sg62
(lp6137
S'session_data_wsd'
p6138
asbasbasbag55
(g71
g57
NtRp6139
(dp6140
g60
(dp6141
sg69
g4227
sg62
(lp6142
g55
(g76
g57
NtRp6143
(dp6144
g60
(dp6145
g80
g81
ssg69
g6139
sg62
(lp6146
S'session_filename'
p6147
asbag55
(g76
g57
NtRp6148
(dp6149
g60
(dp6150
g87
g88
ssg69
g6139
sg62
(lp6151
S':'
asbag55
(g76
g57
NtRp6152
(dp6153
g60
(dp6154
sg69
g6139
sg62
(lp6155
g55
(g56
g57
NtRp6156
(dp6157
g60
(dp6158
g68
I5
ssg69
g6152
sg62
(lp6159
S'/home/nazrul/web2py/applications/WSD/sessions/127.0.0.1-6a7c3401-059b-4dac-aafc-9a0a37e89b81'
p6160
asbasbasbag55
(g71
g57
NtRp6161
(dp6162
g60
(dp6163
sg69
g4227
sg62
(lp6164
g55
(g76
g57
NtRp6165
(dp6166
g60
(dp6167
g80
g81
ssg69
g6161
sg62
(lp6168
S'session_id'
p6169
asbag55
(g76
g57
NtRp6170
(dp6171
g60
(dp6172
g87
g88
ssg69
g6161
sg62
(lp6173
S':'
asbag55
(g76
g57
NtRp6174
(dp6175
g60
(dp6176
sg69
g6161
sg62
(lp6177
g55
(g56
g57
NtRp6178
(dp6179
g60
(dp6180
g68
I5
ssg69
g6174
sg62
(lp6181
g845
asbasbasbag55
(g71
g57
NtRp6182
(dp6183
g60
(dp6184
sg69
g4227
sg62
(lp6185
g55
(g76
g57
NtRp6186
(dp6187
g60
(dp6188
g80
g81
ssg69
g6182
sg62
(lp6189
S'session_id_name'
p6190
asbag55
(g76
g57
NtRp6191
(dp6192
g60
(dp6193
g87
g88
ssg69
g6182
sg62
(lp6194
S':'
asbag55
(g76
g57
NtRp6195
(dp6196
g60
(dp6197
sg69
g6182
sg62
(lp6198
g55
(g56
g57
NtRp6199
(dp6200
g60
(dp6201
g68
I5
ssg69
g6195
sg62
(lp6202
g4284
asbasbasbag55
(g71
g57
NtRp6203
(dp6204
g60
(dp6205
sg69
g4227
sg62
(lp6206
g55
(g76
g57
NtRp6207
(dp6208
g60
(dp6209
g80
g81
ssg69
g6203
sg62
(lp6210
S'session_locked'
p6211
asbag55
(g76
g57
NtRp6212
(dp6213
g60
(dp6214
g87
g88
ssg69
g6203
sg62
(lp6215
S':'
asbag55
(g76
g57
NtRp6216
(dp6217
g60
(dp6218
sg69
g6203
sg62
(lp6219
g55
(g56
g57
NtRp6220
(dp6221
g60
(dp6222
g68
I5
ssg69
g6216
sg62
(lp6223
g98
asbasbasbag55
(g71
g57
NtRp6224
(dp6225
g60
(dp6226
sg69
g4227
sg62
(lp6227
g55
(g76
g57
NtRp6228
(dp6229
g60
(dp6230
g80
g81
ssg69
g6224
sg62
(lp6231
S'session_new'
p6232
asbag55
(g76
g57
NtRp6233
(dp6234
g60
(dp6235
g87
g88
ssg69
g6224
sg62
(lp6236
S':'
asbag55
(g76
g57
NtRp6237
(dp6238
g60
(dp6239
sg69
g6224
sg62
(lp6240
g55
(g56
g57
NtRp6241
(dp6242
g60
(dp6243
g68
I5
ssg69
g6237
sg62
(lp6244
g98
asbasbasbag55
(g71
g57
NtRp6245
(dp6246
g60
(dp6247
sg69
g4227
sg62
(lp6248
g55
(g76
g57
NtRp6249
(dp6250
g60
(dp6251
g80
g81
ssg69
g6245
sg62
(lp6252
S'session_storage_type'
p6253
asbag55
(g76
g57
NtRp6254
(dp6255
g60
(dp6256
g87
g88
ssg69
g6245
sg62
(lp6257
S':'
asbag55
(g76
g57
NtRp6258
(dp6259
g60
(dp6260
sg69
g6245
sg62
(lp6261
g55
(g56
g57
NtRp6262
(dp6263
g60
(dp6264
g68
I5
ssg69
g6258
sg62
(lp6265
g3527
asbasbasbag55
(g71
g57
NtRp6266
(dp6267
g60
(dp6268
sg69
g4227
sg62
(lp6269
g55
(g76
g57
NtRp6270
(dp6271
g60
(dp6272
g80
g81
ssg69
g6266
sg62
(lp6273
S'status'
p6274
asbag55
(g76
g57
NtRp6275
(dp6276
g60
(dp6277
g87
g88
ssg69
g6266
sg62
(lp6278
S':'
asbag55
(g76
g57
NtRp6279
(dp6280
g60
(dp6281
sg69
g6266
sg62
(lp6282
g55
(g56
g57
NtRp6283
(dp6284
g60
(dp6285
g68
I5
ssg69
g6279
sg62
(lp6286
S'200'
p6287
asbasbasbag55
(g71
g57
NtRp6288
(dp6289
g60
(dp6290
sg69
g4227
sg62
(lp6291
g55
(g76
g57
NtRp6292
(dp6293
g60
(dp6294
g80
g81
ssg69
g6288
sg62
(lp6295
S'subtitle'
p6296
asbag55
(g76
g57
NtRp6297
(dp6298
g60
(dp6299
g87
g88
ssg69
g6288
sg62
(lp6300
S':'
asbag55
(g76
g57
NtRp6301
(dp6302
g60
(dp6303
sg69
g6288
sg62
(lp6304
g55
(g56
g57
NtRp6305
(dp6306
g60
(dp6307
g68
I5
ssg69
g6301
sg62
(lp6308
g4795
(S's\r\x00\x00\x00customize me!'
tRp6309
asbasbasbag55
(g71
g57
NtRp6310
(dp6311
g60
(dp6312
sg69
g4227
sg62
(lp6313
g55
(g76
g57
NtRp6314
(dp6315
g60
(dp6316
g80
g81
ssg69
g6310
sg62
(lp6317
S'title'
p6318
asbag55
(g76
g57
NtRp6319
(dp6320
g60
(dp6321
g87
g88
ssg69
g6310
sg62
(lp6322
S':'
asbag55
(g76
g57
NtRp6323
(dp6324
g60
(dp6325
sg69
g6310
sg62
(lp6326
g55
(g56
g57
NtRp6327
(dp6328
g60
(dp6329
g68
I5
ssg69
g6323
sg62
(lp6330
S'Wsd'
p6331
asbasbasbag55
(g71
g57
NtRp6332
(dp6333
g60
(dp6334
sg69
g4227
sg62
(lp6335
g55
(g76
g57
NtRp6336
(dp6337
g60
(dp6338
g80
g81
ssg69
g6332
sg62
(lp6339
S'view'
p6340
asbag55
(g76
g57
NtRp6341
(dp6342
g60
(dp6343
g87
g88
ssg69
g6332
sg62
(lp6344
S':'
asbag55
(g76
g57
NtRp6345
(dp6346
g60
(dp6347
sg69
g6332
sg62
(lp6348
g55
(g56
g57
NtRp6349
(dp6350
g60
(dp6351
g68
I5
ssg69
g6345
sg62
(lp6352
S'default/rel.html'
p6353
asbasbasbasbasbsS'locals'
p6354
(dp6355
S'self'
p6356
S"<bound method type.widget of <class 'gluon.sqlhtml.RadioWidget'>>"
p6357
sS'base'
p6358
S"<type 'instancemethod'>"
p6359
sS'proto'
p6360
S'0'
sssS'traceback'
p6361
S'Traceback (most recent call last):\n  File "/home/nazrul/web2py/gluon/main.py", line 576, in wsgibase\n    session._try_store_in_cookie_or_file(request, response)\n  File "/home/nazrul/web2py/gluon/globals.py", line 749, in _try_store_in_cookie_or_file\n    self._try_store_in_file(request, response)\n  File "/home/nazrul/web2py/gluon/globals.py", line 755, in _try_store_in_file\n    if not response.session_id or self._forget or self._unchanged():\n  File "/home/nazrul/web2py/gluon/globals.py", line 711, in _unchanged\n    session_pickled = cPickle.dumps(dict(self))\n  File "/usr/lib/python2.7/copy_reg.py", line 70, in _reduce_ex\n    raise TypeError, "can\'t pickle %s objects" % base.__name__\nTypeError: can\'t pickle instancemethod objects\n'
p6362
s.