(dp1
S'output'
p2
S"<type 'exceptions.AttributeError'> 'Set' object has no attribute 'insert'"
p3
sS'layer'
p4
S'/home/nazrul/web2py/applications/WSD/controllers/default.py'
p5
sS'code'
p6
S'# -*- coding: utf-8 -*-\n# this file is released under public domain and you can use without limitations\n\n#########################################################################\n## This is a samples controller\n## - index is the default action of any application\n## - user is required for authentication and authorization\n## - download is for downloading files uploaded in the db (does streaming)word_select?check=1\n## - call exposes all registered services (none by default)\n#########################################################################\nimport os,subprocess\ndef index():\n    redirect(URL(\'home\'))\n    """\n    example action using the internationalization operator T and flash\n    rendered by views/default/index.html or views/generic.html\n    """\n    response.flash = "Welcome to web2py!"\n    return dict(message=T(\'Hello World\'))\n\ndef user():\n    """\n    exposes:\n    http://..../[app]/default/user/login\n    http://..../[app]/default/user/logout\n    http://..../[app]/default/user/register\n    http://..../[app]/default/user/profile\n    http://..../[app]/default/user/retrieve_password\n    http://..../[app]/default/user/change_password\n    use @auth.requires_login()\n        @auth.requires_membership(\'group name\')\n        @auth.requires_permission(\'read\',\'table name\',record_id)\n    to decorate functions that need access control\n    """\n    return dict(form=auth())\n\n\ndef download():\n    """\n    allows downloading of uploaded files\n    http://..../[app]/default/download/[filename]\n    """\n    return response.download(request,db)\n\n\ndef call():\n    """\n    exposes services. for example:\n    http://..../[app]/default/call/jsonrpc\n    decorate with @services.jsonrpc the functions to expose\n    supports xml, json, xmlrpc, jsonrpc, amfrpc, rss, csv\n    """\n    return service()\n\n\n@auth.requires_signature()\ndef data():\n    """\n    http://..../[app]/default/data/tables\n    http://..../[app]/default/data/create/[table]\n    http://..../[app]/default/data/read/[table]/[id]\n    http://..../[app]/default/data/update/[table]/[id]\n    http://..../[app]/default/data/delete/[table]/[id]\n    http://..../[app]/default/data/select/[table]\n    http://..../[app]/default/data/search/[table]\n    but URLs must be signed, i.e. linked with\n      A(\'table\',_href=URL(\'data/tables\',user_signature=True))\n    or with the signed load operator\n      LOAD(\'default\',\'data.load\',args=\'tables\',ajax=True,user_signature=True)\n    """\n    return dict(form=crud())\n\n\n\n\n@auth.requires_login()\ndef home():\n    t = auth.user.id\n    h = db(db.rules.userid==t).select()\n    g = []\n    for i in h:\n        g.append(db(db.words.id==i.wid).select(db.words.word))\n    h=[]\n    for i in g:\n        for j in i:\n            h.append(j.word) \n    h=list(set(h))\n    return dict(t=t,h=h)\n\n@auth.requires_login()\ndef word_select():\n    if not request.vars.check:\n        redirect(\'home\')\n    else:\n        check=0\n    if request.vars.submit:\n        session.level = request.vars.level\n        w = request.vars.word\n        t = db(db.words).select()\n        for i in t:\n            if i.word==w:\n                session.word = w\n                session.ide = i.id\n                break\n        redirect(\'sentence_select\')\n    return dict()\n\n\n@auth.requires_login()\ndef changelevel():\n    if request.vars.submit:\n        if request.vars.new_email:\n            db(db.user_level).insert(email=request.vars.new_email,level=request.vars.level)\n        else:\n            db(db.user_level.email==request.vars.emailq).update(level=request.vars.level)\n        redirect(\'home\')\n    return dict()\n\n\n@auth.requires_login()\ndef word_selectc():\n    if not request.vars.check:\n        redirect(\'home\')\n    else:\n        check=0\n    if request.vars.submit:\n        session.level = request.vars.level\n        w = request.vars.word\n        t = db(db.words).select()\n        for i in t:\n            if i.word==w:\n                session.word = w\n                session.ide = i.id\n                break\n        redirect(URL(\'sentence_selectc\',vars=dict(second=request.vars.second)))\n    return dict()\n    \n#@auth.requires_login()\n#def reason():\n#    t=session.senid\n#    pre=db((db.rules.wid==session.ide)&(db.rules.sid==session.sid)).select()\n#    c=0\n#    for i in pre:\n#        c+=1\n#    if request.vars.hindit:\n#        db.rules.insert(name=session.word+str(c),userid=auth.user.id,wid=session.ide,sid=session.sid,translation=hindit)\n#        redirect(URL(\'rel\'))\n#    return dict()\n    \n    \n@auth.requires_login()\ndef sentence_select():\n    print \'*\'\n    f = \'\'\n    x = 0\n    if request.vars.submit and (request.vars.hindit):\n        t = request.vars.sentence\n        r = db(db.sentences.esentence==t).select(db.sentences.id)\n        for i in r:\n          session.sid=i.id\n          break\n        pre=db((db.rules.wid==session.ide)&(db.rules.userid==auth.user.id)).select()\n        c=0\n        f=0\n        for i in pre:\n            c+=1\n            if str(session.sid)==i.sid:\n                f=1\n                break\n        if f==0:\n            db.rules.insert(name=session.word+str(c),userid=auth.user.id,wid=session.ide,sid=session.sid,translation=request.vars.hindit)\n            session.f=0\n        redirect(URL(\'typ\'))\n    return dict(w=session.word,d=session.ide,f=f,level_set=session.level)\n\n\n@auth.requires_login()\ndef sentence_selectc():\n    print \'*\'\n    f = \'\'\n    x = 0\n    if request.vars.submit:\n        t = request.vars.sentence\n        r = db(db.sentences.esentence==t).select(db.sentences.id)\n        for i in r:\n          hindit=i.id\n          session.sid=i.id\n          break\n        redirect(URL(\'reasonc\',vars=dict(hindit=hindit)))\n    return dict(w=session.word,d=session.ide,f=f,level_set=session.level)\n\n\n@auth.requires_login()\ndef reasonc():\n    t=session.sid\n    r = db(db.sentences.id==t).select(db.sentences.hsentence)\n    if request.vars.advanced or request.vars.novice:\n        pre=db((db.rules.wid==session.ide)&(db.rules.userid==auth.user.id)).select()\n        c=0\n        f=0\n        for i in pre:\n            c+=1\n            if i.sid==str(session.sid):\n                f=1\n                break\n        if f==0:\n            db.rules.insert(name=session.word+str(c),userid=auth.user.id,wid=session.ide,sid=session.sid)\n        session.f=0\n\tif request.vars.advanced:\n\t  redirect(URL(\'typ\'))\n\telse:\n\t  redirect(URL(\'novi\'))\n    return dict(r=r)\n\n@auth.requires_login()\ndef novi():\n  t=session.sid\n  r=db(db.sentences.id==t).select(db.sentences.esentence)\n  r=r[0].esentence\n  l=r.split()\n  w=session.word\n  return dict(l=l,w=w)\n@auth.requires_login()\ndef novi_insert():\n    print request.vars.property,request.vars.word\n    a=db((db.novice.userid==auth.user.id)&(db.novice.wid==session.ide)&(db.novice.sid==session.sid)&(db.novice.word==request.vars.word)).select()\n    if a:\n        if request.vars.property==\'1\':\n            print \'haha\'\n            db((db.novice.userid==auth.user.id)&(db.novice.wid==session.ide)&(db.novice.sid==session.sid)&(db.novice.word==request.vars.word)).update(relation=1,property=0,both=0)\n        elif request.vars.property==\'2\':\n            db((db.novice.userid==auth.user.id)&(db.novice.wid==session.ide)&(db.novice.sid==session.sid)&(db.novice.word==request.vars.word)).update(relation=0,property=1,both=0)\n        elif request.vars.property==\'3\':   \n            db((db.novice.userid==auth.user.id)&(db.novice.wid==session.ide)&(db.novice.sid==session.sid)&(db.novice.word==request.vars.word)).update(relation=0,property=0,both=1)                     \n    else:\n        if request.vars.property==\'1\':\n            db.novice.insert(userid=auth.user.id,sid=session.sid,wid=session.ide,word=request.vars.word,relation=1,property=0,both=0)\n        elif request.vars.property==\'2\':\n            db.novice.insert(userid=auth.user.id,sid=session.sid,wid=session.ide,word=request.vars.word,relation=0,property=1,both=0)\n        elif request.vars.property==\'3\':\n            db.novice.insert(userid=auth.user.id,sid=session.sid,wid=session.ide,word=request.vars.word,relation=0,property=0,both=1)\n    return None\n@auth.requires_login()\ndef delaccount():\n    if request.vars.submit:\n        db(db.auth_user.email==request.vars.email).delete()\n        redirect("home")\n    return dict()\n\n@auth.requires_login()\ndef addword():\n    if request.vars.submit:\n       db.words.insert(word=request.vars.word)\n       word=request.vars.word\n       db.sentences.insert(level=request.vars.level,esentence=request.vars.esentence,hsentence=request.vars.hsentence)\n       w = db(db.words.word==request.vars.word).select(db.words.id)\n       s = db(db.sentences.esentence==request.vars.esentence).select(db.sentences.id)\n       #s=db(db.sentences.id==session.sid).select(db.sentences.esentence)\n       #s=s[0].esentence\n       sen=request.vars.esentence\n       print sen,word\n       f=open(\'sample\',\'w\')\n       st="\\n<TITLE> test. </TITLE>\\n<p>\\n" + sen + "\\n</p>\\n"\n       f.write(st)\n       f.close()\n       os.system("/bin/bash Anusaaraka_stanford.sh sample 0 True")\n       f=open(os.environ[\'HOME_anu_tmp\']+\'/tmp/sample_tmp/2.1/word.dat\',\'r\')\n       for line in f:\n           ind=line.rfind(\' \'+word)\n           print word+\'*\'+line\n           print "index"+str(ind)\n           if ind != -1 :\n               print \'*\'\n               anu_id=line[ind-2]\n               break\n       f.close() \n       print "anu_id= " + anu_id\n       f=open(os.environ[\'HOME_anu_tmp\']+\'/tmp/sample_tmp/2.1/cat_consistency_check.dat\',\'r\')\n       for line in f:\n           ind=line.find(\'id-cat_coarse \'+anu_id)\n           if ind != -1 :\n               line=line[::-1]\n               end=line.find(\' \')\n               psp=line[2:end][::-1]\n               break\n       f.close()\n       for i in w:\n           for j in s:\n               db.links.insert(wid=i.id,sid=j.id,typ=psp)\n               break\n           break\n       f=open(os.environ[\'HOME_anu_tmp\']+\'/tmp/sample_tmp/2.1/word.dat\',\'r\')\n       d={}\n       for i in f:\n           i=i.strip()\n           if i.find(\'id-word\')!=-1:\n               d[i[9]]=i[12:-1]\n       f.close()\n       f=open(os.environ[\'HOME_anu_tmp\']+\'/tmp/sample_tmp/2.1/relations.dat\',\'r\')\n       l,l1,l2=[],[],[]\n       for i in f:\n           i=i.strip()\n           if i[-4]==str(anu_id):\n               l1.append(i[:-4].strip()+\')\'+\' \'+\' \'+str(anu_id)+\',\'+\'\\"\'+str(word)+\'\\"\'+\' \'+i[-2]+\',\'+\'\\"\'+d[i[-2]]+\'\\"\')\n           elif i[-2]==str(anu_id):\n               l2.append(i[:-4].strip()+\')\'+\' \'+\' \'+i[-2]+\',\'+\'\\"\'+d[i[-4]]+\'\\"\'+\' \'+str(anu_id)+\',\'+\'\\"\'+str(word)+\'\\"\')\n       l=l1+l2\n       f.close()\n       for r in l:\n           db.rel_all.insert(wid=w[0].id,sid=s[0].id,relation=r)\n       session.flash="Word Added"\n       redirect(\'home\')\n    return dict()\n\n@auth.requires_login()\ndef delword():\n    if request.vars.submit:\n        g = db(db.words.word==request.vars.word).select(db.words.id)\n        for i in g:\n            db(db.words.id==i.id).delete()\n            db(db.rules.wid==i.id).delete()\n            y = db(db.links.wid==i.id).select(db.links.sid)\n            db(db.links.wid==i.id).delete()\n            for j in y:\n                db(db.sentences.id==j.sid).delete()\n                break\n            break\n            session.flash="Word Deleted "\n        redirect(\'home\')\n    return dict()\n\ndef typ():\n  psp=db((db.links.sid==session.sid)&(db.links.wid==session.ide)).select(db.links.typ)\n  psp=psp[0].typ\n  session.psp=psp\n  if request.vars.submit and request.vars.typ:\n    db((db.rules.userid==auth.user.id)&(db.rules.wid==session.ide)&(db.rules.sid==session.sid)).update(typ=psp)\n    if request.vars.typ==\'yes\':\n      redirect(URL(\'index\'))\n    else:\n      redirect(URL(\'rel\'))\n  return dict(psp=psp) \n\ndef rel():\n    s=db((db.rel_all.wid==session.ide)&(db.rel_all.sid==session.sid)).select(db.rel_all.relation)\n    l=[]\n    for i in s:\n        l+=[i.relation]\n    fields=[]   \n    fields.append(Field(\'Relations\',widget=SQLFORM.widgets.multiple.widget,requires=IS_IN_SET(l,multiple=True)))\n    if session.psp!=\'adverb\':\n        fields.append(Field(\'ans\',label=\'Is the relation sufficient for forming the rule ?\',widget=SQLFORM.widgets.radio.widget,requires=IS_IN_SET([\'yes\',\'no\'])))\n    form=SQLFORM.factory(*fields)\n    if form.accepts(request.vars,session):\n        for i in form.vars.Relations:\n            print "i="+str(i)\n            db.rel_rule.insert(wid=session.ide,sid=session.sid,relation=i)\n        if session.psp==\'adverb\':\n            redirect(\'index\')\n        elif form.vars.ans==\'yes\':\n            redirect(\'index\')\n        else :\n            redirect(URL(\'nature_\'+str(session.psp)))\n    return dict(form=form)\n\ndef nature_noun():\n    form=SQLFORM.factory(\n        Field(\'Nature\',requires=IS_IN_SET([\'Animate\',\'Inanimate\',\'Human\',\'Place\',\'Time\']),label=\'Semantic Property\'))\n    if form.accepts(request.vars,session):\n        db((db.rules.userid==auth.user.id)&(db.rules.wid==session.ide)&(db.rules.sid==session.sid)).update(property=form.vars.Nature)\n        redirect(URL(\'index\'))\n    return dict(form=form)\n\ndef nature_verb():\n    form=SQLFORM.factory(\n        Field(\'Nature\',requires=IS_IN_SET([\'transitive\',\'intransitive\'])))\n    if form.accepts(request.vars,session):\n        db((db.rules.userid==auth.user.id)&(db.rules.wid==session.ide)&(db.rules.sid==session.sid)).update(property=form.vars.Nature)\n        redirect(URL(\'index\'))\n    return dict(form=form)\n\ndef nature_adjective():\n    form=SQLFORM.factory(\n        Field(\'Nature\',requires=IS_IN_SET([\'Animate\',\'Inanimate\',\'Human\',\'Place\',\'Time\']),label=\'Semantic Property of noun whom it modifies\'))\n    if form.accepts(request.vars,session):\n        db((db.rules.userid==auth.user.id)&(db.rules.wid==session.ide)&(db.rules.sid==session.sid)).update(property=form.vars.Nature)\n        redirect(URL(\'index\'))\n    return dict(form=form)\ndef testt():\n    v=db(db.auth_user).select()\n    return dict(v=v)\ndef sel_novice():\n    a=db(db.novice.userid==db.auth_user.id).select(db.auth_user.email,db.auth_user.id)\n    l,d=[],{}\n    for i in a:\n        l+=[i.email]\n        d[i.email]=i.id\n    l=list(set(l))\n    form=SQLFORM.factory(Field(\'user\',requires=IS_IN_SET(l)))\n    if form.accepts(request.vars,session):\n            redirect(URL(\'disp_novice\',vars=dict(uid=d[form.vars.user])))\n    return dict(form=form)\ndef disp_novice():\n    u=request.vars.uid\n    email=db(db.auth_user.id==u).select(db.auth_user.email)\n    email=email[0].email\n    l=db(db.novice.userid==u).select()\n    return dict(l=l,email=email)\ndef sel_adv():\n    a=db(db.rules.userid==db.auth_user.id).select(db.auth_user.email,db.auth_user.id)\n    l,d=[],{}\n    for i in a:\n        l+=[i.email]\n        d[i.email]=i.id\n    l=list(set(l))\n    form=SQLFORM.factory(Field(\'user\',requires=IS_IN_SET(l)))\n    if form.accepts(request.vars,session):\n            redirect(URL(\'disp_adv\',vars=dict(uid=d[form.vars.user])))\n    return dict(form=form)\ndef disp_adv():\n    u=request.vars.uid\n    email=db(db.auth_user.id==u).select(db.auth_user.email)\n    email=email[0].email\n    l=db(db.rules.userid==u).select()\n    return dict(l=l,email=email)\n\nresponse._vars=response._caller(changelevel)\n'
p7
sS'snapshot'
p8
(dp9
S'exception'
p10
(dp11
S'__hash__'
p12
S"<method-wrapper '__hash__' of exceptions.AttributeError object>"
p13
sS'__setattr__'
p14
S"<method-wrapper '__setattr__' of exceptions.AttributeError object>"
p15
sS'__reduce_ex__'
p16
S'<built-in method __reduce_ex__ of exceptions.AttributeError object>'
p17
sS'__getslice__'
p18
S"<method-wrapper '__getslice__' of exceptions.AttributeError object>"
p19
sS'__getitem__'
p20
S"<method-wrapper '__getitem__' of exceptions.AttributeError object>"
p21
sS'__setstate__'
p22
S'<built-in method __setstate__ of exceptions.AttributeError object>'
p23
sS'__reduce__'
p24
S'<built-in method __reduce__ of exceptions.AttributeError object>'
p25
sS'__str__'
p26
S"<method-wrapper '__str__' of exceptions.AttributeError object>"
p27
sS'__format__'
p28
S'<built-in method __format__ of exceptions.AttributeError object>'
p29
sS'__getattribute__'
p30
S"<method-wrapper '__getattribute__' of exceptions.AttributeError object>"
p31
sS'__class__'
p32
S"<type 'exceptions.AttributeError'>"
p33
sS'__unicode__'
p34
S'<built-in method __unicode__ of exceptions.AttributeError object>'
p35
sS'__delattr__'
p36
S"<method-wrapper '__delattr__' of exceptions.AttributeError object>"
p37
sS'__subclasshook__'
p38
S'<built-in method __subclasshook__ of type object>'
p39
sS'__repr__'
p40
S"<method-wrapper '__repr__' of exceptions.AttributeError object>"
p41
sS'args'
p42
S'("\'Set\' object has no attribute \'insert\'",)'
p43
sS'__dict__'
p44
S'{}'
p45
sS'__sizeof__'
p46
S'<built-in method __sizeof__ of exceptions.AttributeError object>'
p47
sS'__doc__'
p48
S"'Attribute not found.'"
p49
sS'__init__'
p50
S"<method-wrapper '__init__' of exceptions.AttributeError object>"
p51
sS'__new__'
p52
S'<built-in method __new__ of type object>'
p53
ssS'evalue'
p54
S"'Set' object has no attribute 'insert'"
p55
sS'request'
p56
ccopy_reg
_reconstructor
p57
(cgluon.html
BEAUTIFY
p58
c__builtin__
object
p59
NtRp60
(dp61
S'attributes'
p62
(dp63
sS'components'
p64
(lp65
g57
(cgluon.html
TABLE
p66
g59
NtRp67
(dp68
g62
(dp69
S'level'
p70
I5
ssS'parent'
p71
Nsg64
(lp72
g57
(cgluon.html
TR
p73
g59
NtRp74
(dp75
g62
(dp76
sg71
g67
sg64
(lp77
g57
(cgluon.html
TD
p78
g59
NtRp79
(dp80
g62
(dp81
S'_style'
p82
S'font-weight:bold;vertical-align:top'
p83
ssg71
g74
sg64
(lp84
S'ajax'
p85
asbag57
(g78
g59
NtRp86
(dp87
g62
(dp88
S'_valign'
p89
S'top'
p90
ssg71
g74
sg64
(lp91
S':'
asbag57
(g78
g59
NtRp92
(dp93
g62
(dp94
sg71
g74
sg64
(lp95
g57
(g58
g59
NtRp96
(dp97
g62
(dp98
g70
I5
ssg71
g92
sg64
(lp99
S'False'
p100
asbasbasbag57
(g73
g59
NtRp101
(dp102
g62
(dp103
sg71
g67
sg64
(lp104
g57
(g78
g59
NtRp105
(dp106
g62
(dp107
g82
g83
ssg71
g101
sg64
(lp108
S'application'
p109
asbag57
(g78
g59
NtRp110
(dp111
g62
(dp112
g89
g90
ssg71
g101
sg64
(lp113
S':'
asbag57
(g78
g59
NtRp114
(dp115
g62
(dp116
sg71
g101
sg64
(lp117
g57
(g58
g59
NtRp118
(dp119
g62
(dp120
g70
I5
ssg71
g114
sg64
(lp121
S'WSD'
p122
asbasbasbag57
(g73
g59
NtRp123
(dp124
g62
(dp125
sg71
g67
sg64
(lp126
g57
(g78
g59
NtRp127
(dp128
g62
(dp129
g82
g83
ssg71
g123
sg64
(lp130
g42
asbag57
(g78
g59
NtRp131
(dp132
g62
(dp133
g89
g90
ssg71
g123
sg64
(lp134
S':'
asbag57
(g78
g59
NtRp135
(dp136
g62
(dp137
sg71
g123
sg64
(lp138
g57
(g58
g59
NtRp139
(dp140
g62
(dp141
g70
I5
ssg71
g135
sg64
(lp142
g57
(g66
g59
NtRp143
(dp144
g62
(dp145
g70
I4
ssg71
Nsg64
(lp146
sbasbasbasbag57
(g73
g59
NtRp147
(dp148
g62
(dp149
sg71
g67
sg64
(lp150
g57
(g78
g59
NtRp151
(dp152
g62
(dp153
g82
g83
ssg71
g147
sg64
(lp154
S'body'
p155
asbag57
(g78
g59
NtRp156
(dp157
g62
(dp158
g89
g90
ssg71
g147
sg64
(lp159
S':'
asbag57
(g78
g59
NtRp160
(dp161
g62
(dp162
sg71
g147
sg64
(lp163
g57
(g58
g59
NtRp164
(dp165
g62
(dp166
g70
I5
ssg71
g160
sg64
(lp167
S"<open file '<fdopen>', mode 'w+b' at 0xad817338>"
p168
asbasbasbag57
(g73
g59
NtRp169
(dp170
g62
(dp171
sg71
g67
sg64
(lp172
g57
(g78
g59
NtRp173
(dp174
g62
(dp175
g82
g83
ssg71
g169
sg64
(lp176
S'cid'
p177
asbag57
(g78
g59
NtRp178
(dp179
g62
(dp180
g89
g90
ssg71
g169
sg64
(lp181
S':'
asbag57
(g78
g59
NtRp182
(dp183
g62
(dp184
sg71
g169
sg64
(lp185
g57
(g58
g59
NtRp186
(dp187
g62
(dp188
g70
I5
ssg71
g182
sg64
(lp189
S'None'
p190
asbasbasbag57
(g73
g59
NtRp191
(dp192
g62
(dp193
sg71
g67
sg64
(lp194
g57
(g78
g59
NtRp195
(dp196
g62
(dp197
g82
g83
ssg71
g191
sg64
(lp198
S'client'
p199
asbag57
(g78
g59
NtRp200
(dp201
g62
(dp202
g89
g90
ssg71
g191
sg64
(lp203
S':'
asbag57
(g78
g59
NtRp204
(dp205
g62
(dp206
sg71
g191
sg64
(lp207
g57
(g58
g59
NtRp208
(dp209
g62
(dp210
g70
I5
ssg71
g204
sg64
(lp211
S'127.0.0.1'
p212
asbasbasbag57
(g73
g59
NtRp213
(dp214
g62
(dp215
sg71
g67
sg64
(lp216
g57
(g78
g59
NtRp217
(dp218
g62
(dp219
g82
g83
ssg71
g213
sg64
(lp220
S'controller'
p221
asbag57
(g78
g59
NtRp222
(dp223
g62
(dp224
g89
g90
ssg71
g213
sg64
(lp225
S':'
asbag57
(g78
g59
NtRp226
(dp227
g62
(dp228
sg71
g213
sg64
(lp229
g57
(g58
g59
NtRp230
(dp231
g62
(dp232
g70
I5
ssg71
g226
sg64
(lp233
S'default'
p234
asbasbasbag57
(g73
g59
NtRp235
(dp236
g62
(dp237
sg71
g67
sg64
(lp238
g57
(g78
g59
NtRp239
(dp240
g62
(dp241
g82
g83
ssg71
g235
sg64
(lp242
S'cookies'
p243
asbag57
(g78
g59
NtRp244
(dp245
g62
(dp246
g89
g90
ssg71
g235
sg64
(lp247
S':'
asbag57
(g78
g59
NtRp248
(dp249
g62
(dp250
sg71
g235
sg64
(lp251
g57
(g58
g59
NtRp252
(dp253
g62
(dp254
g70
I5
ssg71
g248
sg64
(lp255
g57
(g66
g59
NtRp256
(dp257
g62
(dp258
g70
I4
ssg71
Nsg64
(lp259
g57
(g73
g59
NtRp260
(dp261
g62
(dp262
sg71
g256
sg64
(lp263
g57
(g78
g59
NtRp264
(dp265
g62
(dp266
g82
g83
ssg71
g260
sg64
(lp267
S'KBD'
p268
asbag57
(g78
g59
NtRp269
(dp270
g62
(dp271
g89
g90
ssg71
g260
sg64
(lp272
S':'
asbag57
(g78
g59
NtRp273
(dp274
g62
(dp275
sg71
g260
sg64
(lp276
g57
(g58
g59
NtRp277
(dp278
g62
(dp279
g70
I4
ssg71
g273
sg64
(lp280
S'0hi-0'
p281
ag57
(g66
g59
NtRp282
(dp283
g62
(dp284
g70
I3
ssg71
Nsg64
(lp285
g57
(g73
g59
NtRp286
(dp287
g62
(dp288
sg71
g282
sg64
(lp289
g57
(g78
g59
NtRp290
(dp291
g62
(dp292
g82
g83
ssg71
g286
sg64
(lp293
S'comment'
p294
asbag57
(g78
g59
NtRp295
(dp296
g62
(dp297
g89
g90
ssg71
g286
sg64
(lp298
S':'
asbag57
(g78
g59
NtRp299
(dp300
g62
(dp301
sg71
g286
sg64
(lp302
g57
(g58
g59
NtRp303
(dp304
g62
(dp305
g70
I3
ssg71
g299
sg64
(lp306
S''
asbasbasbag57
(g73
g59
NtRp307
(dp308
g62
(dp309
sg71
g282
sg64
(lp310
g57
(g78
g59
NtRp311
(dp312
g62
(dp313
g82
g83
ssg71
g307
sg64
(lp314
S'domain'
p315
asbag57
(g78
g59
NtRp316
(dp317
g62
(dp318
g89
g90
ssg71
g307
sg64
(lp319
S':'
asbag57
(g78
g59
NtRp320
(dp321
g62
(dp322
sg71
g307
sg64
(lp323
g57
(g58
g59
NtRp324
(dp325
g62
(dp326
g70
I3
ssg71
g320
sg64
(lp327
S''
asbasbasbag57
(g73
g59
NtRp328
(dp329
g62
(dp330
sg71
g282
sg64
(lp331
g57
(g78
g59
NtRp332
(dp333
g62
(dp334
g82
g83
ssg71
g328
sg64
(lp335
S'expires'
p336
asbag57
(g78
g59
NtRp337
(dp338
g62
(dp339
g89
g90
ssg71
g328
sg64
(lp340
S':'
asbag57
(g78
g59
NtRp341
(dp342
g62
(dp343
sg71
g328
sg64
(lp344
g57
(g58
g59
NtRp345
(dp346
g62
(dp347
g70
I3
ssg71
g341
sg64
(lp348
S''
asbasbasbag57
(g73
g59
NtRp349
(dp350
g62
(dp351
sg71
g282
sg64
(lp352
g57
(g78
g59
NtRp353
(dp354
g62
(dp355
g82
g83
ssg71
g349
sg64
(lp356
S'httponly'
p357
asbag57
(g78
g59
NtRp358
(dp359
g62
(dp360
g89
g90
ssg71
g349
sg64
(lp361
S':'
asbag57
(g78
g59
NtRp362
(dp363
g62
(dp364
sg71
g349
sg64
(lp365
g57
(g58
g59
NtRp366
(dp367
g62
(dp368
g70
I3
ssg71
g362
sg64
(lp369
S''
asbasbasbag57
(g73
g59
NtRp370
(dp371
g62
(dp372
sg71
g282
sg64
(lp373
g57
(g78
g59
NtRp374
(dp375
g62
(dp376
g82
g83
ssg71
g370
sg64
(lp377
S'max-age'
p378
asbag57
(g78
g59
NtRp379
(dp380
g62
(dp381
g89
g90
ssg71
g370
sg64
(lp382
S':'
asbag57
(g78
g59
NtRp383
(dp384
g62
(dp385
sg71
g370
sg64
(lp386
g57
(g58
g59
NtRp387
(dp388
g62
(dp389
g70
I3
ssg71
g383
sg64
(lp390
S''
asbasbasbag57
(g73
g59
NtRp391
(dp392
g62
(dp393
sg71
g282
sg64
(lp394
g57
(g78
g59
NtRp395
(dp396
g62
(dp397
g82
g83
ssg71
g391
sg64
(lp398
S'path'
p399
asbag57
(g78
g59
NtRp400
(dp401
g62
(dp402
g89
g90
ssg71
g391
sg64
(lp403
S':'
asbag57
(g78
g59
NtRp404
(dp405
g62
(dp406
sg71
g391
sg64
(lp407
g57
(g58
g59
NtRp408
(dp409
g62
(dp410
g70
I3
ssg71
g404
sg64
(lp411
S''
asbasbasbag57
(g73
g59
NtRp412
(dp413
g62
(dp414
sg71
g282
sg64
(lp415
g57
(g78
g59
NtRp416
(dp417
g62
(dp418
g82
g83
ssg71
g412
sg64
(lp419
S'secure'
p420
asbag57
(g78
g59
NtRp421
(dp422
g62
(dp423
g89
g90
ssg71
g412
sg64
(lp424
S':'
asbag57
(g78
g59
NtRp425
(dp426
g62
(dp427
sg71
g412
sg64
(lp428
g57
(g58
g59
NtRp429
(dp430
g62
(dp431
g70
I3
ssg71
g425
sg64
(lp432
S''
asbasbasbag57
(g73
g59
NtRp433
(dp434
g62
(dp435
sg71
g282
sg64
(lp436
g57
(g78
g59
NtRp437
(dp438
g62
(dp439
g82
g83
ssg71
g433
sg64
(lp440
S'version'
p441
asbag57
(g78
g59
NtRp442
(dp443
g62
(dp444
g89
g90
ssg71
g433
sg64
(lp445
S':'
asbag57
(g78
g59
NtRp446
(dp447
g62
(dp448
sg71
g433
sg64
(lp449
g57
(g58
g59
NtRp450
(dp451
g62
(dp452
g70
I3
ssg71
g446
sg64
(lp453
S''
asbasbasbasbasbasbasbag57
(g73
g59
NtRp454
(dp455
g62
(dp456
sg71
g256
sg64
(lp457
g57
(g78
g59
NtRp458
(dp459
g62
(dp460
g82
g83
ssg71
g454
sg64
(lp461
S'session_id_admin'
p462
asbag57
(g78
g59
NtRp463
(dp464
g62
(dp465
g89
g90
ssg71
g454
sg64
(lp466
S':'
asbag57
(g78
g59
NtRp467
(dp468
g62
(dp469
sg71
g454
sg64
(lp470
g57
(g58
g59
NtRp471
(dp472
g62
(dp473
g70
I4
ssg71
g467
sg64
(lp474
S'127.0.0.1-76a862a2-9a71-40a1-95b6-27d29da4fe5d'
p475
ag57
(g66
g59
NtRp476
(dp477
g62
(dp478
g70
I3
ssg71
Nsg64
(lp479
g57
(g73
g59
NtRp480
(dp481
g62
(dp482
sg71
g476
sg64
(lp483
g57
(g78
g59
NtRp484
(dp485
g62
(dp486
g82
g83
ssg71
g480
sg64
(lp487
g294
asbag57
(g78
g59
NtRp488
(dp489
g62
(dp490
g89
g90
ssg71
g480
sg64
(lp491
S':'
asbag57
(g78
g59
NtRp492
(dp493
g62
(dp494
sg71
g480
sg64
(lp495
g57
(g58
g59
NtRp496
(dp497
g62
(dp498
g70
I3
ssg71
g492
sg64
(lp499
S''
asbasbasbag57
(g73
g59
NtRp500
(dp501
g62
(dp502
sg71
g476
sg64
(lp503
g57
(g78
g59
NtRp504
(dp505
g62
(dp506
g82
g83
ssg71
g500
sg64
(lp507
g315
asbag57
(g78
g59
NtRp508
(dp509
g62
(dp510
g89
g90
ssg71
g500
sg64
(lp511
S':'
asbag57
(g78
g59
NtRp512
(dp513
g62
(dp514
sg71
g500
sg64
(lp515
g57
(g58
g59
NtRp516
(dp517
g62
(dp518
g70
I3
ssg71
g512
sg64
(lp519
S''
asbasbasbag57
(g73
g59
NtRp520
(dp521
g62
(dp522
sg71
g476
sg64
(lp523
g57
(g78
g59
NtRp524
(dp525
g62
(dp526
g82
g83
ssg71
g520
sg64
(lp527
g336
asbag57
(g78
g59
NtRp528
(dp529
g62
(dp530
g89
g90
ssg71
g520
sg64
(lp531
S':'
asbag57
(g78
g59
NtRp532
(dp533
g62
(dp534
sg71
g520
sg64
(lp535
g57
(g58
g59
NtRp536
(dp537
g62
(dp538
g70
I3
ssg71
g532
sg64
(lp539
S''
asbasbasbag57
(g73
g59
NtRp540
(dp541
g62
(dp542
sg71
g476
sg64
(lp543
g57
(g78
g59
NtRp544
(dp545
g62
(dp546
g82
g83
ssg71
g540
sg64
(lp547
g357
asbag57
(g78
g59
NtRp548
(dp549
g62
(dp550
g89
g90
ssg71
g540
sg64
(lp551
S':'
asbag57
(g78
g59
NtRp552
(dp553
g62
(dp554
sg71
g540
sg64
(lp555
g57
(g58
g59
NtRp556
(dp557
g62
(dp558
g70
I3
ssg71
g552
sg64
(lp559
S''
asbasbasbag57
(g73
g59
NtRp560
(dp561
g62
(dp562
sg71
g476
sg64
(lp563
g57
(g78
g59
NtRp564
(dp565
g62
(dp566
g82
g83
ssg71
g560
sg64
(lp567
g378
asbag57
(g78
g59
NtRp568
(dp569
g62
(dp570
g89
g90
ssg71
g560
sg64
(lp571
S':'
asbag57
(g78
g59
NtRp572
(dp573
g62
(dp574
sg71
g560
sg64
(lp575
g57
(g58
g59
NtRp576
(dp577
g62
(dp578
g70
I3
ssg71
g572
sg64
(lp579
S''
asbasbasbag57
(g73
g59
NtRp580
(dp581
g62
(dp582
sg71
g476
sg64
(lp583
g57
(g78
g59
NtRp584
(dp585
g62
(dp586
g82
g83
ssg71
g580
sg64
(lp587
g399
asbag57
(g78
g59
NtRp588
(dp589
g62
(dp590
g89
g90
ssg71
g580
sg64
(lp591
S':'
asbag57
(g78
g59
NtRp592
(dp593
g62
(dp594
sg71
g580
sg64
(lp595
g57
(g58
g59
NtRp596
(dp597
g62
(dp598
g70
I3
ssg71
g592
sg64
(lp599
S''
asbasbasbag57
(g73
g59
NtRp600
(dp601
g62
(dp602
sg71
g476
sg64
(lp603
g57
(g78
g59
NtRp604
(dp605
g62
(dp606
g82
g83
ssg71
g600
sg64
(lp607
g420
asbag57
(g78
g59
NtRp608
(dp609
g62
(dp610
g89
g90
ssg71
g600
sg64
(lp611
S':'
asbag57
(g78
g59
NtRp612
(dp613
g62
(dp614
sg71
g600
sg64
(lp615
g57
(g58
g59
NtRp616
(dp617
g62
(dp618
g70
I3
ssg71
g612
sg64
(lp619
S''
asbasbasbag57
(g73
g59
NtRp620
(dp621
g62
(dp622
sg71
g476
sg64
(lp623
g57
(g78
g59
NtRp624
(dp625
g62
(dp626
g82
g83
ssg71
g620
sg64
(lp627
g441
asbag57
(g78
g59
NtRp628
(dp629
g62
(dp630
g89
g90
ssg71
g620
sg64
(lp631
S':'
asbag57
(g78
g59
NtRp632
(dp633
g62
(dp634
sg71
g620
sg64
(lp635
g57
(g58
g59
NtRp636
(dp637
g62
(dp638
g70
I3
ssg71
g632
sg64
(lp639
S''
asbasbasbasbasbasbasbag57
(g73
g59
NtRp640
(dp641
g62
(dp642
sg71
g256
sg64
(lp643
g57
(g78
g59
NtRp644
(dp645
g62
(dp646
g82
g83
ssg71
g640
sg64
(lp647
S'session_id_news'
p648
asbag57
(g78
g59
NtRp649
(dp650
g62
(dp651
g89
g90
ssg71
g640
sg64
(lp652
S':'
asbag57
(g78
g59
NtRp653
(dp654
g62
(dp655
sg71
g640
sg64
(lp656
g57
(g58
g59
NtRp657
(dp658
g62
(dp659
g70
I4
ssg71
g653
sg64
(lp660
S'127.0.0.1-4eea093e-3431-4797-bd7a-1e49bcb534a8'
p661
ag57
(g66
g59
NtRp662
(dp663
g62
(dp664
g70
I3
ssg71
Nsg64
(lp665
g57
(g73
g59
NtRp666
(dp667
g62
(dp668
sg71
g662
sg64
(lp669
g57
(g78
g59
NtRp670
(dp671
g62
(dp672
g82
g83
ssg71
g666
sg64
(lp673
g294
asbag57
(g78
g59
NtRp674
(dp675
g62
(dp676
g89
g90
ssg71
g666
sg64
(lp677
S':'
asbag57
(g78
g59
NtRp678
(dp679
g62
(dp680
sg71
g666
sg64
(lp681
g57
(g58
g59
NtRp682
(dp683
g62
(dp684
g70
I3
ssg71
g678
sg64
(lp685
S''
asbasbasbag57
(g73
g59
NtRp686
(dp687
g62
(dp688
sg71
g662
sg64
(lp689
g57
(g78
g59
NtRp690
(dp691
g62
(dp692
g82
g83
ssg71
g686
sg64
(lp693
g315
asbag57
(g78
g59
NtRp694
(dp695
g62
(dp696
g89
g90
ssg71
g686
sg64
(lp697
S':'
asbag57
(g78
g59
NtRp698
(dp699
g62
(dp700
sg71
g686
sg64
(lp701
g57
(g58
g59
NtRp702
(dp703
g62
(dp704
g70
I3
ssg71
g698
sg64
(lp705
S''
asbasbasbag57
(g73
g59
NtRp706
(dp707
g62
(dp708
sg71
g662
sg64
(lp709
g57
(g78
g59
NtRp710
(dp711
g62
(dp712
g82
g83
ssg71
g706
sg64
(lp713
g336
asbag57
(g78
g59
NtRp714
(dp715
g62
(dp716
g89
g90
ssg71
g706
sg64
(lp717
S':'
asbag57
(g78
g59
NtRp718
(dp719
g62
(dp720
sg71
g706
sg64
(lp721
g57
(g58
g59
NtRp722
(dp723
g62
(dp724
g70
I3
ssg71
g718
sg64
(lp725
S''
asbasbasbag57
(g73
g59
NtRp726
(dp727
g62
(dp728
sg71
g662
sg64
(lp729
g57
(g78
g59
NtRp730
(dp731
g62
(dp732
g82
g83
ssg71
g726
sg64
(lp733
g357
asbag57
(g78
g59
NtRp734
(dp735
g62
(dp736
g89
g90
ssg71
g726
sg64
(lp737
S':'
asbag57
(g78
g59
NtRp738
(dp739
g62
(dp740
sg71
g726
sg64
(lp741
g57
(g58
g59
NtRp742
(dp743
g62
(dp744
g70
I3
ssg71
g738
sg64
(lp745
S''
asbasbasbag57
(g73
g59
NtRp746
(dp747
g62
(dp748
sg71
g662
sg64
(lp749
g57
(g78
g59
NtRp750
(dp751
g62
(dp752
g82
g83
ssg71
g746
sg64
(lp753
g378
asbag57
(g78
g59
NtRp754
(dp755
g62
(dp756
g89
g90
ssg71
g746
sg64
(lp757
S':'
asbag57
(g78
g59
NtRp758
(dp759
g62
(dp760
sg71
g746
sg64
(lp761
g57
(g58
g59
NtRp762
(dp763
g62
(dp764
g70
I3
ssg71
g758
sg64
(lp765
S''
asbasbasbag57
(g73
g59
NtRp766
(dp767
g62
(dp768
sg71
g662
sg64
(lp769
g57
(g78
g59
NtRp770
(dp771
g62
(dp772
g82
g83
ssg71
g766
sg64
(lp773
g399
asbag57
(g78
g59
NtRp774
(dp775
g62
(dp776
g89
g90
ssg71
g766
sg64
(lp777
S':'
asbag57
(g78
g59
NtRp778
(dp779
g62
(dp780
sg71
g766
sg64
(lp781
g57
(g58
g59
NtRp782
(dp783
g62
(dp784
g70
I3
ssg71
g778
sg64
(lp785
S''
asbasbasbag57
(g73
g59
NtRp786
(dp787
g62
(dp788
sg71
g662
sg64
(lp789
g57
(g78
g59
NtRp790
(dp791
g62
(dp792
g82
g83
ssg71
g786
sg64
(lp793
g420
asbag57
(g78
g59
NtRp794
(dp795
g62
(dp796
g89
g90
ssg71
g786
sg64
(lp797
S':'
asbag57
(g78
g59
NtRp798
(dp799
g62
(dp800
sg71
g786
sg64
(lp801
g57
(g58
g59
NtRp802
(dp803
g62
(dp804
g70
I3
ssg71
g798
sg64
(lp805
S''
asbasbasbag57
(g73
g59
NtRp806
(dp807
g62
(dp808
sg71
g662
sg64
(lp809
g57
(g78
g59
NtRp810
(dp811
g62
(dp812
g82
g83
ssg71
g806
sg64
(lp813
g441
asbag57
(g78
g59
NtRp814
(dp815
g62
(dp816
g89
g90
ssg71
g806
sg64
(lp817
S':'
asbag57
(g78
g59
NtRp818
(dp819
g62
(dp820
sg71
g806
sg64
(lp821
g57
(g58
g59
NtRp822
(dp823
g62
(dp824
g70
I3
ssg71
g818
sg64
(lp825
S''
asbasbasbasbasbasbasbag57
(g73
g59
NtRp826
(dp827
g62
(dp828
sg71
g256
sg64
(lp829
g57
(g78
g59
NtRp830
(dp831
g62
(dp832
g82
g83
ssg71
g826
sg64
(lp833
S'session_id_welcome'
p834
asbag57
(g78
g59
NtRp835
(dp836
g62
(dp837
g89
g90
ssg71
g826
sg64
(lp838
S':'
asbag57
(g78
g59
NtRp839
(dp840
g62
(dp841
sg71
g826
sg64
(lp842
g57
(g58
g59
NtRp843
(dp844
g62
(dp845
g70
I4
ssg71
g839
sg64
(lp846
S'127.0.0.1-4ab9dacb-7270-459d-aef4-f28bb3d059e1'
p847
ag57
(g66
g59
NtRp848
(dp849
g62
(dp850
g70
I3
ssg71
Nsg64
(lp851
g57
(g73
g59
NtRp852
(dp853
g62
(dp854
sg71
g848
sg64
(lp855
g57
(g78
g59
NtRp856
(dp857
g62
(dp858
g82
g83
ssg71
g852
sg64
(lp859
g294
asbag57
(g78
g59
NtRp860
(dp861
g62
(dp862
g89
g90
ssg71
g852
sg64
(lp863
S':'
asbag57
(g78
g59
NtRp864
(dp865
g62
(dp866
sg71
g852
sg64
(lp867
g57
(g58
g59
NtRp868
(dp869
g62
(dp870
g70
I3
ssg71
g864
sg64
(lp871
S''
asbasbasbag57
(g73
g59
NtRp872
(dp873
g62
(dp874
sg71
g848
sg64
(lp875
g57
(g78
g59
NtRp876
(dp877
g62
(dp878
g82
g83
ssg71
g872
sg64
(lp879
g315
asbag57
(g78
g59
NtRp880
(dp881
g62
(dp882
g89
g90
ssg71
g872
sg64
(lp883
S':'
asbag57
(g78
g59
NtRp884
(dp885
g62
(dp886
sg71
g872
sg64
(lp887
g57
(g58
g59
NtRp888
(dp889
g62
(dp890
g70
I3
ssg71
g884
sg64
(lp891
S''
asbasbasbag57
(g73
g59
NtRp892
(dp893
g62
(dp894
sg71
g848
sg64
(lp895
g57
(g78
g59
NtRp896
(dp897
g62
(dp898
g82
g83
ssg71
g892
sg64
(lp899
g336
asbag57
(g78
g59
NtRp900
(dp901
g62
(dp902
g89
g90
ssg71
g892
sg64
(lp903
S':'
asbag57
(g78
g59
NtRp904
(dp905
g62
(dp906
sg71
g892
sg64
(lp907
g57
(g58
g59
NtRp908
(dp909
g62
(dp910
g70
I3
ssg71
g904
sg64
(lp911
S''
asbasbasbag57
(g73
g59
NtRp912
(dp913
g62
(dp914
sg71
g848
sg64
(lp915
g57
(g78
g59
NtRp916
(dp917
g62
(dp918
g82
g83
ssg71
g912
sg64
(lp919
g357
asbag57
(g78
g59
NtRp920
(dp921
g62
(dp922
g89
g90
ssg71
g912
sg64
(lp923
S':'
asbag57
(g78
g59
NtRp924
(dp925
g62
(dp926
sg71
g912
sg64
(lp927
g57
(g58
g59
NtRp928
(dp929
g62
(dp930
g70
I3
ssg71
g924
sg64
(lp931
S''
asbasbasbag57
(g73
g59
NtRp932
(dp933
g62
(dp934
sg71
g848
sg64
(lp935
g57
(g78
g59
NtRp936
(dp937
g62
(dp938
g82
g83
ssg71
g932
sg64
(lp939
g378
asbag57
(g78
g59
NtRp940
(dp941
g62
(dp942
g89
g90
ssg71
g932
sg64
(lp943
S':'
asbag57
(g78
g59
NtRp944
(dp945
g62
(dp946
sg71
g932
sg64
(lp947
g57
(g58
g59
NtRp948
(dp949
g62
(dp950
g70
I3
ssg71
g944
sg64
(lp951
S''
asbasbasbag57
(g73
g59
NtRp952
(dp953
g62
(dp954
sg71
g848
sg64
(lp955
g57
(g78
g59
NtRp956
(dp957
g62
(dp958
g82
g83
ssg71
g952
sg64
(lp959
g399
asbag57
(g78
g59
NtRp960
(dp961
g62
(dp962
g89
g90
ssg71
g952
sg64
(lp963
S':'
asbag57
(g78
g59
NtRp964
(dp965
g62
(dp966
sg71
g952
sg64
(lp967
g57
(g58
g59
NtRp968
(dp969
g62
(dp970
g70
I3
ssg71
g964
sg64
(lp971
S''
asbasbasbag57
(g73
g59
NtRp972
(dp973
g62
(dp974
sg71
g848
sg64
(lp975
g57
(g78
g59
NtRp976
(dp977
g62
(dp978
g82
g83
ssg71
g972
sg64
(lp979
g420
asbag57
(g78
g59
NtRp980
(dp981
g62
(dp982
g89
g90
ssg71
g972
sg64
(lp983
S':'
asbag57
(g78
g59
NtRp984
(dp985
g62
(dp986
sg71
g972
sg64
(lp987
g57
(g58
g59
NtRp988
(dp989
g62
(dp990
g70
I3
ssg71
g984
sg64
(lp991
S''
asbasbasbag57
(g73
g59
NtRp992
(dp993
g62
(dp994
sg71
g848
sg64
(lp995
g57
(g78
g59
NtRp996
(dp997
g62
(dp998
g82
g83
ssg71
g992
sg64
(lp999
g441
asbag57
(g78
g59
NtRp1000
(dp1001
g62
(dp1002
g89
g90
ssg71
g992
sg64
(lp1003
S':'
asbag57
(g78
g59
NtRp1004
(dp1005
g62
(dp1006
sg71
g992
sg64
(lp1007
g57
(g58
g59
NtRp1008
(dp1009
g62
(dp1010
g70
I3
ssg71
g1004
sg64
(lp1011
S''
asbasbasbasbasbasbasbag57
(g73
g59
NtRp1012
(dp1013
g62
(dp1014
sg71
g256
sg64
(lp1015
g57
(g78
g59
NtRp1016
(dp1017
g62
(dp1018
g82
g83
ssg71
g1012
sg64
(lp1019
S'session_id_wsd'
p1020
asbag57
(g78
g59
NtRp1021
(dp1022
g62
(dp1023
g89
g90
ssg71
g1012
sg64
(lp1024
S':'
asbag57
(g78
g59
NtRp1025
(dp1026
g62
(dp1027
sg71
g1012
sg64
(lp1028
g57
(g58
g59
NtRp1029
(dp1030
g62
(dp1031
g70
I4
ssg71
g1025
sg64
(lp1032
S'127.0.0.1-d76d2f66-a702-4d08-8b16-65a16f46815e'
p1033
ag57
(g66
g59
NtRp1034
(dp1035
g62
(dp1036
g70
I3
ssg71
Nsg64
(lp1037
g57
(g73
g59
NtRp1038
(dp1039
g62
(dp1040
sg71
g1034
sg64
(lp1041
g57
(g78
g59
NtRp1042
(dp1043
g62
(dp1044
g82
g83
ssg71
g1038
sg64
(lp1045
g294
asbag57
(g78
g59
NtRp1046
(dp1047
g62
(dp1048
g89
g90
ssg71
g1038
sg64
(lp1049
S':'
asbag57
(g78
g59
NtRp1050
(dp1051
g62
(dp1052
sg71
g1038
sg64
(lp1053
g57
(g58
g59
NtRp1054
(dp1055
g62
(dp1056
g70
I3
ssg71
g1050
sg64
(lp1057
S''
asbasbasbag57
(g73
g59
NtRp1058
(dp1059
g62
(dp1060
sg71
g1034
sg64
(lp1061
g57
(g78
g59
NtRp1062
(dp1063
g62
(dp1064
g82
g83
ssg71
g1058
sg64
(lp1065
g315
asbag57
(g78
g59
NtRp1066
(dp1067
g62
(dp1068
g89
g90
ssg71
g1058
sg64
(lp1069
S':'
asbag57
(g78
g59
NtRp1070
(dp1071
g62
(dp1072
sg71
g1058
sg64
(lp1073
g57
(g58
g59
NtRp1074
(dp1075
g62
(dp1076
g70
I3
ssg71
g1070
sg64
(lp1077
S''
asbasbasbag57
(g73
g59
NtRp1078
(dp1079
g62
(dp1080
sg71
g1034
sg64
(lp1081
g57
(g78
g59
NtRp1082
(dp1083
g62
(dp1084
g82
g83
ssg71
g1078
sg64
(lp1085
g336
asbag57
(g78
g59
NtRp1086
(dp1087
g62
(dp1088
g89
g90
ssg71
g1078
sg64
(lp1089
S':'
asbag57
(g78
g59
NtRp1090
(dp1091
g62
(dp1092
sg71
g1078
sg64
(lp1093
g57
(g58
g59
NtRp1094
(dp1095
g62
(dp1096
g70
I3
ssg71
g1090
sg64
(lp1097
S''
asbasbasbag57
(g73
g59
NtRp1098
(dp1099
g62
(dp1100
sg71
g1034
sg64
(lp1101
g57
(g78
g59
NtRp1102
(dp1103
g62
(dp1104
g82
g83
ssg71
g1098
sg64
(lp1105
g357
asbag57
(g78
g59
NtRp1106
(dp1107
g62
(dp1108
g89
g90
ssg71
g1098
sg64
(lp1109
S':'
asbag57
(g78
g59
NtRp1110
(dp1111
g62
(dp1112
sg71
g1098
sg64
(lp1113
g57
(g58
g59
NtRp1114
(dp1115
g62
(dp1116
g70
I3
ssg71
g1110
sg64
(lp1117
S''
asbasbasbag57
(g73
g59
NtRp1118
(dp1119
g62
(dp1120
sg71
g1034
sg64
(lp1121
g57
(g78
g59
NtRp1122
(dp1123
g62
(dp1124
g82
g83
ssg71
g1118
sg64
(lp1125
g378
asbag57
(g78
g59
NtRp1126
(dp1127
g62
(dp1128
g89
g90
ssg71
g1118
sg64
(lp1129
S':'
asbag57
(g78
g59
NtRp1130
(dp1131
g62
(dp1132
sg71
g1118
sg64
(lp1133
g57
(g58
g59
NtRp1134
(dp1135
g62
(dp1136
g70
I3
ssg71
g1130
sg64
(lp1137
S''
asbasbasbag57
(g73
g59
NtRp1138
(dp1139
g62
(dp1140
sg71
g1034
sg64
(lp1141
g57
(g78
g59
NtRp1142
(dp1143
g62
(dp1144
g82
g83
ssg71
g1138
sg64
(lp1145
g399
asbag57
(g78
g59
NtRp1146
(dp1147
g62
(dp1148
g89
g90
ssg71
g1138
sg64
(lp1149
S':'
asbag57
(g78
g59
NtRp1150
(dp1151
g62
(dp1152
sg71
g1138
sg64
(lp1153
g57
(g58
g59
NtRp1154
(dp1155
g62
(dp1156
g70
I3
ssg71
g1150
sg64
(lp1157
S''
asbasbasbag57
(g73
g59
NtRp1158
(dp1159
g62
(dp1160
sg71
g1034
sg64
(lp1161
g57
(g78
g59
NtRp1162
(dp1163
g62
(dp1164
g82
g83
ssg71
g1158
sg64
(lp1165
g420
asbag57
(g78
g59
NtRp1166
(dp1167
g62
(dp1168
g89
g90
ssg71
g1158
sg64
(lp1169
S':'
asbag57
(g78
g59
NtRp1170
(dp1171
g62
(dp1172
sg71
g1158
sg64
(lp1173
g57
(g58
g59
NtRp1174
(dp1175
g62
(dp1176
g70
I3
ssg71
g1170
sg64
(lp1177
S''
asbasbasbag57
(g73
g59
NtRp1178
(dp1179
g62
(dp1180
sg71
g1034
sg64
(lp1181
g57
(g78
g59
NtRp1182
(dp1183
g62
(dp1184
g82
g83
ssg71
g1178
sg64
(lp1185
g441
asbag57
(g78
g59
NtRp1186
(dp1187
g62
(dp1188
g89
g90
ssg71
g1178
sg64
(lp1189
S':'
asbag57
(g78
g59
NtRp1190
(dp1191
g62
(dp1192
sg71
g1178
sg64
(lp1193
g57
(g58
g59
NtRp1194
(dp1195
g62
(dp1196
g70
I3
ssg71
g1190
sg64
(lp1197
S''
asbasbasbasbasbasbasbag57
(g73
g59
NtRp1198
(dp1199
g62
(dp1200
sg71
g256
sg64
(lp1201
g57
(g78
g59
NtRp1202
(dp1203
g62
(dp1204
g82
g83
ssg71
g1198
sg64
(lp1205
S'session_id_wsd_tool'
p1206
asbag57
(g78
g59
NtRp1207
(dp1208
g62
(dp1209
g89
g90
ssg71
g1198
sg64
(lp1210
S':'
asbag57
(g78
g59
NtRp1211
(dp1212
g62
(dp1213
sg71
g1198
sg64
(lp1214
g57
(g58
g59
NtRp1215
(dp1216
g62
(dp1217
g70
I4
ssg71
g1211
sg64
(lp1218
S'127.0.0.1-371771bb-b080-4b4c-a32f-73741752bafe'
p1219
ag57
(g66
g59
NtRp1220
(dp1221
g62
(dp1222
g70
I3
ssg71
Nsg64
(lp1223
g57
(g73
g59
NtRp1224
(dp1225
g62
(dp1226
sg71
g1220
sg64
(lp1227
g57
(g78
g59
NtRp1228
(dp1229
g62
(dp1230
g82
g83
ssg71
g1224
sg64
(lp1231
g294
asbag57
(g78
g59
NtRp1232
(dp1233
g62
(dp1234
g89
g90
ssg71
g1224
sg64
(lp1235
S':'
asbag57
(g78
g59
NtRp1236
(dp1237
g62
(dp1238
sg71
g1224
sg64
(lp1239
g57
(g58
g59
NtRp1240
(dp1241
g62
(dp1242
g70
I3
ssg71
g1236
sg64
(lp1243
S''
asbasbasbag57
(g73
g59
NtRp1244
(dp1245
g62
(dp1246
sg71
g1220
sg64
(lp1247
g57
(g78
g59
NtRp1248
(dp1249
g62
(dp1250
g82
g83
ssg71
g1244
sg64
(lp1251
g315
asbag57
(g78
g59
NtRp1252
(dp1253
g62
(dp1254
g89
g90
ssg71
g1244
sg64
(lp1255
S':'
asbag57
(g78
g59
NtRp1256
(dp1257
g62
(dp1258
sg71
g1244
sg64
(lp1259
g57
(g58
g59
NtRp1260
(dp1261
g62
(dp1262
g70
I3
ssg71
g1256
sg64
(lp1263
S''
asbasbasbag57
(g73
g59
NtRp1264
(dp1265
g62
(dp1266
sg71
g1220
sg64
(lp1267
g57
(g78
g59
NtRp1268
(dp1269
g62
(dp1270
g82
g83
ssg71
g1264
sg64
(lp1271
g336
asbag57
(g78
g59
NtRp1272
(dp1273
g62
(dp1274
g89
g90
ssg71
g1264
sg64
(lp1275
S':'
asbag57
(g78
g59
NtRp1276
(dp1277
g62
(dp1278
sg71
g1264
sg64
(lp1279
g57
(g58
g59
NtRp1280
(dp1281
g62
(dp1282
g70
I3
ssg71
g1276
sg64
(lp1283
S''
asbasbasbag57
(g73
g59
NtRp1284
(dp1285
g62
(dp1286
sg71
g1220
sg64
(lp1287
g57
(g78
g59
NtRp1288
(dp1289
g62
(dp1290
g82
g83
ssg71
g1284
sg64
(lp1291
g357
asbag57
(g78
g59
NtRp1292
(dp1293
g62
(dp1294
g89
g90
ssg71
g1284
sg64
(lp1295
S':'
asbag57
(g78
g59
NtRp1296
(dp1297
g62
(dp1298
sg71
g1284
sg64
(lp1299
g57
(g58
g59
NtRp1300
(dp1301
g62
(dp1302
g70
I3
ssg71
g1296
sg64
(lp1303
S''
asbasbasbag57
(g73
g59
NtRp1304
(dp1305
g62
(dp1306
sg71
g1220
sg64
(lp1307
g57
(g78
g59
NtRp1308
(dp1309
g62
(dp1310
g82
g83
ssg71
g1304
sg64
(lp1311
g378
asbag57
(g78
g59
NtRp1312
(dp1313
g62
(dp1314
g89
g90
ssg71
g1304
sg64
(lp1315
S':'
asbag57
(g78
g59
NtRp1316
(dp1317
g62
(dp1318
sg71
g1304
sg64
(lp1319
g57
(g58
g59
NtRp1320
(dp1321
g62
(dp1322
g70
I3
ssg71
g1316
sg64
(lp1323
S''
asbasbasbag57
(g73
g59
NtRp1324
(dp1325
g62
(dp1326
sg71
g1220
sg64
(lp1327
g57
(g78
g59
NtRp1328
(dp1329
g62
(dp1330
g82
g83
ssg71
g1324
sg64
(lp1331
g399
asbag57
(g78
g59
NtRp1332
(dp1333
g62
(dp1334
g89
g90
ssg71
g1324
sg64
(lp1335
S':'
asbag57
(g78
g59
NtRp1336
(dp1337
g62
(dp1338
sg71
g1324
sg64
(lp1339
g57
(g58
g59
NtRp1340
(dp1341
g62
(dp1342
g70
I3
ssg71
g1336
sg64
(lp1343
S''
asbasbasbag57
(g73
g59
NtRp1344
(dp1345
g62
(dp1346
sg71
g1220
sg64
(lp1347
g57
(g78
g59
NtRp1348
(dp1349
g62
(dp1350
g82
g83
ssg71
g1344
sg64
(lp1351
g420
asbag57
(g78
g59
NtRp1352
(dp1353
g62
(dp1354
g89
g90
ssg71
g1344
sg64
(lp1355
S':'
asbag57
(g78
g59
NtRp1356
(dp1357
g62
(dp1358
sg71
g1344
sg64
(lp1359
g57
(g58
g59
NtRp1360
(dp1361
g62
(dp1362
g70
I3
ssg71
g1356
sg64
(lp1363
S''
asbasbasbag57
(g73
g59
NtRp1364
(dp1365
g62
(dp1366
sg71
g1220
sg64
(lp1367
g57
(g78
g59
NtRp1368
(dp1369
g62
(dp1370
g82
g83
ssg71
g1364
sg64
(lp1371
g441
asbag57
(g78
g59
NtRp1372
(dp1373
g62
(dp1374
g89
g90
ssg71
g1364
sg64
(lp1375
S':'
asbag57
(g78
g59
NtRp1376
(dp1377
g62
(dp1378
sg71
g1364
sg64
(lp1379
g57
(g58
g59
NtRp1380
(dp1381
g62
(dp1382
g70
I3
ssg71
g1376
sg64
(lp1383
S''
asbasbasbasbasbasbasbasbasbasbasbag57
(g73
g59
NtRp1384
(dp1385
g62
(dp1386
sg71
g67
sg64
(lp1387
g57
(g78
g59
NtRp1388
(dp1389
g62
(dp1390
g82
g83
ssg71
g1384
sg64
(lp1391
S'env'
p1392
asbag57
(g78
g59
NtRp1393
(dp1394
g62
(dp1395
g89
g90
ssg71
g1384
sg64
(lp1396
S':'
asbag57
(g78
g59
NtRp1397
(dp1398
g62
(dp1399
sg71
g1384
sg64
(lp1400
g57
(g58
g59
NtRp1401
(dp1402
g62
(dp1403
g70
I5
ssg71
g1397
sg64
(lp1404
g57
(g66
g59
NtRp1405
(dp1406
g62
(dp1407
g70
I4
ssg71
Nsg64
(lp1408
g57
(g73
g59
NtRp1409
(dp1410
g62
(dp1411
sg71
g1405
sg64
(lp1412
g57
(g78
g59
NtRp1413
(dp1414
g62
(dp1415
g82
g83
ssg71
g1409
sg64
(lp1416
S'app_folders'
p1417
asbag57
(g78
g59
NtRp1418
(dp1419
g62
(dp1420
g89
g90
ssg71
g1409
sg64
(lp1421
S':'
asbag57
(g78
g59
NtRp1422
(dp1423
g62
(dp1424
sg71
g1409
sg64
(lp1425
g57
(g58
g59
NtRp1426
(dp1427
g62
(dp1428
g70
I4
ssg71
g1422
sg64
(lp1429
S"set(['/home/nazrul/web2py/applications/WSD/', '/home/nazrul/web2py/applications/welcome/', '/home/nazrul/web2py/applications/WSD_Tool/', '/home/nazrul/web2py/applications/news/', '/home/nazrul/web2py/applications/admin/'])"
p1430
asbasbasbag57
(g73
g59
NtRp1431
(dp1432
g62
(dp1433
sg71
g1405
sg64
(lp1434
g57
(g78
g59
NtRp1435
(dp1436
g62
(dp1437
g82
g83
ssg71
g1431
sg64
(lp1438
S'applications_parent'
p1439
asbag57
(g78
g59
NtRp1440
(dp1441
g62
(dp1442
g89
g90
ssg71
g1431
sg64
(lp1443
S':'
asbag57
(g78
g59
NtRp1444
(dp1445
g62
(dp1446
sg71
g1431
sg64
(lp1447
g57
(g58
g59
NtRp1448
(dp1449
g62
(dp1450
g70
I4
ssg71
g1444
sg64
(lp1451
S'/home/nazrul/web2py'
p1452
asbasbasbag57
(g73
g59
NtRp1453
(dp1454
g62
(dp1455
sg71
g1405
sg64
(lp1456
g57
(g78
g59
NtRp1457
(dp1458
g62
(dp1459
g82
g83
ssg71
g1453
sg64
(lp1460
S'cmd_args'
p1461
asbag57
(g78
g59
NtRp1462
(dp1463
g62
(dp1464
g89
g90
ssg71
g1453
sg64
(lp1465
S':'
asbag57
(g78
g59
NtRp1466
(dp1467
g62
(dp1468
sg71
g1453
sg64
(lp1469
g57
(g58
g59
NtRp1470
(dp1471
g62
(dp1472
g70
I4
ssg71
g1466
sg64
(lp1473
g57
(g66
g59
NtRp1474
(dp1475
g62
(dp1476
g70
I3
ssg71
Nsg64
(lp1477
sbasbasbasbag57
(g73
g59
NtRp1478
(dp1479
g62
(dp1480
sg71
g1405
sg64
(lp1481
g57
(g78
g59
NtRp1482
(dp1483
g62
(dp1484
g82
g83
ssg71
g1478
sg64
(lp1485
S'cmd_options'
p1486
asbag57
(g78
g59
NtRp1487
(dp1488
g62
(dp1489
g89
g90
ssg71
g1478
sg64
(lp1490
S':'
asbag57
(g78
g59
NtRp1491
(dp1492
g62
(dp1493
sg71
g1478
sg64
(lp1494
g57
(g58
g59
NtRp1495
(dp1496
g62
(dp1497
g70
I4
ssg71
g1491
sg64
(lp1498
S"<Values at 0x8e4a9cc: {'verbose': False, 'ip': '127.0.0.1', 'with_scheduler': False, 'ips': [], 'shutdown_timeout': 5, 'taskbar': False, 'port': 8000, 'maxthreads': None, 'softcron': False, 'server_name': 'nazrul-Compaq-Presario-CQ40-Notebook-PC', 'bpython': False, 'nogui': False, 'pid_filename': 'httpserver.pid', 'extcron': False, 'runcron': False, 'run_system_tests': False, 'test': None, 'folder': '/home/nazrul/web2py', 'config': '', 'import_models': False, 'winservice': '', 'shell': None, 'run': '', 'log_filename': 'httpserver.log', 'debuglevel': 30, 'args': [''], 'socket_timeout': 5, 'ssl_ca_certificate': None, 'scheduler': None, 'profiler_filename': None, 'ssl_private_key': '', 'scheduler_groups': None, 'password': '<ask>', 'request_queue_size': 5, 'ssl_certificate': '', 'cronjob': False, 'numthreads': None, 'quiet': False, 'interfaces': None, 'minthreads': None, 'timeout': 10, 'plain': False, 'nobanner': False}>"
p1499
asbasbasbag57
(g73
g59
NtRp1500
(dp1501
g62
(dp1502
sg71
g1405
sg64
(lp1503
g57
(g78
g59
NtRp1504
(dp1505
g62
(dp1506
g82
g83
ssg71
g1500
sg64
(lp1507
S'content_length'
p1508
asbag57
(g78
g59
NtRp1509
(dp1510
g62
(dp1511
g89
g90
ssg71
g1500
sg64
(lp1512
S':'
asbag57
(g78
g59
NtRp1513
(dp1514
g62
(dp1515
sg71
g1500
sg64
(lp1516
g57
(g58
g59
NtRp1517
(dp1518
g62
(dp1519
g70
I4
ssg71
g1513
sg64
(lp1520
S'58'
p1521
asbasbasbag57
(g73
g59
NtRp1522
(dp1523
g62
(dp1524
sg71
g1405
sg64
(lp1525
g57
(g78
g59
NtRp1526
(dp1527
g62
(dp1528
g82
g83
ssg71
g1522
sg64
(lp1529
S'content_type'
p1530
asbag57
(g78
g59
NtRp1531
(dp1532
g62
(dp1533
g89
g90
ssg71
g1522
sg64
(lp1534
S':'
asbag57
(g78
g59
NtRp1535
(dp1536
g62
(dp1537
sg71
g1522
sg64
(lp1538
g57
(g58
g59
NtRp1539
(dp1540
g62
(dp1541
g70
I4
ssg71
g1535
sg64
(lp1542
S'application/x-www-form-urlencoded'
p1543
asbasbasbag57
(g73
g59
NtRp1544
(dp1545
g62
(dp1546
sg71
g1405
sg64
(lp1547
g57
(g78
g59
NtRp1548
(dp1549
g62
(dp1550
g82
g83
ssg71
g1544
sg64
(lp1551
S'db_sessions'
p1552
asbag57
(g78
g59
NtRp1553
(dp1554
g62
(dp1555
g89
g90
ssg71
g1544
sg64
(lp1556
S':'
asbag57
(g78
g59
NtRp1557
(dp1558
g62
(dp1559
sg71
g1544
sg64
(lp1560
g57
(g58
g59
NtRp1561
(dp1562
g62
(dp1563
g70
I4
ssg71
g1557
sg64
(lp1564
S'set([])'
p1565
asbasbasbag57
(g73
g59
NtRp1566
(dp1567
g62
(dp1568
sg71
g1405
sg64
(lp1569
g57
(g78
g59
NtRp1570
(dp1571
g62
(dp1572
g82
g83
ssg71
g1566
sg64
(lp1573
S'debugging'
p1574
asbag57
(g78
g59
NtRp1575
(dp1576
g62
(dp1577
g89
g90
ssg71
g1566
sg64
(lp1578
S':'
asbag57
(g78
g59
NtRp1579
(dp1580
g62
(dp1581
sg71
g1566
sg64
(lp1582
g57
(g58
g59
NtRp1583
(dp1584
g62
(dp1585
g70
I4
ssg71
g1579
sg64
(lp1586
g100
asbasbasbag57
(g73
g59
NtRp1587
(dp1588
g62
(dp1589
sg71
g1405
sg64
(lp1590
g57
(g78
g59
NtRp1591
(dp1592
g62
(dp1593
g82
g83
ssg71
g1587
sg64
(lp1594
S'gluon_parent'
p1595
asbag57
(g78
g59
NtRp1596
(dp1597
g62
(dp1598
g89
g90
ssg71
g1587
sg64
(lp1599
S':'
asbag57
(g78
g59
NtRp1600
(dp1601
g62
(dp1602
sg71
g1587
sg64
(lp1603
g57
(g58
g59
NtRp1604
(dp1605
g62
(dp1606
g70
I4
ssg71
g1600
sg64
(lp1607
S'/home/nazrul/web2py'
p1608
asbasbasbag57
(g73
g59
NtRp1609
(dp1610
g62
(dp1611
sg71
g1405
sg64
(lp1612
g57
(g78
g59
NtRp1613
(dp1614
g62
(dp1615
g82
g83
ssg71
g1609
sg64
(lp1616
S'http_accept'
p1617
asbag57
(g78
g59
NtRp1618
(dp1619
g62
(dp1620
g89
g90
ssg71
g1609
sg64
(lp1621
S':'
asbag57
(g78
g59
NtRp1622
(dp1623
g62
(dp1624
sg71
g1609
sg64
(lp1625
g57
(g58
g59
NtRp1626
(dp1627
g62
(dp1628
g70
I4
ssg71
g1622
sg64
(lp1629
S'text/html,application/xhtml+xml,application/xml;q=0.9,*/*;q=0.8'
p1630
asbasbasbag57
(g73
g59
NtRp1631
(dp1632
g62
(dp1633
sg71
g1405
sg64
(lp1634
g57
(g78
g59
NtRp1635
(dp1636
g62
(dp1637
g82
g83
ssg71
g1631
sg64
(lp1638
S'http_accept_encoding'
p1639
asbag57
(g78
g59
NtRp1640
(dp1641
g62
(dp1642
g89
g90
ssg71
g1631
sg64
(lp1643
S':'
asbag57
(g78
g59
NtRp1644
(dp1645
g62
(dp1646
sg71
g1631
sg64
(lp1647
g57
(g58
g59
NtRp1648
(dp1649
g62
(dp1650
g70
I4
ssg71
g1644
sg64
(lp1651
S'gzip, deflate'
p1652
asbasbasbag57
(g73
g59
NtRp1653
(dp1654
g62
(dp1655
sg71
g1405
sg64
(lp1656
g57
(g78
g59
NtRp1657
(dp1658
g62
(dp1659
g82
g83
ssg71
g1653
sg64
(lp1660
S'http_accept_language'
p1661
asbag57
(g78
g59
NtRp1662
(dp1663
g62
(dp1664
g89
g90
ssg71
g1653
sg64
(lp1665
S':'
asbag57
(g78
g59
NtRp1666
(dp1667
g62
(dp1668
sg71
g1653
sg64
(lp1669
g57
(g58
g59
NtRp1670
(dp1671
g62
(dp1672
g70
I4
ssg71
g1666
sg64
(lp1673
S'en-US,en;q=0.5'
p1674
asbasbasbag57
(g73
g59
NtRp1675
(dp1676
g62
(dp1677
sg71
g1405
sg64
(lp1678
g57
(g78
g59
NtRp1679
(dp1680
g62
(dp1681
g82
g83
ssg71
g1675
sg64
(lp1682
S'http_connection'
p1683
asbag57
(g78
g59
NtRp1684
(dp1685
g62
(dp1686
g89
g90
ssg71
g1675
sg64
(lp1687
S':'
asbag57
(g78
g59
NtRp1688
(dp1689
g62
(dp1690
sg71
g1675
sg64
(lp1691
g57
(g58
g59
NtRp1692
(dp1693
g62
(dp1694
g70
I4
ssg71
g1688
sg64
(lp1695
S'keep-alive'
p1696
asbasbasbag57
(g73
g59
NtRp1697
(dp1698
g62
(dp1699
sg71
g1405
sg64
(lp1700
g57
(g78
g59
NtRp1701
(dp1702
g62
(dp1703
g82
g83
ssg71
g1697
sg64
(lp1704
S'http_content_length'
p1705
asbag57
(g78
g59
NtRp1706
(dp1707
g62
(dp1708
g89
g90
ssg71
g1697
sg64
(lp1709
S':'
asbag57
(g78
g59
NtRp1710
(dp1711
g62
(dp1712
sg71
g1697
sg64
(lp1713
g57
(g58
g59
NtRp1714
(dp1715
g62
(dp1716
g70
I4
ssg71
g1710
sg64
(lp1717
g1521
asbasbasbag57
(g73
g59
NtRp1718
(dp1719
g62
(dp1720
sg71
g1405
sg64
(lp1721
g57
(g78
g59
NtRp1722
(dp1723
g62
(dp1724
g82
g83
ssg71
g1718
sg64
(lp1725
S'http_content_type'
p1726
asbag57
(g78
g59
NtRp1727
(dp1728
g62
(dp1729
g89
g90
ssg71
g1718
sg64
(lp1730
S':'
asbag57
(g78
g59
NtRp1731
(dp1732
g62
(dp1733
sg71
g1718
sg64
(lp1734
g57
(g58
g59
NtRp1735
(dp1736
g62
(dp1737
g70
I4
ssg71
g1731
sg64
(lp1738
g1543
asbasbasbag57
(g73
g59
NtRp1739
(dp1740
g62
(dp1741
sg71
g1405
sg64
(lp1742
g57
(g78
g59
NtRp1743
(dp1744
g62
(dp1745
g82
g83
ssg71
g1739
sg64
(lp1746
S'http_cookie'
p1747
asbag57
(g78
g59
NtRp1748
(dp1749
g62
(dp1750
g89
g90
ssg71
g1739
sg64
(lp1751
S':'
asbag57
(g78
g59
NtRp1752
(dp1753
g62
(dp1754
sg71
g1739
sg64
(lp1755
g57
(g58
g59
NtRp1756
(dp1757
g62
(dp1758
g70
I4
ssg71
g1752
sg64
(lp1759
S'KBD=0hi-0; session_id_welcome=127.0.0.1-4ab9dacb-7270-459d-aef4-f28bb3d059e1; session_id_admin=127.0.0.1-76a862a2-9a71-40a1-95b6-27d29da4fe5d; session_id_wsd=127.0.0.1-d76d2f66-a702-4d08-8b16-65a16f46815e; session_id_news=127.0.0.1-4eea093e-3431-4797-bd7a-1e49bcb534a8; session_id_wsd_tool=127.0.0.1-371771bb-b080-4b4c-a32f-73741752bafe'
p1760
asbasbasbag57
(g73
g59
NtRp1761
(dp1762
g62
(dp1763
sg71
g1405
sg64
(lp1764
g57
(g78
g59
NtRp1765
(dp1766
g62
(dp1767
g82
g83
ssg71
g1761
sg64
(lp1768
S'http_host'
p1769
asbag57
(g78
g59
NtRp1770
(dp1771
g62
(dp1772
g89
g90
ssg71
g1761
sg64
(lp1773
S':'
asbag57
(g78
g59
NtRp1774
(dp1775
g62
(dp1776
sg71
g1761
sg64
(lp1777
g57
(g58
g59
NtRp1778
(dp1779
g62
(dp1780
g70
I4
ssg71
g1774
sg64
(lp1781
S'127.0.0.1:8000'
p1782
asbasbasbag57
(g73
g59
NtRp1783
(dp1784
g62
(dp1785
sg71
g1405
sg64
(lp1786
g57
(g78
g59
NtRp1787
(dp1788
g62
(dp1789
g82
g83
ssg71
g1783
sg64
(lp1790
S'http_referer'
p1791
asbag57
(g78
g59
NtRp1792
(dp1793
g62
(dp1794
g89
g90
ssg71
g1783
sg64
(lp1795
S':'
asbag57
(g78
g59
NtRp1796
(dp1797
g62
(dp1798
sg71
g1783
sg64
(lp1799
g57
(g58
g59
NtRp1800
(dp1801
g62
(dp1802
g70
I4
ssg71
g1796
sg64
(lp1803
S'http://127.0.0.1:8000/WSD/default/changelevel'
p1804
asbasbasbag57
(g73
g59
NtRp1805
(dp1806
g62
(dp1807
sg71
g1405
sg64
(lp1808
g57
(g78
g59
NtRp1809
(dp1810
g62
(dp1811
g82
g83
ssg71
g1805
sg64
(lp1812
S'http_user_agent'
p1813
asbag57
(g78
g59
NtRp1814
(dp1815
g62
(dp1816
g89
g90
ssg71
g1805
sg64
(lp1817
S':'
asbag57
(g78
g59
NtRp1818
(dp1819
g62
(dp1820
sg71
g1805
sg64
(lp1821
g57
(g58
g59
NtRp1822
(dp1823
g62
(dp1824
g70
I4
ssg71
g1818
sg64
(lp1825
S'Mozilla/5.0 (X11; Ubuntu; Linux i686; rv:18.0) Gecko/20100101 Firefox/18.0'
p1826
asbasbasbag57
(g73
g59
NtRp1827
(dp1828
g62
(dp1829
sg71
g1405
sg64
(lp1830
g57
(g78
g59
NtRp1831
(dp1832
g62
(dp1833
g82
g83
ssg71
g1827
sg64
(lp1834
S'is_jython'
p1835
asbag57
(g78
g59
NtRp1836
(dp1837
g62
(dp1838
g89
g90
ssg71
g1827
sg64
(lp1839
S':'
asbag57
(g78
g59
NtRp1840
(dp1841
g62
(dp1842
sg71
g1827
sg64
(lp1843
g57
(g58
g59
NtRp1844
(dp1845
g62
(dp1846
g70
I4
ssg71
g1840
sg64
(lp1847
g100
asbasbasbag57
(g73
g59
NtRp1848
(dp1849
g62
(dp1850
sg71
g1405
sg64
(lp1851
g57
(g78
g59
NtRp1852
(dp1853
g62
(dp1854
g82
g83
ssg71
g1848
sg64
(lp1855
S'is_pypy'
p1856
asbag57
(g78
g59
NtRp1857
(dp1858
g62
(dp1859
g89
g90
ssg71
g1848
sg64
(lp1860
S':'
asbag57
(g78
g59
NtRp1861
(dp1862
g62
(dp1863
sg71
g1848
sg64
(lp1864
g57
(g58
g59
NtRp1865
(dp1866
g62
(dp1867
g70
I4
ssg71
g1861
sg64
(lp1868
g100
asbasbasbag57
(g73
g59
NtRp1869
(dp1870
g62
(dp1871
sg71
g1405
sg64
(lp1872
g57
(g78
g59
NtRp1873
(dp1874
g62
(dp1875
g82
g83
ssg71
g1869
sg64
(lp1876
S'local_hosts'
p1877
asbag57
(g78
g59
NtRp1878
(dp1879
g62
(dp1880
g89
g90
ssg71
g1869
sg64
(lp1881
S':'
asbag57
(g78
g59
NtRp1882
(dp1883
g62
(dp1884
sg71
g1869
sg64
(lp1885
g57
(g58
g59
NtRp1886
(dp1887
g62
(dp1888
g70
I4
ssg71
g1882
sg64
(lp1889
g57
(g66
g59
NtRp1890
(dp1891
g62
(dp1892
g70
I3
ssg71
Nsg64
(lp1893
g57
(g73
g59
NtRp1894
(dp1895
g62
(dp1896
sg71
g1890
sg64
(lp1897
g57
(g78
g59
NtRp1898
(dp1899
g62
(dp1900
sg71
g1894
sg64
(lp1901
g57
(g58
g59
NtRp1902
(dp1903
g62
(dp1904
g70
I3
ssg71
g1898
sg64
(lp1905
S'::1'
p1906
asbasbasbag57
(g73
g59
NtRp1907
(dp1908
g62
(dp1909
sg71
g1890
sg64
(lp1910
g57
(g78
g59
NtRp1911
(dp1912
g62
(dp1913
sg71
g1907
sg64
(lp1914
g57
(g58
g59
NtRp1915
(dp1916
g62
(dp1917
g70
I3
ssg71
g1911
sg64
(lp1918
S'127.0.1.1'
p1919
asbasbasbag57
(g73
g59
NtRp1920
(dp1921
g62
(dp1922
sg71
g1890
sg64
(lp1923
g57
(g78
g59
NtRp1924
(dp1925
g62
(dp1926
sg71
g1920
sg64
(lp1927
g57
(g58
g59
NtRp1928
(dp1929
g62
(dp1930
g70
I3
ssg71
g1924
sg64
(lp1931
S'::ffff:127.0.0.1'
p1932
asbasbasbag57
(g73
g59
NtRp1933
(dp1934
g62
(dp1935
sg71
g1890
sg64
(lp1936
g57
(g78
g59
NtRp1937
(dp1938
g62
(dp1939
sg71
g1933
sg64
(lp1940
g57
(g58
g59
NtRp1941
(dp1942
g62
(dp1943
g70
I3
ssg71
g1937
sg64
(lp1944
S'127.0.0.1'
p1945
asbasbasbag57
(g73
g59
NtRp1946
(dp1947
g62
(dp1948
sg71
g1890
sg64
(lp1949
g57
(g78
g59
NtRp1950
(dp1951
g62
(dp1952
sg71
g1946
sg64
(lp1953
g57
(g58
g59
NtRp1954
(dp1955
g62
(dp1956
g70
I3
ssg71
g1950
sg64
(lp1957
S'nazrul-Compaq-Presario-CQ40-Notebook-PC'
p1958
asbasbasbasbasbasbasbag57
(g73
g59
NtRp1959
(dp1960
g62
(dp1961
sg71
g1405
sg64
(lp1962
g57
(g78
g59
NtRp1963
(dp1964
g62
(dp1965
g82
g83
ssg71
g1959
sg64
(lp1966
S'path_info'
p1967
asbag57
(g78
g59
NtRp1968
(dp1969
g62
(dp1970
g89
g90
ssg71
g1959
sg64
(lp1971
S':'
asbag57
(g78
g59
NtRp1972
(dp1973
g62
(dp1974
sg71
g1959
sg64
(lp1975
g57
(g58
g59
NtRp1976
(dp1977
g62
(dp1978
g70
I4
ssg71
g1972
sg64
(lp1979
S'/WSD/default/changelevel'
p1980
asbasbasbag57
(g73
g59
NtRp1981
(dp1982
g62
(dp1983
sg71
g1405
sg64
(lp1984
g57
(g78
g59
NtRp1985
(dp1986
g62
(dp1987
g82
g83
ssg71
g1981
sg64
(lp1988
S'query_string'
p1989
asbag57
(g78
g59
NtRp1990
(dp1991
g62
(dp1992
g89
g90
ssg71
g1981
sg64
(lp1993
S':'
asbag57
(g78
g59
NtRp1994
(dp1995
g62
(dp1996
sg71
g1981
sg64
(lp1997
g57
(g58
g59
NtRp1998
(dp1999
g62
(dp2000
g70
I4
ssg71
g1994
sg64
(lp2001
S''
asbasbasbag57
(g73
g59
NtRp2002
(dp2003
g62
(dp2004
sg71
g1405
sg64
(lp2005
g57
(g78
g59
NtRp2006
(dp2007
g62
(dp2008
g82
g83
ssg71
g2002
sg64
(lp2009
S'remote_addr'
p2010
asbag57
(g78
g59
NtRp2011
(dp2012
g62
(dp2013
g89
g90
ssg71
g2002
sg64
(lp2014
S':'
asbag57
(g78
g59
NtRp2015
(dp2016
g62
(dp2017
sg71
g2002
sg64
(lp2018
g57
(g58
g59
NtRp2019
(dp2020
g62
(dp2021
g70
I4
ssg71
g2015
sg64
(lp2022
g212
asbasbasbag57
(g73
g59
NtRp2023
(dp2024
g62
(dp2025
sg71
g1405
sg64
(lp2026
g57
(g78
g59
NtRp2027
(dp2028
g62
(dp2029
g82
g83
ssg71
g2023
sg64
(lp2030
S'remote_port'
p2031
asbag57
(g78
g59
NtRp2032
(dp2033
g62
(dp2034
g89
g90
ssg71
g2023
sg64
(lp2035
S':'
asbag57
(g78
g59
NtRp2036
(dp2037
g62
(dp2038
sg71
g2023
sg64
(lp2039
g57
(g58
g59
NtRp2040
(dp2041
g62
(dp2042
g70
I4
ssg71
g2036
sg64
(lp2043
S'47951'
p2044
asbasbasbag57
(g73
g59
NtRp2045
(dp2046
g62
(dp2047
sg71
g1405
sg64
(lp2048
g57
(g78
g59
NtRp2049
(dp2050
g62
(dp2051
g82
g83
ssg71
g2045
sg64
(lp2052
S'request_method'
p2053
asbag57
(g78
g59
NtRp2054
(dp2055
g62
(dp2056
g89
g90
ssg71
g2045
sg64
(lp2057
S':'
asbag57
(g78
g59
NtRp2058
(dp2059
g62
(dp2060
sg71
g2045
sg64
(lp2061
g57
(g58
g59
NtRp2062
(dp2063
g62
(dp2064
g70
I4
ssg71
g2058
sg64
(lp2065
S'POST'
p2066
asbasbasbag57
(g73
g59
NtRp2067
(dp2068
g62
(dp2069
sg71
g1405
sg64
(lp2070
g57
(g78
g59
NtRp2071
(dp2072
g62
(dp2073
g82
g83
ssg71
g2067
sg64
(lp2074
S'request_uri'
p2075
asbag57
(g78
g59
NtRp2076
(dp2077
g62
(dp2078
g89
g90
ssg71
g2067
sg64
(lp2079
S':'
asbag57
(g78
g59
NtRp2080
(dp2081
g62
(dp2082
sg71
g2067
sg64
(lp2083
g57
(g58
g59
NtRp2084
(dp2085
g62
(dp2086
g70
I4
ssg71
g2080
sg64
(lp2087
g1980
asbasbasbag57
(g73
g59
NtRp2088
(dp2089
g62
(dp2090
sg71
g1405
sg64
(lp2091
g57
(g78
g59
NtRp2092
(dp2093
g62
(dp2094
g82
g83
ssg71
g2088
sg64
(lp2095
S'script_name'
p2096
asbag57
(g78
g59
NtRp2097
(dp2098
g62
(dp2099
g89
g90
ssg71
g2088
sg64
(lp2100
S':'
asbag57
(g78
g59
NtRp2101
(dp2102
g62
(dp2103
sg71
g2088
sg64
(lp2104
g57
(g58
g59
NtRp2105
(dp2106
g62
(dp2107
g70
I4
ssg71
g2101
sg64
(lp2108
S''
asbasbasbag57
(g73
g59
NtRp2109
(dp2110
g62
(dp2111
sg71
g1405
sg64
(lp2112
g57
(g78
g59
NtRp2113
(dp2114
g62
(dp2115
g82
g83
ssg71
g2109
sg64
(lp2116
S'server_name'
p2117
asbag57
(g78
g59
NtRp2118
(dp2119
g62
(dp2120
g89
g90
ssg71
g2109
sg64
(lp2121
S':'
asbag57
(g78
g59
NtRp2122
(dp2123
g62
(dp2124
sg71
g2109
sg64
(lp2125
g57
(g58
g59
NtRp2126
(dp2127
g62
(dp2128
g70
I4
ssg71
g2122
sg64
(lp2129
S'nazrul-Compaq-Presario-CQ40-Notebook-PC'
p2130
asbasbasbag57
(g73
g59
NtRp2131
(dp2132
g62
(dp2133
sg71
g1405
sg64
(lp2134
g57
(g78
g59
NtRp2135
(dp2136
g62
(dp2137
g82
g83
ssg71
g2131
sg64
(lp2138
S'server_port'
p2139
asbag57
(g78
g59
NtRp2140
(dp2141
g62
(dp2142
g89
g90
ssg71
g2131
sg64
(lp2143
S':'
asbag57
(g78
g59
NtRp2144
(dp2145
g62
(dp2146
sg71
g2131
sg64
(lp2147
g57
(g58
g59
NtRp2148
(dp2149
g62
(dp2150
g70
I4
ssg71
g2144
sg64
(lp2151
S'8000'
p2152
asbasbasbag57
(g73
g59
NtRp2153
(dp2154
g62
(dp2155
sg71
g1405
sg64
(lp2156
g57
(g78
g59
NtRp2157
(dp2158
g62
(dp2159
g82
g83
ssg71
g2153
sg64
(lp2160
S'server_protocol'
p2161
asbag57
(g78
g59
NtRp2162
(dp2163
g62
(dp2164
g89
g90
ssg71
g2153
sg64
(lp2165
S':'
asbag57
(g78
g59
NtRp2166
(dp2167
g62
(dp2168
sg71
g2153
sg64
(lp2169
g57
(g58
g59
NtRp2170
(dp2171
g62
(dp2172
g70
I4
ssg71
g2166
sg64
(lp2173
S'HTTP/1.1'
p2174
asbasbasbag57
(g73
g59
NtRp2175
(dp2176
g62
(dp2177
sg71
g1405
sg64
(lp2178
g57
(g78
g59
NtRp2179
(dp2180
g62
(dp2181
g82
g83
ssg71
g2175
sg64
(lp2182
S'server_software'
p2183
asbag57
(g78
g59
NtRp2184
(dp2185
g62
(dp2186
g89
g90
ssg71
g2175
sg64
(lp2187
S':'
asbag57
(g78
g59
NtRp2188
(dp2189
g62
(dp2190
sg71
g2175
sg64
(lp2191
g57
(g58
g59
NtRp2192
(dp2193
g62
(dp2194
g70
I4
ssg71
g2188
sg64
(lp2195
S'Rocket 1.2.6'
p2196
asbasbasbag57
(g73
g59
NtRp2197
(dp2198
g62
(dp2199
sg71
g1405
sg64
(lp2200
g57
(g78
g59
NtRp2201
(dp2202
g62
(dp2203
g82
g83
ssg71
g2197
sg64
(lp2204
S'web2py_path'
p2205
asbag57
(g78
g59
NtRp2206
(dp2207
g62
(dp2208
g89
g90
ssg71
g2197
sg64
(lp2209
S':'
asbag57
(g78
g59
NtRp2210
(dp2211
g62
(dp2212
sg71
g2197
sg64
(lp2213
g57
(g58
g59
NtRp2214
(dp2215
g62
(dp2216
g70
I4
ssg71
g2210
sg64
(lp2217
g1452
asbasbasbag57
(g73
g59
NtRp2218
(dp2219
g62
(dp2220
sg71
g1405
sg64
(lp2221
g57
(g78
g59
NtRp2222
(dp2223
g62
(dp2224
g82
g83
ssg71
g2218
sg64
(lp2225
S'web2py_version'
p2226
asbag57
(g78
g59
NtRp2227
(dp2228
g62
(dp2229
g89
g90
ssg71
g2218
sg64
(lp2230
S':'
asbag57
(g78
g59
NtRp2231
(dp2232
g62
(dp2233
sg71
g2218
sg64
(lp2234
g57
(g58
g59
NtRp2235
(dp2236
g62
(dp2237
g70
I4
ssg71
g2231
sg64
(lp2238
g57
(g66
g59
NtRp2239
(dp2240
g62
(dp2241
g70
I3
ssg71
Nsg64
(lp2242
g57
(g73
g59
NtRp2243
(dp2244
g62
(dp2245
sg71
g2239
sg64
(lp2246
g57
(g78
g59
NtRp2247
(dp2248
g62
(dp2249
sg71
g2243
sg64
(lp2250
g57
(g58
g59
NtRp2251
(dp2252
g62
(dp2253
g70
I3
ssg71
g2247
sg64
(lp2254
S'2'
asbasbasbag57
(g73
g59
NtRp2255
(dp2256
g62
(dp2257
sg71
g2239
sg64
(lp2258
g57
(g78
g59
NtRp2259
(dp2260
g62
(dp2261
sg71
g2255
sg64
(lp2262
g57
(g58
g59
NtRp2263
(dp2264
g62
(dp2265
g70
I3
ssg71
g2259
sg64
(lp2266
S'3'
asbasbasbag57
(g73
g59
NtRp2267
(dp2268
g62
(dp2269
sg71
g2239
sg64
(lp2270
g57
(g78
g59
NtRp2271
(dp2272
g62
(dp2273
sg71
g2267
sg64
(lp2274
g57
(g58
g59
NtRp2275
(dp2276
g62
(dp2277
g70
I3
ssg71
g2271
sg64
(lp2278
S'2'
asbasbasbag57
(g73
g59
NtRp2279
(dp2280
g62
(dp2281
sg71
g2239
sg64
(lp2282
g57
(g78
g59
NtRp2283
(dp2284
g62
(dp2285
sg71
g2279
sg64
(lp2286
g57
(g58
g59
NtRp2287
(dp2288
g62
(dp2289
g70
I3
ssg71
g2283
sg64
(lp2290
S'datetime.datetime(2012, 12, 17, 15, 3, 30)'
p2291
asbasbasbag57
(g73
g59
NtRp2292
(dp2293
g62
(dp2294
sg71
g2239
sg64
(lp2295
g57
(g78
g59
NtRp2296
(dp2297
g62
(dp2298
sg71
g2292
sg64
(lp2299
g57
(g58
g59
NtRp2300
(dp2301
g62
(dp2302
g70
I3
ssg71
g2296
sg64
(lp2303
S'stable'
p2304
asbasbasbasbasbasbasbag57
(g73
g59
NtRp2305
(dp2306
g62
(dp2307
sg71
g1405
sg64
(lp2308
g57
(g78
g59
NtRp2309
(dp2310
g62
(dp2311
g82
g83
ssg71
g2305
sg64
(lp2312
S'wsgi_errors'
p2313
asbag57
(g78
g59
NtRp2314
(dp2315
g62
(dp2316
g89
g90
ssg71
g2305
sg64
(lp2317
S':'
asbag57
(g78
g59
NtRp2318
(dp2319
g62
(dp2320
sg71
g2305
sg64
(lp2321
g57
(g58
g59
NtRp2322
(dp2323
g62
(dp2324
g70
I4
ssg71
g2318
sg64
(lp2325
S"<open file '<stderr>', mode 'w' at 0xb72d20d0>"
p2326
asbasbasbag57
(g73
g59
NtRp2327
(dp2328
g62
(dp2329
sg71
g1405
sg64
(lp2330
g57
(g78
g59
NtRp2331
(dp2332
g62
(dp2333
g82
g83
ssg71
g2327
sg64
(lp2334
S'wsgi_file_wrapper'
p2335
asbag57
(g78
g59
NtRp2336
(dp2337
g62
(dp2338
g89
g90
ssg71
g2327
sg64
(lp2339
S':'
asbag57
(g78
g59
NtRp2340
(dp2341
g62
(dp2342
sg71
g2327
sg64
(lp2343
g57
(g58
g59
NtRp2344
(dp2345
g62
(dp2346
g70
I4
ssg71
g2340
sg64
(lp2347
S'<class wsgiref.util.FileWrapper at 0x8e0a47c>'
p2348
asbasbasbag57
(g73
g59
NtRp2349
(dp2350
g62
(dp2351
sg71
g1405
sg64
(lp2352
g57
(g78
g59
NtRp2353
(dp2354
g62
(dp2355
g82
g83
ssg71
g2349
sg64
(lp2356
S'wsgi_input'
p2357
asbag57
(g78
g59
NtRp2358
(dp2359
g62
(dp2360
g89
g90
ssg71
g2349
sg64
(lp2361
S':'
asbag57
(g78
g59
NtRp2362
(dp2363
g62
(dp2364
sg71
g2349
sg64
(lp2365
g57
(g58
g59
NtRp2366
(dp2367
g62
(dp2368
g70
I4
ssg71
g2362
sg64
(lp2369
S'<socket._fileobject object at 0x9463c6c>'
p2370
asbasbasbag57
(g73
g59
NtRp2371
(dp2372
g62
(dp2373
sg71
g1405
sg64
(lp2374
g57
(g78
g59
NtRp2375
(dp2376
g62
(dp2377
g82
g83
ssg71
g2371
sg64
(lp2378
S'wsgi_multiprocess'
p2379
asbag57
(g78
g59
NtRp2380
(dp2381
g62
(dp2382
g89
g90
ssg71
g2371
sg64
(lp2383
S':'
asbag57
(g78
g59
NtRp2384
(dp2385
g62
(dp2386
sg71
g2371
sg64
(lp2387
g57
(g58
g59
NtRp2388
(dp2389
g62
(dp2390
g70
I4
ssg71
g2384
sg64
(lp2391
g100
asbasbasbag57
(g73
g59
NtRp2392
(dp2393
g62
(dp2394
sg71
g1405
sg64
(lp2395
g57
(g78
g59
NtRp2396
(dp2397
g62
(dp2398
g82
g83
ssg71
g2392
sg64
(lp2399
S'wsgi_multithread'
p2400
asbag57
(g78
g59
NtRp2401
(dp2402
g62
(dp2403
g89
g90
ssg71
g2392
sg64
(lp2404
S':'
asbag57
(g78
g59
NtRp2405
(dp2406
g62
(dp2407
sg71
g2392
sg64
(lp2408
g57
(g58
g59
NtRp2409
(dp2410
g62
(dp2411
g70
I4
ssg71
g2405
sg64
(lp2412
S'True'
p2413
asbasbasbag57
(g73
g59
NtRp2414
(dp2415
g62
(dp2416
sg71
g1405
sg64
(lp2417
g57
(g78
g59
NtRp2418
(dp2419
g62
(dp2420
g82
g83
ssg71
g2414
sg64
(lp2421
S'wsgi_run_once'
p2422
asbag57
(g78
g59
NtRp2423
(dp2424
g62
(dp2425
g89
g90
ssg71
g2414
sg64
(lp2426
S':'
asbag57
(g78
g59
NtRp2427
(dp2428
g62
(dp2429
sg71
g2414
sg64
(lp2430
g57
(g58
g59
NtRp2431
(dp2432
g62
(dp2433
g70
I4
ssg71
g2427
sg64
(lp2434
g100
asbasbasbag57
(g73
g59
NtRp2435
(dp2436
g62
(dp2437
sg71
g1405
sg64
(lp2438
g57
(g78
g59
NtRp2439
(dp2440
g62
(dp2441
g82
g83
ssg71
g2435
sg64
(lp2442
S'wsgi_url_scheme'
p2443
asbag57
(g78
g59
NtRp2444
(dp2445
g62
(dp2446
g89
g90
ssg71
g2435
sg64
(lp2447
S':'
asbag57
(g78
g59
NtRp2448
(dp2449
g62
(dp2450
sg71
g2435
sg64
(lp2451
g57
(g58
g59
NtRp2452
(dp2453
g62
(dp2454
g70
I4
ssg71
g2448
sg64
(lp2455
S'http'
p2456
asbasbasbag57
(g73
g59
NtRp2457
(dp2458
g62
(dp2459
sg71
g1405
sg64
(lp2460
g57
(g78
g59
NtRp2461
(dp2462
g62
(dp2463
g82
g83
ssg71
g2457
sg64
(lp2464
S'wsgi_version'
p2465
asbag57
(g78
g59
NtRp2466
(dp2467
g62
(dp2468
g89
g90
ssg71
g2457
sg64
(lp2469
S':'
asbag57
(g78
g59
NtRp2470
(dp2471
g62
(dp2472
sg71
g2457
sg64
(lp2473
g57
(g58
g59
NtRp2474
(dp2475
g62
(dp2476
g70
I4
ssg71
g2470
sg64
(lp2477
g57
(g66
g59
NtRp2478
(dp2479
g62
(dp2480
g70
I3
ssg71
Nsg64
(lp2481
g57
(g73
g59
NtRp2482
(dp2483
g62
(dp2484
sg71
g2478
sg64
(lp2485
g57
(g78
g59
NtRp2486
(dp2487
g62
(dp2488
sg71
g2482
sg64
(lp2489
g57
(g58
g59
NtRp2490
(dp2491
g62
(dp2492
g70
I3
ssg71
g2486
sg64
(lp2493
S'1'
asbasbasbag57
(g73
g59
NtRp2494
(dp2495
g62
(dp2496
sg71
g2478
sg64
(lp2497
g57
(g78
g59
NtRp2498
(dp2499
g62
(dp2500
sg71
g2494
sg64
(lp2501
g57
(g58
g59
NtRp2502
(dp2503
g62
(dp2504
g70
I3
ssg71
g2498
sg64
(lp2505
S'0'
asbasbasbasbasbasbasbasbasbasbasbag57
(g73
g59
NtRp2506
(dp2507
g62
(dp2508
sg71
g67
sg64
(lp2509
g57
(g78
g59
NtRp2510
(dp2511
g62
(dp2512
g82
g83
ssg71
g2506
sg64
(lp2513
S'extension'
p2514
asbag57
(g78
g59
NtRp2515
(dp2516
g62
(dp2517
g89
g90
ssg71
g2506
sg64
(lp2518
S':'
asbag57
(g78
g59
NtRp2519
(dp2520
g62
(dp2521
sg71
g2506
sg64
(lp2522
g57
(g58
g59
NtRp2523
(dp2524
g62
(dp2525
g70
I5
ssg71
g2519
sg64
(lp2526
S'html'
p2527
asbasbasbag57
(g73
g59
NtRp2528
(dp2529
g62
(dp2530
sg71
g67
sg64
(lp2531
g57
(g78
g59
NtRp2532
(dp2533
g62
(dp2534
g82
g83
ssg71
g2528
sg64
(lp2535
S'folder'
p2536
asbag57
(g78
g59
NtRp2537
(dp2538
g62
(dp2539
g89
g90
ssg71
g2528
sg64
(lp2540
S':'
asbag57
(g78
g59
NtRp2541
(dp2542
g62
(dp2543
sg71
g2528
sg64
(lp2544
g57
(g58
g59
NtRp2545
(dp2546
g62
(dp2547
g70
I5
ssg71
g2541
sg64
(lp2548
S'/home/nazrul/web2py/applications/WSD/'
p2549
asbasbasbag57
(g73
g59
NtRp2550
(dp2551
g62
(dp2552
sg71
g67
sg64
(lp2553
g57
(g78
g59
NtRp2554
(dp2555
g62
(dp2556
g82
g83
ssg71
g2550
sg64
(lp2557
S'function'
p2558
asbag57
(g78
g59
NtRp2559
(dp2560
g62
(dp2561
g89
g90
ssg71
g2550
sg64
(lp2562
S':'
asbag57
(g78
g59
NtRp2563
(dp2564
g62
(dp2565
sg71
g2550
sg64
(lp2566
g57
(g58
g59
NtRp2567
(dp2568
g62
(dp2569
g70
I5
ssg71
g2563
sg64
(lp2570
S'changelevel'
p2571
asbasbasbag57
(g73
g59
NtRp2572
(dp2573
g62
(dp2574
sg71
g67
sg64
(lp2575
g57
(g78
g59
NtRp2576
(dp2577
g62
(dp2578
g82
g83
ssg71
g2572
sg64
(lp2579
S'get_vars'
p2580
asbag57
(g78
g59
NtRp2581
(dp2582
g62
(dp2583
g89
g90
ssg71
g2572
sg64
(lp2584
S':'
asbag57
(g78
g59
NtRp2585
(dp2586
g62
(dp2587
sg71
g2572
sg64
(lp2588
g57
(g58
g59
NtRp2589
(dp2590
g62
(dp2591
g70
I5
ssg71
g2585
sg64
(lp2592
g57
(g66
g59
NtRp2593
(dp2594
g62
(dp2595
g70
I4
ssg71
Nsg64
(lp2596
sbasbasbasbag57
(g73
g59
NtRp2597
(dp2598
g62
(dp2599
sg71
g67
sg64
(lp2600
g57
(g78
g59
NtRp2601
(dp2602
g62
(dp2603
g82
g83
ssg71
g2597
sg64
(lp2604
S'global_settings'
p2605
asbag57
(g78
g59
NtRp2606
(dp2607
g62
(dp2608
g89
g90
ssg71
g2597
sg64
(lp2609
S':'
asbag57
(g78
g59
NtRp2610
(dp2611
g62
(dp2612
sg71
g2597
sg64
(lp2613
g57
(g58
g59
NtRp2614
(dp2615
g62
(dp2616
g70
I5
ssg71
g2610
sg64
(lp2617
g57
(g66
g59
NtRp2618
(dp2619
g62
(dp2620
g70
I4
ssg71
Nsg64
(lp2621
g57
(g73
g59
NtRp2622
(dp2623
g62
(dp2624
sg71
g2618
sg64
(lp2625
g57
(g78
g59
NtRp2626
(dp2627
g62
(dp2628
g82
g83
ssg71
g2622
sg64
(lp2629
g1417
asbag57
(g78
g59
NtRp2630
(dp2631
g62
(dp2632
g89
g90
ssg71
g2622
sg64
(lp2633
S':'
asbag57
(g78
g59
NtRp2634
(dp2635
g62
(dp2636
sg71
g2622
sg64
(lp2637
g57
(g58
g59
NtRp2638
(dp2639
g62
(dp2640
g70
I4
ssg71
g2634
sg64
(lp2641
S"set(['/home/nazrul/web2py/applications/WSD/', '/home/nazrul/web2py/applications/welcome/', '/home/nazrul/web2py/applications/WSD_Tool/', '/home/nazrul/web2py/applications/news/', '/home/nazrul/web2py/applications/admin/'])"
p2642
asbasbasbag57
(g73
g59
NtRp2643
(dp2644
g62
(dp2645
sg71
g2618
sg64
(lp2646
g57
(g78
g59
NtRp2647
(dp2648
g62
(dp2649
g82
g83
ssg71
g2643
sg64
(lp2650
g1439
asbag57
(g78
g59
NtRp2651
(dp2652
g62
(dp2653
g89
g90
ssg71
g2643
sg64
(lp2654
S':'
asbag57
(g78
g59
NtRp2655
(dp2656
g62
(dp2657
sg71
g2643
sg64
(lp2658
g57
(g58
g59
NtRp2659
(dp2660
g62
(dp2661
g70
I4
ssg71
g2655
sg64
(lp2662
g1452
asbasbasbag57
(g73
g59
NtRp2663
(dp2664
g62
(dp2665
sg71
g2618
sg64
(lp2666
g57
(g78
g59
NtRp2667
(dp2668
g62
(dp2669
g82
g83
ssg71
g2663
sg64
(lp2670
g1461
asbag57
(g78
g59
NtRp2671
(dp2672
g62
(dp2673
g89
g90
ssg71
g2663
sg64
(lp2674
S':'
asbag57
(g78
g59
NtRp2675
(dp2676
g62
(dp2677
sg71
g2663
sg64
(lp2678
g57
(g58
g59
NtRp2679
(dp2680
g62
(dp2681
g70
I4
ssg71
g2675
sg64
(lp2682
g57
(g66
g59
NtRp2683
(dp2684
g62
(dp2685
g70
I3
ssg71
Nsg64
(lp2686
sbasbasbasbag57
(g73
g59
NtRp2687
(dp2688
g62
(dp2689
sg71
g2618
sg64
(lp2690
g57
(g78
g59
NtRp2691
(dp2692
g62
(dp2693
g82
g83
ssg71
g2687
sg64
(lp2694
g1486
asbag57
(g78
g59
NtRp2695
(dp2696
g62
(dp2697
g89
g90
ssg71
g2687
sg64
(lp2698
S':'
asbag57
(g78
g59
NtRp2699
(dp2700
g62
(dp2701
sg71
g2687
sg64
(lp2702
g57
(g58
g59
NtRp2703
(dp2704
g62
(dp2705
g70
I4
ssg71
g2699
sg64
(lp2706
S"<Values at 0x8e4a9cc: {'verbose': False, 'ip': '127.0.0.1', 'with_scheduler': False, 'ips': [], 'shutdown_timeout': 5, 'taskbar': False, 'port': 8000, 'maxthreads': None, 'softcron': False, 'server_name': 'nazrul-Compaq-Presario-CQ40-Notebook-PC', 'bpython': False, 'nogui': False, 'pid_filename': 'httpserver.pid', 'extcron': False, 'runcron': False, 'run_system_tests': False, 'test': None, 'folder': '/home/nazrul/web2py', 'config': '', 'import_models': False, 'winservice': '', 'shell': None, 'run': '', 'log_filename': 'httpserver.log', 'debuglevel': 30, 'args': [''], 'socket_timeout': 5, 'ssl_ca_certificate': None, 'scheduler': None, 'profiler_filename': None, 'ssl_private_key': '', 'scheduler_groups': None, 'password': '<ask>', 'request_queue_size': 5, 'ssl_certificate': '', 'cronjob': False, 'numthreads': None, 'quiet': False, 'interfaces': None, 'minthreads': None, 'timeout': 10, 'plain': False, 'nobanner': False}>"
p2707
asbasbasbag57
(g73
g59
NtRp2708
(dp2709
g62
(dp2710
sg71
g2618
sg64
(lp2711
g57
(g78
g59
NtRp2712
(dp2713
g62
(dp2714
g82
g83
ssg71
g2708
sg64
(lp2715
g1552
asbag57
(g78
g59
NtRp2716
(dp2717
g62
(dp2718
g89
g90
ssg71
g2708
sg64
(lp2719
S':'
asbag57
(g78
g59
NtRp2720
(dp2721
g62
(dp2722
sg71
g2708
sg64
(lp2723
g57
(g58
g59
NtRp2724
(dp2725
g62
(dp2726
g70
I4
ssg71
g2720
sg64
(lp2727
S'set([])'
p2728
asbasbasbag57
(g73
g59
NtRp2729
(dp2730
g62
(dp2731
sg71
g2618
sg64
(lp2732
g57
(g78
g59
NtRp2733
(dp2734
g62
(dp2735
g82
g83
ssg71
g2729
sg64
(lp2736
g1574
asbag57
(g78
g59
NtRp2737
(dp2738
g62
(dp2739
g89
g90
ssg71
g2729
sg64
(lp2740
S':'
asbag57
(g78
g59
NtRp2741
(dp2742
g62
(dp2743
sg71
g2729
sg64
(lp2744
g57
(g58
g59
NtRp2745
(dp2746
g62
(dp2747
g70
I4
ssg71
g2741
sg64
(lp2748
g100
asbasbasbag57
(g73
g59
NtRp2749
(dp2750
g62
(dp2751
sg71
g2618
sg64
(lp2752
g57
(g78
g59
NtRp2753
(dp2754
g62
(dp2755
g82
g83
ssg71
g2749
sg64
(lp2756
g1595
asbag57
(g78
g59
NtRp2757
(dp2758
g62
(dp2759
g89
g90
ssg71
g2749
sg64
(lp2760
S':'
asbag57
(g78
g59
NtRp2761
(dp2762
g62
(dp2763
sg71
g2749
sg64
(lp2764
g57
(g58
g59
NtRp2765
(dp2766
g62
(dp2767
g70
I4
ssg71
g2761
sg64
(lp2768
g1608
asbasbasbag57
(g73
g59
NtRp2769
(dp2770
g62
(dp2771
sg71
g2618
sg64
(lp2772
g57
(g78
g59
NtRp2773
(dp2774
g62
(dp2775
g82
g83
ssg71
g2769
sg64
(lp2776
g1835
asbag57
(g78
g59
NtRp2777
(dp2778
g62
(dp2779
g89
g90
ssg71
g2769
sg64
(lp2780
S':'
asbag57
(g78
g59
NtRp2781
(dp2782
g62
(dp2783
sg71
g2769
sg64
(lp2784
g57
(g58
g59
NtRp2785
(dp2786
g62
(dp2787
g70
I4
ssg71
g2781
sg64
(lp2788
g100
asbasbasbag57
(g73
g59
NtRp2789
(dp2790
g62
(dp2791
sg71
g2618
sg64
(lp2792
g57
(g78
g59
NtRp2793
(dp2794
g62
(dp2795
g82
g83
ssg71
g2789
sg64
(lp2796
g1856
asbag57
(g78
g59
NtRp2797
(dp2798
g62
(dp2799
g89
g90
ssg71
g2789
sg64
(lp2800
S':'
asbag57
(g78
g59
NtRp2801
(dp2802
g62
(dp2803
sg71
g2789
sg64
(lp2804
g57
(g58
g59
NtRp2805
(dp2806
g62
(dp2807
g70
I4
ssg71
g2801
sg64
(lp2808
g100
asbasbasbag57
(g73
g59
NtRp2809
(dp2810
g62
(dp2811
sg71
g2618
sg64
(lp2812
g57
(g78
g59
NtRp2813
(dp2814
g62
(dp2815
g82
g83
ssg71
g2809
sg64
(lp2816
g1877
asbag57
(g78
g59
NtRp2817
(dp2818
g62
(dp2819
g89
g90
ssg71
g2809
sg64
(lp2820
S':'
asbag57
(g78
g59
NtRp2821
(dp2822
g62
(dp2823
sg71
g2809
sg64
(lp2824
g57
(g58
g59
NtRp2825
(dp2826
g62
(dp2827
g70
I4
ssg71
g2821
sg64
(lp2828
g57
(g66
g59
NtRp2829
(dp2830
g62
(dp2831
g70
I3
ssg71
Nsg64
(lp2832
g57
(g73
g59
NtRp2833
(dp2834
g62
(dp2835
sg71
g2829
sg64
(lp2836
g57
(g78
g59
NtRp2837
(dp2838
g62
(dp2839
sg71
g2833
sg64
(lp2840
g57
(g58
g59
NtRp2841
(dp2842
g62
(dp2843
g70
I3
ssg71
g2837
sg64
(lp2844
g1906
asbasbasbag57
(g73
g59
NtRp2845
(dp2846
g62
(dp2847
sg71
g2829
sg64
(lp2848
g57
(g78
g59
NtRp2849
(dp2850
g62
(dp2851
sg71
g2845
sg64
(lp2852
g57
(g58
g59
NtRp2853
(dp2854
g62
(dp2855
g70
I3
ssg71
g2849
sg64
(lp2856
g1919
asbasbasbag57
(g73
g59
NtRp2857
(dp2858
g62
(dp2859
sg71
g2829
sg64
(lp2860
g57
(g78
g59
NtRp2861
(dp2862
g62
(dp2863
sg71
g2857
sg64
(lp2864
g57
(g58
g59
NtRp2865
(dp2866
g62
(dp2867
g70
I3
ssg71
g2861
sg64
(lp2868
g1932
asbasbasbag57
(g73
g59
NtRp2869
(dp2870
g62
(dp2871
sg71
g2829
sg64
(lp2872
g57
(g78
g59
NtRp2873
(dp2874
g62
(dp2875
sg71
g2869
sg64
(lp2876
g57
(g58
g59
NtRp2877
(dp2878
g62
(dp2879
g70
I3
ssg71
g2873
sg64
(lp2880
g1945
asbasbasbag57
(g73
g59
NtRp2881
(dp2882
g62
(dp2883
sg71
g2829
sg64
(lp2884
g57
(g78
g59
NtRp2885
(dp2886
g62
(dp2887
sg71
g2881
sg64
(lp2888
g57
(g58
g59
NtRp2889
(dp2890
g62
(dp2891
g70
I3
ssg71
g2885
sg64
(lp2892
g1958
asbasbasbasbasbasbasbag57
(g73
g59
NtRp2893
(dp2894
g62
(dp2895
sg71
g2618
sg64
(lp2896
g57
(g78
g59
NtRp2897
(dp2898
g62
(dp2899
g82
g83
ssg71
g2893
sg64
(lp2900
g2226
asbag57
(g78
g59
NtRp2901
(dp2902
g62
(dp2903
g89
g90
ssg71
g2893
sg64
(lp2904
S':'
asbag57
(g78
g59
NtRp2905
(dp2906
g62
(dp2907
sg71
g2893
sg64
(lp2908
g57
(g58
g59
NtRp2909
(dp2910
g62
(dp2911
g70
I4
ssg71
g2905
sg64
(lp2912
g57
(g66
g59
NtRp2913
(dp2914
g62
(dp2915
g70
I3
ssg71
Nsg64
(lp2916
g57
(g73
g59
NtRp2917
(dp2918
g62
(dp2919
sg71
g2913
sg64
(lp2920
g57
(g78
g59
NtRp2921
(dp2922
g62
(dp2923
sg71
g2917
sg64
(lp2924
g57
(g58
g59
NtRp2925
(dp2926
g62
(dp2927
g70
I3
ssg71
g2921
sg64
(lp2928
S'2'
asbasbasbag57
(g73
g59
NtRp2929
(dp2930
g62
(dp2931
sg71
g2913
sg64
(lp2932
g57
(g78
g59
NtRp2933
(dp2934
g62
(dp2935
sg71
g2929
sg64
(lp2936
g57
(g58
g59
NtRp2937
(dp2938
g62
(dp2939
g70
I3
ssg71
g2933
sg64
(lp2940
S'3'
asbasbasbag57
(g73
g59
NtRp2941
(dp2942
g62
(dp2943
sg71
g2913
sg64
(lp2944
g57
(g78
g59
NtRp2945
(dp2946
g62
(dp2947
sg71
g2941
sg64
(lp2948
g57
(g58
g59
NtRp2949
(dp2950
g62
(dp2951
g70
I3
ssg71
g2945
sg64
(lp2952
S'2'
asbasbasbag57
(g73
g59
NtRp2953
(dp2954
g62
(dp2955
sg71
g2913
sg64
(lp2956
g57
(g78
g59
NtRp2957
(dp2958
g62
(dp2959
sg71
g2953
sg64
(lp2960
g57
(g58
g59
NtRp2961
(dp2962
g62
(dp2963
g70
I3
ssg71
g2957
sg64
(lp2964
S'datetime.datetime(2012, 12, 17, 15, 3, 30)'
p2965
asbasbasbag57
(g73
g59
NtRp2966
(dp2967
g62
(dp2968
sg71
g2913
sg64
(lp2969
g57
(g78
g59
NtRp2970
(dp2971
g62
(dp2972
sg71
g2966
sg64
(lp2973
g57
(g58
g59
NtRp2974
(dp2975
g62
(dp2976
g70
I3
ssg71
g2970
sg64
(lp2977
g2304
asbasbasbasbasbasbasbasbasbasbasbag57
(g73
g59
NtRp2978
(dp2979
g62
(dp2980
sg71
g67
sg64
(lp2981
g57
(g78
g59
NtRp2982
(dp2983
g62
(dp2984
g82
g83
ssg71
g2978
sg64
(lp2985
S'is_https'
p2986
asbag57
(g78
g59
NtRp2987
(dp2988
g62
(dp2989
g89
g90
ssg71
g2978
sg64
(lp2990
S':'
asbag57
(g78
g59
NtRp2991
(dp2992
g62
(dp2993
sg71
g2978
sg64
(lp2994
g57
(g58
g59
NtRp2995
(dp2996
g62
(dp2997
g70
I5
ssg71
g2991
sg64
(lp2998
g100
asbasbasbag57
(g73
g59
NtRp2999
(dp3000
g62
(dp3001
sg71
g67
sg64
(lp3002
g57
(g78
g59
NtRp3003
(dp3004
g62
(dp3005
g82
g83
ssg71
g2999
sg64
(lp3006
S'is_local'
p3007
asbag57
(g78
g59
NtRp3008
(dp3009
g62
(dp3010
g89
g90
ssg71
g2999
sg64
(lp3011
S':'
asbag57
(g78
g59
NtRp3012
(dp3013
g62
(dp3014
sg71
g2999
sg64
(lp3015
g57
(g58
g59
NtRp3016
(dp3017
g62
(dp3018
g70
I5
ssg71
g3012
sg64
(lp3019
g2413
asbasbasbag57
(g73
g59
NtRp3020
(dp3021
g62
(dp3022
sg71
g67
sg64
(lp3023
g57
(g78
g59
NtRp3024
(dp3025
g62
(dp3026
g82
g83
ssg71
g3020
sg64
(lp3027
S'is_restful'
p3028
asbag57
(g78
g59
NtRp3029
(dp3030
g62
(dp3031
g89
g90
ssg71
g3020
sg64
(lp3032
S':'
asbag57
(g78
g59
NtRp3033
(dp3034
g62
(dp3035
sg71
g3020
sg64
(lp3036
g57
(g58
g59
NtRp3037
(dp3038
g62
(dp3039
g70
I5
ssg71
g3033
sg64
(lp3040
g100
asbasbasbag57
(g73
g59
NtRp3041
(dp3042
g62
(dp3043
sg71
g67
sg64
(lp3044
g57
(g78
g59
NtRp3045
(dp3046
g62
(dp3047
g82
g83
ssg71
g3041
sg64
(lp3048
S'now'
p3049
asbag57
(g78
g59
NtRp3050
(dp3051
g62
(dp3052
g89
g90
ssg71
g3041
sg64
(lp3053
S':'
asbag57
(g78
g59
NtRp3054
(dp3055
g62
(dp3056
sg71
g3041
sg64
(lp3057
g57
(g58
g59
NtRp3058
(dp3059
g62
(dp3060
g70
I5
ssg71
g3054
sg64
(lp3061
S'datetime.datetime(2013, 11, 19, 17, 1, 8, 509340)'
p3062
asbasbasbag57
(g73
g59
NtRp3063
(dp3064
g62
(dp3065
sg71
g67
sg64
(lp3066
g57
(g78
g59
NtRp3067
(dp3068
g62
(dp3069
g82
g83
ssg71
g3063
sg64
(lp3070
S'post_vars'
p3071
asbag57
(g78
g59
NtRp3072
(dp3073
g62
(dp3074
g89
g90
ssg71
g3063
sg64
(lp3075
S':'
asbag57
(g78
g59
NtRp3076
(dp3077
g62
(dp3078
sg71
g3063
sg64
(lp3079
g57
(g58
g59
NtRp3080
(dp3081
g62
(dp3082
g70
I5
ssg71
g3076
sg64
(lp3083
g57
(g66
g59
NtRp3084
(dp3085
g62
(dp3086
g70
I4
ssg71
Nsg64
(lp3087
g57
(g73
g59
NtRp3088
(dp3089
g62
(dp3090
sg71
g3084
sg64
(lp3091
g57
(g78
g59
NtRp3092
(dp3093
g62
(dp3094
g82
g83
ssg71
g3088
sg64
(lp3095
S'emailq'
p3096
asbag57
(g78
g59
NtRp3097
(dp3098
g62
(dp3099
g89
g90
ssg71
g3088
sg64
(lp3100
S':'
asbag57
(g78
g59
NtRp3101
(dp3102
g62
(dp3103
sg71
g3088
sg64
(lp3104
g57
(g58
g59
NtRp3105
(dp3106
g62
(dp3107
g70
I4
ssg71
g3101
sg64
(lp3108
S'user@sys.com'
p3109
asbasbasbag57
(g73
g59
NtRp3110
(dp3111
g62
(dp3112
sg71
g3084
sg64
(lp3113
g57
(g78
g59
NtRp3114
(dp3115
g62
(dp3116
g82
g83
ssg71
g3110
sg64
(lp3117
S'level'
p3118
asbag57
(g78
g59
NtRp3119
(dp3120
g62
(dp3121
g89
g90
ssg71
g3110
sg64
(lp3122
S':'
asbag57
(g78
g59
NtRp3123
(dp3124
g62
(dp3125
sg71
g3110
sg64
(lp3126
g57
(g58
g59
NtRp3127
(dp3128
g62
(dp3129
g70
I4
ssg71
g3123
sg64
(lp3130
S'2'
asbasbasbag57
(g73
g59
NtRp3131
(dp3132
g62
(dp3133
sg71
g3084
sg64
(lp3134
g57
(g78
g59
NtRp3135
(dp3136
g62
(dp3137
g82
g83
ssg71
g3131
sg64
(lp3138
S'new_email'
p3139
asbag57
(g78
g59
NtRp3140
(dp3141
g62
(dp3142
g89
g90
ssg71
g3131
sg64
(lp3143
S':'
asbag57
(g78
g59
NtRp3144
(dp3145
g62
(dp3146
sg71
g3131
sg64
(lp3147
g57
(g58
g59
NtRp3148
(dp3149
g62
(dp3150
g70
I4
ssg71
g3144
sg64
(lp3151
S'user'
p3152
asbasbasbag57
(g73
g59
NtRp3153
(dp3154
g62
(dp3155
sg71
g3084
sg64
(lp3156
g57
(g78
g59
NtRp3157
(dp3158
g62
(dp3159
g82
g83
ssg71
g3153
sg64
(lp3160
S'submit'
p3161
asbag57
(g78
g59
NtRp3162
(dp3163
g62
(dp3164
g89
g90
ssg71
g3153
sg64
(lp3165
S':'
asbag57
(g78
g59
NtRp3166
(dp3167
g62
(dp3168
sg71
g3153
sg64
(lp3169
g57
(g58
g59
NtRp3170
(dp3171
g62
(dp3172
g70
I4
ssg71
g3166
sg64
(lp3173
S'submit'
p3174
asbasbasbasbasbasbasbag57
(g73
g59
NtRp3175
(dp3176
g62
(dp3177
sg71
g67
sg64
(lp3178
g57
(g78
g59
NtRp3179
(dp3180
g62
(dp3181
g82
g83
ssg71
g3175
sg64
(lp3182
S'raw_args'
p3183
asbag57
(g78
g59
NtRp3184
(dp3185
g62
(dp3186
g89
g90
ssg71
g3175
sg64
(lp3187
S':'
asbag57
(g78
g59
NtRp3188
(dp3189
g62
(dp3190
sg71
g3175
sg64
(lp3191
g57
(g58
g59
NtRp3192
(dp3193
g62
(dp3194
g70
I5
ssg71
g3188
sg64
(lp3195
S''
asbasbasbag57
(g73
g59
NtRp3196
(dp3197
g62
(dp3198
sg71
g67
sg64
(lp3199
g57
(g78
g59
NtRp3200
(dp3201
g62
(dp3202
g82
g83
ssg71
g3196
sg64
(lp3203
S'raw_extension'
p3204
asbag57
(g78
g59
NtRp3205
(dp3206
g62
(dp3207
g89
g90
ssg71
g3196
sg64
(lp3208
S':'
asbag57
(g78
g59
NtRp3209
(dp3210
g62
(dp3211
sg71
g3196
sg64
(lp3212
g57
(g58
g59
NtRp3213
(dp3214
g62
(dp3215
g70
I5
ssg71
g3209
sg64
(lp3216
S'None'
p3217
asbasbasbag57
(g73
g59
NtRp3218
(dp3219
g62
(dp3220
sg71
g67
sg64
(lp3221
g57
(g78
g59
NtRp3222
(dp3223
g62
(dp3224
g82
g83
ssg71
g3218
sg64
(lp3225
S'url'
p3226
asbag57
(g78
g59
NtRp3227
(dp3228
g62
(dp3229
g89
g90
ssg71
g3218
sg64
(lp3230
S':'
asbag57
(g78
g59
NtRp3231
(dp3232
g62
(dp3233
sg71
g3218
sg64
(lp3234
g57
(g58
g59
NtRp3235
(dp3236
g62
(dp3237
g70
I5
ssg71
g3231
sg64
(lp3238
g1980
asbasbasbag57
(g73
g59
NtRp3239
(dp3240
g62
(dp3241
sg71
g67
sg64
(lp3242
g57
(g78
g59
NtRp3243
(dp3244
g62
(dp3245
g82
g83
ssg71
g3239
sg64
(lp3246
S'utcnow'
p3247
asbag57
(g78
g59
NtRp3248
(dp3249
g62
(dp3250
g89
g90
ssg71
g3239
sg64
(lp3251
S':'
asbag57
(g78
g59
NtRp3252
(dp3253
g62
(dp3254
sg71
g3239
sg64
(lp3255
g57
(g58
g59
NtRp3256
(dp3257
g62
(dp3258
g70
I5
ssg71
g3252
sg64
(lp3259
S'datetime.datetime(2013, 11, 19, 11, 31, 8, 509375)'
p3260
asbasbasbag57
(g73
g59
NtRp3261
(dp3262
g62
(dp3263
sg71
g67
sg64
(lp3264
g57
(g78
g59
NtRp3265
(dp3266
g62
(dp3267
g82
g83
ssg71
g3261
sg64
(lp3268
S'uuid'
p3269
asbag57
(g78
g59
NtRp3270
(dp3271
g62
(dp3272
g89
g90
ssg71
g3261
sg64
(lp3273
S':'
asbag57
(g78
g59
NtRp3274
(dp3275
g62
(dp3276
sg71
g3261
sg64
(lp3277
g57
(g58
g59
NtRp3278
(dp3279
g62
(dp3280
g70
I5
ssg71
g3274
sg64
(lp3281
S'WSD/127.0.0.1.2013-11-19.17-01-08.2c9de9f9-9042-48ce-9f55-fd3d7f853613'
p3282
asbasbasbag57
(g73
g59
NtRp3283
(dp3284
g62
(dp3285
sg71
g67
sg64
(lp3286
g57
(g78
g59
NtRp3287
(dp3288
g62
(dp3289
g82
g83
ssg71
g3283
sg64
(lp3290
S'vars'
p3291
asbag57
(g78
g59
NtRp3292
(dp3293
g62
(dp3294
g89
g90
ssg71
g3283
sg64
(lp3295
S':'
asbag57
(g78
g59
NtRp3296
(dp3297
g62
(dp3298
sg71
g3283
sg64
(lp3299
g57
(g58
g59
NtRp3300
(dp3301
g62
(dp3302
g70
I5
ssg71
g3296
sg64
(lp3303
g57
(g66
g59
NtRp3304
(dp3305
g62
(dp3306
g70
I4
ssg71
Nsg64
(lp3307
g57
(g73
g59
NtRp3308
(dp3309
g62
(dp3310
sg71
g3304
sg64
(lp3311
g57
(g78
g59
NtRp3312
(dp3313
g62
(dp3314
g82
g83
ssg71
g3308
sg64
(lp3315
g3096
asbag57
(g78
g59
NtRp3316
(dp3317
g62
(dp3318
g89
g90
ssg71
g3308
sg64
(lp3319
S':'
asbag57
(g78
g59
NtRp3320
(dp3321
g62
(dp3322
sg71
g3308
sg64
(lp3323
g57
(g58
g59
NtRp3324
(dp3325
g62
(dp3326
g70
I4
ssg71
g3320
sg64
(lp3327
g3109
asbasbasbag57
(g73
g59
NtRp3328
(dp3329
g62
(dp3330
sg71
g3304
sg64
(lp3331
g57
(g78
g59
NtRp3332
(dp3333
g62
(dp3334
g82
g83
ssg71
g3328
sg64
(lp3335
g3118
asbag57
(g78
g59
NtRp3336
(dp3337
g62
(dp3338
g89
g90
ssg71
g3328
sg64
(lp3339
S':'
asbag57
(g78
g59
NtRp3340
(dp3341
g62
(dp3342
sg71
g3328
sg64
(lp3343
g57
(g58
g59
NtRp3344
(dp3345
g62
(dp3346
g70
I4
ssg71
g3340
sg64
(lp3347
S'2'
asbasbasbag57
(g73
g59
NtRp3348
(dp3349
g62
(dp3350
sg71
g3304
sg64
(lp3351
g57
(g78
g59
NtRp3352
(dp3353
g62
(dp3354
g82
g83
ssg71
g3348
sg64
(lp3355
g3139
asbag57
(g78
g59
NtRp3356
(dp3357
g62
(dp3358
g89
g90
ssg71
g3348
sg64
(lp3359
S':'
asbag57
(g78
g59
NtRp3360
(dp3361
g62
(dp3362
sg71
g3348
sg64
(lp3363
g57
(g58
g59
NtRp3364
(dp3365
g62
(dp3366
g70
I4
ssg71
g3360
sg64
(lp3367
g3152
asbasbasbag57
(g73
g59
NtRp3368
(dp3369
g62
(dp3370
sg71
g3304
sg64
(lp3371
g57
(g78
g59
NtRp3372
(dp3373
g62
(dp3374
g82
g83
ssg71
g3368
sg64
(lp3375
g3161
asbag57
(g78
g59
NtRp3376
(dp3377
g62
(dp3378
g89
g90
ssg71
g3368
sg64
(lp3379
S':'
asbag57
(g78
g59
NtRp3380
(dp3381
g62
(dp3382
sg71
g3368
sg64
(lp3383
g57
(g58
g59
NtRp3384
(dp3385
g62
(dp3386
g70
I4
ssg71
g3380
sg64
(lp3387
g3174
asbasbasbasbasbasbasbag57
(g73
g59
NtRp3388
(dp3389
g62
(dp3390
sg71
g67
sg64
(lp3391
g57
(g78
g59
NtRp3392
(dp3393
g62
(dp3394
g82
g83
ssg71
g3388
sg64
(lp3395
S'wsgi'
p3396
asbag57
(g78
g59
NtRp3397
(dp3398
g62
(dp3399
g89
g90
ssg71
g3388
sg64
(lp3400
S':'
asbag57
(g78
g59
NtRp3401
(dp3402
g62
(dp3403
sg71
g3388
sg64
(lp3404
g57
(g58
g59
NtRp3405
(dp3406
g62
(dp3407
g70
I5
ssg71
g3401
sg64
(lp3408
g57
(g66
g59
NtRp3409
(dp3410
g62
(dp3411
g70
I4
ssg71
Nsg64
(lp3412
g57
(g73
g59
NtRp3413
(dp3414
g62
(dp3415
sg71
g3409
sg64
(lp3416
g57
(g78
g59
NtRp3417
(dp3418
g62
(dp3419
g82
g83
ssg71
g3413
sg64
(lp3420
S'environ'
p3421
asbag57
(g78
g59
NtRp3422
(dp3423
g62
(dp3424
g89
g90
ssg71
g3413
sg64
(lp3425
S':'
asbag57
(g78
g59
NtRp3426
(dp3427
g62
(dp3428
sg71
g3413
sg64
(lp3429
g57
(g58
g59
NtRp3430
(dp3431
g62
(dp3432
g70
I4
ssg71
g3426
sg64
(lp3433
g57
(g66
g59
NtRp3434
(dp3435
g62
(dp3436
g70
I3
ssg71
Nsg64
(lp3437
g57
(g73
g59
NtRp3438
(dp3439
g62
(dp3440
sg71
g3434
sg64
(lp3441
g57
(g78
g59
NtRp3442
(dp3443
g62
(dp3444
g82
g83
ssg71
g3438
sg64
(lp3445
S'CONTENT_LENGTH'
p3446
asbag57
(g78
g59
NtRp3447
(dp3448
g62
(dp3449
g89
g90
ssg71
g3438
sg64
(lp3450
S':'
asbag57
(g78
g59
NtRp3451
(dp3452
g62
(dp3453
sg71
g3438
sg64
(lp3454
g57
(g58
g59
NtRp3455
(dp3456
g62
(dp3457
g70
I3
ssg71
g3451
sg64
(lp3458
g1521
asbasbasbag57
(g73
g59
NtRp3459
(dp3460
g62
(dp3461
sg71
g3434
sg64
(lp3462
g57
(g78
g59
NtRp3463
(dp3464
g62
(dp3465
g82
g83
ssg71
g3459
sg64
(lp3466
S'CONTENT_TYPE'
p3467
asbag57
(g78
g59
NtRp3468
(dp3469
g62
(dp3470
g89
g90
ssg71
g3459
sg64
(lp3471
S':'
asbag57
(g78
g59
NtRp3472
(dp3473
g62
(dp3474
sg71
g3459
sg64
(lp3475
g57
(g58
g59
NtRp3476
(dp3477
g62
(dp3478
g70
I3
ssg71
g3472
sg64
(lp3479
g1543
asbasbasbag57
(g73
g59
NtRp3480
(dp3481
g62
(dp3482
sg71
g3434
sg64
(lp3483
g57
(g78
g59
NtRp3484
(dp3485
g62
(dp3486
g82
g83
ssg71
g3480
sg64
(lp3487
S'HTTP_ACCEPT'
p3488
asbag57
(g78
g59
NtRp3489
(dp3490
g62
(dp3491
g89
g90
ssg71
g3480
sg64
(lp3492
S':'
asbag57
(g78
g59
NtRp3493
(dp3494
g62
(dp3495
sg71
g3480
sg64
(lp3496
g57
(g58
g59
NtRp3497
(dp3498
g62
(dp3499
g70
I3
ssg71
g3493
sg64
(lp3500
g1630
asbasbasbag57
(g73
g59
NtRp3501
(dp3502
g62
(dp3503
sg71
g3434
sg64
(lp3504
g57
(g78
g59
NtRp3505
(dp3506
g62
(dp3507
g82
g83
ssg71
g3501
sg64
(lp3508
S'HTTP_ACCEPT_ENCODING'
p3509
asbag57
(g78
g59
NtRp3510
(dp3511
g62
(dp3512
g89
g90
ssg71
g3501
sg64
(lp3513
S':'
asbag57
(g78
g59
NtRp3514
(dp3515
g62
(dp3516
sg71
g3501
sg64
(lp3517
g57
(g58
g59
NtRp3518
(dp3519
g62
(dp3520
g70
I3
ssg71
g3514
sg64
(lp3521
g1652
asbasbasbag57
(g73
g59
NtRp3522
(dp3523
g62
(dp3524
sg71
g3434
sg64
(lp3525
g57
(g78
g59
NtRp3526
(dp3527
g62
(dp3528
g82
g83
ssg71
g3522
sg64
(lp3529
S'HTTP_ACCEPT_LANGUAGE'
p3530
asbag57
(g78
g59
NtRp3531
(dp3532
g62
(dp3533
g89
g90
ssg71
g3522
sg64
(lp3534
S':'
asbag57
(g78
g59
NtRp3535
(dp3536
g62
(dp3537
sg71
g3522
sg64
(lp3538
g57
(g58
g59
NtRp3539
(dp3540
g62
(dp3541
g70
I3
ssg71
g3535
sg64
(lp3542
g1674
asbasbasbag57
(g73
g59
NtRp3543
(dp3544
g62
(dp3545
sg71
g3434
sg64
(lp3546
g57
(g78
g59
NtRp3547
(dp3548
g62
(dp3549
g82
g83
ssg71
g3543
sg64
(lp3550
S'HTTP_CONNECTION'
p3551
asbag57
(g78
g59
NtRp3552
(dp3553
g62
(dp3554
g89
g90
ssg71
g3543
sg64
(lp3555
S':'
asbag57
(g78
g59
NtRp3556
(dp3557
g62
(dp3558
sg71
g3543
sg64
(lp3559
g57
(g58
g59
NtRp3560
(dp3561
g62
(dp3562
g70
I3
ssg71
g3556
sg64
(lp3563
g1696
asbasbasbag57
(g73
g59
NtRp3564
(dp3565
g62
(dp3566
sg71
g3434
sg64
(lp3567
g57
(g78
g59
NtRp3568
(dp3569
g62
(dp3570
g82
g83
ssg71
g3564
sg64
(lp3571
S'HTTP_CONTENT_LENGTH'
p3572
asbag57
(g78
g59
NtRp3573
(dp3574
g62
(dp3575
g89
g90
ssg71
g3564
sg64
(lp3576
S':'
asbag57
(g78
g59
NtRp3577
(dp3578
g62
(dp3579
sg71
g3564
sg64
(lp3580
g57
(g58
g59
NtRp3581
(dp3582
g62
(dp3583
g70
I3
ssg71
g3577
sg64
(lp3584
g1521
asbasbasbag57
(g73
g59
NtRp3585
(dp3586
g62
(dp3587
sg71
g3434
sg64
(lp3588
g57
(g78
g59
NtRp3589
(dp3590
g62
(dp3591
g82
g83
ssg71
g3585
sg64
(lp3592
S'HTTP_CONTENT_TYPE'
p3593
asbag57
(g78
g59
NtRp3594
(dp3595
g62
(dp3596
g89
g90
ssg71
g3585
sg64
(lp3597
S':'
asbag57
(g78
g59
NtRp3598
(dp3599
g62
(dp3600
sg71
g3585
sg64
(lp3601
g57
(g58
g59
NtRp3602
(dp3603
g62
(dp3604
g70
I3
ssg71
g3598
sg64
(lp3605
g1543
asbasbasbag57
(g73
g59
NtRp3606
(dp3607
g62
(dp3608
sg71
g3434
sg64
(lp3609
g57
(g78
g59
NtRp3610
(dp3611
g62
(dp3612
g82
g83
ssg71
g3606
sg64
(lp3613
S'HTTP_COOKIE'
p3614
asbag57
(g78
g59
NtRp3615
(dp3616
g62
(dp3617
g89
g90
ssg71
g3606
sg64
(lp3618
S':'
asbag57
(g78
g59
NtRp3619
(dp3620
g62
(dp3621
sg71
g3606
sg64
(lp3622
g57
(g58
g59
NtRp3623
(dp3624
g62
(dp3625
g70
I3
ssg71
g3619
sg64
(lp3626
g1760
asbasbasbag57
(g73
g59
NtRp3627
(dp3628
g62
(dp3629
sg71
g3434
sg64
(lp3630
g57
(g78
g59
NtRp3631
(dp3632
g62
(dp3633
g82
g83
ssg71
g3627
sg64
(lp3634
S'HTTP_HOST'
p3635
asbag57
(g78
g59
NtRp3636
(dp3637
g62
(dp3638
g89
g90
ssg71
g3627
sg64
(lp3639
S':'
asbag57
(g78
g59
NtRp3640
(dp3641
g62
(dp3642
sg71
g3627
sg64
(lp3643
g57
(g58
g59
NtRp3644
(dp3645
g62
(dp3646
g70
I3
ssg71
g3640
sg64
(lp3647
g1782
asbasbasbag57
(g73
g59
NtRp3648
(dp3649
g62
(dp3650
sg71
g3434
sg64
(lp3651
g57
(g78
g59
NtRp3652
(dp3653
g62
(dp3654
g82
g83
ssg71
g3648
sg64
(lp3655
S'HTTP_REFERER'
p3656
asbag57
(g78
g59
NtRp3657
(dp3658
g62
(dp3659
g89
g90
ssg71
g3648
sg64
(lp3660
S':'
asbag57
(g78
g59
NtRp3661
(dp3662
g62
(dp3663
sg71
g3648
sg64
(lp3664
g57
(g58
g59
NtRp3665
(dp3666
g62
(dp3667
g70
I3
ssg71
g3661
sg64
(lp3668
g1804
asbasbasbag57
(g73
g59
NtRp3669
(dp3670
g62
(dp3671
sg71
g3434
sg64
(lp3672
g57
(g78
g59
NtRp3673
(dp3674
g62
(dp3675
g82
g83
ssg71
g3669
sg64
(lp3676
S'HTTP_USER_AGENT'
p3677
asbag57
(g78
g59
NtRp3678
(dp3679
g62
(dp3680
g89
g90
ssg71
g3669
sg64
(lp3681
S':'
asbag57
(g78
g59
NtRp3682
(dp3683
g62
(dp3684
sg71
g3669
sg64
(lp3685
g57
(g58
g59
NtRp3686
(dp3687
g62
(dp3688
g70
I3
ssg71
g3682
sg64
(lp3689
g1826
asbasbasbag57
(g73
g59
NtRp3690
(dp3691
g62
(dp3692
sg71
g3434
sg64
(lp3693
g57
(g78
g59
NtRp3694
(dp3695
g62
(dp3696
g82
g83
ssg71
g3690
sg64
(lp3697
S'PATH_INFO'
p3698
asbag57
(g78
g59
NtRp3699
(dp3700
g62
(dp3701
g89
g90
ssg71
g3690
sg64
(lp3702
S':'
asbag57
(g78
g59
NtRp3703
(dp3704
g62
(dp3705
sg71
g3690
sg64
(lp3706
g57
(g58
g59
NtRp3707
(dp3708
g62
(dp3709
g70
I3
ssg71
g3703
sg64
(lp3710
g1980
asbasbasbag57
(g73
g59
NtRp3711
(dp3712
g62
(dp3713
sg71
g3434
sg64
(lp3714
g57
(g78
g59
NtRp3715
(dp3716
g62
(dp3717
g82
g83
ssg71
g3711
sg64
(lp3718
S'QUERY_STRING'
p3719
asbag57
(g78
g59
NtRp3720
(dp3721
g62
(dp3722
g89
g90
ssg71
g3711
sg64
(lp3723
S':'
asbag57
(g78
g59
NtRp3724
(dp3725
g62
(dp3726
sg71
g3711
sg64
(lp3727
g57
(g58
g59
NtRp3728
(dp3729
g62
(dp3730
g70
I3
ssg71
g3724
sg64
(lp3731
S''
asbasbasbag57
(g73
g59
NtRp3732
(dp3733
g62
(dp3734
sg71
g3434
sg64
(lp3735
g57
(g78
g59
NtRp3736
(dp3737
g62
(dp3738
g82
g83
ssg71
g3732
sg64
(lp3739
S'REMOTE_ADDR'
p3740
asbag57
(g78
g59
NtRp3741
(dp3742
g62
(dp3743
g89
g90
ssg71
g3732
sg64
(lp3744
S':'
asbag57
(g78
g59
NtRp3745
(dp3746
g62
(dp3747
sg71
g3732
sg64
(lp3748
g57
(g58
g59
NtRp3749
(dp3750
g62
(dp3751
g70
I3
ssg71
g3745
sg64
(lp3752
g212
asbasbasbag57
(g73
g59
NtRp3753
(dp3754
g62
(dp3755
sg71
g3434
sg64
(lp3756
g57
(g78
g59
NtRp3757
(dp3758
g62
(dp3759
g82
g83
ssg71
g3753
sg64
(lp3760
S'REMOTE_PORT'
p3761
asbag57
(g78
g59
NtRp3762
(dp3763
g62
(dp3764
g89
g90
ssg71
g3753
sg64
(lp3765
S':'
asbag57
(g78
g59
NtRp3766
(dp3767
g62
(dp3768
sg71
g3753
sg64
(lp3769
g57
(g58
g59
NtRp3770
(dp3771
g62
(dp3772
g70
I3
ssg71
g3766
sg64
(lp3773
g2044
asbasbasbag57
(g73
g59
NtRp3774
(dp3775
g62
(dp3776
sg71
g3434
sg64
(lp3777
g57
(g78
g59
NtRp3778
(dp3779
g62
(dp3780
g82
g83
ssg71
g3774
sg64
(lp3781
S'REQUEST_METHOD'
p3782
asbag57
(g78
g59
NtRp3783
(dp3784
g62
(dp3785
g89
g90
ssg71
g3774
sg64
(lp3786
S':'
asbag57
(g78
g59
NtRp3787
(dp3788
g62
(dp3789
sg71
g3774
sg64
(lp3790
g57
(g58
g59
NtRp3791
(dp3792
g62
(dp3793
g70
I3
ssg71
g3787
sg64
(lp3794
g2066
asbasbasbag57
(g73
g59
NtRp3795
(dp3796
g62
(dp3797
sg71
g3434
sg64
(lp3798
g57
(g78
g59
NtRp3799
(dp3800
g62
(dp3801
g82
g83
ssg71
g3795
sg64
(lp3802
S'REQUEST_URI'
p3803
asbag57
(g78
g59
NtRp3804
(dp3805
g62
(dp3806
g89
g90
ssg71
g3795
sg64
(lp3807
S':'
asbag57
(g78
g59
NtRp3808
(dp3809
g62
(dp3810
sg71
g3795
sg64
(lp3811
g57
(g58
g59
NtRp3812
(dp3813
g62
(dp3814
g70
I3
ssg71
g3808
sg64
(lp3815
g1980
asbasbasbag57
(g73
g59
NtRp3816
(dp3817
g62
(dp3818
sg71
g3434
sg64
(lp3819
g57
(g78
g59
NtRp3820
(dp3821
g62
(dp3822
g82
g83
ssg71
g3816
sg64
(lp3823
S'SCRIPT_NAME'
p3824
asbag57
(g78
g59
NtRp3825
(dp3826
g62
(dp3827
g89
g90
ssg71
g3816
sg64
(lp3828
S':'
asbag57
(g78
g59
NtRp3829
(dp3830
g62
(dp3831
sg71
g3816
sg64
(lp3832
g57
(g58
g59
NtRp3833
(dp3834
g62
(dp3835
g70
I3
ssg71
g3829
sg64
(lp3836
S''
asbasbasbag57
(g73
g59
NtRp3837
(dp3838
g62
(dp3839
sg71
g3434
sg64
(lp3840
g57
(g78
g59
NtRp3841
(dp3842
g62
(dp3843
g82
g83
ssg71
g3837
sg64
(lp3844
S'SERVER_NAME'
p3845
asbag57
(g78
g59
NtRp3846
(dp3847
g62
(dp3848
g89
g90
ssg71
g3837
sg64
(lp3849
S':'
asbag57
(g78
g59
NtRp3850
(dp3851
g62
(dp3852
sg71
g3837
sg64
(lp3853
g57
(g58
g59
NtRp3854
(dp3855
g62
(dp3856
g70
I3
ssg71
g3850
sg64
(lp3857
g2130
asbasbasbag57
(g73
g59
NtRp3858
(dp3859
g62
(dp3860
sg71
g3434
sg64
(lp3861
g57
(g78
g59
NtRp3862
(dp3863
g62
(dp3864
g82
g83
ssg71
g3858
sg64
(lp3865
S'SERVER_PORT'
p3866
asbag57
(g78
g59
NtRp3867
(dp3868
g62
(dp3869
g89
g90
ssg71
g3858
sg64
(lp3870
S':'
asbag57
(g78
g59
NtRp3871
(dp3872
g62
(dp3873
sg71
g3858
sg64
(lp3874
g57
(g58
g59
NtRp3875
(dp3876
g62
(dp3877
g70
I3
ssg71
g3871
sg64
(lp3878
g2152
asbasbasbag57
(g73
g59
NtRp3879
(dp3880
g62
(dp3881
sg71
g3434
sg64
(lp3882
g57
(g78
g59
NtRp3883
(dp3884
g62
(dp3885
g82
g83
ssg71
g3879
sg64
(lp3886
S'SERVER_PROTOCOL'
p3887
asbag57
(g78
g59
NtRp3888
(dp3889
g62
(dp3890
g89
g90
ssg71
g3879
sg64
(lp3891
S':'
asbag57
(g78
g59
NtRp3892
(dp3893
g62
(dp3894
sg71
g3879
sg64
(lp3895
g57
(g58
g59
NtRp3896
(dp3897
g62
(dp3898
g70
I3
ssg71
g3892
sg64
(lp3899
g2174
asbasbasbag57
(g73
g59
NtRp3900
(dp3901
g62
(dp3902
sg71
g3434
sg64
(lp3903
g57
(g78
g59
NtRp3904
(dp3905
g62
(dp3906
g82
g83
ssg71
g3900
sg64
(lp3907
S'SERVER_SOFTWARE'
p3908
asbag57
(g78
g59
NtRp3909
(dp3910
g62
(dp3911
g89
g90
ssg71
g3900
sg64
(lp3912
S':'
asbag57
(g78
g59
NtRp3913
(dp3914
g62
(dp3915
sg71
g3900
sg64
(lp3916
g57
(g58
g59
NtRp3917
(dp3918
g62
(dp3919
g70
I3
ssg71
g3913
sg64
(lp3920
g2196
asbasbasbag57
(g73
g59
NtRp3921
(dp3922
g62
(dp3923
sg71
g3434
sg64
(lp3924
g57
(g78
g59
NtRp3925
(dp3926
g62
(dp3927
g82
g83
ssg71
g3921
sg64
(lp3928
S'wsgi.errors'
p3929
asbag57
(g78
g59
NtRp3930
(dp3931
g62
(dp3932
g89
g90
ssg71
g3921
sg64
(lp3933
S':'
asbag57
(g78
g59
NtRp3934
(dp3935
g62
(dp3936
sg71
g3921
sg64
(lp3937
g57
(g58
g59
NtRp3938
(dp3939
g62
(dp3940
g70
I3
ssg71
g3934
sg64
(lp3941
S"<open file '<stderr>', mode 'w' at 0xb72d20d0>"
p3942
asbasbasbag57
(g73
g59
NtRp3943
(dp3944
g62
(dp3945
sg71
g3434
sg64
(lp3946
g57
(g78
g59
NtRp3947
(dp3948
g62
(dp3949
g82
g83
ssg71
g3943
sg64
(lp3950
S'wsgi.file_wrapper'
p3951
asbag57
(g78
g59
NtRp3952
(dp3953
g62
(dp3954
g89
g90
ssg71
g3943
sg64
(lp3955
S':'
asbag57
(g78
g59
NtRp3956
(dp3957
g62
(dp3958
sg71
g3943
sg64
(lp3959
g57
(g58
g59
NtRp3960
(dp3961
g62
(dp3962
g70
I3
ssg71
g3956
sg64
(lp3963
S'<class wsgiref.util.FileWrapper at 0x8e0a47c>'
p3964
asbasbasbag57
(g73
g59
NtRp3965
(dp3966
g62
(dp3967
sg71
g3434
sg64
(lp3968
g57
(g78
g59
NtRp3969
(dp3970
g62
(dp3971
g82
g83
ssg71
g3965
sg64
(lp3972
S'wsgi.input'
p3973
asbag57
(g78
g59
NtRp3974
(dp3975
g62
(dp3976
g89
g90
ssg71
g3965
sg64
(lp3977
S':'
asbag57
(g78
g59
NtRp3978
(dp3979
g62
(dp3980
sg71
g3965
sg64
(lp3981
g57
(g58
g59
NtRp3982
(dp3983
g62
(dp3984
g70
I3
ssg71
g3978
sg64
(lp3985
S"<open file '<fdopen>', mode 'w+b' at 0xad817338>"
p3986
asbasbasbag57
(g73
g59
NtRp3987
(dp3988
g62
(dp3989
sg71
g3434
sg64
(lp3990
g57
(g78
g59
NtRp3991
(dp3992
g62
(dp3993
g82
g83
ssg71
g3987
sg64
(lp3994
S'wsgi.multiprocess'
p3995
asbag57
(g78
g59
NtRp3996
(dp3997
g62
(dp3998
g89
g90
ssg71
g3987
sg64
(lp3999
S':'
asbag57
(g78
g59
NtRp4000
(dp4001
g62
(dp4002
sg71
g3987
sg64
(lp4003
g57
(g58
g59
NtRp4004
(dp4005
g62
(dp4006
g70
I3
ssg71
g4000
sg64
(lp4007
g100
asbasbasbag57
(g73
g59
NtRp4008
(dp4009
g62
(dp4010
sg71
g3434
sg64
(lp4011
g57
(g78
g59
NtRp4012
(dp4013
g62
(dp4014
g82
g83
ssg71
g4008
sg64
(lp4015
S'wsgi.multithread'
p4016
asbag57
(g78
g59
NtRp4017
(dp4018
g62
(dp4019
g89
g90
ssg71
g4008
sg64
(lp4020
S':'
asbag57
(g78
g59
NtRp4021
(dp4022
g62
(dp4023
sg71
g4008
sg64
(lp4024
g57
(g58
g59
NtRp4025
(dp4026
g62
(dp4027
g70
I3
ssg71
g4021
sg64
(lp4028
g2413
asbasbasbag57
(g73
g59
NtRp4029
(dp4030
g62
(dp4031
sg71
g3434
sg64
(lp4032
g57
(g78
g59
NtRp4033
(dp4034
g62
(dp4035
g82
g83
ssg71
g4029
sg64
(lp4036
S'wsgi.run_once'
p4037
asbag57
(g78
g59
NtRp4038
(dp4039
g62
(dp4040
g89
g90
ssg71
g4029
sg64
(lp4041
S':'
asbag57
(g78
g59
NtRp4042
(dp4043
g62
(dp4044
sg71
g4029
sg64
(lp4045
g57
(g58
g59
NtRp4046
(dp4047
g62
(dp4048
g70
I3
ssg71
g4042
sg64
(lp4049
g100
asbasbasbag57
(g73
g59
NtRp4050
(dp4051
g62
(dp4052
sg71
g3434
sg64
(lp4053
g57
(g78
g59
NtRp4054
(dp4055
g62
(dp4056
g82
g83
ssg71
g4050
sg64
(lp4057
S'wsgi.url_scheme'
p4058
asbag57
(g78
g59
NtRp4059
(dp4060
g62
(dp4061
g89
g90
ssg71
g4050
sg64
(lp4062
S':'
asbag57
(g78
g59
NtRp4063
(dp4064
g62
(dp4065
sg71
g4050
sg64
(lp4066
g57
(g58
g59
NtRp4067
(dp4068
g62
(dp4069
g70
I3
ssg71
g4063
sg64
(lp4070
g2456
asbasbasbag57
(g73
g59
NtRp4071
(dp4072
g62
(dp4073
sg71
g3434
sg64
(lp4074
g57
(g78
g59
NtRp4075
(dp4076
g62
(dp4077
g82
g83
ssg71
g4071
sg64
(lp4078
S'wsgi.version'
p4079
asbag57
(g78
g59
NtRp4080
(dp4081
g62
(dp4082
g89
g90
ssg71
g4071
sg64
(lp4083
S':'
asbag57
(g78
g59
NtRp4084
(dp4085
g62
(dp4086
sg71
g4071
sg64
(lp4087
g57
(g58
g59
NtRp4088
(dp4089
g62
(dp4090
g70
I3
ssg71
g4084
sg64
(lp4091
S'1'
asbasbasbasbasbasbasbasbasbasbasbasbasbsS'frames'
p4092
(lp4093
(dp4094
S'file'
p4095
S'/home/nazrul/web2py/gluon/restricted.py'
p4096
sS'dump'
p4097
(dp4098
S'environment'
p4099
S"{'A': <class 'gluon.html.A'>, 'Auth': <class 'gluon.tools.Auth'>, 'B': <class 'gluon.html.B'>, 'BEAUTIFY': <class 'gluon.html.BEAUTIFY'>, 'BODY': <class 'gluon.html.BODY'>, 'BR': <class 'gluon.html.BR'>, 'BUTTON': <class 'gluon.html.BUTTON'>, 'CAT': <class 'gluon.html.CAT'>, 'CENTER': <class 'gluon.html.CENTER'>, 'CLEANUP': <class 'gluon.validators.CLEANUP'>, ...}"
p4100
sS'ccode'
p4101
S'<code object <module> at 0xadf193c8, file "/home...pplications/WSD/controllers/default.py", line 11>'
p4102
ssS'lnum'
p4103
I212
sS'lines'
p4104
(dp4105
I207
S'    try:'
p4106
sI208
S'        if isinstance(code, types.CodeType):'
p4107
sI209
S'            ccode = code'
p4108
sI210
S'        else:'
p4109
sI211
S'            ccode = compile2(code, layer)'
p4110
sI212
S'        exec ccode in environment'
p4111
sI213
S'    except HTTP:'
p4112
sI214
S'        raise'
p4113
sI215
S'    except RestrictedError:'
p4114
sI216
S'        # do not encapsulate (obfuscate) the original RestrictedError'
p4115
ssS'call'
p4116
S"(code='# -*- coding: utf-8 -*-\\n# this file is released ...l)\\n\\nresponse._vars=response._caller(changelevel)\\n', environment={'A': <class 'gluon.html.A'>, 'Auth': <class 'gluon.tools.Auth'>, 'B': <class 'gluon.html.B'>, 'BEAUTIFY': <class 'gluon.html.BEAUTIFY'>, 'BODY': <class 'gluon.html.BODY'>, 'BR': <class 'gluon.html.BR'>, 'BUTTON': <class 'gluon.html.BUTTON'>, 'CAT': <class 'gluon.html.CAT'>, 'CENTER': <class 'gluon.html.CENTER'>, 'CLEANUP': <class 'gluon.validators.CLEANUP'>, ...}, layer='/home/nazrul/web2py/applications/WSD/controllers/default.py')"
p4117
sS'func'
p4118
S'restricted'
p4119
sa(dp4120
g4095
S'/home/nazrul/web2py/applications/WSD/controllers/default.py'
p4121
sg4097
(dp4122
sg4103
I427
sg4104
(dp4123
I416
S"    form=SQLFORM.factory(Field('user',requires=IS_IN_SET(l)))"
p4124
sI417
S'    if form.accepts(request.vars,session):'
p4125
sI418
S"            redirect(URL('disp_adv',vars=dict(uid=d[form.vars.user])))"
p4126
sI419
S'    return dict(form=form)'
p4127
sI420
S'def disp_adv():'
p4128
sI421
S'    u=request.vars.uid'
p4129
sI422
S'    email=db(db.auth_user.id==u).select(db.auth_user.email)'
p4130
sI423
S'    email=email[0].email'
p4131
sI424
S'    l=db(db.rules.userid==u).select()'
p4132
sI425
S'    return dict(l=l,email=email)'
p4133
ssg4116
S'()'
p4134
sg4118
S'<module>'
p4135
sa(dp4136
g4095
S'/home/nazrul/web2py/gluon/globals.py'
p4137
sg4097
(dp4138
S'self'
p4139
S'undefined'
p4140
sS'f'
S'<function changelevel>'
p4141
ssg4103
I193
sg4104
(dp4142
I192
S'        self._vars = None'
p4143
sI193
S'        self._caller = lambda f: f()'
p4144
sI194
S'        self._view_environment = None'
p4145
sI195
S'        self._custom_commit = None'
p4146
sI196
S'        self._custom_rollback = None'
p4147
sI197
S''
sI188
S'        self.menu = []             # used by the default view layout'
p4148
sI189
S'        self.files = []            # used by web2py_ajax.html'
p4149
sI190
S'        self.generic_patterns = []  # patterns to allow generic views'
p4150
sI191
S"        self.delimiters = ('{{', '}}')"
p4151
ssg4116
S'(f=<function changelevel>)'
p4152
sg4118
S'<lambda>'
p4153
sa(dp4154
g4095
S'/home/nazrul/web2py/gluon/tools.py'
p4155
sg4097
(dp4156
S'action'
p4157
S'<function changelevel>'
p4158
sS'a'
S'()'
p4159
sS'b'
g45
ssg4103
I2929
sg4104
(dp4160
I2924
S'                    flag = condition'
p4161
sI2925
S'                if not flag:'
p4162
sI2926
S'                    current.session.flash = self.messages.access_denied'
p4163
sI2927
S'                    return call_or_redirect('
p4164
sI2928
S'                        self.settings.on_failed_authorization)'
p4165
sI2929
S'                return action(*a, **b)'
p4166
sI2930
S'            f.__doc__ = action.__doc__'
p4167
sI2931
S'            f.__name__ = action.__name__'
p4168
sI2932
S'            f.__dict__.update(action.__dict__)'
p4169
sI2933
S'            return f'
p4170
ssg4116
S'(*a=(), **b={})'
p4171
sg4118
S'f'
sa(dp4172
g4095
S'/home/nazrul/web2py/applications/WSD/controllers/default.py'
p4173
sg4097
(dp4174
S'request.vars.level'
p4175
S"'2'"
p4176
sS'level'
p4177
g4140
sS'global request'
p4178
S"<Storage {'function': 'changelevel', 'body': <op... 'submit': 'submit', 'emailq': 'user@sys.com'}>}>"
p4179
sS').insert'
p4180
S'<bound method Table.insert of <Table user_level (id,email,level)>>'
p4181
sS'db.user_level'
p4182
S'<Table user_level (id,email,level)>'
p4183
sS'request.vars.new_email'
p4184
S"'user'"
p4185
sS'global db'
p4186
S'<DAL uri="sqlite://storage.sqlite">'
p4187
sS'request.vars'
p4188
S"<Storage {'new_email': 'user', 'level': '2', 'submit': 'submit', 'emailq': 'user@sys.com'}>"
p4189
sS'email'
p4190
g4140
ssg4103
I113
sg4104
(dp4191
I108
S''
sI109
S'@auth.requires_login()'
p4192
sI110
S'def changelevel():'
p4193
sI111
S'    if request.vars.submit:'
p4194
sI112
S'        if request.vars.new_email:'
p4195
sI113
S'            db(db.user_level).insert(email=request.vars.new_email,level=request.vars.level)'
p4196
sI114
S'        else:'
p4197
sI115
S'            db(db.user_level.email==request.vars.emailq).update(level=request.vars.level)'
p4198
sI116
S"        redirect('home')"
p4199
sI117
S'    return dict()'
p4200
ssg4116
S'()'
p4201
sg4118
S'changelevel'
p4202
sasS'pyver'
p4203
S'Python 2.7.3: /usr/bin/python'
p4204
sS'session'
p4205
g57
(g58
g59
NtRp4206
(dp4207
g62
(dp4208
sg64
(lp4209
g57
(g66
g59
NtRp4210
(dp4211
g62
(dp4212
g70
I5
ssg71
Nsg64
(lp4213
g57
(g73
g59
NtRp4214
(dp4215
g62
(dp4216
sg71
g4210
sg64
(lp4217
g57
(g78
g59
NtRp4218
(dp4219
g62
(dp4220
g82
g83
ssg71
g4214
sg64
(lp4221
S'auth'
p4222
asbag57
(g78
g59
NtRp4223
(dp4224
g62
(dp4225
g89
g90
ssg71
g4214
sg64
(lp4226
S':'
asbag57
(g78
g59
NtRp4227
(dp4228
g62
(dp4229
sg71
g4214
sg64
(lp4230
g57
(g58
g59
NtRp4231
(dp4232
g62
(dp4233
g70
I5
ssg71
g4227
sg64
(lp4234
g57
(g66
g59
NtRp4235
(dp4236
g62
(dp4237
g70
I4
ssg71
Nsg64
(lp4238
g57
(g73
g59
NtRp4239
(dp4240
g62
(dp4241
sg71
g4235
sg64
(lp4242
g57
(g78
g59
NtRp4243
(dp4244
g62
(dp4245
g82
g83
ssg71
g4239
sg64
(lp4246
S'expiration'
p4247
asbag57
(g78
g59
NtRp4248
(dp4249
g62
(dp4250
g89
g90
ssg71
g4239
sg64
(lp4251
S':'
asbag57
(g78
g59
NtRp4252
(dp4253
g62
(dp4254
sg71
g4239
sg64
(lp4255
g57
(g58
g59
NtRp4256
(dp4257
g62
(dp4258
g70
I4
ssg71
g4252
sg64
(lp4259
S'3600'
p4260
asbasbasbag57
(g73
g59
NtRp4261
(dp4262
g62
(dp4263
sg71
g4235
sg64
(lp4264
g57
(g78
g59
NtRp4265
(dp4266
g62
(dp4267
g82
g83
ssg71
g4261
sg64
(lp4268
S'hmac_key'
p4269
asbag57
(g78
g59
NtRp4270
(dp4271
g62
(dp4272
g89
g90
ssg71
g4261
sg64
(lp4273
S':'
asbag57
(g78
g59
NtRp4274
(dp4275
g62
(dp4276
sg71
g4261
sg64
(lp4277
g57
(g58
g59
NtRp4278
(dp4279
g62
(dp4280
g70
I4
ssg71
g4274
sg64
(lp4281
S'9b431a54-8889-4976-b0b5-5c90353fa3b3'
p4282
asbasbasbag57
(g73
g59
NtRp4283
(dp4284
g62
(dp4285
sg71
g4235
sg64
(lp4286
g57
(g78
g59
NtRp4287
(dp4288
g62
(dp4289
g82
g83
ssg71
g4283
sg64
(lp4290
S'last_visit'
p4291
asbag57
(g78
g59
NtRp4292
(dp4293
g62
(dp4294
g89
g90
ssg71
g4283
sg64
(lp4295
S':'
asbag57
(g78
g59
NtRp4296
(dp4297
g62
(dp4298
sg71
g4283
sg64
(lp4299
g57
(g58
g59
NtRp4300
(dp4301
g62
(dp4302
g70
I4
ssg71
g4296
sg64
(lp4303
S'datetime.datetime(2013, 11, 19, 16, 56, 47, 624126)'
p4304
asbasbasbag57
(g73
g59
NtRp4305
(dp4306
g62
(dp4307
sg71
g4235
sg64
(lp4308
g57
(g78
g59
NtRp4309
(dp4310
g62
(dp4311
g82
g83
ssg71
g4305
sg64
(lp4312
S'remember'
p4313
asbag57
(g78
g59
NtRp4314
(dp4315
g62
(dp4316
g89
g90
ssg71
g4305
sg64
(lp4317
S':'
asbag57
(g78
g59
NtRp4318
(dp4319
g62
(dp4320
sg71
g4305
sg64
(lp4321
g57
(g58
g59
NtRp4322
(dp4323
g62
(dp4324
g70
I4
ssg71
g4318
sg64
(lp4325
g100
asbasbasbag57
(g73
g59
NtRp4326
(dp4327
g62
(dp4328
sg71
g4235
sg64
(lp4329
g57
(g78
g59
NtRp4330
(dp4331
g62
(dp4332
g82
g83
ssg71
g4326
sg64
(lp4333
S'user'
p4334
asbag57
(g78
g59
NtRp4335
(dp4336
g62
(dp4337
g89
g90
ssg71
g4326
sg64
(lp4338
S':'
asbag57
(g78
g59
NtRp4339
(dp4340
g62
(dp4341
sg71
g4326
sg64
(lp4342
g57
(g58
g59
NtRp4343
(dp4344
g62
(dp4345
g70
I4
ssg71
g4339
sg64
(lp4346
g57
(g66
g59
NtRp4347
(dp4348
g62
(dp4349
g70
I3
ssg71
Nsg64
(lp4350
g57
(g73
g59
NtRp4351
(dp4352
g62
(dp4353
sg71
g4347
sg64
(lp4354
g57
(g78
g59
NtRp4355
(dp4356
g62
(dp4357
g82
g83
ssg71
g4351
sg64
(lp4358
S'email'
p4359
asbag57
(g78
g59
NtRp4360
(dp4361
g62
(dp4362
g89
g90
ssg71
g4351
sg64
(lp4363
S':'
asbag57
(g78
g59
NtRp4364
(dp4365
g62
(dp4366
sg71
g4351
sg64
(lp4367
g57
(g58
g59
NtRp4368
(dp4369
g62
(dp4370
g70
I3
ssg71
g4364
sg64
(lp4371
S'root@sys.com'
p4372
asbasbasbag57
(g73
g59
NtRp4373
(dp4374
g62
(dp4375
sg71
g4347
sg64
(lp4376
g57
(g78
g59
NtRp4377
(dp4378
g62
(dp4379
g82
g83
ssg71
g4373
sg64
(lp4380
S'first_name'
p4381
asbag57
(g78
g59
NtRp4382
(dp4383
g62
(dp4384
g89
g90
ssg71
g4373
sg64
(lp4385
S':'
asbag57
(g78
g59
NtRp4386
(dp4387
g62
(dp4388
sg71
g4373
sg64
(lp4389
g57
(g58
g59
NtRp4390
(dp4391
g62
(dp4392
g70
I3
ssg71
g4386
sg64
(lp4393
S'root'
p4394
asbasbasbag57
(g73
g59
NtRp4395
(dp4396
g62
(dp4397
sg71
g4347
sg64
(lp4398
g57
(g78
g59
NtRp4399
(dp4400
g62
(dp4401
g82
g83
ssg71
g4395
sg64
(lp4402
S'id'
p4403
asbag57
(g78
g59
NtRp4404
(dp4405
g62
(dp4406
g89
g90
ssg71
g4395
sg64
(lp4407
S':'
asbag57
(g78
g59
NtRp4408
(dp4409
g62
(dp4410
sg71
g4395
sg64
(lp4411
g57
(g58
g59
NtRp4412
(dp4413
g62
(dp4414
g70
I3
ssg71
g4408
sg64
(lp4415
S'4'
asbasbasbag57
(g73
g59
NtRp4416
(dp4417
g62
(dp4418
sg71
g4347
sg64
(lp4419
g57
(g78
g59
NtRp4420
(dp4421
g62
(dp4422
g82
g83
ssg71
g4416
sg64
(lp4423
S'last_name'
p4424
asbag57
(g78
g59
NtRp4425
(dp4426
g62
(dp4427
g89
g90
ssg71
g4416
sg64
(lp4428
S':'
asbag57
(g78
g59
NtRp4429
(dp4430
g62
(dp4431
sg71
g4416
sg64
(lp4432
g57
(g58
g59
NtRp4433
(dp4434
g62
(dp4435
g70
I3
ssg71
g4429
sg64
(lp4436
S'root'
p4437
asbasbasbag57
(g73
g59
NtRp4438
(dp4439
g62
(dp4440
sg71
g4347
sg64
(lp4441
g57
(g78
g59
NtRp4442
(dp4443
g62
(dp4444
g82
g83
ssg71
g4438
sg64
(lp4445
S'registration_id'
p4446
asbag57
(g78
g59
NtRp4447
(dp4448
g62
(dp4449
g89
g90
ssg71
g4438
sg64
(lp4450
S':'
asbag57
(g78
g59
NtRp4451
(dp4452
g62
(dp4453
sg71
g4438
sg64
(lp4454
g57
(g58
g59
NtRp4455
(dp4456
g62
(dp4457
g70
I3
ssg71
g4451
sg64
(lp4458
S''
asbasbasbag57
(g73
g59
NtRp4459
(dp4460
g62
(dp4461
sg71
g4347
sg64
(lp4462
g57
(g78
g59
NtRp4463
(dp4464
g62
(dp4465
g82
g83
ssg71
g4459
sg64
(lp4466
S'registration_key'
p4467
asbag57
(g78
g59
NtRp4468
(dp4469
g62
(dp4470
g89
g90
ssg71
g4459
sg64
(lp4471
S':'
asbag57
(g78
g59
NtRp4472
(dp4473
g62
(dp4474
sg71
g4459
sg64
(lp4475
g57
(g58
g59
NtRp4476
(dp4477
g62
(dp4478
g70
I3
ssg71
g4472
sg64
(lp4479
S''
asbasbasbag57
(g73
g59
NtRp4480
(dp4481
g62
(dp4482
sg71
g4347
sg64
(lp4483
g57
(g78
g59
NtRp4484
(dp4485
g62
(dp4486
g82
g83
ssg71
g4480
sg64
(lp4487
S'reset_password_key'
p4488
asbag57
(g78
g59
NtRp4489
(dp4490
g62
(dp4491
g89
g90
ssg71
g4480
sg64
(lp4492
S':'
asbag57
(g78
g59
NtRp4493
(dp4494
g62
(dp4495
sg71
g4480
sg64
(lp4496
g57
(g58
g59
NtRp4497
(dp4498
g62
(dp4499
g70
I3
ssg71
g4493
sg64
(lp4500
S''
asbasbasbasbasbasbasbag57
(g73
g59
NtRp4501
(dp4502
g62
(dp4503
sg71
g4235
sg64
(lp4504
g57
(g78
g59
NtRp4505
(dp4506
g62
(dp4507
g82
g83
ssg71
g4501
sg64
(lp4508
S'user_groups'
p4509
asbag57
(g78
g59
NtRp4510
(dp4511
g62
(dp4512
g89
g90
ssg71
g4501
sg64
(lp4513
S':'
asbag57
(g78
g59
NtRp4514
(dp4515
g62
(dp4516
sg71
g4501
sg64
(lp4517
g57
(g58
g59
NtRp4518
(dp4519
g62
(dp4520
g70
I4
ssg71
g4514
sg64
(lp4521
g57
(g66
g59
NtRp4522
(dp4523
g62
(dp4524
g70
I3
ssg71
Nsg64
(lp4525
sbasbasbasbasbasbasbasbag57
(g73
g59
NtRp4526
(dp4527
g62
(dp4528
sg71
g4210
sg64
(lp4529
g57
(g78
g59
NtRp4530
(dp4531
g62
(dp4532
g82
g83
ssg71
g4526
sg64
(lp4533
S'f'
asbag57
(g78
g59
NtRp4534
(dp4535
g62
(dp4536
g89
g90
ssg71
g4526
sg64
(lp4537
S':'
asbag57
(g78
g59
NtRp4538
(dp4539
g62
(dp4540
sg71
g4526
sg64
(lp4541
g57
(g58
g59
NtRp4542
(dp4543
g62
(dp4544
g70
I5
ssg71
g4538
sg64
(lp4545
S'0'
asbasbasbag57
(g73
g59
NtRp4546
(dp4547
g62
(dp4548
sg71
g4210
sg64
(lp4549
g57
(g78
g59
NtRp4550
(dp4551
g62
(dp4552
g82
g83
ssg71
g4546
sg64
(lp4553
S'flash'
p4554
asbag57
(g78
g59
NtRp4555
(dp4556
g62
(dp4557
g89
g90
ssg71
g4546
sg64
(lp4558
S':'
asbag57
(g78
g59
NtRp4559
(dp4560
g62
(dp4561
sg71
g4546
sg64
(lp4562
g57
(g58
g59
NtRp4563
(dp4564
g62
(dp4565
g70
I5
ssg71
g4559
sg64
(lp4566
S'None'
p4567
asbasbasbag57
(g73
g59
NtRp4568
(dp4569
g62
(dp4570
sg71
g4210
sg64
(lp4571
g57
(g78
g59
NtRp4572
(dp4573
g62
(dp4574
g82
g83
ssg71
g4568
sg64
(lp4575
S'ide'
p4576
asbag57
(g78
g59
NtRp4577
(dp4578
g62
(dp4579
g89
g90
ssg71
g4568
sg64
(lp4580
S':'
asbag57
(g78
g59
NtRp4581
(dp4582
g62
(dp4583
sg71
g4568
sg64
(lp4584
g57
(g58
g59
NtRp4585
(dp4586
g62
(dp4587
g70
I5
ssg71
g4581
sg64
(lp4588
S'39'
p4589
asbasbasbag57
(g73
g59
NtRp4590
(dp4591
g62
(dp4592
sg71
g4210
sg64
(lp4593
g57
(g78
g59
NtRp4594
(dp4595
g62
(dp4596
g82
g83
ssg71
g4590
sg64
(lp4597
S'last_orderby'
p4598
asbag57
(g78
g59
NtRp4599
(dp4600
g62
(dp4601
g89
g90
ssg71
g4590
sg64
(lp4602
S':'
asbag57
(g78
g59
NtRp4603
(dp4604
g62
(dp4605
sg71
g4590
sg64
(lp4606
g57
(g58
g59
NtRp4607
(dp4608
g62
(dp4609
g70
I5
ssg71
g4603
sg64
(lp4610
S'None'
p4611
asbasbasbag57
(g73
g59
NtRp4612
(dp4613
g62
(dp4614
sg71
g4210
sg64
(lp4615
g57
(g78
g59
NtRp4616
(dp4617
g62
(dp4618
g82
g83
ssg71
g4612
sg64
(lp4619
S'last_query'
p4620
asbag57
(g78
g59
NtRp4621
(dp4622
g62
(dp4623
g89
g90
ssg71
g4612
sg64
(lp4624
S':'
asbag57
(g78
g59
NtRp4625
(dp4626
g62
(dp4627
sg71
g4612
sg64
(lp4628
g57
(g58
g59
NtRp4629
(dp4630
g62
(dp4631
g70
I5
ssg71
g4625
sg64
(lp4632
S'db.rules.id>0'
p4633
asbasbasbag57
(g73
g59
NtRp4634
(dp4635
g62
(dp4636
sg71
g4210
sg64
(lp4637
g57
(g78
g59
NtRp4638
(dp4639
g62
(dp4640
g82
g83
ssg71
g4634
sg64
(lp4641
S'level'
p4642
asbag57
(g78
g59
NtRp4643
(dp4644
g62
(dp4645
g89
g90
ssg71
g4634
sg64
(lp4646
S':'
asbag57
(g78
g59
NtRp4647
(dp4648
g62
(dp4649
sg71
g4634
sg64
(lp4650
g57
(g58
g59
NtRp4651
(dp4652
g62
(dp4653
g70
I5
ssg71
g4647
sg64
(lp4654
S'1'
asbasbasbag57
(g73
g59
NtRp4655
(dp4656
g62
(dp4657
sg71
g4210
sg64
(lp4658
g57
(g78
g59
NtRp4659
(dp4660
g62
(dp4661
g82
g83
ssg71
g4655
sg64
(lp4662
S'psp'
p4663
asbag57
(g78
g59
NtRp4664
(dp4665
g62
(dp4666
g89
g90
ssg71
g4655
sg64
(lp4667
S':'
asbag57
(g78
g59
NtRp4668
(dp4669
g62
(dp4670
sg71
g4655
sg64
(lp4671
g57
(g58
g59
NtRp4672
(dp4673
g62
(dp4674
g70
I5
ssg71
g4668
sg64
(lp4675
S'verb'
p4676
asbasbasbag57
(g73
g59
NtRp4677
(dp4678
g62
(dp4679
sg71
g4210
sg64
(lp4680
g57
(g78
g59
NtRp4681
(dp4682
g62
(dp4683
g82
g83
ssg71
g4677
sg64
(lp4684
S'sid'
p4685
asbag57
(g78
g59
NtRp4686
(dp4687
g62
(dp4688
g89
g90
ssg71
g4677
sg64
(lp4689
S':'
asbag57
(g78
g59
NtRp4690
(dp4691
g62
(dp4692
sg71
g4677
sg64
(lp4693
g57
(g58
g59
NtRp4694
(dp4695
g62
(dp4696
g70
I5
ssg71
g4690
sg64
(lp4697
S'40'
p4698
asbasbasbag57
(g73
g59
NtRp4699
(dp4700
g62
(dp4701
sg71
g4210
sg64
(lp4702
g57
(g78
g59
NtRp4703
(dp4704
g62
(dp4705
g82
g83
ssg71
g4699
sg64
(lp4706
S'word'
p4707
asbag57
(g78
g59
NtRp4708
(dp4709
g62
(dp4710
g89
g90
ssg71
g4699
sg64
(lp4711
S':'
asbag57
(g78
g59
NtRp4712
(dp4713
g62
(dp4714
sg71
g4699
sg64
(lp4715
g57
(g58
g59
NtRp4716
(dp4717
g62
(dp4718
g70
I5
ssg71
g4712
sg64
(lp4719
S'give'
p4720
asbasbasbasbasbsS'etype'
p4721
S"<type 'exceptions.AttributeError'>"
p4722
sS'date'
p4723
S'Tue Nov 19 17:01:08 2013'
p4724
sS'response'
p4725
g57
(g58
g59
NtRp4726
(dp4727
g62
(dp4728
sg64
(lp4729
g57
(g66
g59
NtRp4730
(dp4731
g62
(dp4732
g70
I5
ssg71
Nsg64
(lp4733
g57
(g73
g59
NtRp4734
(dp4735
g62
(dp4736
sg71
g4730
sg64
(lp4737
g57
(g78
g59
NtRp4738
(dp4739
g62
(dp4740
g82
g83
ssg71
g4734
sg64
(lp4741
g155
asbag57
(g78
g59
NtRp4742
(dp4743
g62
(dp4744
g89
g90
ssg71
g4734
sg64
(lp4745
S':'
asbag57
(g78
g59
NtRp4746
(dp4747
g62
(dp4748
sg71
g4734
sg64
(lp4749
g57
(g58
g59
NtRp4750
(dp4751
g62
(dp4752
g70
I5
ssg71
g4746
sg64
(lp4753
S'<cStringIO.StringO object at 0xad4a9ac0>'
p4754
asbasbasbag57
(g73
g59
NtRp4755
(dp4756
g62
(dp4757
sg71
g4730
sg64
(lp4758
g57
(g78
g59
NtRp4759
(dp4760
g62
(dp4761
g82
g83
ssg71
g4755
sg64
(lp4762
g243
asbag57
(g78
g59
NtRp4763
(dp4764
g62
(dp4765
g89
g90
ssg71
g4755
sg64
(lp4766
S':'
asbag57
(g78
g59
NtRp4767
(dp4768
g62
(dp4769
sg71
g4755
sg64
(lp4770
g57
(g58
g59
NtRp4771
(dp4772
g62
(dp4773
g70
I5
ssg71
g4767
sg64
(lp4774
g57
(g66
g59
NtRp4775
(dp4776
g62
(dp4777
g70
I4
ssg71
Nsg64
(lp4778
g57
(g73
g59
NtRp4779
(dp4780
g62
(dp4781
sg71
g4775
sg64
(lp4782
g57
(g78
g59
NtRp4783
(dp4784
g62
(dp4785
g82
g83
ssg71
g4779
sg64
(lp4786
S'session_id_wsd'
p4787
asbag57
(g78
g59
NtRp4788
(dp4789
g62
(dp4790
g89
g90
ssg71
g4779
sg64
(lp4791
S':'
asbag57
(g78
g59
NtRp4792
(dp4793
g62
(dp4794
sg71
g4779
sg64
(lp4795
g57
(g58
g59
NtRp4796
(dp4797
g62
(dp4798
g70
I4
ssg71
g4792
sg64
(lp4799
g1033
ag57
(g66
g59
NtRp4800
(dp4801
g62
(dp4802
g70
I3
ssg71
Nsg64
(lp4803
g57
(g73
g59
NtRp4804
(dp4805
g62
(dp4806
sg71
g4800
sg64
(lp4807
g57
(g78
g59
NtRp4808
(dp4809
g62
(dp4810
g82
g83
ssg71
g4804
sg64
(lp4811
g294
asbag57
(g78
g59
NtRp4812
(dp4813
g62
(dp4814
g89
g90
ssg71
g4804
sg64
(lp4815
S':'
asbag57
(g78
g59
NtRp4816
(dp4817
g62
(dp4818
sg71
g4804
sg64
(lp4819
g57
(g58
g59
NtRp4820
(dp4821
g62
(dp4822
g70
I3
ssg71
g4816
sg64
(lp4823
S''
asbasbasbag57
(g73
g59
NtRp4824
(dp4825
g62
(dp4826
sg71
g4800
sg64
(lp4827
g57
(g78
g59
NtRp4828
(dp4829
g62
(dp4830
g82
g83
ssg71
g4824
sg64
(lp4831
g315
asbag57
(g78
g59
NtRp4832
(dp4833
g62
(dp4834
g89
g90
ssg71
g4824
sg64
(lp4835
S':'
asbag57
(g78
g59
NtRp4836
(dp4837
g62
(dp4838
sg71
g4824
sg64
(lp4839
g57
(g58
g59
NtRp4840
(dp4841
g62
(dp4842
g70
I3
ssg71
g4836
sg64
(lp4843
S''
asbasbasbag57
(g73
g59
NtRp4844
(dp4845
g62
(dp4846
sg71
g4800
sg64
(lp4847
g57
(g78
g59
NtRp4848
(dp4849
g62
(dp4850
g82
g83
ssg71
g4844
sg64
(lp4851
g336
asbag57
(g78
g59
NtRp4852
(dp4853
g62
(dp4854
g89
g90
ssg71
g4844
sg64
(lp4855
S':'
asbag57
(g78
g59
NtRp4856
(dp4857
g62
(dp4858
sg71
g4844
sg64
(lp4859
g57
(g58
g59
NtRp4860
(dp4861
g62
(dp4862
g70
I3
ssg71
g4856
sg64
(lp4863
S''
asbasbasbag57
(g73
g59
NtRp4864
(dp4865
g62
(dp4866
sg71
g4800
sg64
(lp4867
g57
(g78
g59
NtRp4868
(dp4869
g62
(dp4870
g82
g83
ssg71
g4864
sg64
(lp4871
g357
asbag57
(g78
g59
NtRp4872
(dp4873
g62
(dp4874
g89
g90
ssg71
g4864
sg64
(lp4875
S':'
asbag57
(g78
g59
NtRp4876
(dp4877
g62
(dp4878
sg71
g4864
sg64
(lp4879
g57
(g58
g59
NtRp4880
(dp4881
g62
(dp4882
g70
I3
ssg71
g4876
sg64
(lp4883
S''
asbasbasbag57
(g73
g59
NtRp4884
(dp4885
g62
(dp4886
sg71
g4800
sg64
(lp4887
g57
(g78
g59
NtRp4888
(dp4889
g62
(dp4890
g82
g83
ssg71
g4884
sg64
(lp4891
g378
asbag57
(g78
g59
NtRp4892
(dp4893
g62
(dp4894
g89
g90
ssg71
g4884
sg64
(lp4895
S':'
asbag57
(g78
g59
NtRp4896
(dp4897
g62
(dp4898
sg71
g4884
sg64
(lp4899
g57
(g58
g59
NtRp4900
(dp4901
g62
(dp4902
g70
I3
ssg71
g4896
sg64
(lp4903
S''
asbasbasbag57
(g73
g59
NtRp4904
(dp4905
g62
(dp4906
sg71
g4800
sg64
(lp4907
g57
(g78
g59
NtRp4908
(dp4909
g62
(dp4910
g82
g83
ssg71
g4904
sg64
(lp4911
g399
asbag57
(g78
g59
NtRp4912
(dp4913
g62
(dp4914
g89
g90
ssg71
g4904
sg64
(lp4915
S':'
asbag57
(g78
g59
NtRp4916
(dp4917
g62
(dp4918
sg71
g4904
sg64
(lp4919
g57
(g58
g59
NtRp4920
(dp4921
g62
(dp4922
g70
I3
ssg71
g4916
sg64
(lp4923
S'/'
asbasbasbag57
(g73
g59
NtRp4924
(dp4925
g62
(dp4926
sg71
g4800
sg64
(lp4927
g57
(g78
g59
NtRp4928
(dp4929
g62
(dp4930
g82
g83
ssg71
g4924
sg64
(lp4931
g420
asbag57
(g78
g59
NtRp4932
(dp4933
g62
(dp4934
g89
g90
ssg71
g4924
sg64
(lp4935
S':'
asbag57
(g78
g59
NtRp4936
(dp4937
g62
(dp4938
sg71
g4924
sg64
(lp4939
g57
(g58
g59
NtRp4940
(dp4941
g62
(dp4942
g70
I3
ssg71
g4936
sg64
(lp4943
S''
asbasbasbag57
(g73
g59
NtRp4944
(dp4945
g62
(dp4946
sg71
g4800
sg64
(lp4947
g57
(g78
g59
NtRp4948
(dp4949
g62
(dp4950
g82
g83
ssg71
g4944
sg64
(lp4951
g441
asbag57
(g78
g59
NtRp4952
(dp4953
g62
(dp4954
g89
g90
ssg71
g4944
sg64
(lp4955
S':'
asbag57
(g78
g59
NtRp4956
(dp4957
g62
(dp4958
sg71
g4944
sg64
(lp4959
g57
(g58
g59
NtRp4960
(dp4961
g62
(dp4962
g70
I3
ssg71
g4956
sg64
(lp4963
S''
asbasbasbasbasbasbasbasbasbasbasbag57
(g73
g59
NtRp4964
(dp4965
g62
(dp4966
sg71
g4730
sg64
(lp4967
g57
(g78
g59
NtRp4968
(dp4969
g62
(dp4970
g82
g83
ssg71
g4964
sg64
(lp4971
S'delimiters'
p4972
asbag57
(g78
g59
NtRp4973
(dp4974
g62
(dp4975
g89
g90
ssg71
g4964
sg64
(lp4976
S':'
asbag57
(g78
g59
NtRp4977
(dp4978
g62
(dp4979
sg71
g4964
sg64
(lp4980
g57
(g58
g59
NtRp4981
(dp4982
g62
(dp4983
g70
I5
ssg71
g4977
sg64
(lp4984
g57
(g66
g59
NtRp4985
(dp4986
g62
(dp4987
g70
I4
ssg71
Nsg64
(lp4988
g57
(g73
g59
NtRp4989
(dp4990
g62
(dp4991
sg71
g4985
sg64
(lp4992
g57
(g78
g59
NtRp4993
(dp4994
g62
(dp4995
sg71
g4989
sg64
(lp4996
g57
(g58
g59
NtRp4997
(dp4998
g62
(dp4999
g70
I4
ssg71
g4993
sg64
(lp5000
S'{{'
p5001
asbasbasbag57
(g73
g59
NtRp5002
(dp5003
g62
(dp5004
sg71
g4985
sg64
(lp5005
g57
(g78
g59
NtRp5006
(dp5007
g62
(dp5008
sg71
g5002
sg64
(lp5009
g57
(g58
g59
NtRp5010
(dp5011
g62
(dp5012
g70
I4
ssg71
g5006
sg64
(lp5013
S'}}'
p5014
asbasbasbasbasbasbasbag57
(g73
g59
NtRp5015
(dp5016
g62
(dp5017
sg71
g4730
sg64
(lp5018
g57
(g78
g59
NtRp5019
(dp5020
g62
(dp5021
g82
g83
ssg71
g5015
sg64
(lp5022
S'files'
p5023
asbag57
(g78
g59
NtRp5024
(dp5025
g62
(dp5026
g89
g90
ssg71
g5015
sg64
(lp5027
S':'
asbag57
(g78
g59
NtRp5028
(dp5029
g62
(dp5030
sg71
g5015
sg64
(lp5031
g57
(g58
g59
NtRp5032
(dp5033
g62
(dp5034
g70
I5
ssg71
g5028
sg64
(lp5035
g57
(g66
g59
NtRp5036
(dp5037
g62
(dp5038
g70
I4
ssg71
Nsg64
(lp5039
sbasbasbasbag57
(g73
g59
NtRp5040
(dp5041
g62
(dp5042
sg71
g4730
sg64
(lp5043
g57
(g78
g59
NtRp5044
(dp5045
g62
(dp5046
g82
g83
ssg71
g5040
sg64
(lp5047
S'flash'
p5048
asbag57
(g78
g59
NtRp5049
(dp5050
g62
(dp5051
g89
g90
ssg71
g5040
sg64
(lp5052
S':'
asbag57
(g78
g59
NtRp5053
(dp5054
g62
(dp5055
sg71
g5040
sg64
(lp5056
g57
(g58
g59
NtRp5057
(dp5058
g62
(dp5059
g70
I5
ssg71
g5053
sg64
(lp5060
S''
asbasbasbag57
(g73
g59
NtRp5061
(dp5062
g62
(dp5063
sg71
g4730
sg64
(lp5064
g57
(g78
g59
NtRp5065
(dp5066
g62
(dp5067
g82
g83
ssg71
g5061
sg64
(lp5068
S'generic_patterns'
p5069
asbag57
(g78
g59
NtRp5070
(dp5071
g62
(dp5072
g89
g90
ssg71
g5061
sg64
(lp5073
S':'
asbag57
(g78
g59
NtRp5074
(dp5075
g62
(dp5076
sg71
g5061
sg64
(lp5077
g57
(g58
g59
NtRp5078
(dp5079
g62
(dp5080
g70
I5
ssg71
g5074
sg64
(lp5081
g57
(g66
g59
NtRp5082
(dp5083
g62
(dp5084
g70
I4
ssg71
Nsg64
(lp5085
g57
(g73
g59
NtRp5086
(dp5087
g62
(dp5088
sg71
g5082
sg64
(lp5089
g57
(g78
g59
NtRp5090
(dp5091
g62
(dp5092
sg71
g5086
sg64
(lp5093
g57
(g58
g59
NtRp5094
(dp5095
g62
(dp5096
g70
I4
ssg71
g5090
sg64
(lp5097
S'*'
asbasbasbasbasbasbasbag57
(g73
g59
NtRp5098
(dp5099
g62
(dp5100
sg71
g4730
sg64
(lp5101
g57
(g78
g59
NtRp5102
(dp5103
g62
(dp5104
g82
g83
ssg71
g5098
sg64
(lp5105
S'google_analytics_id'
p5106
asbag57
(g78
g59
NtRp5107
(dp5108
g62
(dp5109
g89
g90
ssg71
g5098
sg64
(lp5110
S':'
asbag57
(g78
g59
NtRp5111
(dp5112
g62
(dp5113
sg71
g5098
sg64
(lp5114
g57
(g58
g59
NtRp5115
(dp5116
g62
(dp5117
g70
I5
ssg71
g5111
sg64
(lp5118
S'None'
p5119
asbasbasbag57
(g73
g59
NtRp5120
(dp5121
g62
(dp5122
sg71
g4730
sg64
(lp5123
g57
(g78
g59
NtRp5124
(dp5125
g62
(dp5126
g82
g83
ssg71
g5120
sg64
(lp5127
S'headers'
p5128
asbag57
(g78
g59
NtRp5129
(dp5130
g62
(dp5131
g89
g90
ssg71
g5120
sg64
(lp5132
S':'
asbag57
(g78
g59
NtRp5133
(dp5134
g62
(dp5135
sg71
g5120
sg64
(lp5136
g57
(g58
g59
NtRp5137
(dp5138
g62
(dp5139
g70
I5
ssg71
g5133
sg64
(lp5140
g57
(g66
g59
NtRp5141
(dp5142
g62
(dp5143
g70
I4
ssg71
Nsg64
(lp5144
g57
(g73
g59
NtRp5145
(dp5146
g62
(dp5147
sg71
g5141
sg64
(lp5148
g57
(g78
g59
NtRp5149
(dp5150
g62
(dp5151
g82
g83
ssg71
g5145
sg64
(lp5152
S'X-Powered-By'
p5153
asbag57
(g78
g59
NtRp5154
(dp5155
g62
(dp5156
g89
g90
ssg71
g5145
sg64
(lp5157
S':'
asbag57
(g78
g59
NtRp5158
(dp5159
g62
(dp5160
sg71
g5145
sg64
(lp5161
g57
(g58
g59
NtRp5162
(dp5163
g62
(dp5164
g70
I4
ssg71
g5158
sg64
(lp5165
S'web2py'
p5166
asbasbasbasbasbasbasbag57
(g73
g59
NtRp5167
(dp5168
g62
(dp5169
sg71
g4730
sg64
(lp5170
g57
(g78
g59
NtRp5171
(dp5172
g62
(dp5173
g82
g83
ssg71
g5167
sg64
(lp5174
S'menu'
p5175
asbag57
(g78
g59
NtRp5176
(dp5177
g62
(dp5178
g89
g90
ssg71
g5167
sg64
(lp5179
S':'
asbag57
(g78
g59
NtRp5180
(dp5181
g62
(dp5182
sg71
g5167
sg64
(lp5183
g57
(g58
g59
NtRp5184
(dp5185
g62
(dp5186
g70
I5
ssg71
g5180
sg64
(lp5187
g57
(g66
g59
NtRp5188
(dp5189
g62
(dp5190
g70
I4
ssg71
Nsg64
(lp5191
g57
(g73
g59
NtRp5192
(dp5193
g62
(dp5194
sg71
g5188
sg64
(lp5195
g57
(g78
g59
NtRp5196
(dp5197
g62
(dp5198
sg71
g5192
sg64
(lp5199
g57
(g58
g59
NtRp5200
(dp5201
g62
(dp5202
g70
I4
ssg71
g5196
sg64
(lp5203
g57
(g66
g59
NtRp5204
(dp5205
g62
(dp5206
g70
I3
ssg71
Nsg64
(lp5207
g57
(g73
g59
NtRp5208
(dp5209
g62
(dp5210
sg71
g5204
sg64
(lp5211
g57
(g78
g59
NtRp5212
(dp5213
g62
(dp5214
sg71
g5208
sg64
(lp5215
g57
(g58
g59
NtRp5216
(dp5217
g62
(dp5218
g70
I3
ssg71
g5212
sg64
(lp5219
cgluon.languages
lazyT_unpickle
p5220
(S't\x04\x00\x00\x00Home'
tRp5221
asbasbasbag57
(g73
g59
NtRp5222
(dp5223
g62
(dp5224
sg71
g5204
sg64
(lp5225
g57
(g78
g59
NtRp5226
(dp5227
g62
(dp5228
sg71
g5222
sg64
(lp5229
g57
(g58
g59
NtRp5230
(dp5231
g62
(dp5232
g70
I3
ssg71
g5226
sg64
(lp5233
g100
asbasbasbag57
(g73
g59
NtRp5234
(dp5235
g62
(dp5236
sg71
g5204
sg64
(lp5237
g57
(g78
g59
NtRp5238
(dp5239
g62
(dp5240
sg71
g5234
sg64
(lp5241
g57
(g58
g59
NtRp5242
(dp5243
g62
(dp5244
g70
I3
ssg71
g5238
sg64
(lp5245
S'/WSD/default/index'
p5246
asbasbasbag57
(g73
g59
NtRp5247
(dp5248
g62
(dp5249
sg71
g5204
sg64
(lp5250
g57
(g78
g59
NtRp5251
(dp5252
g62
(dp5253
sg71
g5247
sg64
(lp5254
g57
(g58
g59
NtRp5255
(dp5256
g62
(dp5257
g70
I3
ssg71
g5251
sg64
(lp5258
g57
(g66
g59
NtRp5259
(dp5260
g62
(dp5261
g70
I2
ssg71
Nsg64
(lp5262
sbasbasbasbasbasbasbasbag57
(g73
g59
NtRp5263
(dp5264
g62
(dp5265
sg71
g5188
sg64
(lp5266
g57
(g78
g59
NtRp5267
(dp5268
g62
(dp5269
sg71
g5263
sg64
(lp5270
g57
(g58
g59
NtRp5271
(dp5272
g62
(dp5273
g70
I4
ssg71
g5267
sg64
(lp5274
g57
(g66
g59
NtRp5275
(dp5276
g62
(dp5277
g70
I3
ssg71
Nsg64
(lp5278
g57
(g73
g59
NtRp5279
(dp5280
g62
(dp5281
sg71
g5275
sg64
(lp5282
g57
(g78
g59
NtRp5283
(dp5284
g62
(dp5285
sg71
g5279
sg64
(lp5286
g57
(g58
g59
NtRp5287
(dp5288
g62
(dp5289
g70
I3
ssg71
g5283
sg64
(lp5290
g57
(cgluon.html
SPAN
p5291
g59
NtRp5292
(dp5293
g62
(dp5294
g82
S'color:yellow'
p5295
ssg71
Nsg64
(lp5296
g5166
asbasbasbasbag57
(g73
g59
NtRp5297
(dp5298
g62
(dp5299
sg71
g5275
sg64
(lp5300
g57
(g78
g59
NtRp5301
(dp5302
g62
(dp5303
sg71
g5297
sg64
(lp5304
g57
(g58
g59
NtRp5305
(dp5306
g62
(dp5307
g70
I3
ssg71
g5301
sg64
(lp5308
g100
asbasbasbag57
(g73
g59
NtRp5309
(dp5310
g62
(dp5311
sg71
g5275
sg64
(lp5312
g57
(g78
g59
NtRp5313
(dp5314
g62
(dp5315
sg71
g5309
sg64
(lp5316
g57
(g58
g59
NtRp5317
(dp5318
g62
(dp5319
g70
I3
ssg71
g5313
sg64
(lp5320
S'None'
p5321
asbasbasbag57
(g73
g59
NtRp5322
(dp5323
g62
(dp5324
sg71
g5275
sg64
(lp5325
g57
(g78
g59
NtRp5326
(dp5327
g62
(dp5328
sg71
g5322
sg64
(lp5329
g57
(g58
g59
NtRp5330
(dp5331
g62
(dp5332
g70
I3
ssg71
g5326
sg64
(lp5333
g57
(g66
g59
NtRp5334
(dp5335
g62
(dp5336
g70
I2
ssg71
Nsg64
(lp5337
g57
(g73
g59
NtRp5338
(dp5339
g62
(dp5340
sg71
g5334
sg64
(lp5341
g57
(g78
g59
NtRp5342
(dp5343
g62
(dp5344
sg71
g5338
sg64
(lp5345
g57
(g58
g59
NtRp5346
(dp5347
g62
(dp5348
g70
I2
ssg71
g5342
sg64
(lp5349
g57
(g66
g59
NtRp5350
(dp5351
g62
(dp5352
g70
I1
ssg71
Nsg64
(lp5353
g57
(g73
g59
NtRp5354
(dp5355
g62
(dp5356
sg71
g5350
sg64
(lp5357
g57
(g78
g59
NtRp5358
(dp5359
g62
(dp5360
sg71
g5354
sg64
(lp5361
g57
(g58
g59
NtRp5362
(dp5363
g62
(dp5364
g70
I1
ssg71
g5358
sg64
(lp5365
g5220
(S's\x08\x00\x00\x00My Sites'
tRp5366
asbasbasbag57
(g73
g59
NtRp5367
(dp5368
g62
(dp5369
sg71
g5350
sg64
(lp5370
g57
(g78
g59
NtRp5371
(dp5372
g62
(dp5373
sg71
g5367
sg64
(lp5374
g57
(g58
g59
NtRp5375
(dp5376
g62
(dp5377
g70
I1
ssg71
g5371
sg64
(lp5378
I00
asbasbasbag57
(g73
g59
NtRp5379
(dp5380
g62
(dp5381
sg71
g5350
sg64
(lp5382
g57
(g78
g59
NtRp5383
(dp5384
g62
(dp5385
sg71
g5379
sg64
(lp5386
g57
(g58
g59
NtRp5387
(dp5388
g62
(dp5389
g70
I1
ssg71
g5383
sg64
(lp5390
S'/admin/default/site'
p5391
asbasbasbasbasbasbasbag57
(g73
g59
NtRp5392
(dp5393
g62
(dp5394
sg71
g5334
sg64
(lp5395
g57
(g78
g59
NtRp5396
(dp5397
g62
(dp5398
sg71
g5392
sg64
(lp5399
g57
(g58
g59
NtRp5400
(dp5401
g62
(dp5402
g70
I2
ssg71
g5396
sg64
(lp5403
g57
(g66
g59
NtRp5404
(dp5405
g62
(dp5406
g70
I1
ssg71
Nsg64
(lp5407
g57
(g73
g59
NtRp5408
(dp5409
g62
(dp5410
sg71
g5404
sg64
(lp5411
g57
(g78
g59
NtRp5412
(dp5413
g62
(dp5414
sg71
g5408
sg64
(lp5415
g57
(g58
g59
NtRp5416
(dp5417
g62
(dp5418
g70
I1
ssg71
g5412
sg64
(lp5419
g5220
(S's\x08\x00\x00\x00This App'
tRp5420
asbasbasbag57
(g73
g59
NtRp5421
(dp5422
g62
(dp5423
sg71
g5404
sg64
(lp5424
g57
(g78
g59
NtRp5425
(dp5426
g62
(dp5427
sg71
g5421
sg64
(lp5428
g57
(g58
g59
NtRp5429
(dp5430
g62
(dp5431
g70
I1
ssg71
g5425
sg64
(lp5432
I00
asbasbasbag57
(g73
g59
NtRp5433
(dp5434
g62
(dp5435
sg71
g5404
sg64
(lp5436
g57
(g78
g59
NtRp5437
(dp5438
g62
(dp5439
sg71
g5433
sg64
(lp5440
g57
(g58
g59
NtRp5441
(dp5442
g62
(dp5443
g70
I1
ssg71
g5437
sg64
(lp5444
S'/admin/default/design/WSD'
p5445
asbasbasbag57
(g73
g59
NtRp5446
(dp5447
g62
(dp5448
sg71
g5404
sg64
(lp5449
g57
(g78
g59
NtRp5450
(dp5451
g62
(dp5452
sg71
g5446
sg64
(lp5453
g57
(g58
g59
NtRp5454
(dp5455
g62
(dp5456
g70
I1
ssg71
g5450
sg64
(lp5457
(lp5458
(g5220
(S't\n\x00\x00\x00Controller'
tRp5459
I00
S'/admin/default/edit/WSD/controllers/default.py'
tp5460
a(g5220
(S't\x04\x00\x00\x00View'
tRp5461
I00
S'/admin/default/edit/WSD/views/default/changelevel.html'
tp5462
a(g5220
(S't\x06\x00\x00\x00Layout'
tRp5463
I00
S'/admin/default/edit/WSD/views/layout.html'
tp5464
a(g5220
(S't\n\x00\x00\x00Stylesheet'
tRp5465
I00
S'/admin/default/edit/WSD/static/css/web2py.css'
tp5466
a(g5220
(S's\x08\x00\x00\x00DB Model'
tRp5467
I00
S'/admin/default/edit/WSD/models/db.py'
tp5468
a(g5220
(S's\n\x00\x00\x00Menu Model'
tRp5469
I00
S'/admin/default/edit/WSD/models/menu.py'
tp5470
a(g5220
(S't\x08\x00\x00\x00Database'
tRp5471
I00
S'/WSD/appadmin/index'
tp5472
a(g5220
(S't\x06\x00\x00\x00Errors'
tRp5473
I00
S'/admin/default/errors/WSD'
tp5474
a(g5220
(S't\x05\x00\x00\x00About'
tRp5475
I00
S'/admin/default/about/WSD'
tp5476
aasbasbasbasbasbasbasbag57
(g73
g59
NtRp5477
(dp5478
g62
(dp5479
sg71
g5334
sg64
(lp5480
g57
(g78
g59
NtRp5481
(dp5482
g62
(dp5483
sg71
g5477
sg64
(lp5484
g57
(g58
g59
NtRp5485
(dp5486
g62
(dp5487
g70
I2
ssg71
g5481
sg64
(lp5488
g57
(g66
g59
NtRp5489
(dp5490
g62
(dp5491
g70
I1
ssg71
Nsg64
(lp5492
g57
(g73
g59
NtRp5493
(dp5494
g62
(dp5495
sg71
g5489
sg64
(lp5496
g57
(g78
g59
NtRp5497
(dp5498
g62
(dp5499
sg71
g5493
sg64
(lp5500
g57
(g58
g59
NtRp5501
(dp5502
g62
(dp5503
g70
I1
ssg71
g5497
sg64
(lp5504
S'web2py.com'
p5505
asbasbasbag57
(g73
g59
NtRp5506
(dp5507
g62
(dp5508
sg71
g5489
sg64
(lp5509
g57
(g78
g59
NtRp5510
(dp5511
g62
(dp5512
sg71
g5506
sg64
(lp5513
g57
(g58
g59
NtRp5514
(dp5515
g62
(dp5516
g70
I1
ssg71
g5510
sg64
(lp5517
I00
asbasbasbag57
(g73
g59
NtRp5518
(dp5519
g62
(dp5520
sg71
g5489
sg64
(lp5521
g57
(g78
g59
NtRp5522
(dp5523
g62
(dp5524
sg71
g5518
sg64
(lp5525
g57
(g58
g59
NtRp5526
(dp5527
g62
(dp5528
g70
I1
ssg71
g5522
sg64
(lp5529
S'http://www.web2py.com'
p5530
asbasbasbag57
(g73
g59
NtRp5531
(dp5532
g62
(dp5533
sg71
g5489
sg64
(lp5534
g57
(g78
g59
NtRp5535
(dp5536
g62
(dp5537
sg71
g5531
sg64
(lp5538
g57
(g58
g59
NtRp5539
(dp5540
g62
(dp5541
g70
I1
ssg71
g5535
sg64
(lp5542
(lp5543
(g5220
(S't\x08\x00\x00\x00Download'
tRp5544
I00
S'http://www.web2py.com/examples/default/download'
p5545
tp5546
a(g5220
(S't\x07\x00\x00\x00Support'
tRp5547
I00
S'http://www.web2py.com/examples/default/support'
p5548
tp5549
a(g5220
(S't\x04\x00\x00\x00Demo'
tRp5550
I00
S'http://web2py.com/demo_admin'
p5551
tp5552
a(g5220
(S's\x0e\x00\x00\x00Quick Examples'
tRp5553
I00
S'http://web2py.com/examples/default/examples'
p5554
tp5555
a(g5220
(S't\x03\x00\x00\x00FAQ'
tRp5556
I00
S'http://web2py.com/AlterEgo'
p5557
tp5558
a(g5220
(S't\x06\x00\x00\x00Videos'
tRp5559
I00
S'http://www.web2py.com/examples/default/videos/'
p5560
tp5561
a(g5220
(S's\x11\x00\x00\x00Free Applications'
tRp5562
I00
S'http://web2py.com/appliances'
p5563
tp5564
a(g5220
(S't\x07\x00\x00\x00Plugins'
tRp5565
I00
S'http://web2py.com/plugins'
p5566
tp5567
a(g5220
(S't\x07\x00\x00\x00Layouts'
tRp5568
I00
S'http://web2py.com/layouts'
p5569
tp5570
a(g5220
(S't\x07\x00\x00\x00Recipes'
tRp5571
I00
S'http://web2pyslices.com/'
p5572
tp5573
a(g5220
(S't\x08\x00\x00\x00Semantic'
tRp5574
I00
S'http://web2py.com/semantic'
p5575
tp5576
aasbasbasbasbasbasbasbag57
(g73
g59
NtRp5577
(dp5578
g62
(dp5579
sg71
g5334
sg64
(lp5580
g57
(g78
g59
NtRp5581
(dp5582
g62
(dp5583
sg71
g5577
sg64
(lp5584
g57
(g58
g59
NtRp5585
(dp5586
g62
(dp5587
g70
I2
ssg71
g5581
sg64
(lp5588
g57
(g66
g59
NtRp5589
(dp5590
g62
(dp5591
g70
I1
ssg71
Nsg64
(lp5592
g57
(g73
g59
NtRp5593
(dp5594
g62
(dp5595
sg71
g5589
sg64
(lp5596
g57
(g78
g59
NtRp5597
(dp5598
g62
(dp5599
sg71
g5593
sg64
(lp5600
g57
(g58
g59
NtRp5601
(dp5602
g62
(dp5603
g70
I1
ssg71
g5597
sg64
(lp5604
g5220
(S't\r\x00\x00\x00Documentation'
tRp5605
asbasbasbag57
(g73
g59
NtRp5606
(dp5607
g62
(dp5608
sg71
g5589
sg64
(lp5609
g57
(g78
g59
NtRp5610
(dp5611
g62
(dp5612
sg71
g5606
sg64
(lp5613
g57
(g58
g59
NtRp5614
(dp5615
g62
(dp5616
g70
I1
ssg71
g5610
sg64
(lp5617
I00
asbasbasbag57
(g73
g59
NtRp5618
(dp5619
g62
(dp5620
sg71
g5589
sg64
(lp5621
g57
(g78
g59
NtRp5622
(dp5623
g62
(dp5624
sg71
g5618
sg64
(lp5625
g57
(g58
g59
NtRp5626
(dp5627
g62
(dp5628
g70
I1
ssg71
g5622
sg64
(lp5629
S'http://www.web2py.com/book'
p5630
asbasbasbag57
(g73
g59
NtRp5631
(dp5632
g62
(dp5633
sg71
g5589
sg64
(lp5634
g57
(g78
g59
NtRp5635
(dp5636
g62
(dp5637
sg71
g5631
sg64
(lp5638
g57
(g58
g59
NtRp5639
(dp5640
g62
(dp5641
g70
I1
ssg71
g5635
sg64
(lp5642
(lp5643
(g5220
(S't\x07\x00\x00\x00Preface'
tRp5644
I00
S'http://www.web2py.com/book/default/chapter/00'
p5645
tp5646
a(g5220
(S't\x0c\x00\x00\x00Introduction'
tRp5647
I00
S'http://www.web2py.com/book/default/chapter/01'
p5648
tp5649
a(g5220
(S't\x06\x00\x00\x00Python'
tRp5650
I00
S'http://www.web2py.com/book/default/chapter/02'
p5651
tp5652
a(g5220
(S't\x08\x00\x00\x00Overview'
tRp5653
I00
S'http://www.web2py.com/book/default/chapter/03'
p5654
tp5655
a(g5220
(S's\x08\x00\x00\x00The Core'
tRp5656
I00
S'http://www.web2py.com/book/default/chapter/04'
p5657
tp5658
a(g5220
(S's\t\x00\x00\x00The Views'
tRp5659
I00
S'http://www.web2py.com/book/default/chapter/05'
p5660
tp5661
a(g5220
(S't\x08\x00\x00\x00Database'
tRp5662
I00
S'http://www.web2py.com/book/default/chapter/06'
p5663
tp5664
a(g5220
(S's\x14\x00\x00\x00Forms and Validators'
tRp5665
I00
S'http://www.web2py.com/book/default/chapter/07'
p5666
tp5667
a(g5220
(S's\r\x00\x00\x00Email and SMS'
tRp5668
I00
S'http://www.web2py.com/book/default/chapter/08'
p5669
tp5670
a(g5220
(S's\x0e\x00\x00\x00Access Control'
tRp5671
I00
S'http://www.web2py.com/book/default/chapter/09'
p5672
tp5673
a(g5220
(S't\x08\x00\x00\x00Services'
tRp5674
I00
S'http://www.web2py.com/book/default/chapter/10'
p5675
tp5676
a(g5220
(S's\x0c\x00\x00\x00Ajax Recipes'
tRp5677
I00
S'http://www.web2py.com/book/default/chapter/11'
p5678
tp5679
a(g5220
(S's\x16\x00\x00\x00Components and Plugins'
tRp5680
I00
S'http://www.web2py.com/book/default/chapter/12'
p5681
tp5682
a(g5220
(S's\x12\x00\x00\x00Deployment Recipes'
tRp5683
I00
S'http://www.web2py.com/book/default/chapter/13'
p5684
tp5685
a(g5220
(S's\r\x00\x00\x00Other Recipes'
tRp5686
I00
S'http://www.web2py.com/book/default/chapter/14'
p5687
tp5688
a(g5220
(S's\r\x00\x00\x00Buy this book'
tRp5689
I00
S'http://stores.lulu.com/web2py'
p5690
tp5691
aasbasbasbasbasbasbasbag57
(g73
g59
NtRp5692
(dp5693
g62
(dp5694
sg71
g5334
sg64
(lp5695
g57
(g78
g59
NtRp5696
(dp5697
g62
(dp5698
sg71
g5692
sg64
(lp5699
g57
(g58
g59
NtRp5700
(dp5701
g62
(dp5702
g70
I2
ssg71
g5696
sg64
(lp5703
g57
(g66
g59
NtRp5704
(dp5705
g62
(dp5706
g70
I1
ssg71
Nsg64
(lp5707
g57
(g73
g59
NtRp5708
(dp5709
g62
(dp5710
sg71
g5704
sg64
(lp5711
g57
(g78
g59
NtRp5712
(dp5713
g62
(dp5714
sg71
g5708
sg64
(lp5715
g57
(g58
g59
NtRp5716
(dp5717
g62
(dp5718
g70
I1
ssg71
g5712
sg64
(lp5719
g5220
(S't\t\x00\x00\x00Community'
tRp5720
asbasbasbag57
(g73
g59
NtRp5721
(dp5722
g62
(dp5723
sg71
g5704
sg64
(lp5724
g57
(g78
g59
NtRp5725
(dp5726
g62
(dp5727
sg71
g5721
sg64
(lp5728
g57
(g58
g59
NtRp5729
(dp5730
g62
(dp5731
g70
I1
ssg71
g5725
sg64
(lp5732
I00
asbasbasbag57
(g73
g59
NtRp5733
(dp5734
g62
(dp5735
sg71
g5704
sg64
(lp5736
g57
(g78
g59
NtRp5737
(dp5738
g62
(dp5739
sg71
g5733
sg64
(lp5740
g57
(g58
g59
NtRp5741
(dp5742
g62
(dp5743
g70
I1
ssg71
g5737
sg64
(lp5744
Nasbasbasbag57
(g73
g59
NtRp5745
(dp5746
g62
(dp5747
sg71
g5704
sg64
(lp5748
g57
(g78
g59
NtRp5749
(dp5750
g62
(dp5751
sg71
g5745
sg64
(lp5752
g57
(g58
g59
NtRp5753
(dp5754
g62
(dp5755
g70
I1
ssg71
g5749
sg64
(lp5756
(lp5757
(g5220
(S't\x06\x00\x00\x00Groups'
tRp5758
I00
S'http://www.web2py.com/examples/default/usergroups'
p5759
tp5760
a(g5220
(S't\x07\x00\x00\x00Twitter'
tRp5761
I00
S'http://twitter.com/web2py'
p5762
tp5763
a(g5220
(S's\t\x00\x00\x00Live Chat'
tRp5764
I00
S'http://webchat.freenode.net/?channels=web2py'
p5765
tp5766
aasbasbasbasbasbasbasbag57
(g73
g59
NtRp5767
(dp5768
g62
(dp5769
sg71
g5334
sg64
(lp5770
g57
(g78
g59
NtRp5771
(dp5772
g62
(dp5773
sg71
g5767
sg64
(lp5774
g57
(g58
g59
NtRp5775
(dp5776
g62
(dp5777
g70
I2
ssg71
g5771
sg64
(lp5778
g57
(g66
g59
NtRp5779
(dp5780
g62
(dp5781
g70
I1
ssg71
Nsg64
(lp5782
g57
(g73
g59
NtRp5783
(dp5784
g62
(dp5785
sg71
g5779
sg64
(lp5786
g57
(g78
g59
NtRp5787
(dp5788
g62
(dp5789
sg71
g5783
sg64
(lp5790
g57
(g58
g59
NtRp5791
(dp5792
g62
(dp5793
g70
I1
ssg71
g5787
sg64
(lp5794
g5220
(S't\x07\x00\x00\x00Plugins'
tRp5795
asbasbasbag57
(g73
g59
NtRp5796
(dp5797
g62
(dp5798
sg71
g5779
sg64
(lp5799
g57
(g78
g59
NtRp5800
(dp5801
g62
(dp5802
sg71
g5796
sg64
(lp5803
g57
(g58
g59
NtRp5804
(dp5805
g62
(dp5806
g70
I1
ssg71
g5800
sg64
(lp5807
I00
asbasbasbag57
(g73
g59
NtRp5808
(dp5809
g62
(dp5810
sg71
g5779
sg64
(lp5811
g57
(g78
g59
NtRp5812
(dp5813
g62
(dp5814
sg71
g5808
sg64
(lp5815
g57
(g58
g59
NtRp5816
(dp5817
g62
(dp5818
g70
I1
ssg71
g5812
sg64
(lp5819
Nasbasbasbag57
(g73
g59
NtRp5820
(dp5821
g62
(dp5822
sg71
g5779
sg64
(lp5823
g57
(g78
g59
NtRp5824
(dp5825
g62
(dp5826
sg71
g5820
sg64
(lp5827
g57
(g58
g59
NtRp5828
(dp5829
g62
(dp5830
g70
I1
ssg71
g5824
sg64
(lp5831
(lp5832
(S'plugin_wiki'
p5833
I00
S'http://web2py.com/examples/default/download'
p5834
tp5835
a(g5220
(S's\r\x00\x00\x00Other Plugins'
tRp5836
I00
g5566
tp5837
a(g5220
(S's\x0e\x00\x00\x00Layout Plugins'
tRp5838
I00
g5569
tp5839
aasbasbasbasbasbasbasbasbasbasbasbasbasbasbasbasbasbasbasbag57
(g73
g59
NtRp5840
(dp5841
g62
(dp5842
sg71
g4730
sg64
(lp5843
g57
(g78
g59
NtRp5844
(dp5845
g62
(dp5846
g82
g83
ssg71
g5840
sg64
(lp5847
S'meta'
p5848
asbag57
(g78
g59
NtRp5849
(dp5850
g62
(dp5851
g89
g90
ssg71
g5840
sg64
(lp5852
S':'
asbag57
(g78
g59
NtRp5853
(dp5854
g62
(dp5855
sg71
g5840
sg64
(lp5856
g57
(g58
g59
NtRp5857
(dp5858
g62
(dp5859
g70
I5
ssg71
g5853
sg64
(lp5860
g57
(g66
g59
NtRp5861
(dp5862
g62
(dp5863
g70
I4
ssg71
Nsg64
(lp5864
g57
(g73
g59
NtRp5865
(dp5866
g62
(dp5867
sg71
g5861
sg64
(lp5868
g57
(g78
g59
NtRp5869
(dp5870
g62
(dp5871
g82
g83
ssg71
g5865
sg64
(lp5872
S'author'
p5873
asbag57
(g78
g59
NtRp5874
(dp5875
g62
(dp5876
g89
g90
ssg71
g5865
sg64
(lp5877
S':'
asbag57
(g78
g59
NtRp5878
(dp5879
g62
(dp5880
sg71
g5865
sg64
(lp5881
g57
(g58
g59
NtRp5882
(dp5883
g62
(dp5884
g70
I4
ssg71
g5878
sg64
(lp5885
S'Your Name <you@example.com>'
p5886
asbasbasbag57
(g73
g59
NtRp5887
(dp5888
g62
(dp5889
sg71
g5861
sg64
(lp5890
g57
(g78
g59
NtRp5891
(dp5892
g62
(dp5893
g82
g83
ssg71
g5887
sg64
(lp5894
S'copyright'
p5895
asbag57
(g78
g59
NtRp5896
(dp5897
g62
(dp5898
g89
g90
ssg71
g5887
sg64
(lp5899
S':'
asbag57
(g78
g59
NtRp5900
(dp5901
g62
(dp5902
sg71
g5887
sg64
(lp5903
g57
(g58
g59
NtRp5904
(dp5905
g62
(dp5906
g70
I4
ssg71
g5900
sg64
(lp5907
S'Copyright 2011'
p5908
asbasbasbag57
(g73
g59
NtRp5909
(dp5910
g62
(dp5911
sg71
g5861
sg64
(lp5912
g57
(g78
g59
NtRp5913
(dp5914
g62
(dp5915
g82
g83
ssg71
g5909
sg64
(lp5916
S'description'
p5917
asbag57
(g78
g59
NtRp5918
(dp5919
g62
(dp5920
g89
g90
ssg71
g5909
sg64
(lp5921
S':'
asbag57
(g78
g59
NtRp5922
(dp5923
g62
(dp5924
sg71
g5909
sg64
(lp5925
g57
(g58
g59
NtRp5926
(dp5927
g62
(dp5928
g70
I4
ssg71
g5922
sg64
(lp5929
S'a cool new app'
p5930
asbasbasbag57
(g73
g59
NtRp5931
(dp5932
g62
(dp5933
sg71
g5861
sg64
(lp5934
g57
(g78
g59
NtRp5935
(dp5936
g62
(dp5937
g82
g83
ssg71
g5931
sg64
(lp5938
S'generator'
p5939
asbag57
(g78
g59
NtRp5940
(dp5941
g62
(dp5942
g89
g90
ssg71
g5931
sg64
(lp5943
S':'
asbag57
(g78
g59
NtRp5944
(dp5945
g62
(dp5946
sg71
g5931
sg64
(lp5947
g57
(g58
g59
NtRp5948
(dp5949
g62
(dp5950
g70
I4
ssg71
g5944
sg64
(lp5951
S'Web2py Web Framework'
p5952
asbasbasbag57
(g73
g59
NtRp5953
(dp5954
g62
(dp5955
sg71
g5861
sg64
(lp5956
g57
(g78
g59
NtRp5957
(dp5958
g62
(dp5959
g82
g83
ssg71
g5953
sg64
(lp5960
S'keywords'
p5961
asbag57
(g78
g59
NtRp5962
(dp5963
g62
(dp5964
g89
g90
ssg71
g5953
sg64
(lp5965
S':'
asbag57
(g78
g59
NtRp5966
(dp5967
g62
(dp5968
sg71
g5953
sg64
(lp5969
g57
(g58
g59
NtRp5970
(dp5971
g62
(dp5972
g70
I4
ssg71
g5966
sg64
(lp5973
S'web2py, python, framework'
p5974
asbasbasbasbasbasbasbag57
(g73
g59
NtRp5975
(dp5976
g62
(dp5977
sg71
g4730
sg64
(lp5978
g57
(g78
g59
NtRp5979
(dp5980
g62
(dp5981
g82
g83
ssg71
g5975
sg64
(lp5982
S'models_to_run'
p5983
asbag57
(g78
g59
NtRp5984
(dp5985
g62
(dp5986
g89
g90
ssg71
g5975
sg64
(lp5987
S':'
asbag57
(g78
g59
NtRp5988
(dp5989
g62
(dp5990
sg71
g5975
sg64
(lp5991
g57
(g58
g59
NtRp5992
(dp5993
g62
(dp5994
g70
I5
ssg71
g5988
sg64
(lp5995
g57
(g66
g59
NtRp5996
(dp5997
g62
(dp5998
g70
I4
ssg71
Nsg64
(lp5999
g57
(g73
g59
NtRp6000
(dp6001
g62
(dp6002
sg71
g5996
sg64
(lp6003
g57
(g78
g59
NtRp6004
(dp6005
g62
(dp6006
sg71
g6000
sg64
(lp6007
g57
(g58
g59
NtRp6008
(dp6009
g62
(dp6010
g70
I4
ssg71
g6004
sg64
(lp6011
S'^\\w+\\.py$'
p6012
asbasbasbag57
(g73
g59
NtRp6013
(dp6014
g62
(dp6015
sg71
g5996
sg64
(lp6016
g57
(g78
g59
NtRp6017
(dp6018
g62
(dp6019
sg71
g6013
sg64
(lp6020
g57
(g58
g59
NtRp6021
(dp6022
g62
(dp6023
g70
I4
ssg71
g6017
sg64
(lp6024
S'^default/\\w+\\.py$'
p6025
asbasbasbag57
(g73
g59
NtRp6026
(dp6027
g62
(dp6028
sg71
g5996
sg64
(lp6029
g57
(g78
g59
NtRp6030
(dp6031
g62
(dp6032
sg71
g6026
sg64
(lp6033
g57
(g58
g59
NtRp6034
(dp6035
g62
(dp6036
g70
I4
ssg71
g6030
sg64
(lp6037
S'^default/changelevel/\\w+\\.py$'
p6038
asbasbasbasbasbasbasbag57
(g73
g59
NtRp6039
(dp6040
g62
(dp6041
sg71
g4730
sg64
(lp6042
g57
(g78
g59
NtRp6043
(dp6044
g62
(dp6045
g82
g83
ssg71
g6039
sg64
(lp6046
S'postprocessing'
p6047
asbag57
(g78
g59
NtRp6048
(dp6049
g62
(dp6050
g89
g90
ssg71
g6039
sg64
(lp6051
S':'
asbag57
(g78
g59
NtRp6052
(dp6053
g62
(dp6054
sg71
g6039
sg64
(lp6055
g57
(g58
g59
NtRp6056
(dp6057
g62
(dp6058
g70
I5
ssg71
g6052
sg64
(lp6059
g57
(g66
g59
NtRp6060
(dp6061
g62
(dp6062
g70
I4
ssg71
Nsg64
(lp6063
sbasbasbasbag57
(g73
g59
NtRp6064
(dp6065
g62
(dp6066
sg71
g4730
sg64
(lp6067
g57
(g78
g59
NtRp6068
(dp6069
g62
(dp6070
g82
g83
ssg71
g6064
sg64
(lp6071
S'session_cookie_expires'
p6072
asbag57
(g78
g59
NtRp6073
(dp6074
g62
(dp6075
g89
g90
ssg71
g6064
sg64
(lp6076
S':'
asbag57
(g78
g59
NtRp6077
(dp6078
g62
(dp6079
sg71
g6064
sg64
(lp6080
g57
(g58
g59
NtRp6081
(dp6082
g62
(dp6083
g70
I5
ssg71
g6077
sg64
(lp6084
S'None'
p6085
asbasbasbag57
(g73
g59
NtRp6086
(dp6087
g62
(dp6088
sg71
g4730
sg64
(lp6089
g57
(g78
g59
NtRp6090
(dp6091
g62
(dp6092
g82
g83
ssg71
g6086
sg64
(lp6093
S'session_data_name'
p6094
asbag57
(g78
g59
NtRp6095
(dp6096
g62
(dp6097
g89
g90
ssg71
g6086
sg64
(lp6098
S':'
asbag57
(g78
g59
NtRp6099
(dp6100
g62
(dp6101
sg71
g6086
sg64
(lp6102
g57
(g58
g59
NtRp6103
(dp6104
g62
(dp6105
g70
I5
ssg71
g6099
sg64
(lp6106
S'session_data_wsd'
p6107
asbasbasbag57
(g73
g59
NtRp6108
(dp6109
g62
(dp6110
sg71
g4730
sg64
(lp6111
g57
(g78
g59
NtRp6112
(dp6113
g62
(dp6114
g82
g83
ssg71
g6108
sg64
(lp6115
S'session_file'
p6116
asbag57
(g78
g59
NtRp6117
(dp6118
g62
(dp6119
g89
g90
ssg71
g6108
sg64
(lp6120
S':'
asbag57
(g78
g59
NtRp6121
(dp6122
g62
(dp6123
sg71
g6108
sg64
(lp6124
g57
(g58
g59
NtRp6125
(dp6126
g62
(dp6127
g70
I5
ssg71
g6121
sg64
(lp6128
S"<open file '/home/nazrul/web2py/applications/WSD/sessions/127.0.0.1-d76d2f66-a702-4d08-8b16-65a16f46815e', mode 'rb+' at 0xad817230>"
p6129
asbasbasbag57
(g73
g59
NtRp6130
(dp6131
g62
(dp6132
sg71
g4730
sg64
(lp6133
g57
(g78
g59
NtRp6134
(dp6135
g62
(dp6136
g82
g83
ssg71
g6130
sg64
(lp6137
S'session_filename'
p6138
asbag57
(g78
g59
NtRp6139
(dp6140
g62
(dp6141
g89
g90
ssg71
g6130
sg64
(lp6142
S':'
asbag57
(g78
g59
NtRp6143
(dp6144
g62
(dp6145
sg71
g6130
sg64
(lp6146
g57
(g58
g59
NtRp6147
(dp6148
g62
(dp6149
g70
I5
ssg71
g6143
sg64
(lp6150
S'/home/nazrul/web2py/applications/WSD/sessions/127.0.0.1-d76d2f66-a702-4d08-8b16-65a16f46815e'
p6151
asbasbasbag57
(g73
g59
NtRp6152
(dp6153
g62
(dp6154
sg71
g4730
sg64
(lp6155
g57
(g78
g59
NtRp6156
(dp6157
g62
(dp6158
g82
g83
ssg71
g6152
sg64
(lp6159
S'session_id'
p6160
asbag57
(g78
g59
NtRp6161
(dp6162
g62
(dp6163
g89
g90
ssg71
g6152
sg64
(lp6164
S':'
asbag57
(g78
g59
NtRp6165
(dp6166
g62
(dp6167
sg71
g6152
sg64
(lp6168
g57
(g58
g59
NtRp6169
(dp6170
g62
(dp6171
g70
I5
ssg71
g6165
sg64
(lp6172
g1033
asbasbasbag57
(g73
g59
NtRp6173
(dp6174
g62
(dp6175
sg71
g4730
sg64
(lp6176
g57
(g78
g59
NtRp6177
(dp6178
g62
(dp6179
g82
g83
ssg71
g6173
sg64
(lp6180
S'session_id_name'
p6181
asbag57
(g78
g59
NtRp6182
(dp6183
g62
(dp6184
g89
g90
ssg71
g6173
sg64
(lp6185
S':'
asbag57
(g78
g59
NtRp6186
(dp6187
g62
(dp6188
sg71
g6173
sg64
(lp6189
g57
(g58
g59
NtRp6190
(dp6191
g62
(dp6192
g70
I5
ssg71
g6186
sg64
(lp6193
g4787
asbasbasbag57
(g73
g59
NtRp6194
(dp6195
g62
(dp6196
sg71
g4730
sg64
(lp6197
g57
(g78
g59
NtRp6198
(dp6199
g62
(dp6200
g82
g83
ssg71
g6194
sg64
(lp6201
S'session_locked'
p6202
asbag57
(g78
g59
NtRp6203
(dp6204
g62
(dp6205
g89
g90
ssg71
g6194
sg64
(lp6206
S':'
asbag57
(g78
g59
NtRp6207
(dp6208
g62
(dp6209
sg71
g6194
sg64
(lp6210
g57
(g58
g59
NtRp6211
(dp6212
g62
(dp6213
g70
I5
ssg71
g6207
sg64
(lp6214
g2413
asbasbasbag57
(g73
g59
NtRp6215
(dp6216
g62
(dp6217
sg71
g4730
sg64
(lp6218
g57
(g78
g59
NtRp6219
(dp6220
g62
(dp6221
g82
g83
ssg71
g6215
sg64
(lp6222
S'session_new'
p6223
asbag57
(g78
g59
NtRp6224
(dp6225
g62
(dp6226
g89
g90
ssg71
g6215
sg64
(lp6227
S':'
asbag57
(g78
g59
NtRp6228
(dp6229
g62
(dp6230
sg71
g6215
sg64
(lp6231
g57
(g58
g59
NtRp6232
(dp6233
g62
(dp6234
g70
I5
ssg71
g6228
sg64
(lp6235
g100
asbasbasbag57
(g73
g59
NtRp6236
(dp6237
g62
(dp6238
sg71
g4730
sg64
(lp6239
g57
(g78
g59
NtRp6240
(dp6241
g62
(dp6242
g82
g83
ssg71
g6236
sg64
(lp6243
S'session_storage_type'
p6244
asbag57
(g78
g59
NtRp6245
(dp6246
g62
(dp6247
g89
g90
ssg71
g6236
sg64
(lp6248
S':'
asbag57
(g78
g59
NtRp6249
(dp6250
g62
(dp6251
sg71
g6236
sg64
(lp6252
g57
(g58
g59
NtRp6253
(dp6254
g62
(dp6255
g70
I5
ssg71
g6249
sg64
(lp6256
g4095
asbasbasbag57
(g73
g59
NtRp6257
(dp6258
g62
(dp6259
sg71
g4730
sg64
(lp6260
g57
(g78
g59
NtRp6261
(dp6262
g62
(dp6263
g82
g83
ssg71
g6257
sg64
(lp6264
S'status'
p6265
asbag57
(g78
g59
NtRp6266
(dp6267
g62
(dp6268
g89
g90
ssg71
g6257
sg64
(lp6269
S':'
asbag57
(g78
g59
NtRp6270
(dp6271
g62
(dp6272
sg71
g6257
sg64
(lp6273
g57
(g58
g59
NtRp6274
(dp6275
g62
(dp6276
g70
I5
ssg71
g6270
sg64
(lp6277
S'200'
p6278
asbasbasbag57
(g73
g59
NtRp6279
(dp6280
g62
(dp6281
sg71
g4730
sg64
(lp6282
g57
(g78
g59
NtRp6283
(dp6284
g62
(dp6285
g82
g83
ssg71
g6279
sg64
(lp6286
S'subtitle'
p6287
asbag57
(g78
g59
NtRp6288
(dp6289
g62
(dp6290
g89
g90
ssg71
g6279
sg64
(lp6291
S':'
asbag57
(g78
g59
NtRp6292
(dp6293
g62
(dp6294
sg71
g6279
sg64
(lp6295
g57
(g58
g59
NtRp6296
(dp6297
g62
(dp6298
g70
I5
ssg71
g6292
sg64
(lp6299
g5220
(S's\r\x00\x00\x00customize me!'
tRp6300
asbasbasbag57
(g73
g59
NtRp6301
(dp6302
g62
(dp6303
sg71
g4730
sg64
(lp6304
g57
(g78
g59
NtRp6305
(dp6306
g62
(dp6307
g82
g83
ssg71
g6301
sg64
(lp6308
S'title'
p6309
asbag57
(g78
g59
NtRp6310
(dp6311
g62
(dp6312
g89
g90
ssg71
g6301
sg64
(lp6313
S':'
asbag57
(g78
g59
NtRp6314
(dp6315
g62
(dp6316
sg71
g6301
sg64
(lp6317
g57
(g58
g59
NtRp6318
(dp6319
g62
(dp6320
g70
I5
ssg71
g6314
sg64
(lp6321
S'Wsd'
p6322
asbasbasbag57
(g73
g59
NtRp6323
(dp6324
g62
(dp6325
sg71
g4730
sg64
(lp6326
g57
(g78
g59
NtRp6327
(dp6328
g62
(dp6329
g82
g83
ssg71
g6323
sg64
(lp6330
S'view'
p6331
asbag57
(g78
g59
NtRp6332
(dp6333
g62
(dp6334
g89
g90
ssg71
g6323
sg64
(lp6335
S':'
asbag57
(g78
g59
NtRp6336
(dp6337
g62
(dp6338
sg71
g6323
sg64
(lp6339
g57
(g58
g59
NtRp6340
(dp6341
g62
(dp6342
g70
I5
ssg71
g6336
sg64
(lp6343
S'default/changelevel.html'
p6344
asbasbasbasbasbsS'locals'
p6345
(dp6346
ssS'traceback'
p6347
S'Traceback (most recent call last):\n  File "/home/nazrul/web2py/gluon/restricted.py", line 212, in restricted\n    exec ccode in environment\n  File "/home/nazrul/web2py/applications/WSD/controllers/default.py", line 427, in <module>\n  File "/home/nazrul/web2py/gluon/globals.py", line 193, in <lambda>\n    self._caller = lambda f: f()\n  File "/home/nazrul/web2py/gluon/tools.py", line 2929, in f\n    return action(*a, **b)\n  File "/home/nazrul/web2py/applications/WSD/controllers/default.py", line 113, in changelevel\n    db(db.user_level).insert(email=request.vars.new_email,level=request.vars.level)\nAttributeError: \'Set\' object has no attribute \'insert\'\n'
p6348
s.