(dp1
S'output'
p2
S"<type 'exceptions.NameError'> global name 'a' is not defined"
p3
sS'layer'
p4
S'/home/nazrul/web2py/applications/WSD_Tool/controllers/default.py'
p5
sS'code'
p6
S'# -*- coding: utf-8 -*-\n# this file is released under public domain and you can use without limitations\n\n#########################################################################\n## This is a samples controller\n## - index is the default action of any application\n## - user is required for authentication and authorization\n## - download is for downloading files uploaded in the db (does streaming)\n## - call exposes all registered services (none by default)\n#########################################################################\nimport os,subprocess\ndef index():\n    redirect(\'home\')\n    """\n    example action using the internationalization operator T and flash\n    rendered by views/default/index.html or views/generic.html\n    """\n    response.flash = "Welcome to web2py!"\n    return dict(message=T(\'Hello World\'))\n\ndef user():\n    """\n    exposes:\n    http://..../[app]/default/user/login\n    http://..../[app]/default/user/logout\n    http://..../[app]/default/user/register\n    http://..../[app]/default/user/profile\n    http://..../[app]/default/user/retrieve_password\n    http://..../[app]/default/user/change_password\n    use @auth.requires_login()\n        @auth.requires_membership(\'group name\')\n        @auth.requires_permission(\'read\',\'table name\',record_id)\n    to decorate functions that need access control\n    """\n    return dict(form=auth())\n\n\ndef download():\n    """\n    allows downloading of uploaded files\n    http://..../[app]/default/download/[filename]\n    """\n    return response.download(request,db)\n\n\ndef call():\n    """\n    exposes services. for example:\n    http://..../[app]/default/call/jsonrpc\n    decorate with @services.jsonrpc the functions to expose\n    supports xml, json, xmlrpc, jsonrpc, amfrpc, rss, csv\n    """\n    return service()\n\n\n@auth.requires_signature()\ndef data():\n    """\n    http://..../[app]/default/data/tables\n    http://..../[app]/default/data/create/[table]\n    http://..../[app]/default/data/read/[table]/[id]\n    http://..../[app]/default/data/update/[table]/[id]\n    http://..../[app]/default/data/delete/[table]/[id]\n    http://..../[app]/default/data/select/[table]\n    http://..../[app]/default/data/search/[table]\n    but URLs must be signed, i.e. linked with\n      A(\'table\',_href=URL(\'data/tables\',user_signature=True))\n    or with the signed load operator\n      LOAD(\'default\',\'data.load\',args=\'tables\',ajax=True,user_signature=True)\n    """\n    return dict(form=crud())\n\n\n\n\n@auth.requires_login()\ndef home():\n    t = auth.user.id\n    h = db(db.rules.userid==t).select()\n    g = []\n    for i in h:\n        g.append(db(db.words.id==i.wid).select(db.words.word))\n    h=[]\n    for i in g:\n        for j in i:\n            h.append(j.word) \n    h=list(set(h))\n    return dict(t=t,h=h)\n\n@auth.requires_login()\ndef word_select():\n    if not request.vars.check:\n        redirect(\'home\')\n    else:\n        check=0\n    if request.vars.submit:\n        w = request.vars.word\n        t = db(db.words).select()\n        for i in t:\n            if i.word==w:\n                session.word = w\n                session.ide = i.id\n                break\n        redirect(\'sentence_select\')\n    return dict()\n\n\n@auth.requires_login()\ndef word_selectc():\n    if not request.vars.check:\n        redirect(\'home\')\n    else:\n        check=0\n    if request.vars.submit:\n        w = request.vars.word\n        t = db(db.words).select()\n        for i in t:\n            if i.word==w:\n                session.word = w\n                session.ide = i.id\n                break\n        redirect(URL(\'sentence_selectc\',vars=dict(second=request.vars.second)))\n    return dict()\n    \n    \n    \n\n\n\n#@auth.requires_login()\n#def reason():\n#    t=session.senid\n#    pre=db((db.rules.wid==session.ide)&(db.rules.sid==session.sid)).select()\n#    c=0\n#    for i in pre:\n#        c+=1\n#    if request.vars.hindit:\n#        db.rules.insert(name=session.word+str(c),userid=auth.user.id,wid=session.ide,sid=session.sid,translation=hindit)\n#        redirect(URL(\'rel\'))\n#    return dict()\n    \n    \n@auth.requires_login()\ndef sentence_select():\n    f = \'\'\n    x = 0\n    if request.vars.submit and (request.vars.hindit):\n        t = request.vars.sentence\n        r = db(db.sentences.esentence==t).select(db.sentences.id)\n        for i in r:\n          session.sid=i.id\n          break\n        pre=db((db.rules.wid==session.ide)&(db.rules.userid==auth.user.id)).select()\n        c=0\n        f=0\n        for i in pre:\n            c+=1\n            if str(session.sid)==i.sid:\n                f=1\n                break\n        if f==0:\n            db.rules.insert(name=session.word+str(c),userid=auth.user.id,wid=session.ide,sid=session.sid,translation=request.vars.hindit)\n        redirect(URL(\'rel\'))\n    return dict(w=session.word,d=session.ide,f=f)\n\n\n@auth.requires_login()\ndef sentence_selectc():\n    f = \'\'\n    x = 0\n    if request.vars.submit:\n        t = request.vars.sentence\n        r = db(db.sentences.esentence==t).select(db.sentences.id)\n        for i in r:\n          hindit=i.id\n          session.sid=i.id\n          break\n        redirect(URL(\'reasonc\',vars=dict(hindit=hindit)))\n    return dict(w=session.word,d=session.ide,f=f)\n\n\n@auth.requires_login()\ndef reasonc():\n    t=session.sid\n    r = db(db.sentences.id==t).select(db.sentences.hsentence)\n    if request.vars.submit:\n        pre=db((db.rules.wid==session.ide)&(db.rules.userid==auth.user.id)).select()\n        c=0\n        f=0\n        for i in pre:\n            c+=1\n            print session.sid,i.sid\n            if i.sid==str(session.sid):\n                f=1\n                break\n        if f==0:\n            db.rules.insert(name=session.word+str(c),userid=auth.user.id,wid=session.ide,sid=session.sid)\n        redirect(URL(\'rel\'))\n    return dict(r=r)\n\n@auth.requires_login()\ndef delaccount():\n    if request.vars.submit:\n        db(db.auth_user.email==request.vars.email).delete()\n        redirect("home")\n    return dict()\n\n@auth.requires_login()\ndef addword():\n    if request.vars.submit:\n        db.words.insert(word=request.vars.word)\n        db.sentences.insert(esentence=request.vars.esentence,hsentence=request.vars.hsentence)\n        w = db(db.words.word==request.vars.word).select(db.words.id)\n        s = db(db.sentences.esentence==request.vars.esentence).select(db.sentences.id)\n        for i in w:\n            for j in s:\n                db.links.insert(wid=i.id,sid=j.id)\n                break\n            break\n        session.flash="Word Added"\n        redirect(\'home\')\n    return dict()\n@auth.requires_login()\ndef delword():\n    if request.vars.submit:\n        g = db(db.words.word==request.vars.word).select(db.words.id)\n        for i in g:\n            db(db.words.id==i.id).delete()\n            db(db.rules.wid==i.id).delete()\n            y = db(db.links.wid==i.id).select(db.links.sid)\n            db(db.links.wid==i.id).delete()\n            for j in y:\n                db(db.sentences.id==j.sid).delete()\n                break\n            break\n            session.flash="Word Deleted "\n        redirect(\'home\')\n    return dict()\ndef rel():\n       s=db(db.sentences.id==session.sid).select(db.sentences.esentence)\n       s=s[0].esentence\n       f=open(\'sample\',\'w\')\n       st="<TITLE> test. </TITLE> \\n <p> " + s + " </p>"\n       f.write(st)\n       from subprocess import Popen, PIPE, STDOUT\n       shell_command = \'Anusaaraka_stanford.sh  sample 0 True\'\n       event = Popen(shell_command, shell=True, stdin=PIPE, stdout=PIPE, stderr=STDOUT)\n       #os.system("Anusaaraka_stanford.sh  sample 0 True")\n       #f.close()\n       #f=open(\'$HOME_anu_tmp/tmp/sample_tmp/2.1/word.dat\',\'r\')\n       #a=f.read()\n       #f.close()\n       return dict(a=a) \n        \ndef testt():\n    v=db(db.auth_user).select()\n    return dict(v=v)\n\nresponse._vars=response._caller(rel)\n'
p7
sS'snapshot'
p8
(dp9
S'exception'
p10
(dp11
S'__hash__'
p12
S"<method-wrapper '__hash__' of exceptions.NameError object>"
p13
sS'__setattr__'
p14
S"<method-wrapper '__setattr__' of exceptions.NameError object>"
p15
sS'__reduce_ex__'
p16
S'<built-in method __reduce_ex__ of exceptions.NameError object>'
p17
sS'__getslice__'
p18
S"<method-wrapper '__getslice__' of exceptions.NameError object>"
p19
sS'__getitem__'
p20
S"<method-wrapper '__getitem__' of exceptions.NameError object>"
p21
sS'__setstate__'
p22
S'<built-in method __setstate__ of exceptions.NameError object>'
p23
sS'__reduce__'
p24
S'<built-in method __reduce__ of exceptions.NameError object>'
p25
sS'__str__'
p26
S"<method-wrapper '__str__' of exceptions.NameError object>"
p27
sS'__format__'
p28
S'<built-in method __format__ of exceptions.NameError object>'
p29
sS'__getattribute__'
p30
S"<method-wrapper '__getattribute__' of exceptions.NameError object>"
p31
sS'__class__'
p32
S"<type 'exceptions.NameError'>"
p33
sS'__unicode__'
p34
S'<built-in method __unicode__ of exceptions.NameError object>'
p35
sS'__delattr__'
p36
S"<method-wrapper '__delattr__' of exceptions.NameError object>"
p37
sS'__subclasshook__'
p38
S'<built-in method __subclasshook__ of type object>'
p39
sS'__repr__'
p40
S"<method-wrapper '__repr__' of exceptions.NameError object>"
p41
sS'args'
p42
S'("global name \'a\' is not defined",)'
p43
sS'__dict__'
p44
S'{}'
p45
sS'__sizeof__'
p46
S'<built-in method __sizeof__ of exceptions.NameError object>'
p47
sS'__doc__'
p48
S"'Name not found globally.'"
p49
sS'__init__'
p50
S"<method-wrapper '__init__' of exceptions.NameError object>"
p51
sS'__new__'
p52
S'<built-in method __new__ of type object>'
p53
ssS'evalue'
p54
S"global name 'a' is not defined"
p55
sS'request'
p56
ccopy_reg
_reconstructor
p57
(cgluon.html
BEAUTIFY
p58
c__builtin__
object
p59
NtRp60
(dp61
S'attributes'
p62
(dp63
sS'components'
p64
(lp65
g57
(cgluon.html
TABLE
p66
g59
NtRp67
(dp68
g62
(dp69
S'level'
p70
I5
ssS'parent'
p71
Nsg64
(lp72
g57
(cgluon.html
TR
p73
g59
NtRp74
(dp75
g62
(dp76
sg71
g67
sg64
(lp77
g57
(cgluon.html
TD
p78
g59
NtRp79
(dp80
g62
(dp81
S'_style'
p82
S'font-weight:bold;vertical-align:top'
p83
ssg71
g74
sg64
(lp84
S'ajax'
p85
asbag57
(g78
g59
NtRp86
(dp87
g62
(dp88
S'_valign'
p89
S'top'
p90
ssg71
g74
sg64
(lp91
S':'
asbag57
(g78
g59
NtRp92
(dp93
g62
(dp94
sg71
g74
sg64
(lp95
g57
(g58
g59
NtRp96
(dp97
g62
(dp98
g70
I5
ssg71
g92
sg64
(lp99
S'False'
p100
asbasbasbag57
(g73
g59
NtRp101
(dp102
g62
(dp103
sg71
g67
sg64
(lp104
g57
(g78
g59
NtRp105
(dp106
g62
(dp107
g82
g83
ssg71
g101
sg64
(lp108
S'application'
p109
asbag57
(g78
g59
NtRp110
(dp111
g62
(dp112
g89
g90
ssg71
g101
sg64
(lp113
S':'
asbag57
(g78
g59
NtRp114
(dp115
g62
(dp116
sg71
g101
sg64
(lp117
g57
(g58
g59
NtRp118
(dp119
g62
(dp120
g70
I5
ssg71
g114
sg64
(lp121
S'WSD_Tool'
p122
asbasbasbag57
(g73
g59
NtRp123
(dp124
g62
(dp125
sg71
g67
sg64
(lp126
g57
(g78
g59
NtRp127
(dp128
g62
(dp129
g82
g83
ssg71
g123
sg64
(lp130
g42
asbag57
(g78
g59
NtRp131
(dp132
g62
(dp133
g89
g90
ssg71
g123
sg64
(lp134
S':'
asbag57
(g78
g59
NtRp135
(dp136
g62
(dp137
sg71
g123
sg64
(lp138
g57
(g58
g59
NtRp139
(dp140
g62
(dp141
g70
I5
ssg71
g135
sg64
(lp142
g57
(g66
g59
NtRp143
(dp144
g62
(dp145
g70
I4
ssg71
Nsg64
(lp146
sbasbasbasbag57
(g73
g59
NtRp147
(dp148
g62
(dp149
sg71
g67
sg64
(lp150
g57
(g78
g59
NtRp151
(dp152
g62
(dp153
g82
g83
ssg71
g147
sg64
(lp154
S'body'
p155
asbag57
(g78
g59
NtRp156
(dp157
g62
(dp158
g89
g90
ssg71
g147
sg64
(lp159
S':'
asbag57
(g78
g59
NtRp160
(dp161
g62
(dp162
sg71
g147
sg64
(lp163
g57
(g58
g59
NtRp164
(dp165
g62
(dp166
g70
I5
ssg71
g160
sg64
(lp167
S'<cStringIO.StringO object at 0xad9e8ec0>'
p168
asbasbasbag57
(g73
g59
NtRp169
(dp170
g62
(dp171
sg71
g67
sg64
(lp172
g57
(g78
g59
NtRp173
(dp174
g62
(dp175
g82
g83
ssg71
g169
sg64
(lp176
S'cid'
p177
asbag57
(g78
g59
NtRp178
(dp179
g62
(dp180
g89
g90
ssg71
g169
sg64
(lp181
S':'
asbag57
(g78
g59
NtRp182
(dp183
g62
(dp184
sg71
g169
sg64
(lp185
g57
(g58
g59
NtRp186
(dp187
g62
(dp188
g70
I5
ssg71
g182
sg64
(lp189
S'None'
p190
asbasbasbag57
(g73
g59
NtRp191
(dp192
g62
(dp193
sg71
g67
sg64
(lp194
g57
(g78
g59
NtRp195
(dp196
g62
(dp197
g82
g83
ssg71
g191
sg64
(lp198
S'client'
p199
asbag57
(g78
g59
NtRp200
(dp201
g62
(dp202
g89
g90
ssg71
g191
sg64
(lp203
S':'
asbag57
(g78
g59
NtRp204
(dp205
g62
(dp206
sg71
g191
sg64
(lp207
g57
(g58
g59
NtRp208
(dp209
g62
(dp210
g70
I5
ssg71
g204
sg64
(lp211
S'127.0.0.1'
p212
asbasbasbag57
(g73
g59
NtRp213
(dp214
g62
(dp215
sg71
g67
sg64
(lp216
g57
(g78
g59
NtRp217
(dp218
g62
(dp219
g82
g83
ssg71
g213
sg64
(lp220
S'controller'
p221
asbag57
(g78
g59
NtRp222
(dp223
g62
(dp224
g89
g90
ssg71
g213
sg64
(lp225
S':'
asbag57
(g78
g59
NtRp226
(dp227
g62
(dp228
sg71
g213
sg64
(lp229
g57
(g58
g59
NtRp230
(dp231
g62
(dp232
g70
I5
ssg71
g226
sg64
(lp233
S'default'
p234
asbasbasbag57
(g73
g59
NtRp235
(dp236
g62
(dp237
sg71
g67
sg64
(lp238
g57
(g78
g59
NtRp239
(dp240
g62
(dp241
g82
g83
ssg71
g235
sg64
(lp242
S'cookies'
p243
asbag57
(g78
g59
NtRp244
(dp245
g62
(dp246
g89
g90
ssg71
g235
sg64
(lp247
S':'
asbag57
(g78
g59
NtRp248
(dp249
g62
(dp250
sg71
g235
sg64
(lp251
g57
(g58
g59
NtRp252
(dp253
g62
(dp254
g70
I5
ssg71
g248
sg64
(lp255
g57
(g66
g59
NtRp256
(dp257
g62
(dp258
g70
I4
ssg71
Nsg64
(lp259
g57
(g73
g59
NtRp260
(dp261
g62
(dp262
sg71
g256
sg64
(lp263
g57
(g78
g59
NtRp264
(dp265
g62
(dp266
g82
g83
ssg71
g260
sg64
(lp267
S'KBD'
p268
asbag57
(g78
g59
NtRp269
(dp270
g62
(dp271
g89
g90
ssg71
g260
sg64
(lp272
S':'
asbag57
(g78
g59
NtRp273
(dp274
g62
(dp275
sg71
g260
sg64
(lp276
g57
(g58
g59
NtRp277
(dp278
g62
(dp279
g70
I4
ssg71
g273
sg64
(lp280
S'0hi-0'
p281
ag57
(g66
g59
NtRp282
(dp283
g62
(dp284
g70
I3
ssg71
Nsg64
(lp285
g57
(g73
g59
NtRp286
(dp287
g62
(dp288
sg71
g282
sg64
(lp289
g57
(g78
g59
NtRp290
(dp291
g62
(dp292
g82
g83
ssg71
g286
sg64
(lp293
S'comment'
p294
asbag57
(g78
g59
NtRp295
(dp296
g62
(dp297
g89
g90
ssg71
g286
sg64
(lp298
S':'
asbag57
(g78
g59
NtRp299
(dp300
g62
(dp301
sg71
g286
sg64
(lp302
g57
(g58
g59
NtRp303
(dp304
g62
(dp305
g70
I3
ssg71
g299
sg64
(lp306
S''
asbasbasbag57
(g73
g59
NtRp307
(dp308
g62
(dp309
sg71
g282
sg64
(lp310
g57
(g78
g59
NtRp311
(dp312
g62
(dp313
g82
g83
ssg71
g307
sg64
(lp314
S'domain'
p315
asbag57
(g78
g59
NtRp316
(dp317
g62
(dp318
g89
g90
ssg71
g307
sg64
(lp319
S':'
asbag57
(g78
g59
NtRp320
(dp321
g62
(dp322
sg71
g307
sg64
(lp323
g57
(g58
g59
NtRp324
(dp325
g62
(dp326
g70
I3
ssg71
g320
sg64
(lp327
S''
asbasbasbag57
(g73
g59
NtRp328
(dp329
g62
(dp330
sg71
g282
sg64
(lp331
g57
(g78
g59
NtRp332
(dp333
g62
(dp334
g82
g83
ssg71
g328
sg64
(lp335
S'expires'
p336
asbag57
(g78
g59
NtRp337
(dp338
g62
(dp339
g89
g90
ssg71
g328
sg64
(lp340
S':'
asbag57
(g78
g59
NtRp341
(dp342
g62
(dp343
sg71
g328
sg64
(lp344
g57
(g58
g59
NtRp345
(dp346
g62
(dp347
g70
I3
ssg71
g341
sg64
(lp348
S''
asbasbasbag57
(g73
g59
NtRp349
(dp350
g62
(dp351
sg71
g282
sg64
(lp352
g57
(g78
g59
NtRp353
(dp354
g62
(dp355
g82
g83
ssg71
g349
sg64
(lp356
S'httponly'
p357
asbag57
(g78
g59
NtRp358
(dp359
g62
(dp360
g89
g90
ssg71
g349
sg64
(lp361
S':'
asbag57
(g78
g59
NtRp362
(dp363
g62
(dp364
sg71
g349
sg64
(lp365
g57
(g58
g59
NtRp366
(dp367
g62
(dp368
g70
I3
ssg71
g362
sg64
(lp369
S''
asbasbasbag57
(g73
g59
NtRp370
(dp371
g62
(dp372
sg71
g282
sg64
(lp373
g57
(g78
g59
NtRp374
(dp375
g62
(dp376
g82
g83
ssg71
g370
sg64
(lp377
S'max-age'
p378
asbag57
(g78
g59
NtRp379
(dp380
g62
(dp381
g89
g90
ssg71
g370
sg64
(lp382
S':'
asbag57
(g78
g59
NtRp383
(dp384
g62
(dp385
sg71
g370
sg64
(lp386
g57
(g58
g59
NtRp387
(dp388
g62
(dp389
g70
I3
ssg71
g383
sg64
(lp390
S''
asbasbasbag57
(g73
g59
NtRp391
(dp392
g62
(dp393
sg71
g282
sg64
(lp394
g57
(g78
g59
NtRp395
(dp396
g62
(dp397
g82
g83
ssg71
g391
sg64
(lp398
S'path'
p399
asbag57
(g78
g59
NtRp400
(dp401
g62
(dp402
g89
g90
ssg71
g391
sg64
(lp403
S':'
asbag57
(g78
g59
NtRp404
(dp405
g62
(dp406
sg71
g391
sg64
(lp407
g57
(g58
g59
NtRp408
(dp409
g62
(dp410
g70
I3
ssg71
g404
sg64
(lp411
S''
asbasbasbag57
(g73
g59
NtRp412
(dp413
g62
(dp414
sg71
g282
sg64
(lp415
g57
(g78
g59
NtRp416
(dp417
g62
(dp418
g82
g83
ssg71
g412
sg64
(lp419
S'secure'
p420
asbag57
(g78
g59
NtRp421
(dp422
g62
(dp423
g89
g90
ssg71
g412
sg64
(lp424
S':'
asbag57
(g78
g59
NtRp425
(dp426
g62
(dp427
sg71
g412
sg64
(lp428
g57
(g58
g59
NtRp429
(dp430
g62
(dp431
g70
I3
ssg71
g425
sg64
(lp432
S''
asbasbasbag57
(g73
g59
NtRp433
(dp434
g62
(dp435
sg71
g282
sg64
(lp436
g57
(g78
g59
NtRp437
(dp438
g62
(dp439
g82
g83
ssg71
g433
sg64
(lp440
S'version'
p441
asbag57
(g78
g59
NtRp442
(dp443
g62
(dp444
g89
g90
ssg71
g433
sg64
(lp445
S':'
asbag57
(g78
g59
NtRp446
(dp447
g62
(dp448
sg71
g433
sg64
(lp449
g57
(g58
g59
NtRp450
(dp451
g62
(dp452
g70
I3
ssg71
g446
sg64
(lp453
S''
asbasbasbasbasbasbasbag57
(g73
g59
NtRp454
(dp455
g62
(dp456
sg71
g256
sg64
(lp457
g57
(g78
g59
NtRp458
(dp459
g62
(dp460
g82
g83
ssg71
g454
sg64
(lp461
S'session_id_admin'
p462
asbag57
(g78
g59
NtRp463
(dp464
g62
(dp465
g89
g90
ssg71
g454
sg64
(lp466
S':'
asbag57
(g78
g59
NtRp467
(dp468
g62
(dp469
sg71
g454
sg64
(lp470
g57
(g58
g59
NtRp471
(dp472
g62
(dp473
g70
I4
ssg71
g467
sg64
(lp474
S'127.0.0.1-634e911d-1fde-455e-a6e2-97efd4213cb7'
p475
ag57
(g66
g59
NtRp476
(dp477
g62
(dp478
g70
I3
ssg71
Nsg64
(lp479
g57
(g73
g59
NtRp480
(dp481
g62
(dp482
sg71
g476
sg64
(lp483
g57
(g78
g59
NtRp484
(dp485
g62
(dp486
g82
g83
ssg71
g480
sg64
(lp487
g294
asbag57
(g78
g59
NtRp488
(dp489
g62
(dp490
g89
g90
ssg71
g480
sg64
(lp491
S':'
asbag57
(g78
g59
NtRp492
(dp493
g62
(dp494
sg71
g480
sg64
(lp495
g57
(g58
g59
NtRp496
(dp497
g62
(dp498
g70
I3
ssg71
g492
sg64
(lp499
S''
asbasbasbag57
(g73
g59
NtRp500
(dp501
g62
(dp502
sg71
g476
sg64
(lp503
g57
(g78
g59
NtRp504
(dp505
g62
(dp506
g82
g83
ssg71
g500
sg64
(lp507
g315
asbag57
(g78
g59
NtRp508
(dp509
g62
(dp510
g89
g90
ssg71
g500
sg64
(lp511
S':'
asbag57
(g78
g59
NtRp512
(dp513
g62
(dp514
sg71
g500
sg64
(lp515
g57
(g58
g59
NtRp516
(dp517
g62
(dp518
g70
I3
ssg71
g512
sg64
(lp519
S''
asbasbasbag57
(g73
g59
NtRp520
(dp521
g62
(dp522
sg71
g476
sg64
(lp523
g57
(g78
g59
NtRp524
(dp525
g62
(dp526
g82
g83
ssg71
g520
sg64
(lp527
g336
asbag57
(g78
g59
NtRp528
(dp529
g62
(dp530
g89
g90
ssg71
g520
sg64
(lp531
S':'
asbag57
(g78
g59
NtRp532
(dp533
g62
(dp534
sg71
g520
sg64
(lp535
g57
(g58
g59
NtRp536
(dp537
g62
(dp538
g70
I3
ssg71
g532
sg64
(lp539
S''
asbasbasbag57
(g73
g59
NtRp540
(dp541
g62
(dp542
sg71
g476
sg64
(lp543
g57
(g78
g59
NtRp544
(dp545
g62
(dp546
g82
g83
ssg71
g540
sg64
(lp547
g357
asbag57
(g78
g59
NtRp548
(dp549
g62
(dp550
g89
g90
ssg71
g540
sg64
(lp551
S':'
asbag57
(g78
g59
NtRp552
(dp553
g62
(dp554
sg71
g540
sg64
(lp555
g57
(g58
g59
NtRp556
(dp557
g62
(dp558
g70
I3
ssg71
g552
sg64
(lp559
S''
asbasbasbag57
(g73
g59
NtRp560
(dp561
g62
(dp562
sg71
g476
sg64
(lp563
g57
(g78
g59
NtRp564
(dp565
g62
(dp566
g82
g83
ssg71
g560
sg64
(lp567
g378
asbag57
(g78
g59
NtRp568
(dp569
g62
(dp570
g89
g90
ssg71
g560
sg64
(lp571
S':'
asbag57
(g78
g59
NtRp572
(dp573
g62
(dp574
sg71
g560
sg64
(lp575
g57
(g58
g59
NtRp576
(dp577
g62
(dp578
g70
I3
ssg71
g572
sg64
(lp579
S''
asbasbasbag57
(g73
g59
NtRp580
(dp581
g62
(dp582
sg71
g476
sg64
(lp583
g57
(g78
g59
NtRp584
(dp585
g62
(dp586
g82
g83
ssg71
g580
sg64
(lp587
g399
asbag57
(g78
g59
NtRp588
(dp589
g62
(dp590
g89
g90
ssg71
g580
sg64
(lp591
S':'
asbag57
(g78
g59
NtRp592
(dp593
g62
(dp594
sg71
g580
sg64
(lp595
g57
(g58
g59
NtRp596
(dp597
g62
(dp598
g70
I3
ssg71
g592
sg64
(lp599
S''
asbasbasbag57
(g73
g59
NtRp600
(dp601
g62
(dp602
sg71
g476
sg64
(lp603
g57
(g78
g59
NtRp604
(dp605
g62
(dp606
g82
g83
ssg71
g600
sg64
(lp607
g420
asbag57
(g78
g59
NtRp608
(dp609
g62
(dp610
g89
g90
ssg71
g600
sg64
(lp611
S':'
asbag57
(g78
g59
NtRp612
(dp613
g62
(dp614
sg71
g600
sg64
(lp615
g57
(g58
g59
NtRp616
(dp617
g62
(dp618
g70
I3
ssg71
g612
sg64
(lp619
S''
asbasbasbag57
(g73
g59
NtRp620
(dp621
g62
(dp622
sg71
g476
sg64
(lp623
g57
(g78
g59
NtRp624
(dp625
g62
(dp626
g82
g83
ssg71
g620
sg64
(lp627
g441
asbag57
(g78
g59
NtRp628
(dp629
g62
(dp630
g89
g90
ssg71
g620
sg64
(lp631
S':'
asbag57
(g78
g59
NtRp632
(dp633
g62
(dp634
sg71
g620
sg64
(lp635
g57
(g58
g59
NtRp636
(dp637
g62
(dp638
g70
I3
ssg71
g632
sg64
(lp639
S''
asbasbasbasbasbasbasbag57
(g73
g59
NtRp640
(dp641
g62
(dp642
sg71
g256
sg64
(lp643
g57
(g78
g59
NtRp644
(dp645
g62
(dp646
g82
g83
ssg71
g640
sg64
(lp647
S'session_id_welcome'
p648
asbag57
(g78
g59
NtRp649
(dp650
g62
(dp651
g89
g90
ssg71
g640
sg64
(lp652
S':'
asbag57
(g78
g59
NtRp653
(dp654
g62
(dp655
sg71
g640
sg64
(lp656
g57
(g58
g59
NtRp657
(dp658
g62
(dp659
g70
I4
ssg71
g653
sg64
(lp660
S'127.0.0.1-fcddb8ed-ee0c-4d28-bfa6-6fd1606b92e1'
p661
ag57
(g66
g59
NtRp662
(dp663
g62
(dp664
g70
I3
ssg71
Nsg64
(lp665
g57
(g73
g59
NtRp666
(dp667
g62
(dp668
sg71
g662
sg64
(lp669
g57
(g78
g59
NtRp670
(dp671
g62
(dp672
g82
g83
ssg71
g666
sg64
(lp673
g294
asbag57
(g78
g59
NtRp674
(dp675
g62
(dp676
g89
g90
ssg71
g666
sg64
(lp677
S':'
asbag57
(g78
g59
NtRp678
(dp679
g62
(dp680
sg71
g666
sg64
(lp681
g57
(g58
g59
NtRp682
(dp683
g62
(dp684
g70
I3
ssg71
g678
sg64
(lp685
S''
asbasbasbag57
(g73
g59
NtRp686
(dp687
g62
(dp688
sg71
g662
sg64
(lp689
g57
(g78
g59
NtRp690
(dp691
g62
(dp692
g82
g83
ssg71
g686
sg64
(lp693
g315
asbag57
(g78
g59
NtRp694
(dp695
g62
(dp696
g89
g90
ssg71
g686
sg64
(lp697
S':'
asbag57
(g78
g59
NtRp698
(dp699
g62
(dp700
sg71
g686
sg64
(lp701
g57
(g58
g59
NtRp702
(dp703
g62
(dp704
g70
I3
ssg71
g698
sg64
(lp705
S''
asbasbasbag57
(g73
g59
NtRp706
(dp707
g62
(dp708
sg71
g662
sg64
(lp709
g57
(g78
g59
NtRp710
(dp711
g62
(dp712
g82
g83
ssg71
g706
sg64
(lp713
g336
asbag57
(g78
g59
NtRp714
(dp715
g62
(dp716
g89
g90
ssg71
g706
sg64
(lp717
S':'
asbag57
(g78
g59
NtRp718
(dp719
g62
(dp720
sg71
g706
sg64
(lp721
g57
(g58
g59
NtRp722
(dp723
g62
(dp724
g70
I3
ssg71
g718
sg64
(lp725
S''
asbasbasbag57
(g73
g59
NtRp726
(dp727
g62
(dp728
sg71
g662
sg64
(lp729
g57
(g78
g59
NtRp730
(dp731
g62
(dp732
g82
g83
ssg71
g726
sg64
(lp733
g357
asbag57
(g78
g59
NtRp734
(dp735
g62
(dp736
g89
g90
ssg71
g726
sg64
(lp737
S':'
asbag57
(g78
g59
NtRp738
(dp739
g62
(dp740
sg71
g726
sg64
(lp741
g57
(g58
g59
NtRp742
(dp743
g62
(dp744
g70
I3
ssg71
g738
sg64
(lp745
S''
asbasbasbag57
(g73
g59
NtRp746
(dp747
g62
(dp748
sg71
g662
sg64
(lp749
g57
(g78
g59
NtRp750
(dp751
g62
(dp752
g82
g83
ssg71
g746
sg64
(lp753
g378
asbag57
(g78
g59
NtRp754
(dp755
g62
(dp756
g89
g90
ssg71
g746
sg64
(lp757
S':'
asbag57
(g78
g59
NtRp758
(dp759
g62
(dp760
sg71
g746
sg64
(lp761
g57
(g58
g59
NtRp762
(dp763
g62
(dp764
g70
I3
ssg71
g758
sg64
(lp765
S''
asbasbasbag57
(g73
g59
NtRp766
(dp767
g62
(dp768
sg71
g662
sg64
(lp769
g57
(g78
g59
NtRp770
(dp771
g62
(dp772
g82
g83
ssg71
g766
sg64
(lp773
g399
asbag57
(g78
g59
NtRp774
(dp775
g62
(dp776
g89
g90
ssg71
g766
sg64
(lp777
S':'
asbag57
(g78
g59
NtRp778
(dp779
g62
(dp780
sg71
g766
sg64
(lp781
g57
(g58
g59
NtRp782
(dp783
g62
(dp784
g70
I3
ssg71
g778
sg64
(lp785
S''
asbasbasbag57
(g73
g59
NtRp786
(dp787
g62
(dp788
sg71
g662
sg64
(lp789
g57
(g78
g59
NtRp790
(dp791
g62
(dp792
g82
g83
ssg71
g786
sg64
(lp793
g420
asbag57
(g78
g59
NtRp794
(dp795
g62
(dp796
g89
g90
ssg71
g786
sg64
(lp797
S':'
asbag57
(g78
g59
NtRp798
(dp799
g62
(dp800
sg71
g786
sg64
(lp801
g57
(g58
g59
NtRp802
(dp803
g62
(dp804
g70
I3
ssg71
g798
sg64
(lp805
S''
asbasbasbag57
(g73
g59
NtRp806
(dp807
g62
(dp808
sg71
g662
sg64
(lp809
g57
(g78
g59
NtRp810
(dp811
g62
(dp812
g82
g83
ssg71
g806
sg64
(lp813
g441
asbag57
(g78
g59
NtRp814
(dp815
g62
(dp816
g89
g90
ssg71
g806
sg64
(lp817
S':'
asbag57
(g78
g59
NtRp818
(dp819
g62
(dp820
sg71
g806
sg64
(lp821
g57
(g58
g59
NtRp822
(dp823
g62
(dp824
g70
I3
ssg71
g818
sg64
(lp825
S''
asbasbasbasbasbasbasbag57
(g73
g59
NtRp826
(dp827
g62
(dp828
sg71
g256
sg64
(lp829
g57
(g78
g59
NtRp830
(dp831
g62
(dp832
g82
g83
ssg71
g826
sg64
(lp833
S'session_id_wsd_tool'
p834
asbag57
(g78
g59
NtRp835
(dp836
g62
(dp837
g89
g90
ssg71
g826
sg64
(lp838
S':'
asbag57
(g78
g59
NtRp839
(dp840
g62
(dp841
sg71
g826
sg64
(lp842
g57
(g58
g59
NtRp843
(dp844
g62
(dp845
g70
I4
ssg71
g839
sg64
(lp846
S'127.0.0.1-1b9513ff-7a4a-46e3-9d60-f0b6086e5c03'
p847
ag57
(g66
g59
NtRp848
(dp849
g62
(dp850
g70
I3
ssg71
Nsg64
(lp851
g57
(g73
g59
NtRp852
(dp853
g62
(dp854
sg71
g848
sg64
(lp855
g57
(g78
g59
NtRp856
(dp857
g62
(dp858
g82
g83
ssg71
g852
sg64
(lp859
g294
asbag57
(g78
g59
NtRp860
(dp861
g62
(dp862
g89
g90
ssg71
g852
sg64
(lp863
S':'
asbag57
(g78
g59
NtRp864
(dp865
g62
(dp866
sg71
g852
sg64
(lp867
g57
(g58
g59
NtRp868
(dp869
g62
(dp870
g70
I3
ssg71
g864
sg64
(lp871
S''
asbasbasbag57
(g73
g59
NtRp872
(dp873
g62
(dp874
sg71
g848
sg64
(lp875
g57
(g78
g59
NtRp876
(dp877
g62
(dp878
g82
g83
ssg71
g872
sg64
(lp879
g315
asbag57
(g78
g59
NtRp880
(dp881
g62
(dp882
g89
g90
ssg71
g872
sg64
(lp883
S':'
asbag57
(g78
g59
NtRp884
(dp885
g62
(dp886
sg71
g872
sg64
(lp887
g57
(g58
g59
NtRp888
(dp889
g62
(dp890
g70
I3
ssg71
g884
sg64
(lp891
S''
asbasbasbag57
(g73
g59
NtRp892
(dp893
g62
(dp894
sg71
g848
sg64
(lp895
g57
(g78
g59
NtRp896
(dp897
g62
(dp898
g82
g83
ssg71
g892
sg64
(lp899
g336
asbag57
(g78
g59
NtRp900
(dp901
g62
(dp902
g89
g90
ssg71
g892
sg64
(lp903
S':'
asbag57
(g78
g59
NtRp904
(dp905
g62
(dp906
sg71
g892
sg64
(lp907
g57
(g58
g59
NtRp908
(dp909
g62
(dp910
g70
I3
ssg71
g904
sg64
(lp911
S''
asbasbasbag57
(g73
g59
NtRp912
(dp913
g62
(dp914
sg71
g848
sg64
(lp915
g57
(g78
g59
NtRp916
(dp917
g62
(dp918
g82
g83
ssg71
g912
sg64
(lp919
g357
asbag57
(g78
g59
NtRp920
(dp921
g62
(dp922
g89
g90
ssg71
g912
sg64
(lp923
S':'
asbag57
(g78
g59
NtRp924
(dp925
g62
(dp926
sg71
g912
sg64
(lp927
g57
(g58
g59
NtRp928
(dp929
g62
(dp930
g70
I3
ssg71
g924
sg64
(lp931
S''
asbasbasbag57
(g73
g59
NtRp932
(dp933
g62
(dp934
sg71
g848
sg64
(lp935
g57
(g78
g59
NtRp936
(dp937
g62
(dp938
g82
g83
ssg71
g932
sg64
(lp939
g378
asbag57
(g78
g59
NtRp940
(dp941
g62
(dp942
g89
g90
ssg71
g932
sg64
(lp943
S':'
asbag57
(g78
g59
NtRp944
(dp945
g62
(dp946
sg71
g932
sg64
(lp947
g57
(g58
g59
NtRp948
(dp949
g62
(dp950
g70
I3
ssg71
g944
sg64
(lp951
S''
asbasbasbag57
(g73
g59
NtRp952
(dp953
g62
(dp954
sg71
g848
sg64
(lp955
g57
(g78
g59
NtRp956
(dp957
g62
(dp958
g82
g83
ssg71
g952
sg64
(lp959
g399
asbag57
(g78
g59
NtRp960
(dp961
g62
(dp962
g89
g90
ssg71
g952
sg64
(lp963
S':'
asbag57
(g78
g59
NtRp964
(dp965
g62
(dp966
sg71
g952
sg64
(lp967
g57
(g58
g59
NtRp968
(dp969
g62
(dp970
g70
I3
ssg71
g964
sg64
(lp971
S''
asbasbasbag57
(g73
g59
NtRp972
(dp973
g62
(dp974
sg71
g848
sg64
(lp975
g57
(g78
g59
NtRp976
(dp977
g62
(dp978
g82
g83
ssg71
g972
sg64
(lp979
g420
asbag57
(g78
g59
NtRp980
(dp981
g62
(dp982
g89
g90
ssg71
g972
sg64
(lp983
S':'
asbag57
(g78
g59
NtRp984
(dp985
g62
(dp986
sg71
g972
sg64
(lp987
g57
(g58
g59
NtRp988
(dp989
g62
(dp990
g70
I3
ssg71
g984
sg64
(lp991
S''
asbasbasbag57
(g73
g59
NtRp992
(dp993
g62
(dp994
sg71
g848
sg64
(lp995
g57
(g78
g59
NtRp996
(dp997
g62
(dp998
g82
g83
ssg71
g992
sg64
(lp999
g441
asbag57
(g78
g59
NtRp1000
(dp1001
g62
(dp1002
g89
g90
ssg71
g992
sg64
(lp1003
S':'
asbag57
(g78
g59
NtRp1004
(dp1005
g62
(dp1006
sg71
g992
sg64
(lp1007
g57
(g58
g59
NtRp1008
(dp1009
g62
(dp1010
g70
I3
ssg71
g1004
sg64
(lp1011
S''
asbasbasbasbasbasbasbasbasbasbasbag57
(g73
g59
NtRp1012
(dp1013
g62
(dp1014
sg71
g67
sg64
(lp1015
g57
(g78
g59
NtRp1016
(dp1017
g62
(dp1018
g82
g83
ssg71
g1012
sg64
(lp1019
S'env'
p1020
asbag57
(g78
g59
NtRp1021
(dp1022
g62
(dp1023
g89
g90
ssg71
g1012
sg64
(lp1024
S':'
asbag57
(g78
g59
NtRp1025
(dp1026
g62
(dp1027
sg71
g1012
sg64
(lp1028
g57
(g58
g59
NtRp1029
(dp1030
g62
(dp1031
g70
I5
ssg71
g1025
sg64
(lp1032
g57
(g66
g59
NtRp1033
(dp1034
g62
(dp1035
g70
I4
ssg71
Nsg64
(lp1036
g57
(g73
g59
NtRp1037
(dp1038
g62
(dp1039
sg71
g1033
sg64
(lp1040
g57
(g78
g59
NtRp1041
(dp1042
g62
(dp1043
g82
g83
ssg71
g1037
sg64
(lp1044
S'app_folders'
p1045
asbag57
(g78
g59
NtRp1046
(dp1047
g62
(dp1048
g89
g90
ssg71
g1037
sg64
(lp1049
S':'
asbag57
(g78
g59
NtRp1050
(dp1051
g62
(dp1052
sg71
g1037
sg64
(lp1053
g57
(g58
g59
NtRp1054
(dp1055
g62
(dp1056
g70
I4
ssg71
g1050
sg64
(lp1057
S"set(['/home/nazrul/web2py/applications/welcome/', '/home/nazrul/web2py/applications/WSD_Tool/', '/home/nazrul/web2py/applications/admin/'])"
p1058
asbasbasbag57
(g73
g59
NtRp1059
(dp1060
g62
(dp1061
sg71
g1033
sg64
(lp1062
g57
(g78
g59
NtRp1063
(dp1064
g62
(dp1065
g82
g83
ssg71
g1059
sg64
(lp1066
S'applications_parent'
p1067
asbag57
(g78
g59
NtRp1068
(dp1069
g62
(dp1070
g89
g90
ssg71
g1059
sg64
(lp1071
S':'
asbag57
(g78
g59
NtRp1072
(dp1073
g62
(dp1074
sg71
g1059
sg64
(lp1075
g57
(g58
g59
NtRp1076
(dp1077
g62
(dp1078
g70
I4
ssg71
g1072
sg64
(lp1079
S'/home/nazrul/web2py'
p1080
asbasbasbag57
(g73
g59
NtRp1081
(dp1082
g62
(dp1083
sg71
g1033
sg64
(lp1084
g57
(g78
g59
NtRp1085
(dp1086
g62
(dp1087
g82
g83
ssg71
g1081
sg64
(lp1088
S'cmd_args'
p1089
asbag57
(g78
g59
NtRp1090
(dp1091
g62
(dp1092
g89
g90
ssg71
g1081
sg64
(lp1093
S':'
asbag57
(g78
g59
NtRp1094
(dp1095
g62
(dp1096
sg71
g1081
sg64
(lp1097
g57
(g58
g59
NtRp1098
(dp1099
g62
(dp1100
g70
I4
ssg71
g1094
sg64
(lp1101
g57
(g66
g59
NtRp1102
(dp1103
g62
(dp1104
g70
I3
ssg71
Nsg64
(lp1105
sbasbasbasbag57
(g73
g59
NtRp1106
(dp1107
g62
(dp1108
sg71
g1033
sg64
(lp1109
g57
(g78
g59
NtRp1110
(dp1111
g62
(dp1112
g82
g83
ssg71
g1106
sg64
(lp1113
S'cmd_options'
p1114
asbag57
(g78
g59
NtRp1115
(dp1116
g62
(dp1117
g89
g90
ssg71
g1106
sg64
(lp1118
S':'
asbag57
(g78
g59
NtRp1119
(dp1120
g62
(dp1121
sg71
g1106
sg64
(lp1122
g57
(g58
g59
NtRp1123
(dp1124
g62
(dp1125
g70
I4
ssg71
g1119
sg64
(lp1126
S"<Values at 0xa44192c: {'verbose': False, 'ip': '127.0.0.1', 'with_scheduler': False, 'ips': [], 'shutdown_timeout': 5, 'taskbar': False, 'port': 8000, 'maxthreads': None, 'softcron': False, 'server_name': 'nazrul-Compaq-Presario-CQ40-Notebook-PC', 'bpython': False, 'nogui': False, 'pid_filename': 'httpserver.pid', 'extcron': False, 'runcron': False, 'run_system_tests': False, 'test': None, 'folder': '/home/nazrul/web2py', 'config': '', 'import_models': False, 'winservice': '', 'shell': None, 'run': '', 'log_filename': 'httpserver.log', 'debuglevel': 30, 'args': [''], 'socket_timeout': 5, 'ssl_ca_certificate': None, 'scheduler': None, 'profiler_filename': None, 'ssl_private_key': '', 'scheduler_groups': None, 'password': '<ask>', 'request_queue_size': 5, 'ssl_certificate': '', 'cronjob': False, 'numthreads': None, 'quiet': False, 'interfaces': None, 'minthreads': None, 'timeout': 10, 'plain': False, 'nobanner': False}>"
p1127
asbasbasbag57
(g73
g59
NtRp1128
(dp1129
g62
(dp1130
sg71
g1033
sg64
(lp1131
g57
(g78
g59
NtRp1132
(dp1133
g62
(dp1134
g82
g83
ssg71
g1128
sg64
(lp1135
S'db_sessions'
p1136
asbag57
(g78
g59
NtRp1137
(dp1138
g62
(dp1139
g89
g90
ssg71
g1128
sg64
(lp1140
S':'
asbag57
(g78
g59
NtRp1141
(dp1142
g62
(dp1143
sg71
g1128
sg64
(lp1144
g57
(g58
g59
NtRp1145
(dp1146
g62
(dp1147
g70
I4
ssg71
g1141
sg64
(lp1148
S'set([])'
p1149
asbasbasbag57
(g73
g59
NtRp1150
(dp1151
g62
(dp1152
sg71
g1033
sg64
(lp1153
g57
(g78
g59
NtRp1154
(dp1155
g62
(dp1156
g82
g83
ssg71
g1150
sg64
(lp1157
S'debugging'
p1158
asbag57
(g78
g59
NtRp1159
(dp1160
g62
(dp1161
g89
g90
ssg71
g1150
sg64
(lp1162
S':'
asbag57
(g78
g59
NtRp1163
(dp1164
g62
(dp1165
sg71
g1150
sg64
(lp1166
g57
(g58
g59
NtRp1167
(dp1168
g62
(dp1169
g70
I4
ssg71
g1163
sg64
(lp1170
g100
asbasbasbag57
(g73
g59
NtRp1171
(dp1172
g62
(dp1173
sg71
g1033
sg64
(lp1174
g57
(g78
g59
NtRp1175
(dp1176
g62
(dp1177
g82
g83
ssg71
g1171
sg64
(lp1178
S'gluon_parent'
p1179
asbag57
(g78
g59
NtRp1180
(dp1181
g62
(dp1182
g89
g90
ssg71
g1171
sg64
(lp1183
S':'
asbag57
(g78
g59
NtRp1184
(dp1185
g62
(dp1186
sg71
g1171
sg64
(lp1187
g57
(g58
g59
NtRp1188
(dp1189
g62
(dp1190
g70
I4
ssg71
g1184
sg64
(lp1191
S'/home/nazrul/web2py'
p1192
asbasbasbag57
(g73
g59
NtRp1193
(dp1194
g62
(dp1195
sg71
g1033
sg64
(lp1196
g57
(g78
g59
NtRp1197
(dp1198
g62
(dp1199
g82
g83
ssg71
g1193
sg64
(lp1200
S'http_accept'
p1201
asbag57
(g78
g59
NtRp1202
(dp1203
g62
(dp1204
g89
g90
ssg71
g1193
sg64
(lp1205
S':'
asbag57
(g78
g59
NtRp1206
(dp1207
g62
(dp1208
sg71
g1193
sg64
(lp1209
g57
(g58
g59
NtRp1210
(dp1211
g62
(dp1212
g70
I4
ssg71
g1206
sg64
(lp1213
S'text/html,application/xhtml+xml,application/xml;q=0.9,*/*;q=0.8'
p1214
asbasbasbag57
(g73
g59
NtRp1215
(dp1216
g62
(dp1217
sg71
g1033
sg64
(lp1218
g57
(g78
g59
NtRp1219
(dp1220
g62
(dp1221
g82
g83
ssg71
g1215
sg64
(lp1222
S'http_accept_encoding'
p1223
asbag57
(g78
g59
NtRp1224
(dp1225
g62
(dp1226
g89
g90
ssg71
g1215
sg64
(lp1227
S':'
asbag57
(g78
g59
NtRp1228
(dp1229
g62
(dp1230
sg71
g1215
sg64
(lp1231
g57
(g58
g59
NtRp1232
(dp1233
g62
(dp1234
g70
I4
ssg71
g1228
sg64
(lp1235
S'gzip, deflate'
p1236
asbasbasbag57
(g73
g59
NtRp1237
(dp1238
g62
(dp1239
sg71
g1033
sg64
(lp1240
g57
(g78
g59
NtRp1241
(dp1242
g62
(dp1243
g82
g83
ssg71
g1237
sg64
(lp1244
S'http_accept_language'
p1245
asbag57
(g78
g59
NtRp1246
(dp1247
g62
(dp1248
g89
g90
ssg71
g1237
sg64
(lp1249
S':'
asbag57
(g78
g59
NtRp1250
(dp1251
g62
(dp1252
sg71
g1237
sg64
(lp1253
g57
(g58
g59
NtRp1254
(dp1255
g62
(dp1256
g70
I4
ssg71
g1250
sg64
(lp1257
S'en-US,en;q=0.5'
p1258
asbasbasbag57
(g73
g59
NtRp1259
(dp1260
g62
(dp1261
sg71
g1033
sg64
(lp1262
g57
(g78
g59
NtRp1263
(dp1264
g62
(dp1265
g82
g83
ssg71
g1259
sg64
(lp1266
S'http_connection'
p1267
asbag57
(g78
g59
NtRp1268
(dp1269
g62
(dp1270
g89
g90
ssg71
g1259
sg64
(lp1271
S':'
asbag57
(g78
g59
NtRp1272
(dp1273
g62
(dp1274
sg71
g1259
sg64
(lp1275
g57
(g58
g59
NtRp1276
(dp1277
g62
(dp1278
g70
I4
ssg71
g1272
sg64
(lp1279
S'keep-alive'
p1280
asbasbasbag57
(g73
g59
NtRp1281
(dp1282
g62
(dp1283
sg71
g1033
sg64
(lp1284
g57
(g78
g59
NtRp1285
(dp1286
g62
(dp1287
g82
g83
ssg71
g1281
sg64
(lp1288
S'http_cookie'
p1289
asbag57
(g78
g59
NtRp1290
(dp1291
g62
(dp1292
g89
g90
ssg71
g1281
sg64
(lp1293
S':'
asbag57
(g78
g59
NtRp1294
(dp1295
g62
(dp1296
sg71
g1281
sg64
(lp1297
g57
(g58
g59
NtRp1298
(dp1299
g62
(dp1300
g70
I4
ssg71
g1294
sg64
(lp1301
S'KBD=0hi-0; session_id_welcome=127.0.0.1-fcddb8ed-ee0c-4d28-bfa6-6fd1606b92e1; session_id_admin=127.0.0.1-634e911d-1fde-455e-a6e2-97efd4213cb7; session_id_wsd_tool=127.0.0.1-1b9513ff-7a4a-46e3-9d60-f0b6086e5c03'
p1302
asbasbasbag57
(g73
g59
NtRp1303
(dp1304
g62
(dp1305
sg71
g1033
sg64
(lp1306
g57
(g78
g59
NtRp1307
(dp1308
g62
(dp1309
g82
g83
ssg71
g1303
sg64
(lp1310
S'http_host'
p1311
asbag57
(g78
g59
NtRp1312
(dp1313
g62
(dp1314
g89
g90
ssg71
g1303
sg64
(lp1315
S':'
asbag57
(g78
g59
NtRp1316
(dp1317
g62
(dp1318
sg71
g1303
sg64
(lp1319
g57
(g58
g59
NtRp1320
(dp1321
g62
(dp1322
g70
I4
ssg71
g1316
sg64
(lp1323
S'127.0.0.1:8000'
p1324
asbasbasbag57
(g73
g59
NtRp1325
(dp1326
g62
(dp1327
sg71
g1033
sg64
(lp1328
g57
(g78
g59
NtRp1329
(dp1330
g62
(dp1331
g82
g83
ssg71
g1325
sg64
(lp1332
S'http_user_agent'
p1333
asbag57
(g78
g59
NtRp1334
(dp1335
g62
(dp1336
g89
g90
ssg71
g1325
sg64
(lp1337
S':'
asbag57
(g78
g59
NtRp1338
(dp1339
g62
(dp1340
sg71
g1325
sg64
(lp1341
g57
(g58
g59
NtRp1342
(dp1343
g62
(dp1344
g70
I4
ssg71
g1338
sg64
(lp1345
S'Mozilla/5.0 (X11; Ubuntu; Linux i686; rv:18.0) Gecko/20100101 Firefox/18.0'
p1346
asbasbasbag57
(g73
g59
NtRp1347
(dp1348
g62
(dp1349
sg71
g1033
sg64
(lp1350
g57
(g78
g59
NtRp1351
(dp1352
g62
(dp1353
g82
g83
ssg71
g1347
sg64
(lp1354
S'is_jython'
p1355
asbag57
(g78
g59
NtRp1356
(dp1357
g62
(dp1358
g89
g90
ssg71
g1347
sg64
(lp1359
S':'
asbag57
(g78
g59
NtRp1360
(dp1361
g62
(dp1362
sg71
g1347
sg64
(lp1363
g57
(g58
g59
NtRp1364
(dp1365
g62
(dp1366
g70
I4
ssg71
g1360
sg64
(lp1367
g100
asbasbasbag57
(g73
g59
NtRp1368
(dp1369
g62
(dp1370
sg71
g1033
sg64
(lp1371
g57
(g78
g59
NtRp1372
(dp1373
g62
(dp1374
g82
g83
ssg71
g1368
sg64
(lp1375
S'is_pypy'
p1376
asbag57
(g78
g59
NtRp1377
(dp1378
g62
(dp1379
g89
g90
ssg71
g1368
sg64
(lp1380
S':'
asbag57
(g78
g59
NtRp1381
(dp1382
g62
(dp1383
sg71
g1368
sg64
(lp1384
g57
(g58
g59
NtRp1385
(dp1386
g62
(dp1387
g70
I4
ssg71
g1381
sg64
(lp1388
g100
asbasbasbag57
(g73
g59
NtRp1389
(dp1390
g62
(dp1391
sg71
g1033
sg64
(lp1392
g57
(g78
g59
NtRp1393
(dp1394
g62
(dp1395
g82
g83
ssg71
g1389
sg64
(lp1396
S'local_hosts'
p1397
asbag57
(g78
g59
NtRp1398
(dp1399
g62
(dp1400
g89
g90
ssg71
g1389
sg64
(lp1401
S':'
asbag57
(g78
g59
NtRp1402
(dp1403
g62
(dp1404
sg71
g1389
sg64
(lp1405
g57
(g58
g59
NtRp1406
(dp1407
g62
(dp1408
g70
I4
ssg71
g1402
sg64
(lp1409
g57
(g66
g59
NtRp1410
(dp1411
g62
(dp1412
g70
I3
ssg71
Nsg64
(lp1413
g57
(g73
g59
NtRp1414
(dp1415
g62
(dp1416
sg71
g1410
sg64
(lp1417
g57
(g78
g59
NtRp1418
(dp1419
g62
(dp1420
sg71
g1414
sg64
(lp1421
g57
(g58
g59
NtRp1422
(dp1423
g62
(dp1424
g70
I3
ssg71
g1418
sg64
(lp1425
S'::1'
p1426
asbasbasbag57
(g73
g59
NtRp1427
(dp1428
g62
(dp1429
sg71
g1410
sg64
(lp1430
g57
(g78
g59
NtRp1431
(dp1432
g62
(dp1433
sg71
g1427
sg64
(lp1434
g57
(g58
g59
NtRp1435
(dp1436
g62
(dp1437
g70
I3
ssg71
g1431
sg64
(lp1438
S'127.0.1.1'
p1439
asbasbasbag57
(g73
g59
NtRp1440
(dp1441
g62
(dp1442
sg71
g1410
sg64
(lp1443
g57
(g78
g59
NtRp1444
(dp1445
g62
(dp1446
sg71
g1440
sg64
(lp1447
g57
(g58
g59
NtRp1448
(dp1449
g62
(dp1450
g70
I3
ssg71
g1444
sg64
(lp1451
S'::ffff:127.0.0.1'
p1452
asbasbasbag57
(g73
g59
NtRp1453
(dp1454
g62
(dp1455
sg71
g1410
sg64
(lp1456
g57
(g78
g59
NtRp1457
(dp1458
g62
(dp1459
sg71
g1453
sg64
(lp1460
g57
(g58
g59
NtRp1461
(dp1462
g62
(dp1463
g70
I3
ssg71
g1457
sg64
(lp1464
S'127.0.0.1'
p1465
asbasbasbag57
(g73
g59
NtRp1466
(dp1467
g62
(dp1468
sg71
g1410
sg64
(lp1469
g57
(g78
g59
NtRp1470
(dp1471
g62
(dp1472
sg71
g1466
sg64
(lp1473
g57
(g58
g59
NtRp1474
(dp1475
g62
(dp1476
g70
I3
ssg71
g1470
sg64
(lp1477
S'nazrul-Compaq-Presario-CQ40-Notebook-PC'
p1478
asbasbasbasbasbasbasbag57
(g73
g59
NtRp1479
(dp1480
g62
(dp1481
sg71
g1033
sg64
(lp1482
g57
(g78
g59
NtRp1483
(dp1484
g62
(dp1485
g82
g83
ssg71
g1479
sg64
(lp1486
S'path_info'
p1487
asbag57
(g78
g59
NtRp1488
(dp1489
g62
(dp1490
g89
g90
ssg71
g1479
sg64
(lp1491
S':'
asbag57
(g78
g59
NtRp1492
(dp1493
g62
(dp1494
sg71
g1479
sg64
(lp1495
g57
(g58
g59
NtRp1496
(dp1497
g62
(dp1498
g70
I4
ssg71
g1492
sg64
(lp1499
S'/WSD_Tool/default/rel'
p1500
asbasbasbag57
(g73
g59
NtRp1501
(dp1502
g62
(dp1503
sg71
g1033
sg64
(lp1504
g57
(g78
g59
NtRp1505
(dp1506
g62
(dp1507
g82
g83
ssg71
g1501
sg64
(lp1508
S'query_string'
p1509
asbag57
(g78
g59
NtRp1510
(dp1511
g62
(dp1512
g89
g90
ssg71
g1501
sg64
(lp1513
S':'
asbag57
(g78
g59
NtRp1514
(dp1515
g62
(dp1516
sg71
g1501
sg64
(lp1517
g57
(g58
g59
NtRp1518
(dp1519
g62
(dp1520
g70
I4
ssg71
g1514
sg64
(lp1521
S''
asbasbasbag57
(g73
g59
NtRp1522
(dp1523
g62
(dp1524
sg71
g1033
sg64
(lp1525
g57
(g78
g59
NtRp1526
(dp1527
g62
(dp1528
g82
g83
ssg71
g1522
sg64
(lp1529
S'remote_addr'
p1530
asbag57
(g78
g59
NtRp1531
(dp1532
g62
(dp1533
g89
g90
ssg71
g1522
sg64
(lp1534
S':'
asbag57
(g78
g59
NtRp1535
(dp1536
g62
(dp1537
sg71
g1522
sg64
(lp1538
g57
(g58
g59
NtRp1539
(dp1540
g62
(dp1541
g70
I4
ssg71
g1535
sg64
(lp1542
g212
asbasbasbag57
(g73
g59
NtRp1543
(dp1544
g62
(dp1545
sg71
g1033
sg64
(lp1546
g57
(g78
g59
NtRp1547
(dp1548
g62
(dp1549
g82
g83
ssg71
g1543
sg64
(lp1550
S'remote_port'
p1551
asbag57
(g78
g59
NtRp1552
(dp1553
g62
(dp1554
g89
g90
ssg71
g1543
sg64
(lp1555
S':'
asbag57
(g78
g59
NtRp1556
(dp1557
g62
(dp1558
sg71
g1543
sg64
(lp1559
g57
(g58
g59
NtRp1560
(dp1561
g62
(dp1562
g70
I4
ssg71
g1556
sg64
(lp1563
S'54703'
p1564
asbasbasbag57
(g73
g59
NtRp1565
(dp1566
g62
(dp1567
sg71
g1033
sg64
(lp1568
g57
(g78
g59
NtRp1569
(dp1570
g62
(dp1571
g82
g83
ssg71
g1565
sg64
(lp1572
S'request_method'
p1573
asbag57
(g78
g59
NtRp1574
(dp1575
g62
(dp1576
g89
g90
ssg71
g1565
sg64
(lp1577
S':'
asbag57
(g78
g59
NtRp1578
(dp1579
g62
(dp1580
sg71
g1565
sg64
(lp1581
g57
(g58
g59
NtRp1582
(dp1583
g62
(dp1584
g70
I4
ssg71
g1578
sg64
(lp1585
S'GET'
p1586
asbasbasbag57
(g73
g59
NtRp1587
(dp1588
g62
(dp1589
sg71
g1033
sg64
(lp1590
g57
(g78
g59
NtRp1591
(dp1592
g62
(dp1593
g82
g83
ssg71
g1587
sg64
(lp1594
S'request_uri'
p1595
asbag57
(g78
g59
NtRp1596
(dp1597
g62
(dp1598
g89
g90
ssg71
g1587
sg64
(lp1599
S':'
asbag57
(g78
g59
NtRp1600
(dp1601
g62
(dp1602
sg71
g1587
sg64
(lp1603
g57
(g58
g59
NtRp1604
(dp1605
g62
(dp1606
g70
I4
ssg71
g1600
sg64
(lp1607
g1500
asbasbasbag57
(g73
g59
NtRp1608
(dp1609
g62
(dp1610
sg71
g1033
sg64
(lp1611
g57
(g78
g59
NtRp1612
(dp1613
g62
(dp1614
g82
g83
ssg71
g1608
sg64
(lp1615
S'script_name'
p1616
asbag57
(g78
g59
NtRp1617
(dp1618
g62
(dp1619
g89
g90
ssg71
g1608
sg64
(lp1620
S':'
asbag57
(g78
g59
NtRp1621
(dp1622
g62
(dp1623
sg71
g1608
sg64
(lp1624
g57
(g58
g59
NtRp1625
(dp1626
g62
(dp1627
g70
I4
ssg71
g1621
sg64
(lp1628
S''
asbasbasbag57
(g73
g59
NtRp1629
(dp1630
g62
(dp1631
sg71
g1033
sg64
(lp1632
g57
(g78
g59
NtRp1633
(dp1634
g62
(dp1635
g82
g83
ssg71
g1629
sg64
(lp1636
S'server_name'
p1637
asbag57
(g78
g59
NtRp1638
(dp1639
g62
(dp1640
g89
g90
ssg71
g1629
sg64
(lp1641
S':'
asbag57
(g78
g59
NtRp1642
(dp1643
g62
(dp1644
sg71
g1629
sg64
(lp1645
g57
(g58
g59
NtRp1646
(dp1647
g62
(dp1648
g70
I4
ssg71
g1642
sg64
(lp1649
S'nazrul-Compaq-Presario-CQ40-Notebook-PC'
p1650
asbasbasbag57
(g73
g59
NtRp1651
(dp1652
g62
(dp1653
sg71
g1033
sg64
(lp1654
g57
(g78
g59
NtRp1655
(dp1656
g62
(dp1657
g82
g83
ssg71
g1651
sg64
(lp1658
S'server_port'
p1659
asbag57
(g78
g59
NtRp1660
(dp1661
g62
(dp1662
g89
g90
ssg71
g1651
sg64
(lp1663
S':'
asbag57
(g78
g59
NtRp1664
(dp1665
g62
(dp1666
sg71
g1651
sg64
(lp1667
g57
(g58
g59
NtRp1668
(dp1669
g62
(dp1670
g70
I4
ssg71
g1664
sg64
(lp1671
S'8000'
p1672
asbasbasbag57
(g73
g59
NtRp1673
(dp1674
g62
(dp1675
sg71
g1033
sg64
(lp1676
g57
(g78
g59
NtRp1677
(dp1678
g62
(dp1679
g82
g83
ssg71
g1673
sg64
(lp1680
S'server_protocol'
p1681
asbag57
(g78
g59
NtRp1682
(dp1683
g62
(dp1684
g89
g90
ssg71
g1673
sg64
(lp1685
S':'
asbag57
(g78
g59
NtRp1686
(dp1687
g62
(dp1688
sg71
g1673
sg64
(lp1689
g57
(g58
g59
NtRp1690
(dp1691
g62
(dp1692
g70
I4
ssg71
g1686
sg64
(lp1693
S'HTTP/1.1'
p1694
asbasbasbag57
(g73
g59
NtRp1695
(dp1696
g62
(dp1697
sg71
g1033
sg64
(lp1698
g57
(g78
g59
NtRp1699
(dp1700
g62
(dp1701
g82
g83
ssg71
g1695
sg64
(lp1702
S'server_software'
p1703
asbag57
(g78
g59
NtRp1704
(dp1705
g62
(dp1706
g89
g90
ssg71
g1695
sg64
(lp1707
S':'
asbag57
(g78
g59
NtRp1708
(dp1709
g62
(dp1710
sg71
g1695
sg64
(lp1711
g57
(g58
g59
NtRp1712
(dp1713
g62
(dp1714
g70
I4
ssg71
g1708
sg64
(lp1715
S'Rocket 1.2.6'
p1716
asbasbasbag57
(g73
g59
NtRp1717
(dp1718
g62
(dp1719
sg71
g1033
sg64
(lp1720
g57
(g78
g59
NtRp1721
(dp1722
g62
(dp1723
g82
g83
ssg71
g1717
sg64
(lp1724
S'web2py_path'
p1725
asbag57
(g78
g59
NtRp1726
(dp1727
g62
(dp1728
g89
g90
ssg71
g1717
sg64
(lp1729
S':'
asbag57
(g78
g59
NtRp1730
(dp1731
g62
(dp1732
sg71
g1717
sg64
(lp1733
g57
(g58
g59
NtRp1734
(dp1735
g62
(dp1736
g70
I4
ssg71
g1730
sg64
(lp1737
g1080
asbasbasbag57
(g73
g59
NtRp1738
(dp1739
g62
(dp1740
sg71
g1033
sg64
(lp1741
g57
(g78
g59
NtRp1742
(dp1743
g62
(dp1744
g82
g83
ssg71
g1738
sg64
(lp1745
S'web2py_version'
p1746
asbag57
(g78
g59
NtRp1747
(dp1748
g62
(dp1749
g89
g90
ssg71
g1738
sg64
(lp1750
S':'
asbag57
(g78
g59
NtRp1751
(dp1752
g62
(dp1753
sg71
g1738
sg64
(lp1754
g57
(g58
g59
NtRp1755
(dp1756
g62
(dp1757
g70
I4
ssg71
g1751
sg64
(lp1758
g57
(g66
g59
NtRp1759
(dp1760
g62
(dp1761
g70
I3
ssg71
Nsg64
(lp1762
g57
(g73
g59
NtRp1763
(dp1764
g62
(dp1765
sg71
g1759
sg64
(lp1766
g57
(g78
g59
NtRp1767
(dp1768
g62
(dp1769
sg71
g1763
sg64
(lp1770
g57
(g58
g59
NtRp1771
(dp1772
g62
(dp1773
g70
I3
ssg71
g1767
sg64
(lp1774
S'2'
asbasbasbag57
(g73
g59
NtRp1775
(dp1776
g62
(dp1777
sg71
g1759
sg64
(lp1778
g57
(g78
g59
NtRp1779
(dp1780
g62
(dp1781
sg71
g1775
sg64
(lp1782
g57
(g58
g59
NtRp1783
(dp1784
g62
(dp1785
g70
I3
ssg71
g1779
sg64
(lp1786
S'3'
asbasbasbag57
(g73
g59
NtRp1787
(dp1788
g62
(dp1789
sg71
g1759
sg64
(lp1790
g57
(g78
g59
NtRp1791
(dp1792
g62
(dp1793
sg71
g1787
sg64
(lp1794
g57
(g58
g59
NtRp1795
(dp1796
g62
(dp1797
g70
I3
ssg71
g1791
sg64
(lp1798
S'2'
asbasbasbag57
(g73
g59
NtRp1799
(dp1800
g62
(dp1801
sg71
g1759
sg64
(lp1802
g57
(g78
g59
NtRp1803
(dp1804
g62
(dp1805
sg71
g1799
sg64
(lp1806
g57
(g58
g59
NtRp1807
(dp1808
g62
(dp1809
g70
I3
ssg71
g1803
sg64
(lp1810
S'datetime.datetime(2012, 12, 17, 15, 3, 30)'
p1811
asbasbasbag57
(g73
g59
NtRp1812
(dp1813
g62
(dp1814
sg71
g1759
sg64
(lp1815
g57
(g78
g59
NtRp1816
(dp1817
g62
(dp1818
sg71
g1812
sg64
(lp1819
g57
(g58
g59
NtRp1820
(dp1821
g62
(dp1822
g70
I3
ssg71
g1816
sg64
(lp1823
S'stable'
p1824
asbasbasbasbasbasbasbag57
(g73
g59
NtRp1825
(dp1826
g62
(dp1827
sg71
g1033
sg64
(lp1828
g57
(g78
g59
NtRp1829
(dp1830
g62
(dp1831
g82
g83
ssg71
g1825
sg64
(lp1832
S'wsgi_errors'
p1833
asbag57
(g78
g59
NtRp1834
(dp1835
g62
(dp1836
g89
g90
ssg71
g1825
sg64
(lp1837
S':'
asbag57
(g78
g59
NtRp1838
(dp1839
g62
(dp1840
sg71
g1825
sg64
(lp1841
g57
(g58
g59
NtRp1842
(dp1843
g62
(dp1844
g70
I4
ssg71
g1838
sg64
(lp1845
S"<open file '<stderr>', mode 'w' at 0xb72a80d0>"
p1846
asbasbasbag57
(g73
g59
NtRp1847
(dp1848
g62
(dp1849
sg71
g1033
sg64
(lp1850
g57
(g78
g59
NtRp1851
(dp1852
g62
(dp1853
g82
g83
ssg71
g1847
sg64
(lp1854
S'wsgi_file_wrapper'
p1855
asbag57
(g78
g59
NtRp1856
(dp1857
g62
(dp1858
g89
g90
ssg71
g1847
sg64
(lp1859
S':'
asbag57
(g78
g59
NtRp1860
(dp1861
g62
(dp1862
sg71
g1847
sg64
(lp1863
g57
(g58
g59
NtRp1864
(dp1865
g62
(dp1866
g70
I4
ssg71
g1860
sg64
(lp1867
S'<class wsgiref.util.FileWrapper at 0xa40147c>'
p1868
asbasbasbag57
(g73
g59
NtRp1869
(dp1870
g62
(dp1871
sg71
g1033
sg64
(lp1872
g57
(g78
g59
NtRp1873
(dp1874
g62
(dp1875
g82
g83
ssg71
g1869
sg64
(lp1876
S'wsgi_input'
p1877
asbag57
(g78
g59
NtRp1878
(dp1879
g62
(dp1880
g89
g90
ssg71
g1869
sg64
(lp1881
S':'
asbag57
(g78
g59
NtRp1882
(dp1883
g62
(dp1884
sg71
g1869
sg64
(lp1885
g57
(g58
g59
NtRp1886
(dp1887
g62
(dp1888
g70
I4
ssg71
g1882
sg64
(lp1889
S'<socket._fileobject object at 0xa97426c>'
p1890
asbasbasbag57
(g73
g59
NtRp1891
(dp1892
g62
(dp1893
sg71
g1033
sg64
(lp1894
g57
(g78
g59
NtRp1895
(dp1896
g62
(dp1897
g82
g83
ssg71
g1891
sg64
(lp1898
S'wsgi_multiprocess'
p1899
asbag57
(g78
g59
NtRp1900
(dp1901
g62
(dp1902
g89
g90
ssg71
g1891
sg64
(lp1903
S':'
asbag57
(g78
g59
NtRp1904
(dp1905
g62
(dp1906
sg71
g1891
sg64
(lp1907
g57
(g58
g59
NtRp1908
(dp1909
g62
(dp1910
g70
I4
ssg71
g1904
sg64
(lp1911
g100
asbasbasbag57
(g73
g59
NtRp1912
(dp1913
g62
(dp1914
sg71
g1033
sg64
(lp1915
g57
(g78
g59
NtRp1916
(dp1917
g62
(dp1918
g82
g83
ssg71
g1912
sg64
(lp1919
S'wsgi_multithread'
p1920
asbag57
(g78
g59
NtRp1921
(dp1922
g62
(dp1923
g89
g90
ssg71
g1912
sg64
(lp1924
S':'
asbag57
(g78
g59
NtRp1925
(dp1926
g62
(dp1927
sg71
g1912
sg64
(lp1928
g57
(g58
g59
NtRp1929
(dp1930
g62
(dp1931
g70
I4
ssg71
g1925
sg64
(lp1932
S'True'
p1933
asbasbasbag57
(g73
g59
NtRp1934
(dp1935
g62
(dp1936
sg71
g1033
sg64
(lp1937
g57
(g78
g59
NtRp1938
(dp1939
g62
(dp1940
g82
g83
ssg71
g1934
sg64
(lp1941
S'wsgi_run_once'
p1942
asbag57
(g78
g59
NtRp1943
(dp1944
g62
(dp1945
g89
g90
ssg71
g1934
sg64
(lp1946
S':'
asbag57
(g78
g59
NtRp1947
(dp1948
g62
(dp1949
sg71
g1934
sg64
(lp1950
g57
(g58
g59
NtRp1951
(dp1952
g62
(dp1953
g70
I4
ssg71
g1947
sg64
(lp1954
g100
asbasbasbag57
(g73
g59
NtRp1955
(dp1956
g62
(dp1957
sg71
g1033
sg64
(lp1958
g57
(g78
g59
NtRp1959
(dp1960
g62
(dp1961
g82
g83
ssg71
g1955
sg64
(lp1962
S'wsgi_url_scheme'
p1963
asbag57
(g78
g59
NtRp1964
(dp1965
g62
(dp1966
g89
g90
ssg71
g1955
sg64
(lp1967
S':'
asbag57
(g78
g59
NtRp1968
(dp1969
g62
(dp1970
sg71
g1955
sg64
(lp1971
g57
(g58
g59
NtRp1972
(dp1973
g62
(dp1974
g70
I4
ssg71
g1968
sg64
(lp1975
S'http'
p1976
asbasbasbag57
(g73
g59
NtRp1977
(dp1978
g62
(dp1979
sg71
g1033
sg64
(lp1980
g57
(g78
g59
NtRp1981
(dp1982
g62
(dp1983
g82
g83
ssg71
g1977
sg64
(lp1984
S'wsgi_version'
p1985
asbag57
(g78
g59
NtRp1986
(dp1987
g62
(dp1988
g89
g90
ssg71
g1977
sg64
(lp1989
S':'
asbag57
(g78
g59
NtRp1990
(dp1991
g62
(dp1992
sg71
g1977
sg64
(lp1993
g57
(g58
g59
NtRp1994
(dp1995
g62
(dp1996
g70
I4
ssg71
g1990
sg64
(lp1997
g57
(g66
g59
NtRp1998
(dp1999
g62
(dp2000
g70
I3
ssg71
Nsg64
(lp2001
g57
(g73
g59
NtRp2002
(dp2003
g62
(dp2004
sg71
g1998
sg64
(lp2005
g57
(g78
g59
NtRp2006
(dp2007
g62
(dp2008
sg71
g2002
sg64
(lp2009
g57
(g58
g59
NtRp2010
(dp2011
g62
(dp2012
g70
I3
ssg71
g2006
sg64
(lp2013
S'1'
asbasbasbag57
(g73
g59
NtRp2014
(dp2015
g62
(dp2016
sg71
g1998
sg64
(lp2017
g57
(g78
g59
NtRp2018
(dp2019
g62
(dp2020
sg71
g2014
sg64
(lp2021
g57
(g58
g59
NtRp2022
(dp2023
g62
(dp2024
g70
I3
ssg71
g2018
sg64
(lp2025
S'0'
asbasbasbasbasbasbasbasbasbasbasbag57
(g73
g59
NtRp2026
(dp2027
g62
(dp2028
sg71
g67
sg64
(lp2029
g57
(g78
g59
NtRp2030
(dp2031
g62
(dp2032
g82
g83
ssg71
g2026
sg64
(lp2033
S'extension'
p2034
asbag57
(g78
g59
NtRp2035
(dp2036
g62
(dp2037
g89
g90
ssg71
g2026
sg64
(lp2038
S':'
asbag57
(g78
g59
NtRp2039
(dp2040
g62
(dp2041
sg71
g2026
sg64
(lp2042
g57
(g58
g59
NtRp2043
(dp2044
g62
(dp2045
g70
I5
ssg71
g2039
sg64
(lp2046
S'html'
p2047
asbasbasbag57
(g73
g59
NtRp2048
(dp2049
g62
(dp2050
sg71
g67
sg64
(lp2051
g57
(g78
g59
NtRp2052
(dp2053
g62
(dp2054
g82
g83
ssg71
g2048
sg64
(lp2055
S'folder'
p2056
asbag57
(g78
g59
NtRp2057
(dp2058
g62
(dp2059
g89
g90
ssg71
g2048
sg64
(lp2060
S':'
asbag57
(g78
g59
NtRp2061
(dp2062
g62
(dp2063
sg71
g2048
sg64
(lp2064
g57
(g58
g59
NtRp2065
(dp2066
g62
(dp2067
g70
I5
ssg71
g2061
sg64
(lp2068
S'/home/nazrul/web2py/applications/WSD_Tool/'
p2069
asbasbasbag57
(g73
g59
NtRp2070
(dp2071
g62
(dp2072
sg71
g67
sg64
(lp2073
g57
(g78
g59
NtRp2074
(dp2075
g62
(dp2076
g82
g83
ssg71
g2070
sg64
(lp2077
S'function'
p2078
asbag57
(g78
g59
NtRp2079
(dp2080
g62
(dp2081
g89
g90
ssg71
g2070
sg64
(lp2082
S':'
asbag57
(g78
g59
NtRp2083
(dp2084
g62
(dp2085
sg71
g2070
sg64
(lp2086
g57
(g58
g59
NtRp2087
(dp2088
g62
(dp2089
g70
I5
ssg71
g2083
sg64
(lp2090
S'rel'
p2091
asbasbasbag57
(g73
g59
NtRp2092
(dp2093
g62
(dp2094
sg71
g67
sg64
(lp2095
g57
(g78
g59
NtRp2096
(dp2097
g62
(dp2098
g82
g83
ssg71
g2092
sg64
(lp2099
S'get_vars'
p2100
asbag57
(g78
g59
NtRp2101
(dp2102
g62
(dp2103
g89
g90
ssg71
g2092
sg64
(lp2104
S':'
asbag57
(g78
g59
NtRp2105
(dp2106
g62
(dp2107
sg71
g2092
sg64
(lp2108
g57
(g58
g59
NtRp2109
(dp2110
g62
(dp2111
g70
I5
ssg71
g2105
sg64
(lp2112
g57
(g66
g59
NtRp2113
(dp2114
g62
(dp2115
g70
I4
ssg71
Nsg64
(lp2116
sbasbasbasbag57
(g73
g59
NtRp2117
(dp2118
g62
(dp2119
sg71
g67
sg64
(lp2120
g57
(g78
g59
NtRp2121
(dp2122
g62
(dp2123
g82
g83
ssg71
g2117
sg64
(lp2124
S'global_settings'
p2125
asbag57
(g78
g59
NtRp2126
(dp2127
g62
(dp2128
g89
g90
ssg71
g2117
sg64
(lp2129
S':'
asbag57
(g78
g59
NtRp2130
(dp2131
g62
(dp2132
sg71
g2117
sg64
(lp2133
g57
(g58
g59
NtRp2134
(dp2135
g62
(dp2136
g70
I5
ssg71
g2130
sg64
(lp2137
g57
(g66
g59
NtRp2138
(dp2139
g62
(dp2140
g70
I4
ssg71
Nsg64
(lp2141
g57
(g73
g59
NtRp2142
(dp2143
g62
(dp2144
sg71
g2138
sg64
(lp2145
g57
(g78
g59
NtRp2146
(dp2147
g62
(dp2148
g82
g83
ssg71
g2142
sg64
(lp2149
g1045
asbag57
(g78
g59
NtRp2150
(dp2151
g62
(dp2152
g89
g90
ssg71
g2142
sg64
(lp2153
S':'
asbag57
(g78
g59
NtRp2154
(dp2155
g62
(dp2156
sg71
g2142
sg64
(lp2157
g57
(g58
g59
NtRp2158
(dp2159
g62
(dp2160
g70
I4
ssg71
g2154
sg64
(lp2161
S"set(['/home/nazrul/web2py/applications/welcome/', '/home/nazrul/web2py/applications/WSD_Tool/', '/home/nazrul/web2py/applications/admin/'])"
p2162
asbasbasbag57
(g73
g59
NtRp2163
(dp2164
g62
(dp2165
sg71
g2138
sg64
(lp2166
g57
(g78
g59
NtRp2167
(dp2168
g62
(dp2169
g82
g83
ssg71
g2163
sg64
(lp2170
g1067
asbag57
(g78
g59
NtRp2171
(dp2172
g62
(dp2173
g89
g90
ssg71
g2163
sg64
(lp2174
S':'
asbag57
(g78
g59
NtRp2175
(dp2176
g62
(dp2177
sg71
g2163
sg64
(lp2178
g57
(g58
g59
NtRp2179
(dp2180
g62
(dp2181
g70
I4
ssg71
g2175
sg64
(lp2182
g1080
asbasbasbag57
(g73
g59
NtRp2183
(dp2184
g62
(dp2185
sg71
g2138
sg64
(lp2186
g57
(g78
g59
NtRp2187
(dp2188
g62
(dp2189
g82
g83
ssg71
g2183
sg64
(lp2190
g1089
asbag57
(g78
g59
NtRp2191
(dp2192
g62
(dp2193
g89
g90
ssg71
g2183
sg64
(lp2194
S':'
asbag57
(g78
g59
NtRp2195
(dp2196
g62
(dp2197
sg71
g2183
sg64
(lp2198
g57
(g58
g59
NtRp2199
(dp2200
g62
(dp2201
g70
I4
ssg71
g2195
sg64
(lp2202
g57
(g66
g59
NtRp2203
(dp2204
g62
(dp2205
g70
I3
ssg71
Nsg64
(lp2206
sbasbasbasbag57
(g73
g59
NtRp2207
(dp2208
g62
(dp2209
sg71
g2138
sg64
(lp2210
g57
(g78
g59
NtRp2211
(dp2212
g62
(dp2213
g82
g83
ssg71
g2207
sg64
(lp2214
g1114
asbag57
(g78
g59
NtRp2215
(dp2216
g62
(dp2217
g89
g90
ssg71
g2207
sg64
(lp2218
S':'
asbag57
(g78
g59
NtRp2219
(dp2220
g62
(dp2221
sg71
g2207
sg64
(lp2222
g57
(g58
g59
NtRp2223
(dp2224
g62
(dp2225
g70
I4
ssg71
g2219
sg64
(lp2226
S"<Values at 0xa44192c: {'verbose': False, 'ip': '127.0.0.1', 'with_scheduler': False, 'ips': [], 'shutdown_timeout': 5, 'taskbar': False, 'port': 8000, 'maxthreads': None, 'softcron': False, 'server_name': 'nazrul-Compaq-Presario-CQ40-Notebook-PC', 'bpython': False, 'nogui': False, 'pid_filename': 'httpserver.pid', 'extcron': False, 'runcron': False, 'run_system_tests': False, 'test': None, 'folder': '/home/nazrul/web2py', 'config': '', 'import_models': False, 'winservice': '', 'shell': None, 'run': '', 'log_filename': 'httpserver.log', 'debuglevel': 30, 'args': [''], 'socket_timeout': 5, 'ssl_ca_certificate': None, 'scheduler': None, 'profiler_filename': None, 'ssl_private_key': '', 'scheduler_groups': None, 'password': '<ask>', 'request_queue_size': 5, 'ssl_certificate': '', 'cronjob': False, 'numthreads': None, 'quiet': False, 'interfaces': None, 'minthreads': None, 'timeout': 10, 'plain': False, 'nobanner': False}>"
p2227
asbasbasbag57
(g73
g59
NtRp2228
(dp2229
g62
(dp2230
sg71
g2138
sg64
(lp2231
g57
(g78
g59
NtRp2232
(dp2233
g62
(dp2234
g82
g83
ssg71
g2228
sg64
(lp2235
g1136
asbag57
(g78
g59
NtRp2236
(dp2237
g62
(dp2238
g89
g90
ssg71
g2228
sg64
(lp2239
S':'
asbag57
(g78
g59
NtRp2240
(dp2241
g62
(dp2242
sg71
g2228
sg64
(lp2243
g57
(g58
g59
NtRp2244
(dp2245
g62
(dp2246
g70
I4
ssg71
g2240
sg64
(lp2247
S'set([])'
p2248
asbasbasbag57
(g73
g59
NtRp2249
(dp2250
g62
(dp2251
sg71
g2138
sg64
(lp2252
g57
(g78
g59
NtRp2253
(dp2254
g62
(dp2255
g82
g83
ssg71
g2249
sg64
(lp2256
g1158
asbag57
(g78
g59
NtRp2257
(dp2258
g62
(dp2259
g89
g90
ssg71
g2249
sg64
(lp2260
S':'
asbag57
(g78
g59
NtRp2261
(dp2262
g62
(dp2263
sg71
g2249
sg64
(lp2264
g57
(g58
g59
NtRp2265
(dp2266
g62
(dp2267
g70
I4
ssg71
g2261
sg64
(lp2268
g100
asbasbasbag57
(g73
g59
NtRp2269
(dp2270
g62
(dp2271
sg71
g2138
sg64
(lp2272
g57
(g78
g59
NtRp2273
(dp2274
g62
(dp2275
g82
g83
ssg71
g2269
sg64
(lp2276
g1179
asbag57
(g78
g59
NtRp2277
(dp2278
g62
(dp2279
g89
g90
ssg71
g2269
sg64
(lp2280
S':'
asbag57
(g78
g59
NtRp2281
(dp2282
g62
(dp2283
sg71
g2269
sg64
(lp2284
g57
(g58
g59
NtRp2285
(dp2286
g62
(dp2287
g70
I4
ssg71
g2281
sg64
(lp2288
g1192
asbasbasbag57
(g73
g59
NtRp2289
(dp2290
g62
(dp2291
sg71
g2138
sg64
(lp2292
g57
(g78
g59
NtRp2293
(dp2294
g62
(dp2295
g82
g83
ssg71
g2289
sg64
(lp2296
g1355
asbag57
(g78
g59
NtRp2297
(dp2298
g62
(dp2299
g89
g90
ssg71
g2289
sg64
(lp2300
S':'
asbag57
(g78
g59
NtRp2301
(dp2302
g62
(dp2303
sg71
g2289
sg64
(lp2304
g57
(g58
g59
NtRp2305
(dp2306
g62
(dp2307
g70
I4
ssg71
g2301
sg64
(lp2308
g100
asbasbasbag57
(g73
g59
NtRp2309
(dp2310
g62
(dp2311
sg71
g2138
sg64
(lp2312
g57
(g78
g59
NtRp2313
(dp2314
g62
(dp2315
g82
g83
ssg71
g2309
sg64
(lp2316
g1376
asbag57
(g78
g59
NtRp2317
(dp2318
g62
(dp2319
g89
g90
ssg71
g2309
sg64
(lp2320
S':'
asbag57
(g78
g59
NtRp2321
(dp2322
g62
(dp2323
sg71
g2309
sg64
(lp2324
g57
(g58
g59
NtRp2325
(dp2326
g62
(dp2327
g70
I4
ssg71
g2321
sg64
(lp2328
g100
asbasbasbag57
(g73
g59
NtRp2329
(dp2330
g62
(dp2331
sg71
g2138
sg64
(lp2332
g57
(g78
g59
NtRp2333
(dp2334
g62
(dp2335
g82
g83
ssg71
g2329
sg64
(lp2336
g1397
asbag57
(g78
g59
NtRp2337
(dp2338
g62
(dp2339
g89
g90
ssg71
g2329
sg64
(lp2340
S':'
asbag57
(g78
g59
NtRp2341
(dp2342
g62
(dp2343
sg71
g2329
sg64
(lp2344
g57
(g58
g59
NtRp2345
(dp2346
g62
(dp2347
g70
I4
ssg71
g2341
sg64
(lp2348
g57
(g66
g59
NtRp2349
(dp2350
g62
(dp2351
g70
I3
ssg71
Nsg64
(lp2352
g57
(g73
g59
NtRp2353
(dp2354
g62
(dp2355
sg71
g2349
sg64
(lp2356
g57
(g78
g59
NtRp2357
(dp2358
g62
(dp2359
sg71
g2353
sg64
(lp2360
g57
(g58
g59
NtRp2361
(dp2362
g62
(dp2363
g70
I3
ssg71
g2357
sg64
(lp2364
g1426
asbasbasbag57
(g73
g59
NtRp2365
(dp2366
g62
(dp2367
sg71
g2349
sg64
(lp2368
g57
(g78
g59
NtRp2369
(dp2370
g62
(dp2371
sg71
g2365
sg64
(lp2372
g57
(g58
g59
NtRp2373
(dp2374
g62
(dp2375
g70
I3
ssg71
g2369
sg64
(lp2376
g1439
asbasbasbag57
(g73
g59
NtRp2377
(dp2378
g62
(dp2379
sg71
g2349
sg64
(lp2380
g57
(g78
g59
NtRp2381
(dp2382
g62
(dp2383
sg71
g2377
sg64
(lp2384
g57
(g58
g59
NtRp2385
(dp2386
g62
(dp2387
g70
I3
ssg71
g2381
sg64
(lp2388
g1452
asbasbasbag57
(g73
g59
NtRp2389
(dp2390
g62
(dp2391
sg71
g2349
sg64
(lp2392
g57
(g78
g59
NtRp2393
(dp2394
g62
(dp2395
sg71
g2389
sg64
(lp2396
g57
(g58
g59
NtRp2397
(dp2398
g62
(dp2399
g70
I3
ssg71
g2393
sg64
(lp2400
g1465
asbasbasbag57
(g73
g59
NtRp2401
(dp2402
g62
(dp2403
sg71
g2349
sg64
(lp2404
g57
(g78
g59
NtRp2405
(dp2406
g62
(dp2407
sg71
g2401
sg64
(lp2408
g57
(g58
g59
NtRp2409
(dp2410
g62
(dp2411
g70
I3
ssg71
g2405
sg64
(lp2412
g1478
asbasbasbasbasbasbasbag57
(g73
g59
NtRp2413
(dp2414
g62
(dp2415
sg71
g2138
sg64
(lp2416
g57
(g78
g59
NtRp2417
(dp2418
g62
(dp2419
g82
g83
ssg71
g2413
sg64
(lp2420
g1746
asbag57
(g78
g59
NtRp2421
(dp2422
g62
(dp2423
g89
g90
ssg71
g2413
sg64
(lp2424
S':'
asbag57
(g78
g59
NtRp2425
(dp2426
g62
(dp2427
sg71
g2413
sg64
(lp2428
g57
(g58
g59
NtRp2429
(dp2430
g62
(dp2431
g70
I4
ssg71
g2425
sg64
(lp2432
g57
(g66
g59
NtRp2433
(dp2434
g62
(dp2435
g70
I3
ssg71
Nsg64
(lp2436
g57
(g73
g59
NtRp2437
(dp2438
g62
(dp2439
sg71
g2433
sg64
(lp2440
g57
(g78
g59
NtRp2441
(dp2442
g62
(dp2443
sg71
g2437
sg64
(lp2444
g57
(g58
g59
NtRp2445
(dp2446
g62
(dp2447
g70
I3
ssg71
g2441
sg64
(lp2448
S'2'
asbasbasbag57
(g73
g59
NtRp2449
(dp2450
g62
(dp2451
sg71
g2433
sg64
(lp2452
g57
(g78
g59
NtRp2453
(dp2454
g62
(dp2455
sg71
g2449
sg64
(lp2456
g57
(g58
g59
NtRp2457
(dp2458
g62
(dp2459
g70
I3
ssg71
g2453
sg64
(lp2460
S'3'
asbasbasbag57
(g73
g59
NtRp2461
(dp2462
g62
(dp2463
sg71
g2433
sg64
(lp2464
g57
(g78
g59
NtRp2465
(dp2466
g62
(dp2467
sg71
g2461
sg64
(lp2468
g57
(g58
g59
NtRp2469
(dp2470
g62
(dp2471
g70
I3
ssg71
g2465
sg64
(lp2472
S'2'
asbasbasbag57
(g73
g59
NtRp2473
(dp2474
g62
(dp2475
sg71
g2433
sg64
(lp2476
g57
(g78
g59
NtRp2477
(dp2478
g62
(dp2479
sg71
g2473
sg64
(lp2480
g57
(g58
g59
NtRp2481
(dp2482
g62
(dp2483
g70
I3
ssg71
g2477
sg64
(lp2484
S'datetime.datetime(2012, 12, 17, 15, 3, 30)'
p2485
asbasbasbag57
(g73
g59
NtRp2486
(dp2487
g62
(dp2488
sg71
g2433
sg64
(lp2489
g57
(g78
g59
NtRp2490
(dp2491
g62
(dp2492
sg71
g2486
sg64
(lp2493
g57
(g58
g59
NtRp2494
(dp2495
g62
(dp2496
g70
I3
ssg71
g2490
sg64
(lp2497
g1824
asbasbasbasbasbasbasbasbasbasbasbag57
(g73
g59
NtRp2498
(dp2499
g62
(dp2500
sg71
g67
sg64
(lp2501
g57
(g78
g59
NtRp2502
(dp2503
g62
(dp2504
g82
g83
ssg71
g2498
sg64
(lp2505
S'is_https'
p2506
asbag57
(g78
g59
NtRp2507
(dp2508
g62
(dp2509
g89
g90
ssg71
g2498
sg64
(lp2510
S':'
asbag57
(g78
g59
NtRp2511
(dp2512
g62
(dp2513
sg71
g2498
sg64
(lp2514
g57
(g58
g59
NtRp2515
(dp2516
g62
(dp2517
g70
I5
ssg71
g2511
sg64
(lp2518
g100
asbasbasbag57
(g73
g59
NtRp2519
(dp2520
g62
(dp2521
sg71
g67
sg64
(lp2522
g57
(g78
g59
NtRp2523
(dp2524
g62
(dp2525
g82
g83
ssg71
g2519
sg64
(lp2526
S'is_local'
p2527
asbag57
(g78
g59
NtRp2528
(dp2529
g62
(dp2530
g89
g90
ssg71
g2519
sg64
(lp2531
S':'
asbag57
(g78
g59
NtRp2532
(dp2533
g62
(dp2534
sg71
g2519
sg64
(lp2535
g57
(g58
g59
NtRp2536
(dp2537
g62
(dp2538
g70
I5
ssg71
g2532
sg64
(lp2539
g1933
asbasbasbag57
(g73
g59
NtRp2540
(dp2541
g62
(dp2542
sg71
g67
sg64
(lp2543
g57
(g78
g59
NtRp2544
(dp2545
g62
(dp2546
g82
g83
ssg71
g2540
sg64
(lp2547
S'is_restful'
p2548
asbag57
(g78
g59
NtRp2549
(dp2550
g62
(dp2551
g89
g90
ssg71
g2540
sg64
(lp2552
S':'
asbag57
(g78
g59
NtRp2553
(dp2554
g62
(dp2555
sg71
g2540
sg64
(lp2556
g57
(g58
g59
NtRp2557
(dp2558
g62
(dp2559
g70
I5
ssg71
g2553
sg64
(lp2560
g100
asbasbasbag57
(g73
g59
NtRp2561
(dp2562
g62
(dp2563
sg71
g67
sg64
(lp2564
g57
(g78
g59
NtRp2565
(dp2566
g62
(dp2567
g82
g83
ssg71
g2561
sg64
(lp2568
S'now'
p2569
asbag57
(g78
g59
NtRp2570
(dp2571
g62
(dp2572
g89
g90
ssg71
g2561
sg64
(lp2573
S':'
asbag57
(g78
g59
NtRp2574
(dp2575
g62
(dp2576
sg71
g2561
sg64
(lp2577
g57
(g58
g59
NtRp2578
(dp2579
g62
(dp2580
g70
I5
ssg71
g2574
sg64
(lp2581
S'datetime.datetime(2013, 11, 9, 16, 35, 49, 319339)'
p2582
asbasbasbag57
(g73
g59
NtRp2583
(dp2584
g62
(dp2585
sg71
g67
sg64
(lp2586
g57
(g78
g59
NtRp2587
(dp2588
g62
(dp2589
g82
g83
ssg71
g2583
sg64
(lp2590
S'post_vars'
p2591
asbag57
(g78
g59
NtRp2592
(dp2593
g62
(dp2594
g89
g90
ssg71
g2583
sg64
(lp2595
S':'
asbag57
(g78
g59
NtRp2596
(dp2597
g62
(dp2598
sg71
g2583
sg64
(lp2599
g57
(g58
g59
NtRp2600
(dp2601
g62
(dp2602
g70
I5
ssg71
g2596
sg64
(lp2603
g57
(g66
g59
NtRp2604
(dp2605
g62
(dp2606
g70
I4
ssg71
Nsg64
(lp2607
sbasbasbasbag57
(g73
g59
NtRp2608
(dp2609
g62
(dp2610
sg71
g67
sg64
(lp2611
g57
(g78
g59
NtRp2612
(dp2613
g62
(dp2614
g82
g83
ssg71
g2608
sg64
(lp2615
S'raw_args'
p2616
asbag57
(g78
g59
NtRp2617
(dp2618
g62
(dp2619
g89
g90
ssg71
g2608
sg64
(lp2620
S':'
asbag57
(g78
g59
NtRp2621
(dp2622
g62
(dp2623
sg71
g2608
sg64
(lp2624
g57
(g58
g59
NtRp2625
(dp2626
g62
(dp2627
g70
I5
ssg71
g2621
sg64
(lp2628
S''
asbasbasbag57
(g73
g59
NtRp2629
(dp2630
g62
(dp2631
sg71
g67
sg64
(lp2632
g57
(g78
g59
NtRp2633
(dp2634
g62
(dp2635
g82
g83
ssg71
g2629
sg64
(lp2636
S'raw_extension'
p2637
asbag57
(g78
g59
NtRp2638
(dp2639
g62
(dp2640
g89
g90
ssg71
g2629
sg64
(lp2641
S':'
asbag57
(g78
g59
NtRp2642
(dp2643
g62
(dp2644
sg71
g2629
sg64
(lp2645
g57
(g58
g59
NtRp2646
(dp2647
g62
(dp2648
g70
I5
ssg71
g2642
sg64
(lp2649
S'None'
p2650
asbasbasbag57
(g73
g59
NtRp2651
(dp2652
g62
(dp2653
sg71
g67
sg64
(lp2654
g57
(g78
g59
NtRp2655
(dp2656
g62
(dp2657
g82
g83
ssg71
g2651
sg64
(lp2658
S'url'
p2659
asbag57
(g78
g59
NtRp2660
(dp2661
g62
(dp2662
g89
g90
ssg71
g2651
sg64
(lp2663
S':'
asbag57
(g78
g59
NtRp2664
(dp2665
g62
(dp2666
sg71
g2651
sg64
(lp2667
g57
(g58
g59
NtRp2668
(dp2669
g62
(dp2670
g70
I5
ssg71
g2664
sg64
(lp2671
g1500
asbasbasbag57
(g73
g59
NtRp2672
(dp2673
g62
(dp2674
sg71
g67
sg64
(lp2675
g57
(g78
g59
NtRp2676
(dp2677
g62
(dp2678
g82
g83
ssg71
g2672
sg64
(lp2679
S'utcnow'
p2680
asbag57
(g78
g59
NtRp2681
(dp2682
g62
(dp2683
g89
g90
ssg71
g2672
sg64
(lp2684
S':'
asbag57
(g78
g59
NtRp2685
(dp2686
g62
(dp2687
sg71
g2672
sg64
(lp2688
g57
(g58
g59
NtRp2689
(dp2690
g62
(dp2691
g70
I5
ssg71
g2685
sg64
(lp2692
S'datetime.datetime(2013, 11, 9, 11, 5, 49, 319375)'
p2693
asbasbasbag57
(g73
g59
NtRp2694
(dp2695
g62
(dp2696
sg71
g67
sg64
(lp2697
g57
(g78
g59
NtRp2698
(dp2699
g62
(dp2700
g82
g83
ssg71
g2694
sg64
(lp2701
S'uuid'
p2702
asbag57
(g78
g59
NtRp2703
(dp2704
g62
(dp2705
g89
g90
ssg71
g2694
sg64
(lp2706
S':'
asbag57
(g78
g59
NtRp2707
(dp2708
g62
(dp2709
sg71
g2694
sg64
(lp2710
g57
(g58
g59
NtRp2711
(dp2712
g62
(dp2713
g70
I5
ssg71
g2707
sg64
(lp2714
S'WSD_Tool/127.0.0.1.2013-11-09.16-35-49.5b5a010c-490c-4643-b9cd-899eb10ccf5f'
p2715
asbasbasbag57
(g73
g59
NtRp2716
(dp2717
g62
(dp2718
sg71
g67
sg64
(lp2719
g57
(g78
g59
NtRp2720
(dp2721
g62
(dp2722
g82
g83
ssg71
g2716
sg64
(lp2723
S'vars'
p2724
asbag57
(g78
g59
NtRp2725
(dp2726
g62
(dp2727
g89
g90
ssg71
g2716
sg64
(lp2728
S':'
asbag57
(g78
g59
NtRp2729
(dp2730
g62
(dp2731
sg71
g2716
sg64
(lp2732
g57
(g58
g59
NtRp2733
(dp2734
g62
(dp2735
g70
I5
ssg71
g2729
sg64
(lp2736
g57
(g66
g59
NtRp2737
(dp2738
g62
(dp2739
g70
I4
ssg71
Nsg64
(lp2740
sbasbasbasbag57
(g73
g59
NtRp2741
(dp2742
g62
(dp2743
sg71
g67
sg64
(lp2744
g57
(g78
g59
NtRp2745
(dp2746
g62
(dp2747
g82
g83
ssg71
g2741
sg64
(lp2748
S'wsgi'
p2749
asbag57
(g78
g59
NtRp2750
(dp2751
g62
(dp2752
g89
g90
ssg71
g2741
sg64
(lp2753
S':'
asbag57
(g78
g59
NtRp2754
(dp2755
g62
(dp2756
sg71
g2741
sg64
(lp2757
g57
(g58
g59
NtRp2758
(dp2759
g62
(dp2760
g70
I5
ssg71
g2754
sg64
(lp2761
g57
(g66
g59
NtRp2762
(dp2763
g62
(dp2764
g70
I4
ssg71
Nsg64
(lp2765
g57
(g73
g59
NtRp2766
(dp2767
g62
(dp2768
sg71
g2762
sg64
(lp2769
g57
(g78
g59
NtRp2770
(dp2771
g62
(dp2772
g82
g83
ssg71
g2766
sg64
(lp2773
S'environ'
p2774
asbag57
(g78
g59
NtRp2775
(dp2776
g62
(dp2777
g89
g90
ssg71
g2766
sg64
(lp2778
S':'
asbag57
(g78
g59
NtRp2779
(dp2780
g62
(dp2781
sg71
g2766
sg64
(lp2782
g57
(g58
g59
NtRp2783
(dp2784
g62
(dp2785
g70
I4
ssg71
g2779
sg64
(lp2786
g57
(g66
g59
NtRp2787
(dp2788
g62
(dp2789
g70
I3
ssg71
Nsg64
(lp2790
g57
(g73
g59
NtRp2791
(dp2792
g62
(dp2793
sg71
g2787
sg64
(lp2794
g57
(g78
g59
NtRp2795
(dp2796
g62
(dp2797
g82
g83
ssg71
g2791
sg64
(lp2798
S'HTTP_ACCEPT'
p2799
asbag57
(g78
g59
NtRp2800
(dp2801
g62
(dp2802
g89
g90
ssg71
g2791
sg64
(lp2803
S':'
asbag57
(g78
g59
NtRp2804
(dp2805
g62
(dp2806
sg71
g2791
sg64
(lp2807
g57
(g58
g59
NtRp2808
(dp2809
g62
(dp2810
g70
I3
ssg71
g2804
sg64
(lp2811
g1214
asbasbasbag57
(g73
g59
NtRp2812
(dp2813
g62
(dp2814
sg71
g2787
sg64
(lp2815
g57
(g78
g59
NtRp2816
(dp2817
g62
(dp2818
g82
g83
ssg71
g2812
sg64
(lp2819
S'HTTP_ACCEPT_ENCODING'
p2820
asbag57
(g78
g59
NtRp2821
(dp2822
g62
(dp2823
g89
g90
ssg71
g2812
sg64
(lp2824
S':'
asbag57
(g78
g59
NtRp2825
(dp2826
g62
(dp2827
sg71
g2812
sg64
(lp2828
g57
(g58
g59
NtRp2829
(dp2830
g62
(dp2831
g70
I3
ssg71
g2825
sg64
(lp2832
g1236
asbasbasbag57
(g73
g59
NtRp2833
(dp2834
g62
(dp2835
sg71
g2787
sg64
(lp2836
g57
(g78
g59
NtRp2837
(dp2838
g62
(dp2839
g82
g83
ssg71
g2833
sg64
(lp2840
S'HTTP_ACCEPT_LANGUAGE'
p2841
asbag57
(g78
g59
NtRp2842
(dp2843
g62
(dp2844
g89
g90
ssg71
g2833
sg64
(lp2845
S':'
asbag57
(g78
g59
NtRp2846
(dp2847
g62
(dp2848
sg71
g2833
sg64
(lp2849
g57
(g58
g59
NtRp2850
(dp2851
g62
(dp2852
g70
I3
ssg71
g2846
sg64
(lp2853
g1258
asbasbasbag57
(g73
g59
NtRp2854
(dp2855
g62
(dp2856
sg71
g2787
sg64
(lp2857
g57
(g78
g59
NtRp2858
(dp2859
g62
(dp2860
g82
g83
ssg71
g2854
sg64
(lp2861
S'HTTP_CONNECTION'
p2862
asbag57
(g78
g59
NtRp2863
(dp2864
g62
(dp2865
g89
g90
ssg71
g2854
sg64
(lp2866
S':'
asbag57
(g78
g59
NtRp2867
(dp2868
g62
(dp2869
sg71
g2854
sg64
(lp2870
g57
(g58
g59
NtRp2871
(dp2872
g62
(dp2873
g70
I3
ssg71
g2867
sg64
(lp2874
g1280
asbasbasbag57
(g73
g59
NtRp2875
(dp2876
g62
(dp2877
sg71
g2787
sg64
(lp2878
g57
(g78
g59
NtRp2879
(dp2880
g62
(dp2881
g82
g83
ssg71
g2875
sg64
(lp2882
S'HTTP_COOKIE'
p2883
asbag57
(g78
g59
NtRp2884
(dp2885
g62
(dp2886
g89
g90
ssg71
g2875
sg64
(lp2887
S':'
asbag57
(g78
g59
NtRp2888
(dp2889
g62
(dp2890
sg71
g2875
sg64
(lp2891
g57
(g58
g59
NtRp2892
(dp2893
g62
(dp2894
g70
I3
ssg71
g2888
sg64
(lp2895
g1302
asbasbasbag57
(g73
g59
NtRp2896
(dp2897
g62
(dp2898
sg71
g2787
sg64
(lp2899
g57
(g78
g59
NtRp2900
(dp2901
g62
(dp2902
g82
g83
ssg71
g2896
sg64
(lp2903
S'HTTP_HOST'
p2904
asbag57
(g78
g59
NtRp2905
(dp2906
g62
(dp2907
g89
g90
ssg71
g2896
sg64
(lp2908
S':'
asbag57
(g78
g59
NtRp2909
(dp2910
g62
(dp2911
sg71
g2896
sg64
(lp2912
g57
(g58
g59
NtRp2913
(dp2914
g62
(dp2915
g70
I3
ssg71
g2909
sg64
(lp2916
g1324
asbasbasbag57
(g73
g59
NtRp2917
(dp2918
g62
(dp2919
sg71
g2787
sg64
(lp2920
g57
(g78
g59
NtRp2921
(dp2922
g62
(dp2923
g82
g83
ssg71
g2917
sg64
(lp2924
S'HTTP_USER_AGENT'
p2925
asbag57
(g78
g59
NtRp2926
(dp2927
g62
(dp2928
g89
g90
ssg71
g2917
sg64
(lp2929
S':'
asbag57
(g78
g59
NtRp2930
(dp2931
g62
(dp2932
sg71
g2917
sg64
(lp2933
g57
(g58
g59
NtRp2934
(dp2935
g62
(dp2936
g70
I3
ssg71
g2930
sg64
(lp2937
g1346
asbasbasbag57
(g73
g59
NtRp2938
(dp2939
g62
(dp2940
sg71
g2787
sg64
(lp2941
g57
(g78
g59
NtRp2942
(dp2943
g62
(dp2944
g82
g83
ssg71
g2938
sg64
(lp2945
S'PATH_INFO'
p2946
asbag57
(g78
g59
NtRp2947
(dp2948
g62
(dp2949
g89
g90
ssg71
g2938
sg64
(lp2950
S':'
asbag57
(g78
g59
NtRp2951
(dp2952
g62
(dp2953
sg71
g2938
sg64
(lp2954
g57
(g58
g59
NtRp2955
(dp2956
g62
(dp2957
g70
I3
ssg71
g2951
sg64
(lp2958
g1500
asbasbasbag57
(g73
g59
NtRp2959
(dp2960
g62
(dp2961
sg71
g2787
sg64
(lp2962
g57
(g78
g59
NtRp2963
(dp2964
g62
(dp2965
g82
g83
ssg71
g2959
sg64
(lp2966
S'QUERY_STRING'
p2967
asbag57
(g78
g59
NtRp2968
(dp2969
g62
(dp2970
g89
g90
ssg71
g2959
sg64
(lp2971
S':'
asbag57
(g78
g59
NtRp2972
(dp2973
g62
(dp2974
sg71
g2959
sg64
(lp2975
g57
(g58
g59
NtRp2976
(dp2977
g62
(dp2978
g70
I3
ssg71
g2972
sg64
(lp2979
S''
asbasbasbag57
(g73
g59
NtRp2980
(dp2981
g62
(dp2982
sg71
g2787
sg64
(lp2983
g57
(g78
g59
NtRp2984
(dp2985
g62
(dp2986
g82
g83
ssg71
g2980
sg64
(lp2987
S'REMOTE_ADDR'
p2988
asbag57
(g78
g59
NtRp2989
(dp2990
g62
(dp2991
g89
g90
ssg71
g2980
sg64
(lp2992
S':'
asbag57
(g78
g59
NtRp2993
(dp2994
g62
(dp2995
sg71
g2980
sg64
(lp2996
g57
(g58
g59
NtRp2997
(dp2998
g62
(dp2999
g70
I3
ssg71
g2993
sg64
(lp3000
g212
asbasbasbag57
(g73
g59
NtRp3001
(dp3002
g62
(dp3003
sg71
g2787
sg64
(lp3004
g57
(g78
g59
NtRp3005
(dp3006
g62
(dp3007
g82
g83
ssg71
g3001
sg64
(lp3008
S'REMOTE_PORT'
p3009
asbag57
(g78
g59
NtRp3010
(dp3011
g62
(dp3012
g89
g90
ssg71
g3001
sg64
(lp3013
S':'
asbag57
(g78
g59
NtRp3014
(dp3015
g62
(dp3016
sg71
g3001
sg64
(lp3017
g57
(g58
g59
NtRp3018
(dp3019
g62
(dp3020
g70
I3
ssg71
g3014
sg64
(lp3021
g1564
asbasbasbag57
(g73
g59
NtRp3022
(dp3023
g62
(dp3024
sg71
g2787
sg64
(lp3025
g57
(g78
g59
NtRp3026
(dp3027
g62
(dp3028
g82
g83
ssg71
g3022
sg64
(lp3029
S'REQUEST_METHOD'
p3030
asbag57
(g78
g59
NtRp3031
(dp3032
g62
(dp3033
g89
g90
ssg71
g3022
sg64
(lp3034
S':'
asbag57
(g78
g59
NtRp3035
(dp3036
g62
(dp3037
sg71
g3022
sg64
(lp3038
g57
(g58
g59
NtRp3039
(dp3040
g62
(dp3041
g70
I3
ssg71
g3035
sg64
(lp3042
g1586
asbasbasbag57
(g73
g59
NtRp3043
(dp3044
g62
(dp3045
sg71
g2787
sg64
(lp3046
g57
(g78
g59
NtRp3047
(dp3048
g62
(dp3049
g82
g83
ssg71
g3043
sg64
(lp3050
S'REQUEST_URI'
p3051
asbag57
(g78
g59
NtRp3052
(dp3053
g62
(dp3054
g89
g90
ssg71
g3043
sg64
(lp3055
S':'
asbag57
(g78
g59
NtRp3056
(dp3057
g62
(dp3058
sg71
g3043
sg64
(lp3059
g57
(g58
g59
NtRp3060
(dp3061
g62
(dp3062
g70
I3
ssg71
g3056
sg64
(lp3063
g1500
asbasbasbag57
(g73
g59
NtRp3064
(dp3065
g62
(dp3066
sg71
g2787
sg64
(lp3067
g57
(g78
g59
NtRp3068
(dp3069
g62
(dp3070
g82
g83
ssg71
g3064
sg64
(lp3071
S'SCRIPT_NAME'
p3072
asbag57
(g78
g59
NtRp3073
(dp3074
g62
(dp3075
g89
g90
ssg71
g3064
sg64
(lp3076
S':'
asbag57
(g78
g59
NtRp3077
(dp3078
g62
(dp3079
sg71
g3064
sg64
(lp3080
g57
(g58
g59
NtRp3081
(dp3082
g62
(dp3083
g70
I3
ssg71
g3077
sg64
(lp3084
S''
asbasbasbag57
(g73
g59
NtRp3085
(dp3086
g62
(dp3087
sg71
g2787
sg64
(lp3088
g57
(g78
g59
NtRp3089
(dp3090
g62
(dp3091
g82
g83
ssg71
g3085
sg64
(lp3092
S'SERVER_NAME'
p3093
asbag57
(g78
g59
NtRp3094
(dp3095
g62
(dp3096
g89
g90
ssg71
g3085
sg64
(lp3097
S':'
asbag57
(g78
g59
NtRp3098
(dp3099
g62
(dp3100
sg71
g3085
sg64
(lp3101
g57
(g58
g59
NtRp3102
(dp3103
g62
(dp3104
g70
I3
ssg71
g3098
sg64
(lp3105
g1650
asbasbasbag57
(g73
g59
NtRp3106
(dp3107
g62
(dp3108
sg71
g2787
sg64
(lp3109
g57
(g78
g59
NtRp3110
(dp3111
g62
(dp3112
g82
g83
ssg71
g3106
sg64
(lp3113
S'SERVER_PORT'
p3114
asbag57
(g78
g59
NtRp3115
(dp3116
g62
(dp3117
g89
g90
ssg71
g3106
sg64
(lp3118
S':'
asbag57
(g78
g59
NtRp3119
(dp3120
g62
(dp3121
sg71
g3106
sg64
(lp3122
g57
(g58
g59
NtRp3123
(dp3124
g62
(dp3125
g70
I3
ssg71
g3119
sg64
(lp3126
g1672
asbasbasbag57
(g73
g59
NtRp3127
(dp3128
g62
(dp3129
sg71
g2787
sg64
(lp3130
g57
(g78
g59
NtRp3131
(dp3132
g62
(dp3133
g82
g83
ssg71
g3127
sg64
(lp3134
S'SERVER_PROTOCOL'
p3135
asbag57
(g78
g59
NtRp3136
(dp3137
g62
(dp3138
g89
g90
ssg71
g3127
sg64
(lp3139
S':'
asbag57
(g78
g59
NtRp3140
(dp3141
g62
(dp3142
sg71
g3127
sg64
(lp3143
g57
(g58
g59
NtRp3144
(dp3145
g62
(dp3146
g70
I3
ssg71
g3140
sg64
(lp3147
g1694
asbasbasbag57
(g73
g59
NtRp3148
(dp3149
g62
(dp3150
sg71
g2787
sg64
(lp3151
g57
(g78
g59
NtRp3152
(dp3153
g62
(dp3154
g82
g83
ssg71
g3148
sg64
(lp3155
S'SERVER_SOFTWARE'
p3156
asbag57
(g78
g59
NtRp3157
(dp3158
g62
(dp3159
g89
g90
ssg71
g3148
sg64
(lp3160
S':'
asbag57
(g78
g59
NtRp3161
(dp3162
g62
(dp3163
sg71
g3148
sg64
(lp3164
g57
(g58
g59
NtRp3165
(dp3166
g62
(dp3167
g70
I3
ssg71
g3161
sg64
(lp3168
g1716
asbasbasbag57
(g73
g59
NtRp3169
(dp3170
g62
(dp3171
sg71
g2787
sg64
(lp3172
g57
(g78
g59
NtRp3173
(dp3174
g62
(dp3175
g82
g83
ssg71
g3169
sg64
(lp3176
S'wsgi.errors'
p3177
asbag57
(g78
g59
NtRp3178
(dp3179
g62
(dp3180
g89
g90
ssg71
g3169
sg64
(lp3181
S':'
asbag57
(g78
g59
NtRp3182
(dp3183
g62
(dp3184
sg71
g3169
sg64
(lp3185
g57
(g58
g59
NtRp3186
(dp3187
g62
(dp3188
g70
I3
ssg71
g3182
sg64
(lp3189
S"<open file '<stderr>', mode 'w' at 0xb72a80d0>"
p3190
asbasbasbag57
(g73
g59
NtRp3191
(dp3192
g62
(dp3193
sg71
g2787
sg64
(lp3194
g57
(g78
g59
NtRp3195
(dp3196
g62
(dp3197
g82
g83
ssg71
g3191
sg64
(lp3198
S'wsgi.file_wrapper'
p3199
asbag57
(g78
g59
NtRp3200
(dp3201
g62
(dp3202
g89
g90
ssg71
g3191
sg64
(lp3203
S':'
asbag57
(g78
g59
NtRp3204
(dp3205
g62
(dp3206
sg71
g3191
sg64
(lp3207
g57
(g58
g59
NtRp3208
(dp3209
g62
(dp3210
g70
I3
ssg71
g3204
sg64
(lp3211
S'<class wsgiref.util.FileWrapper at 0xa40147c>'
p3212
asbasbasbag57
(g73
g59
NtRp3213
(dp3214
g62
(dp3215
sg71
g2787
sg64
(lp3216
g57
(g78
g59
NtRp3217
(dp3218
g62
(dp3219
g82
g83
ssg71
g3213
sg64
(lp3220
S'wsgi.input'
p3221
asbag57
(g78
g59
NtRp3222
(dp3223
g62
(dp3224
g89
g90
ssg71
g3213
sg64
(lp3225
S':'
asbag57
(g78
g59
NtRp3226
(dp3227
g62
(dp3228
sg71
g3213
sg64
(lp3229
g57
(g58
g59
NtRp3230
(dp3231
g62
(dp3232
g70
I3
ssg71
g3226
sg64
(lp3233
S'<cStringIO.StringO object at 0xad9e8ec0>'
p3234
asbasbasbag57
(g73
g59
NtRp3235
(dp3236
g62
(dp3237
sg71
g2787
sg64
(lp3238
g57
(g78
g59
NtRp3239
(dp3240
g62
(dp3241
g82
g83
ssg71
g3235
sg64
(lp3242
S'wsgi.multiprocess'
p3243
asbag57
(g78
g59
NtRp3244
(dp3245
g62
(dp3246
g89
g90
ssg71
g3235
sg64
(lp3247
S':'
asbag57
(g78
g59
NtRp3248
(dp3249
g62
(dp3250
sg71
g3235
sg64
(lp3251
g57
(g58
g59
NtRp3252
(dp3253
g62
(dp3254
g70
I3
ssg71
g3248
sg64
(lp3255
g100
asbasbasbag57
(g73
g59
NtRp3256
(dp3257
g62
(dp3258
sg71
g2787
sg64
(lp3259
g57
(g78
g59
NtRp3260
(dp3261
g62
(dp3262
g82
g83
ssg71
g3256
sg64
(lp3263
S'wsgi.multithread'
p3264
asbag57
(g78
g59
NtRp3265
(dp3266
g62
(dp3267
g89
g90
ssg71
g3256
sg64
(lp3268
S':'
asbag57
(g78
g59
NtRp3269
(dp3270
g62
(dp3271
sg71
g3256
sg64
(lp3272
g57
(g58
g59
NtRp3273
(dp3274
g62
(dp3275
g70
I3
ssg71
g3269
sg64
(lp3276
g1933
asbasbasbag57
(g73
g59
NtRp3277
(dp3278
g62
(dp3279
sg71
g2787
sg64
(lp3280
g57
(g78
g59
NtRp3281
(dp3282
g62
(dp3283
g82
g83
ssg71
g3277
sg64
(lp3284
S'wsgi.run_once'
p3285
asbag57
(g78
g59
NtRp3286
(dp3287
g62
(dp3288
g89
g90
ssg71
g3277
sg64
(lp3289
S':'
asbag57
(g78
g59
NtRp3290
(dp3291
g62
(dp3292
sg71
g3277
sg64
(lp3293
g57
(g58
g59
NtRp3294
(dp3295
g62
(dp3296
g70
I3
ssg71
g3290
sg64
(lp3297
g100
asbasbasbag57
(g73
g59
NtRp3298
(dp3299
g62
(dp3300
sg71
g2787
sg64
(lp3301
g57
(g78
g59
NtRp3302
(dp3303
g62
(dp3304
g82
g83
ssg71
g3298
sg64
(lp3305
S'wsgi.url_scheme'
p3306
asbag57
(g78
g59
NtRp3307
(dp3308
g62
(dp3309
g89
g90
ssg71
g3298
sg64
(lp3310
S':'
asbag57
(g78
g59
NtRp3311
(dp3312
g62
(dp3313
sg71
g3298
sg64
(lp3314
g57
(g58
g59
NtRp3315
(dp3316
g62
(dp3317
g70
I3
ssg71
g3311
sg64
(lp3318
g1976
asbasbasbag57
(g73
g59
NtRp3319
(dp3320
g62
(dp3321
sg71
g2787
sg64
(lp3322
g57
(g78
g59
NtRp3323
(dp3324
g62
(dp3325
g82
g83
ssg71
g3319
sg64
(lp3326
S'wsgi.version'
p3327
asbag57
(g78
g59
NtRp3328
(dp3329
g62
(dp3330
g89
g90
ssg71
g3319
sg64
(lp3331
S':'
asbag57
(g78
g59
NtRp3332
(dp3333
g62
(dp3334
sg71
g3319
sg64
(lp3335
g57
(g58
g59
NtRp3336
(dp3337
g62
(dp3338
g70
I3
ssg71
g3332
sg64
(lp3339
S'1'
asbasbasbasbasbasbasbasbasbasbasbasbasbsS'frames'
p3340
(lp3341
(dp3342
S'file'
p3343
S'/home/nazrul/web2py/gluon/restricted.py'
p3344
sS'dump'
p3345
(dp3346
S'environment'
p3347
S"{'A': <class 'gluon.html.A'>, 'Auth': <class 'gluon.tools.Auth'>, 'B': <class 'gluon.html.B'>, 'BEAUTIFY': <class 'gluon.html.BEAUTIFY'>, 'BODY': <class 'gluon.html.BODY'>, 'BR': <class 'gluon.html.BR'>, 'BUTTON': <class 'gluon.html.BUTTON'>, 'CAT': <class 'gluon.html.CAT'>, 'CENTER': <class 'gluon.html.CENTER'>, 'CLEANUP': <class 'gluon.validators.CLEANUP'>, ...}"
p3348
sS'ccode'
p3349
S'<code object <module> at 0xab88e30, file "/home/...ations/WSD_Tool/controllers/default.py", line 11>'
p3350
ssS'lnum'
p3351
I212
sS'lines'
p3352
(dp3353
I207
S'    try:'
p3354
sI208
S'        if isinstance(code, types.CodeType):'
p3355
sI209
S'            ccode = code'
p3356
sI210
S'        else:'
p3357
sI211
S'            ccode = compile2(code, layer)'
p3358
sI212
S'        exec ccode in environment'
p3359
sI213
S'    except HTTP:'
p3360
sI214
S'        raise'
p3361
sI215
S'    except RestrictedError:'
p3362
sI216
S'        # do not encapsulate (obfuscate) the original RestrictedError'
p3363
ssS'call'
p3364
S"(code='# -*- coding: utf-8 -*-\\n# this file is released ... dict(v=v)\\n\\nresponse._vars=response._caller(rel)\\n', environment={'A': <class 'gluon.html.A'>, 'Auth': <class 'gluon.tools.Auth'>, 'B': <class 'gluon.html.B'>, 'BEAUTIFY': <class 'gluon.html.BEAUTIFY'>, 'BODY': <class 'gluon.html.BODY'>, 'BR': <class 'gluon.html.BR'>, 'BUTTON': <class 'gluon.html.BUTTON'>, 'CAT': <class 'gluon.html.CAT'>, 'CENTER': <class 'gluon.html.CENTER'>, 'CLEANUP': <class 'gluon.validators.CLEANUP'>, ...}, layer='/home/nazrul/web2py/applications/WSD_Tool/controllers/default.py')"
p3365
sS'func'
p3366
S'restricted'
p3367
sa(dp3368
g3343
S'/home/nazrul/web2py/applications/WSD_Tool/controllers/default.py'
p3369
sg3345
(dp3370
sg3351
I259
sg3352
(dp3371
I256
S'    v=db(db.auth_user).select()'
p3372
sI257
S'    return dict(v=v)'
p3373
sI248
S'       #os.system("Anusaaraka_stanford.sh  sample 0 True")'
p3374
sI249
S'       #f.close()'
p3375
sI250
S"       #f=open('$HOME_anu_tmp/tmp/sample_tmp/2.1/word.dat','r')"
p3376
sI251
S'       #a=f.read()'
p3377
sI252
S'       #f.close()'
p3378
sI253
S'       return dict(a=a)'
p3379
sI254
S''
sI255
S'def testt():'
p3380
ssg3364
S'()'
p3381
sg3366
S'<module>'
p3382
sa(dp3383
g3343
S'/home/nazrul/web2py/gluon/globals.py'
p3384
sg3345
(dp3385
S'self'
p3386
S'undefined'
p3387
sS'f'
S'<function rel>'
p3388
ssg3351
I193
sg3352
(dp3389
I192
S'        self._vars = None'
p3390
sI193
S'        self._caller = lambda f: f()'
p3391
sI194
S'        self._view_environment = None'
p3392
sI195
S'        self._custom_commit = None'
p3393
sI196
S'        self._custom_rollback = None'
p3394
sI197
S''
sI188
S'        self.menu = []             # used by the default view layout'
p3395
sI189
S'        self.files = []            # used by web2py_ajax.html'
p3396
sI190
S'        self.generic_patterns = []  # patterns to allow generic views'
p3397
sI191
S"        self.delimiters = ('{{', '}}')"
p3398
ssg3364
S'(f=<function rel>)'
p3399
sg3366
S'<lambda>'
p3400
sa(dp3401
g3343
S'/home/nazrul/web2py/applications/WSD_Tool/controllers/default.py'
p3402
sg3345
(dp3403
S'a'
g3387
sS'builtindict'
p3404
S"<type 'dict'>"
p3405
ssg3351
I253
sg3352
(dp3406
I256
S'    v=db(db.auth_user).select()'
p3407
sI257
S'    return dict(v=v)'
p3408
sI248
S'       #os.system("Anusaaraka_stanford.sh  sample 0 True")'
p3409
sI249
S'       #f.close()'
p3410
sI250
S"       #f=open('$HOME_anu_tmp/tmp/sample_tmp/2.1/word.dat','r')"
p3411
sI251
S'       #a=f.read()'
p3412
sI252
S'       #f.close()'
p3413
sI253
S'       return dict(a=a)'
p3414
sI254
S''
sI255
S'def testt():'
p3415
ssg3364
S'()'
p3416
sg3366
S'rel'
p3417
sasS'pyver'
p3418
S'Python 2.7.3: /usr/bin/python'
p3419
sS'session'
p3420
g57
(g58
g59
NtRp3421
(dp3422
g62
(dp3423
sg64
(lp3424
g57
(g66
g59
NtRp3425
(dp3426
g62
(dp3427
g70
I5
ssg71
Nsg64
(lp3428
g57
(g73
g59
NtRp3429
(dp3430
g62
(dp3431
sg71
g3425
sg64
(lp3432
g57
(g78
g59
NtRp3433
(dp3434
g62
(dp3435
g82
g83
ssg71
g3429
sg64
(lp3436
S'auth'
p3437
asbag57
(g78
g59
NtRp3438
(dp3439
g62
(dp3440
g89
g90
ssg71
g3429
sg64
(lp3441
S':'
asbag57
(g78
g59
NtRp3442
(dp3443
g62
(dp3444
sg71
g3429
sg64
(lp3445
g57
(g58
g59
NtRp3446
(dp3447
g62
(dp3448
g70
I5
ssg71
g3442
sg64
(lp3449
g57
(g66
g59
NtRp3450
(dp3451
g62
(dp3452
g70
I4
ssg71
Nsg64
(lp3453
g57
(g73
g59
NtRp3454
(dp3455
g62
(dp3456
sg71
g3450
sg64
(lp3457
g57
(g78
g59
NtRp3458
(dp3459
g62
(dp3460
g82
g83
ssg71
g3454
sg64
(lp3461
S'expiration'
p3462
asbag57
(g78
g59
NtRp3463
(dp3464
g62
(dp3465
g89
g90
ssg71
g3454
sg64
(lp3466
S':'
asbag57
(g78
g59
NtRp3467
(dp3468
g62
(dp3469
sg71
g3454
sg64
(lp3470
g57
(g58
g59
NtRp3471
(dp3472
g62
(dp3473
g70
I4
ssg71
g3467
sg64
(lp3474
S'3600'
p3475
asbasbasbag57
(g73
g59
NtRp3476
(dp3477
g62
(dp3478
sg71
g3450
sg64
(lp3479
g57
(g78
g59
NtRp3480
(dp3481
g62
(dp3482
g82
g83
ssg71
g3476
sg64
(lp3483
S'hmac_key'
p3484
asbag57
(g78
g59
NtRp3485
(dp3486
g62
(dp3487
g89
g90
ssg71
g3476
sg64
(lp3488
S':'
asbag57
(g78
g59
NtRp3489
(dp3490
g62
(dp3491
sg71
g3476
sg64
(lp3492
g57
(g58
g59
NtRp3493
(dp3494
g62
(dp3495
g70
I4
ssg71
g3489
sg64
(lp3496
S'8602439a-0584-4b9c-bb16-2c64975f2cc4'
p3497
asbasbasbag57
(g73
g59
NtRp3498
(dp3499
g62
(dp3500
sg71
g3450
sg64
(lp3501
g57
(g78
g59
NtRp3502
(dp3503
g62
(dp3504
g82
g83
ssg71
g3498
sg64
(lp3505
S'last_visit'
p3506
asbag57
(g78
g59
NtRp3507
(dp3508
g62
(dp3509
g89
g90
ssg71
g3498
sg64
(lp3510
S':'
asbag57
(g78
g59
NtRp3511
(dp3512
g62
(dp3513
sg71
g3498
sg64
(lp3514
g57
(g58
g59
NtRp3515
(dp3516
g62
(dp3517
g70
I4
ssg71
g3511
sg64
(lp3518
S'datetime.datetime(2013, 11, 9, 16, 35, 49, 319339)'
p3519
asbasbasbag57
(g73
g59
NtRp3520
(dp3521
g62
(dp3522
sg71
g3450
sg64
(lp3523
g57
(g78
g59
NtRp3524
(dp3525
g62
(dp3526
g82
g83
ssg71
g3520
sg64
(lp3527
S'remember'
p3528
asbag57
(g78
g59
NtRp3529
(dp3530
g62
(dp3531
g89
g90
ssg71
g3520
sg64
(lp3532
S':'
asbag57
(g78
g59
NtRp3533
(dp3534
g62
(dp3535
sg71
g3520
sg64
(lp3536
g57
(g58
g59
NtRp3537
(dp3538
g62
(dp3539
g70
I4
ssg71
g3533
sg64
(lp3540
g100
asbasbasbag57
(g73
g59
NtRp3541
(dp3542
g62
(dp3543
sg71
g3450
sg64
(lp3544
g57
(g78
g59
NtRp3545
(dp3546
g62
(dp3547
g82
g83
ssg71
g3541
sg64
(lp3548
S'user'
p3549
asbag57
(g78
g59
NtRp3550
(dp3551
g62
(dp3552
g89
g90
ssg71
g3541
sg64
(lp3553
S':'
asbag57
(g78
g59
NtRp3554
(dp3555
g62
(dp3556
sg71
g3541
sg64
(lp3557
g57
(g58
g59
NtRp3558
(dp3559
g62
(dp3560
g70
I4
ssg71
g3554
sg64
(lp3561
g57
(g66
g59
NtRp3562
(dp3563
g62
(dp3564
g70
I3
ssg71
Nsg64
(lp3565
g57
(g73
g59
NtRp3566
(dp3567
g62
(dp3568
sg71
g3562
sg64
(lp3569
g57
(g78
g59
NtRp3570
(dp3571
g62
(dp3572
g82
g83
ssg71
g3566
sg64
(lp3573
S'email'
p3574
asbag57
(g78
g59
NtRp3575
(dp3576
g62
(dp3577
g89
g90
ssg71
g3566
sg64
(lp3578
S':'
asbag57
(g78
g59
NtRp3579
(dp3580
g62
(dp3581
sg71
g3566
sg64
(lp3582
g57
(g58
g59
NtRp3583
(dp3584
g62
(dp3585
g70
I3
ssg71
g3579
sg64
(lp3586
S'user@sys.com'
p3587
asbasbasbag57
(g73
g59
NtRp3588
(dp3589
g62
(dp3590
sg71
g3562
sg64
(lp3591
g57
(g78
g59
NtRp3592
(dp3593
g62
(dp3594
g82
g83
ssg71
g3588
sg64
(lp3595
S'first_name'
p3596
asbag57
(g78
g59
NtRp3597
(dp3598
g62
(dp3599
g89
g90
ssg71
g3588
sg64
(lp3600
S':'
asbag57
(g78
g59
NtRp3601
(dp3602
g62
(dp3603
sg71
g3588
sg64
(lp3604
g57
(g58
g59
NtRp3605
(dp3606
g62
(dp3607
g70
I3
ssg71
g3601
sg64
(lp3608
S'user'
p3609
asbasbasbag57
(g73
g59
NtRp3610
(dp3611
g62
(dp3612
sg71
g3562
sg64
(lp3613
g57
(g78
g59
NtRp3614
(dp3615
g62
(dp3616
g82
g83
ssg71
g3610
sg64
(lp3617
S'id'
p3618
asbag57
(g78
g59
NtRp3619
(dp3620
g62
(dp3621
g89
g90
ssg71
g3610
sg64
(lp3622
S':'
asbag57
(g78
g59
NtRp3623
(dp3624
g62
(dp3625
sg71
g3610
sg64
(lp3626
g57
(g58
g59
NtRp3627
(dp3628
g62
(dp3629
g70
I3
ssg71
g3623
sg64
(lp3630
S'7'
asbasbasbag57
(g73
g59
NtRp3631
(dp3632
g62
(dp3633
sg71
g3562
sg64
(lp3634
g57
(g78
g59
NtRp3635
(dp3636
g62
(dp3637
g82
g83
ssg71
g3631
sg64
(lp3638
S'last_name'
p3639
asbag57
(g78
g59
NtRp3640
(dp3641
g62
(dp3642
g89
g90
ssg71
g3631
sg64
(lp3643
S':'
asbag57
(g78
g59
NtRp3644
(dp3645
g62
(dp3646
sg71
g3631
sg64
(lp3647
g57
(g58
g59
NtRp3648
(dp3649
g62
(dp3650
g70
I3
ssg71
g3644
sg64
(lp3651
S'user'
p3652
asbasbasbag57
(g73
g59
NtRp3653
(dp3654
g62
(dp3655
sg71
g3562
sg64
(lp3656
g57
(g78
g59
NtRp3657
(dp3658
g62
(dp3659
g82
g83
ssg71
g3653
sg64
(lp3660
S'registration_id'
p3661
asbag57
(g78
g59
NtRp3662
(dp3663
g62
(dp3664
g89
g90
ssg71
g3653
sg64
(lp3665
S':'
asbag57
(g78
g59
NtRp3666
(dp3667
g62
(dp3668
sg71
g3653
sg64
(lp3669
g57
(g58
g59
NtRp3670
(dp3671
g62
(dp3672
g70
I3
ssg71
g3666
sg64
(lp3673
S''
asbasbasbag57
(g73
g59
NtRp3674
(dp3675
g62
(dp3676
sg71
g3562
sg64
(lp3677
g57
(g78
g59
NtRp3678
(dp3679
g62
(dp3680
g82
g83
ssg71
g3674
sg64
(lp3681
S'registration_key'
p3682
asbag57
(g78
g59
NtRp3683
(dp3684
g62
(dp3685
g89
g90
ssg71
g3674
sg64
(lp3686
S':'
asbag57
(g78
g59
NtRp3687
(dp3688
g62
(dp3689
sg71
g3674
sg64
(lp3690
g57
(g58
g59
NtRp3691
(dp3692
g62
(dp3693
g70
I3
ssg71
g3687
sg64
(lp3694
S''
asbasbasbag57
(g73
g59
NtRp3695
(dp3696
g62
(dp3697
sg71
g3562
sg64
(lp3698
g57
(g78
g59
NtRp3699
(dp3700
g62
(dp3701
g82
g83
ssg71
g3695
sg64
(lp3702
S'reset_password_key'
p3703
asbag57
(g78
g59
NtRp3704
(dp3705
g62
(dp3706
g89
g90
ssg71
g3695
sg64
(lp3707
S':'
asbag57
(g78
g59
NtRp3708
(dp3709
g62
(dp3710
sg71
g3695
sg64
(lp3711
g57
(g58
g59
NtRp3712
(dp3713
g62
(dp3714
g70
I3
ssg71
g3708
sg64
(lp3715
S''
asbasbasbasbasbasbasbag57
(g73
g59
NtRp3716
(dp3717
g62
(dp3718
sg71
g3450
sg64
(lp3719
g57
(g78
g59
NtRp3720
(dp3721
g62
(dp3722
g82
g83
ssg71
g3716
sg64
(lp3723
S'user_groups'
p3724
asbag57
(g78
g59
NtRp3725
(dp3726
g62
(dp3727
g89
g90
ssg71
g3716
sg64
(lp3728
S':'
asbag57
(g78
g59
NtRp3729
(dp3730
g62
(dp3731
sg71
g3716
sg64
(lp3732
g57
(g58
g59
NtRp3733
(dp3734
g62
(dp3735
g70
I4
ssg71
g3729
sg64
(lp3736
g57
(g66
g59
NtRp3737
(dp3738
g62
(dp3739
g70
I3
ssg71
Nsg64
(lp3740
sbasbasbasbasbasbasbasbag57
(g73
g59
NtRp3741
(dp3742
g62
(dp3743
sg71
g3425
sg64
(lp3744
g57
(g78
g59
NtRp3745
(dp3746
g62
(dp3747
g82
g83
ssg71
g3741
sg64
(lp3748
S'flash'
p3749
asbag57
(g78
g59
NtRp3750
(dp3751
g62
(dp3752
g89
g90
ssg71
g3741
sg64
(lp3753
S':'
asbag57
(g78
g59
NtRp3754
(dp3755
g62
(dp3756
sg71
g3741
sg64
(lp3757
g57
(g58
g59
NtRp3758
(dp3759
g62
(dp3760
g70
I5
ssg71
g3754
sg64
(lp3761
S'None'
p3762
asbasbasbag57
(g73
g59
NtRp3763
(dp3764
g62
(dp3765
sg71
g3425
sg64
(lp3766
g57
(g78
g59
NtRp3767
(dp3768
g62
(dp3769
g82
g83
ssg71
g3763
sg64
(lp3770
S'ide'
p3771
asbag57
(g78
g59
NtRp3772
(dp3773
g62
(dp3774
g89
g90
ssg71
g3763
sg64
(lp3775
S':'
asbag57
(g78
g59
NtRp3776
(dp3777
g62
(dp3778
sg71
g3763
sg64
(lp3779
g57
(g58
g59
NtRp3780
(dp3781
g62
(dp3782
g70
I5
ssg71
g3776
sg64
(lp3783
S'10'
p3784
asbasbasbag57
(g73
g59
NtRp3785
(dp3786
g62
(dp3787
sg71
g3425
sg64
(lp3788
g57
(g78
g59
NtRp3789
(dp3790
g62
(dp3791
g82
g83
ssg71
g3785
sg64
(lp3792
S'last_orderby'
p3793
asbag57
(g78
g59
NtRp3794
(dp3795
g62
(dp3796
g89
g90
ssg71
g3785
sg64
(lp3797
S':'
asbag57
(g78
g59
NtRp3798
(dp3799
g62
(dp3800
sg71
g3785
sg64
(lp3801
g57
(g58
g59
NtRp3802
(dp3803
g62
(dp3804
g70
I5
ssg71
g3798
sg64
(lp3805
S'None'
p3806
asbasbasbag57
(g73
g59
NtRp3807
(dp3808
g62
(dp3809
sg71
g3425
sg64
(lp3810
g57
(g78
g59
NtRp3811
(dp3812
g62
(dp3813
g82
g83
ssg71
g3807
sg64
(lp3814
S'last_query'
p3815
asbag57
(g78
g59
NtRp3816
(dp3817
g62
(dp3818
g89
g90
ssg71
g3807
sg64
(lp3819
S':'
asbag57
(g78
g59
NtRp3820
(dp3821
g62
(dp3822
sg71
g3807
sg64
(lp3823
g57
(g58
g59
NtRp3824
(dp3825
g62
(dp3826
g70
I5
ssg71
g3820
sg64
(lp3827
S'db.rules.id>0'
p3828
asbasbasbag57
(g73
g59
NtRp3829
(dp3830
g62
(dp3831
sg71
g3425
sg64
(lp3832
g57
(g78
g59
NtRp3833
(dp3834
g62
(dp3835
g82
g83
ssg71
g3829
sg64
(lp3836
S'sid'
p3837
asbag57
(g78
g59
NtRp3838
(dp3839
g62
(dp3840
g89
g90
ssg71
g3829
sg64
(lp3841
S':'
asbag57
(g78
g59
NtRp3842
(dp3843
g62
(dp3844
sg71
g3829
sg64
(lp3845
g57
(g58
g59
NtRp3846
(dp3847
g62
(dp3848
g70
I5
ssg71
g3842
sg64
(lp3849
S'11'
p3850
asbasbasbag57
(g73
g59
NtRp3851
(dp3852
g62
(dp3853
sg71
g3425
sg64
(lp3854
g57
(g78
g59
NtRp3855
(dp3856
g62
(dp3857
g82
g83
ssg71
g3851
sg64
(lp3858
S'word'
p3859
asbag57
(g78
g59
NtRp3860
(dp3861
g62
(dp3862
g89
g90
ssg71
g3851
sg64
(lp3863
S':'
asbag57
(g78
g59
NtRp3864
(dp3865
g62
(dp3866
sg71
g3851
sg64
(lp3867
g57
(g58
g59
NtRp3868
(dp3869
g62
(dp3870
g70
I5
ssg71
g3864
sg64
(lp3871
S'product'
p3872
asbasbasbasbasbsS'etype'
p3873
S"<type 'exceptions.NameError'>"
p3874
sS'date'
p3875
S'Sat Nov  9 16:35:49 2013'
p3876
sS'response'
p3877
g57
(g58
g59
NtRp3878
(dp3879
g62
(dp3880
sg64
(lp3881
g57
(g66
g59
NtRp3882
(dp3883
g62
(dp3884
g70
I5
ssg71
Nsg64
(lp3885
g57
(g73
g59
NtRp3886
(dp3887
g62
(dp3888
sg71
g3882
sg64
(lp3889
g57
(g78
g59
NtRp3890
(dp3891
g62
(dp3892
g82
g83
ssg71
g3886
sg64
(lp3893
g155
asbag57
(g78
g59
NtRp3894
(dp3895
g62
(dp3896
g89
g90
ssg71
g3886
sg64
(lp3897
S':'
asbag57
(g78
g59
NtRp3898
(dp3899
g62
(dp3900
sg71
g3886
sg64
(lp3901
g57
(g58
g59
NtRp3902
(dp3903
g62
(dp3904
g70
I5
ssg71
g3898
sg64
(lp3905
S'<cStringIO.StringO object at 0xad9e8a60>'
p3906
asbasbasbag57
(g73
g59
NtRp3907
(dp3908
g62
(dp3909
sg71
g3882
sg64
(lp3910
g57
(g78
g59
NtRp3911
(dp3912
g62
(dp3913
g82
g83
ssg71
g3907
sg64
(lp3914
g243
asbag57
(g78
g59
NtRp3915
(dp3916
g62
(dp3917
g89
g90
ssg71
g3907
sg64
(lp3918
S':'
asbag57
(g78
g59
NtRp3919
(dp3920
g62
(dp3921
sg71
g3907
sg64
(lp3922
g57
(g58
g59
NtRp3923
(dp3924
g62
(dp3925
g70
I5
ssg71
g3919
sg64
(lp3926
g57
(g66
g59
NtRp3927
(dp3928
g62
(dp3929
g70
I4
ssg71
Nsg64
(lp3930
g57
(g73
g59
NtRp3931
(dp3932
g62
(dp3933
sg71
g3927
sg64
(lp3934
g57
(g78
g59
NtRp3935
(dp3936
g62
(dp3937
g82
g83
ssg71
g3931
sg64
(lp3938
S'session_id_wsd_tool'
p3939
asbag57
(g78
g59
NtRp3940
(dp3941
g62
(dp3942
g89
g90
ssg71
g3931
sg64
(lp3943
S':'
asbag57
(g78
g59
NtRp3944
(dp3945
g62
(dp3946
sg71
g3931
sg64
(lp3947
g57
(g58
g59
NtRp3948
(dp3949
g62
(dp3950
g70
I4
ssg71
g3944
sg64
(lp3951
g847
ag57
(g66
g59
NtRp3952
(dp3953
g62
(dp3954
g70
I3
ssg71
Nsg64
(lp3955
g57
(g73
g59
NtRp3956
(dp3957
g62
(dp3958
sg71
g3952
sg64
(lp3959
g57
(g78
g59
NtRp3960
(dp3961
g62
(dp3962
g82
g83
ssg71
g3956
sg64
(lp3963
g294
asbag57
(g78
g59
NtRp3964
(dp3965
g62
(dp3966
g89
g90
ssg71
g3956
sg64
(lp3967
S':'
asbag57
(g78
g59
NtRp3968
(dp3969
g62
(dp3970
sg71
g3956
sg64
(lp3971
g57
(g58
g59
NtRp3972
(dp3973
g62
(dp3974
g70
I3
ssg71
g3968
sg64
(lp3975
S''
asbasbasbag57
(g73
g59
NtRp3976
(dp3977
g62
(dp3978
sg71
g3952
sg64
(lp3979
g57
(g78
g59
NtRp3980
(dp3981
g62
(dp3982
g82
g83
ssg71
g3976
sg64
(lp3983
g315
asbag57
(g78
g59
NtRp3984
(dp3985
g62
(dp3986
g89
g90
ssg71
g3976
sg64
(lp3987
S':'
asbag57
(g78
g59
NtRp3988
(dp3989
g62
(dp3990
sg71
g3976
sg64
(lp3991
g57
(g58
g59
NtRp3992
(dp3993
g62
(dp3994
g70
I3
ssg71
g3988
sg64
(lp3995
S''
asbasbasbag57
(g73
g59
NtRp3996
(dp3997
g62
(dp3998
sg71
g3952
sg64
(lp3999
g57
(g78
g59
NtRp4000
(dp4001
g62
(dp4002
g82
g83
ssg71
g3996
sg64
(lp4003
g336
asbag57
(g78
g59
NtRp4004
(dp4005
g62
(dp4006
g89
g90
ssg71
g3996
sg64
(lp4007
S':'
asbag57
(g78
g59
NtRp4008
(dp4009
g62
(dp4010
sg71
g3996
sg64
(lp4011
g57
(g58
g59
NtRp4012
(dp4013
g62
(dp4014
g70
I3
ssg71
g4008
sg64
(lp4015
S''
asbasbasbag57
(g73
g59
NtRp4016
(dp4017
g62
(dp4018
sg71
g3952
sg64
(lp4019
g57
(g78
g59
NtRp4020
(dp4021
g62
(dp4022
g82
g83
ssg71
g4016
sg64
(lp4023
g357
asbag57
(g78
g59
NtRp4024
(dp4025
g62
(dp4026
g89
g90
ssg71
g4016
sg64
(lp4027
S':'
asbag57
(g78
g59
NtRp4028
(dp4029
g62
(dp4030
sg71
g4016
sg64
(lp4031
g57
(g58
g59
NtRp4032
(dp4033
g62
(dp4034
g70
I3
ssg71
g4028
sg64
(lp4035
S''
asbasbasbag57
(g73
g59
NtRp4036
(dp4037
g62
(dp4038
sg71
g3952
sg64
(lp4039
g57
(g78
g59
NtRp4040
(dp4041
g62
(dp4042
g82
g83
ssg71
g4036
sg64
(lp4043
g378
asbag57
(g78
g59
NtRp4044
(dp4045
g62
(dp4046
g89
g90
ssg71
g4036
sg64
(lp4047
S':'
asbag57
(g78
g59
NtRp4048
(dp4049
g62
(dp4050
sg71
g4036
sg64
(lp4051
g57
(g58
g59
NtRp4052
(dp4053
g62
(dp4054
g70
I3
ssg71
g4048
sg64
(lp4055
S''
asbasbasbag57
(g73
g59
NtRp4056
(dp4057
g62
(dp4058
sg71
g3952
sg64
(lp4059
g57
(g78
g59
NtRp4060
(dp4061
g62
(dp4062
g82
g83
ssg71
g4056
sg64
(lp4063
g399
asbag57
(g78
g59
NtRp4064
(dp4065
g62
(dp4066
g89
g90
ssg71
g4056
sg64
(lp4067
S':'
asbag57
(g78
g59
NtRp4068
(dp4069
g62
(dp4070
sg71
g4056
sg64
(lp4071
g57
(g58
g59
NtRp4072
(dp4073
g62
(dp4074
g70
I3
ssg71
g4068
sg64
(lp4075
S'/'
asbasbasbag57
(g73
g59
NtRp4076
(dp4077
g62
(dp4078
sg71
g3952
sg64
(lp4079
g57
(g78
g59
NtRp4080
(dp4081
g62
(dp4082
g82
g83
ssg71
g4076
sg64
(lp4083
g420
asbag57
(g78
g59
NtRp4084
(dp4085
g62
(dp4086
g89
g90
ssg71
g4076
sg64
(lp4087
S':'
asbag57
(g78
g59
NtRp4088
(dp4089
g62
(dp4090
sg71
g4076
sg64
(lp4091
g57
(g58
g59
NtRp4092
(dp4093
g62
(dp4094
g70
I3
ssg71
g4088
sg64
(lp4095
S''
asbasbasbag57
(g73
g59
NtRp4096
(dp4097
g62
(dp4098
sg71
g3952
sg64
(lp4099
g57
(g78
g59
NtRp4100
(dp4101
g62
(dp4102
g82
g83
ssg71
g4096
sg64
(lp4103
g441
asbag57
(g78
g59
NtRp4104
(dp4105
g62
(dp4106
g89
g90
ssg71
g4096
sg64
(lp4107
S':'
asbag57
(g78
g59
NtRp4108
(dp4109
g62
(dp4110
sg71
g4096
sg64
(lp4111
g57
(g58
g59
NtRp4112
(dp4113
g62
(dp4114
g70
I3
ssg71
g4108
sg64
(lp4115
S''
asbasbasbasbasbasbasbasbasbasbasbag57
(g73
g59
NtRp4116
(dp4117
g62
(dp4118
sg71
g3882
sg64
(lp4119
g57
(g78
g59
NtRp4120
(dp4121
g62
(dp4122
g82
g83
ssg71
g4116
sg64
(lp4123
S'delimiters'
p4124
asbag57
(g78
g59
NtRp4125
(dp4126
g62
(dp4127
g89
g90
ssg71
g4116
sg64
(lp4128
S':'
asbag57
(g78
g59
NtRp4129
(dp4130
g62
(dp4131
sg71
g4116
sg64
(lp4132
g57
(g58
g59
NtRp4133
(dp4134
g62
(dp4135
g70
I5
ssg71
g4129
sg64
(lp4136
g57
(g66
g59
NtRp4137
(dp4138
g62
(dp4139
g70
I4
ssg71
Nsg64
(lp4140
g57
(g73
g59
NtRp4141
(dp4142
g62
(dp4143
sg71
g4137
sg64
(lp4144
g57
(g78
g59
NtRp4145
(dp4146
g62
(dp4147
sg71
g4141
sg64
(lp4148
g57
(g58
g59
NtRp4149
(dp4150
g62
(dp4151
g70
I4
ssg71
g4145
sg64
(lp4152
S'{{'
p4153
asbasbasbag57
(g73
g59
NtRp4154
(dp4155
g62
(dp4156
sg71
g4137
sg64
(lp4157
g57
(g78
g59
NtRp4158
(dp4159
g62
(dp4160
sg71
g4154
sg64
(lp4161
g57
(g58
g59
NtRp4162
(dp4163
g62
(dp4164
g70
I4
ssg71
g4158
sg64
(lp4165
S'}}'
p4166
asbasbasbasbasbasbasbag57
(g73
g59
NtRp4167
(dp4168
g62
(dp4169
sg71
g3882
sg64
(lp4170
g57
(g78
g59
NtRp4171
(dp4172
g62
(dp4173
g82
g83
ssg71
g4167
sg64
(lp4174
S'files'
p4175
asbag57
(g78
g59
NtRp4176
(dp4177
g62
(dp4178
g89
g90
ssg71
g4167
sg64
(lp4179
S':'
asbag57
(g78
g59
NtRp4180
(dp4181
g62
(dp4182
sg71
g4167
sg64
(lp4183
g57
(g58
g59
NtRp4184
(dp4185
g62
(dp4186
g70
I5
ssg71
g4180
sg64
(lp4187
g57
(g66
g59
NtRp4188
(dp4189
g62
(dp4190
g70
I4
ssg71
Nsg64
(lp4191
sbasbasbasbag57
(g73
g59
NtRp4192
(dp4193
g62
(dp4194
sg71
g3882
sg64
(lp4195
g57
(g78
g59
NtRp4196
(dp4197
g62
(dp4198
g82
g83
ssg71
g4192
sg64
(lp4199
S'flash'
p4200
asbag57
(g78
g59
NtRp4201
(dp4202
g62
(dp4203
g89
g90
ssg71
g4192
sg64
(lp4204
S':'
asbag57
(g78
g59
NtRp4205
(dp4206
g62
(dp4207
sg71
g4192
sg64
(lp4208
g57
(g58
g59
NtRp4209
(dp4210
g62
(dp4211
g70
I5
ssg71
g4205
sg64
(lp4212
S''
asbasbasbag57
(g73
g59
NtRp4213
(dp4214
g62
(dp4215
sg71
g3882
sg64
(lp4216
g57
(g78
g59
NtRp4217
(dp4218
g62
(dp4219
g82
g83
ssg71
g4213
sg64
(lp4220
S'generic_patterns'
p4221
asbag57
(g78
g59
NtRp4222
(dp4223
g62
(dp4224
g89
g90
ssg71
g4213
sg64
(lp4225
S':'
asbag57
(g78
g59
NtRp4226
(dp4227
g62
(dp4228
sg71
g4213
sg64
(lp4229
g57
(g58
g59
NtRp4230
(dp4231
g62
(dp4232
g70
I5
ssg71
g4226
sg64
(lp4233
g57
(g66
g59
NtRp4234
(dp4235
g62
(dp4236
g70
I4
ssg71
Nsg64
(lp4237
g57
(g73
g59
NtRp4238
(dp4239
g62
(dp4240
sg71
g4234
sg64
(lp4241
g57
(g78
g59
NtRp4242
(dp4243
g62
(dp4244
sg71
g4238
sg64
(lp4245
g57
(g58
g59
NtRp4246
(dp4247
g62
(dp4248
g70
I4
ssg71
g4242
sg64
(lp4249
S'*'
asbasbasbasbasbasbasbag57
(g73
g59
NtRp4250
(dp4251
g62
(dp4252
sg71
g3882
sg64
(lp4253
g57
(g78
g59
NtRp4254
(dp4255
g62
(dp4256
g82
g83
ssg71
g4250
sg64
(lp4257
S'google_analytics_id'
p4258
asbag57
(g78
g59
NtRp4259
(dp4260
g62
(dp4261
g89
g90
ssg71
g4250
sg64
(lp4262
S':'
asbag57
(g78
g59
NtRp4263
(dp4264
g62
(dp4265
sg71
g4250
sg64
(lp4266
g57
(g58
g59
NtRp4267
(dp4268
g62
(dp4269
g70
I5
ssg71
g4263
sg64
(lp4270
S'None'
p4271
asbasbasbag57
(g73
g59
NtRp4272
(dp4273
g62
(dp4274
sg71
g3882
sg64
(lp4275
g57
(g78
g59
NtRp4276
(dp4277
g62
(dp4278
g82
g83
ssg71
g4272
sg64
(lp4279
S'headers'
p4280
asbag57
(g78
g59
NtRp4281
(dp4282
g62
(dp4283
g89
g90
ssg71
g4272
sg64
(lp4284
S':'
asbag57
(g78
g59
NtRp4285
(dp4286
g62
(dp4287
sg71
g4272
sg64
(lp4288
g57
(g58
g59
NtRp4289
(dp4290
g62
(dp4291
g70
I5
ssg71
g4285
sg64
(lp4292
g57
(g66
g59
NtRp4293
(dp4294
g62
(dp4295
g70
I4
ssg71
Nsg64
(lp4296
g57
(g73
g59
NtRp4297
(dp4298
g62
(dp4299
sg71
g4293
sg64
(lp4300
g57
(g78
g59
NtRp4301
(dp4302
g62
(dp4303
g82
g83
ssg71
g4297
sg64
(lp4304
S'X-Powered-By'
p4305
asbag57
(g78
g59
NtRp4306
(dp4307
g62
(dp4308
g89
g90
ssg71
g4297
sg64
(lp4309
S':'
asbag57
(g78
g59
NtRp4310
(dp4311
g62
(dp4312
sg71
g4297
sg64
(lp4313
g57
(g58
g59
NtRp4314
(dp4315
g62
(dp4316
g70
I4
ssg71
g4310
sg64
(lp4317
S'web2py'
p4318
asbasbasbasbasbasbasbag57
(g73
g59
NtRp4319
(dp4320
g62
(dp4321
sg71
g3882
sg64
(lp4322
g57
(g78
g59
NtRp4323
(dp4324
g62
(dp4325
g82
g83
ssg71
g4319
sg64
(lp4326
S'menu'
p4327
asbag57
(g78
g59
NtRp4328
(dp4329
g62
(dp4330
g89
g90
ssg71
g4319
sg64
(lp4331
S':'
asbag57
(g78
g59
NtRp4332
(dp4333
g62
(dp4334
sg71
g4319
sg64
(lp4335
g57
(g58
g59
NtRp4336
(dp4337
g62
(dp4338
g70
I5
ssg71
g4332
sg64
(lp4339
g57
(g66
g59
NtRp4340
(dp4341
g62
(dp4342
g70
I4
ssg71
Nsg64
(lp4343
g57
(g73
g59
NtRp4344
(dp4345
g62
(dp4346
sg71
g4340
sg64
(lp4347
g57
(g78
g59
NtRp4348
(dp4349
g62
(dp4350
sg71
g4344
sg64
(lp4351
g57
(g58
g59
NtRp4352
(dp4353
g62
(dp4354
g70
I4
ssg71
g4348
sg64
(lp4355
g57
(g66
g59
NtRp4356
(dp4357
g62
(dp4358
g70
I3
ssg71
Nsg64
(lp4359
g57
(g73
g59
NtRp4360
(dp4361
g62
(dp4362
sg71
g4356
sg64
(lp4363
g57
(g78
g59
NtRp4364
(dp4365
g62
(dp4366
sg71
g4360
sg64
(lp4367
g57
(g58
g59
NtRp4368
(dp4369
g62
(dp4370
g70
I3
ssg71
g4364
sg64
(lp4371
cgluon.languages
lazyT_unpickle
p4372
(S't\x04\x00\x00\x00Home'
tRp4373
asbasbasbag57
(g73
g59
NtRp4374
(dp4375
g62
(dp4376
sg71
g4356
sg64
(lp4377
g57
(g78
g59
NtRp4378
(dp4379
g62
(dp4380
sg71
g4374
sg64
(lp4381
g57
(g58
g59
NtRp4382
(dp4383
g62
(dp4384
g70
I3
ssg71
g4378
sg64
(lp4385
g100
asbasbasbag57
(g73
g59
NtRp4386
(dp4387
g62
(dp4388
sg71
g4356
sg64
(lp4389
g57
(g78
g59
NtRp4390
(dp4391
g62
(dp4392
sg71
g4386
sg64
(lp4393
g57
(g58
g59
NtRp4394
(dp4395
g62
(dp4396
g70
I3
ssg71
g4390
sg64
(lp4397
S'/WSD_Tool/default/index'
p4398
asbasbasbag57
(g73
g59
NtRp4399
(dp4400
g62
(dp4401
sg71
g4356
sg64
(lp4402
g57
(g78
g59
NtRp4403
(dp4404
g62
(dp4405
sg71
g4399
sg64
(lp4406
g57
(g58
g59
NtRp4407
(dp4408
g62
(dp4409
g70
I3
ssg71
g4403
sg64
(lp4410
g57
(g66
g59
NtRp4411
(dp4412
g62
(dp4413
g70
I2
ssg71
Nsg64
(lp4414
sbasbasbasbasbasbasbasbag57
(g73
g59
NtRp4415
(dp4416
g62
(dp4417
sg71
g4340
sg64
(lp4418
g57
(g78
g59
NtRp4419
(dp4420
g62
(dp4421
sg71
g4415
sg64
(lp4422
g57
(g58
g59
NtRp4423
(dp4424
g62
(dp4425
g70
I4
ssg71
g4419
sg64
(lp4426
g57
(g66
g59
NtRp4427
(dp4428
g62
(dp4429
g70
I3
ssg71
Nsg64
(lp4430
g57
(g73
g59
NtRp4431
(dp4432
g62
(dp4433
sg71
g4427
sg64
(lp4434
g57
(g78
g59
NtRp4435
(dp4436
g62
(dp4437
sg71
g4431
sg64
(lp4438
g57
(g58
g59
NtRp4439
(dp4440
g62
(dp4441
g70
I3
ssg71
g4435
sg64
(lp4442
g57
(cgluon.html
SPAN
p4443
g59
NtRp4444
(dp4445
g62
(dp4446
g82
S'color:yellow'
p4447
ssg71
Nsg64
(lp4448
g4318
asbasbasbasbag57
(g73
g59
NtRp4449
(dp4450
g62
(dp4451
sg71
g4427
sg64
(lp4452
g57
(g78
g59
NtRp4453
(dp4454
g62
(dp4455
sg71
g4449
sg64
(lp4456
g57
(g58
g59
NtRp4457
(dp4458
g62
(dp4459
g70
I3
ssg71
g4453
sg64
(lp4460
g100
asbasbasbag57
(g73
g59
NtRp4461
(dp4462
g62
(dp4463
sg71
g4427
sg64
(lp4464
g57
(g78
g59
NtRp4465
(dp4466
g62
(dp4467
sg71
g4461
sg64
(lp4468
g57
(g58
g59
NtRp4469
(dp4470
g62
(dp4471
g70
I3
ssg71
g4465
sg64
(lp4472
S'None'
p4473
asbasbasbag57
(g73
g59
NtRp4474
(dp4475
g62
(dp4476
sg71
g4427
sg64
(lp4477
g57
(g78
g59
NtRp4478
(dp4479
g62
(dp4480
sg71
g4474
sg64
(lp4481
g57
(g58
g59
NtRp4482
(dp4483
g62
(dp4484
g70
I3
ssg71
g4478
sg64
(lp4485
g57
(g66
g59
NtRp4486
(dp4487
g62
(dp4488
g70
I2
ssg71
Nsg64
(lp4489
g57
(g73
g59
NtRp4490
(dp4491
g62
(dp4492
sg71
g4486
sg64
(lp4493
g57
(g78
g59
NtRp4494
(dp4495
g62
(dp4496
sg71
g4490
sg64
(lp4497
g57
(g58
g59
NtRp4498
(dp4499
g62
(dp4500
g70
I2
ssg71
g4494
sg64
(lp4501
g57
(g66
g59
NtRp4502
(dp4503
g62
(dp4504
g70
I1
ssg71
Nsg64
(lp4505
g57
(g73
g59
NtRp4506
(dp4507
g62
(dp4508
sg71
g4502
sg64
(lp4509
g57
(g78
g59
NtRp4510
(dp4511
g62
(dp4512
sg71
g4506
sg64
(lp4513
g57
(g58
g59
NtRp4514
(dp4515
g62
(dp4516
g70
I1
ssg71
g4510
sg64
(lp4517
g4372
(S's\x08\x00\x00\x00My Sites'
tRp4518
asbasbasbag57
(g73
g59
NtRp4519
(dp4520
g62
(dp4521
sg71
g4502
sg64
(lp4522
g57
(g78
g59
NtRp4523
(dp4524
g62
(dp4525
sg71
g4519
sg64
(lp4526
g57
(g58
g59
NtRp4527
(dp4528
g62
(dp4529
g70
I1
ssg71
g4523
sg64
(lp4530
I00
asbasbasbag57
(g73
g59
NtRp4531
(dp4532
g62
(dp4533
sg71
g4502
sg64
(lp4534
g57
(g78
g59
NtRp4535
(dp4536
g62
(dp4537
sg71
g4531
sg64
(lp4538
g57
(g58
g59
NtRp4539
(dp4540
g62
(dp4541
g70
I1
ssg71
g4535
sg64
(lp4542
S'/admin/default/site'
p4543
asbasbasbasbasbasbasbag57
(g73
g59
NtRp4544
(dp4545
g62
(dp4546
sg71
g4486
sg64
(lp4547
g57
(g78
g59
NtRp4548
(dp4549
g62
(dp4550
sg71
g4544
sg64
(lp4551
g57
(g58
g59
NtRp4552
(dp4553
g62
(dp4554
g70
I2
ssg71
g4548
sg64
(lp4555
g57
(g66
g59
NtRp4556
(dp4557
g62
(dp4558
g70
I1
ssg71
Nsg64
(lp4559
g57
(g73
g59
NtRp4560
(dp4561
g62
(dp4562
sg71
g4556
sg64
(lp4563
g57
(g78
g59
NtRp4564
(dp4565
g62
(dp4566
sg71
g4560
sg64
(lp4567
g57
(g58
g59
NtRp4568
(dp4569
g62
(dp4570
g70
I1
ssg71
g4564
sg64
(lp4571
g4372
(S's\x08\x00\x00\x00This App'
tRp4572
asbasbasbag57
(g73
g59
NtRp4573
(dp4574
g62
(dp4575
sg71
g4556
sg64
(lp4576
g57
(g78
g59
NtRp4577
(dp4578
g62
(dp4579
sg71
g4573
sg64
(lp4580
g57
(g58
g59
NtRp4581
(dp4582
g62
(dp4583
g70
I1
ssg71
g4577
sg64
(lp4584
I00
asbasbasbag57
(g73
g59
NtRp4585
(dp4586
g62
(dp4587
sg71
g4556
sg64
(lp4588
g57
(g78
g59
NtRp4589
(dp4590
g62
(dp4591
sg71
g4585
sg64
(lp4592
g57
(g58
g59
NtRp4593
(dp4594
g62
(dp4595
g70
I1
ssg71
g4589
sg64
(lp4596
S'/admin/default/design/WSD_Tool'
p4597
asbasbasbag57
(g73
g59
NtRp4598
(dp4599
g62
(dp4600
sg71
g4556
sg64
(lp4601
g57
(g78
g59
NtRp4602
(dp4603
g62
(dp4604
sg71
g4598
sg64
(lp4605
g57
(g58
g59
NtRp4606
(dp4607
g62
(dp4608
g70
I1
ssg71
g4602
sg64
(lp4609
(lp4610
(g4372
(S't\n\x00\x00\x00Controller'
tRp4611
I00
S'/admin/default/edit/WSD_Tool/controllers/default.py'
tp4612
a(g4372
(S't\x04\x00\x00\x00View'
tRp4613
I00
S'/admin/default/edit/WSD_Tool/views/default/rel.html'
tp4614
a(g4372
(S't\x06\x00\x00\x00Layout'
tRp4615
I00
S'/admin/default/edit/WSD_Tool/views/layout.html'
tp4616
a(g4372
(S't\n\x00\x00\x00Stylesheet'
tRp4617
I00
S'/admin/default/edit/WSD_Tool/static/css/web2py.css'
tp4618
a(g4372
(S's\x08\x00\x00\x00DB Model'
tRp4619
I00
S'/admin/default/edit/WSD_Tool/models/db.py'
tp4620
a(g4372
(S's\n\x00\x00\x00Menu Model'
tRp4621
I00
S'/admin/default/edit/WSD_Tool/models/menu.py'
tp4622
a(g4372
(S't\x08\x00\x00\x00Database'
tRp4623
I00
S'/WSD_Tool/appadmin/index'
tp4624
a(g4372
(S't\x06\x00\x00\x00Errors'
tRp4625
I00
S'/admin/default/errors/WSD_Tool'
tp4626
a(g4372
(S't\x05\x00\x00\x00About'
tRp4627
I00
S'/admin/default/about/WSD_Tool'
tp4628
aasbasbasbasbasbasbasbag57
(g73
g59
NtRp4629
(dp4630
g62
(dp4631
sg71
g4486
sg64
(lp4632
g57
(g78
g59
NtRp4633
(dp4634
g62
(dp4635
sg71
g4629
sg64
(lp4636
g57
(g58
g59
NtRp4637
(dp4638
g62
(dp4639
g70
I2
ssg71
g4633
sg64
(lp4640
g57
(g66
g59
NtRp4641
(dp4642
g62
(dp4643
g70
I1
ssg71
Nsg64
(lp4644
g57
(g73
g59
NtRp4645
(dp4646
g62
(dp4647
sg71
g4641
sg64
(lp4648
g57
(g78
g59
NtRp4649
(dp4650
g62
(dp4651
sg71
g4645
sg64
(lp4652
g57
(g58
g59
NtRp4653
(dp4654
g62
(dp4655
g70
I1
ssg71
g4649
sg64
(lp4656
S'web2py.com'
p4657
asbasbasbag57
(g73
g59
NtRp4658
(dp4659
g62
(dp4660
sg71
g4641
sg64
(lp4661
g57
(g78
g59
NtRp4662
(dp4663
g62
(dp4664
sg71
g4658
sg64
(lp4665
g57
(g58
g59
NtRp4666
(dp4667
g62
(dp4668
g70
I1
ssg71
g4662
sg64
(lp4669
I00
asbasbasbag57
(g73
g59
NtRp4670
(dp4671
g62
(dp4672
sg71
g4641
sg64
(lp4673
g57
(g78
g59
NtRp4674
(dp4675
g62
(dp4676
sg71
g4670
sg64
(lp4677
g57
(g58
g59
NtRp4678
(dp4679
g62
(dp4680
g70
I1
ssg71
g4674
sg64
(lp4681
S'http://www.web2py.com'
p4682
asbasbasbag57
(g73
g59
NtRp4683
(dp4684
g62
(dp4685
sg71
g4641
sg64
(lp4686
g57
(g78
g59
NtRp4687
(dp4688
g62
(dp4689
sg71
g4683
sg64
(lp4690
g57
(g58
g59
NtRp4691
(dp4692
g62
(dp4693
g70
I1
ssg71
g4687
sg64
(lp4694
(lp4695
(g4372
(S't\x08\x00\x00\x00Download'
tRp4696
I00
S'http://www.web2py.com/examples/default/download'
p4697
tp4698
a(g4372
(S't\x07\x00\x00\x00Support'
tRp4699
I00
S'http://www.web2py.com/examples/default/support'
p4700
tp4701
a(g4372
(S't\x04\x00\x00\x00Demo'
tRp4702
I00
S'http://web2py.com/demo_admin'
p4703
tp4704
a(g4372
(S's\x0e\x00\x00\x00Quick Examples'
tRp4705
I00
S'http://web2py.com/examples/default/examples'
p4706
tp4707
a(g4372
(S't\x03\x00\x00\x00FAQ'
tRp4708
I00
S'http://web2py.com/AlterEgo'
p4709
tp4710
a(g4372
(S't\x06\x00\x00\x00Videos'
tRp4711
I00
S'http://www.web2py.com/examples/default/videos/'
p4712
tp4713
a(g4372
(S's\x11\x00\x00\x00Free Applications'
tRp4714
I00
S'http://web2py.com/appliances'
p4715
tp4716
a(g4372
(S't\x07\x00\x00\x00Plugins'
tRp4717
I00
S'http://web2py.com/plugins'
p4718
tp4719
a(g4372
(S't\x07\x00\x00\x00Layouts'
tRp4720
I00
S'http://web2py.com/layouts'
p4721
tp4722
a(g4372
(S't\x07\x00\x00\x00Recipes'
tRp4723
I00
S'http://web2pyslices.com/'
p4724
tp4725
a(g4372
(S't\x08\x00\x00\x00Semantic'
tRp4726
I00
S'http://web2py.com/semantic'
p4727
tp4728
aasbasbasbasbasbasbasbag57
(g73
g59
NtRp4729
(dp4730
g62
(dp4731
sg71
g4486
sg64
(lp4732
g57
(g78
g59
NtRp4733
(dp4734
g62
(dp4735
sg71
g4729
sg64
(lp4736
g57
(g58
g59
NtRp4737
(dp4738
g62
(dp4739
g70
I2
ssg71
g4733
sg64
(lp4740
g57
(g66
g59
NtRp4741
(dp4742
g62
(dp4743
g70
I1
ssg71
Nsg64
(lp4744
g57
(g73
g59
NtRp4745
(dp4746
g62
(dp4747
sg71
g4741
sg64
(lp4748
g57
(g78
g59
NtRp4749
(dp4750
g62
(dp4751
sg71
g4745
sg64
(lp4752
g57
(g58
g59
NtRp4753
(dp4754
g62
(dp4755
g70
I1
ssg71
g4749
sg64
(lp4756
g4372
(S't\r\x00\x00\x00Documentation'
tRp4757
asbasbasbag57
(g73
g59
NtRp4758
(dp4759
g62
(dp4760
sg71
g4741
sg64
(lp4761
g57
(g78
g59
NtRp4762
(dp4763
g62
(dp4764
sg71
g4758
sg64
(lp4765
g57
(g58
g59
NtRp4766
(dp4767
g62
(dp4768
g70
I1
ssg71
g4762
sg64
(lp4769
I00
asbasbasbag57
(g73
g59
NtRp4770
(dp4771
g62
(dp4772
sg71
g4741
sg64
(lp4773
g57
(g78
g59
NtRp4774
(dp4775
g62
(dp4776
sg71
g4770
sg64
(lp4777
g57
(g58
g59
NtRp4778
(dp4779
g62
(dp4780
g70
I1
ssg71
g4774
sg64
(lp4781
S'http://www.web2py.com/book'
p4782
asbasbasbag57
(g73
g59
NtRp4783
(dp4784
g62
(dp4785
sg71
g4741
sg64
(lp4786
g57
(g78
g59
NtRp4787
(dp4788
g62
(dp4789
sg71
g4783
sg64
(lp4790
g57
(g58
g59
NtRp4791
(dp4792
g62
(dp4793
g70
I1
ssg71
g4787
sg64
(lp4794
(lp4795
(g4372
(S't\x07\x00\x00\x00Preface'
tRp4796
I00
S'http://www.web2py.com/book/default/chapter/00'
p4797
tp4798
a(g4372
(S't\x0c\x00\x00\x00Introduction'
tRp4799
I00
S'http://www.web2py.com/book/default/chapter/01'
p4800
tp4801
a(g4372
(S't\x06\x00\x00\x00Python'
tRp4802
I00
S'http://www.web2py.com/book/default/chapter/02'
p4803
tp4804
a(g4372
(S't\x08\x00\x00\x00Overview'
tRp4805
I00
S'http://www.web2py.com/book/default/chapter/03'
p4806
tp4807
a(g4372
(S's\x08\x00\x00\x00The Core'
tRp4808
I00
S'http://www.web2py.com/book/default/chapter/04'
p4809
tp4810
a(g4372
(S's\t\x00\x00\x00The Views'
tRp4811
I00
S'http://www.web2py.com/book/default/chapter/05'
p4812
tp4813
a(g4372
(S't\x08\x00\x00\x00Database'
tRp4814
I00
S'http://www.web2py.com/book/default/chapter/06'
p4815
tp4816
a(g4372
(S's\x14\x00\x00\x00Forms and Validators'
tRp4817
I00
S'http://www.web2py.com/book/default/chapter/07'
p4818
tp4819
a(g4372
(S's\r\x00\x00\x00Email and SMS'
tRp4820
I00
S'http://www.web2py.com/book/default/chapter/08'
p4821
tp4822
a(g4372
(S's\x0e\x00\x00\x00Access Control'
tRp4823
I00
S'http://www.web2py.com/book/default/chapter/09'
p4824
tp4825
a(g4372
(S't\x08\x00\x00\x00Services'
tRp4826
I00
S'http://www.web2py.com/book/default/chapter/10'
p4827
tp4828
a(g4372
(S's\x0c\x00\x00\x00Ajax Recipes'
tRp4829
I00
S'http://www.web2py.com/book/default/chapter/11'
p4830
tp4831
a(g4372
(S's\x16\x00\x00\x00Components and Plugins'
tRp4832
I00
S'http://www.web2py.com/book/default/chapter/12'
p4833
tp4834
a(g4372
(S's\x12\x00\x00\x00Deployment Recipes'
tRp4835
I00
S'http://www.web2py.com/book/default/chapter/13'
p4836
tp4837
a(g4372
(S's\r\x00\x00\x00Other Recipes'
tRp4838
I00
S'http://www.web2py.com/book/default/chapter/14'
p4839
tp4840
a(g4372
(S's\r\x00\x00\x00Buy this book'
tRp4841
I00
S'http://stores.lulu.com/web2py'
p4842
tp4843
aasbasbasbasbasbasbasbag57
(g73
g59
NtRp4844
(dp4845
g62
(dp4846
sg71
g4486
sg64
(lp4847
g57
(g78
g59
NtRp4848
(dp4849
g62
(dp4850
sg71
g4844
sg64
(lp4851
g57
(g58
g59
NtRp4852
(dp4853
g62
(dp4854
g70
I2
ssg71
g4848
sg64
(lp4855
g57
(g66
g59
NtRp4856
(dp4857
g62
(dp4858
g70
I1
ssg71
Nsg64
(lp4859
g57
(g73
g59
NtRp4860
(dp4861
g62
(dp4862
sg71
g4856
sg64
(lp4863
g57
(g78
g59
NtRp4864
(dp4865
g62
(dp4866
sg71
g4860
sg64
(lp4867
g57
(g58
g59
NtRp4868
(dp4869
g62
(dp4870
g70
I1
ssg71
g4864
sg64
(lp4871
g4372
(S't\t\x00\x00\x00Community'
tRp4872
asbasbasbag57
(g73
g59
NtRp4873
(dp4874
g62
(dp4875
sg71
g4856
sg64
(lp4876
g57
(g78
g59
NtRp4877
(dp4878
g62
(dp4879
sg71
g4873
sg64
(lp4880
g57
(g58
g59
NtRp4881
(dp4882
g62
(dp4883
g70
I1
ssg71
g4877
sg64
(lp4884
I00
asbasbasbag57
(g73
g59
NtRp4885
(dp4886
g62
(dp4887
sg71
g4856
sg64
(lp4888
g57
(g78
g59
NtRp4889
(dp4890
g62
(dp4891
sg71
g4885
sg64
(lp4892
g57
(g58
g59
NtRp4893
(dp4894
g62
(dp4895
g70
I1
ssg71
g4889
sg64
(lp4896
Nasbasbasbag57
(g73
g59
NtRp4897
(dp4898
g62
(dp4899
sg71
g4856
sg64
(lp4900
g57
(g78
g59
NtRp4901
(dp4902
g62
(dp4903
sg71
g4897
sg64
(lp4904
g57
(g58
g59
NtRp4905
(dp4906
g62
(dp4907
g70
I1
ssg71
g4901
sg64
(lp4908
(lp4909
(g4372
(S't\x06\x00\x00\x00Groups'
tRp4910
I00
S'http://www.web2py.com/examples/default/usergroups'
p4911
tp4912
a(g4372
(S't\x07\x00\x00\x00Twitter'
tRp4913
I00
S'http://twitter.com/web2py'
p4914
tp4915
a(g4372
(S's\t\x00\x00\x00Live Chat'
tRp4916
I00
S'http://webchat.freenode.net/?channels=web2py'
p4917
tp4918
aasbasbasbasbasbasbasbag57
(g73
g59
NtRp4919
(dp4920
g62
(dp4921
sg71
g4486
sg64
(lp4922
g57
(g78
g59
NtRp4923
(dp4924
g62
(dp4925
sg71
g4919
sg64
(lp4926
g57
(g58
g59
NtRp4927
(dp4928
g62
(dp4929
g70
I2
ssg71
g4923
sg64
(lp4930
g57
(g66
g59
NtRp4931
(dp4932
g62
(dp4933
g70
I1
ssg71
Nsg64
(lp4934
g57
(g73
g59
NtRp4935
(dp4936
g62
(dp4937
sg71
g4931
sg64
(lp4938
g57
(g78
g59
NtRp4939
(dp4940
g62
(dp4941
sg71
g4935
sg64
(lp4942
g57
(g58
g59
NtRp4943
(dp4944
g62
(dp4945
g70
I1
ssg71
g4939
sg64
(lp4946
g4372
(S't\x07\x00\x00\x00Plugins'
tRp4947
asbasbasbag57
(g73
g59
NtRp4948
(dp4949
g62
(dp4950
sg71
g4931
sg64
(lp4951
g57
(g78
g59
NtRp4952
(dp4953
g62
(dp4954
sg71
g4948
sg64
(lp4955
g57
(g58
g59
NtRp4956
(dp4957
g62
(dp4958
g70
I1
ssg71
g4952
sg64
(lp4959
I00
asbasbasbag57
(g73
g59
NtRp4960
(dp4961
g62
(dp4962
sg71
g4931
sg64
(lp4963
g57
(g78
g59
NtRp4964
(dp4965
g62
(dp4966
sg71
g4960
sg64
(lp4967
g57
(g58
g59
NtRp4968
(dp4969
g62
(dp4970
g70
I1
ssg71
g4964
sg64
(lp4971
Nasbasbasbag57
(g73
g59
NtRp4972
(dp4973
g62
(dp4974
sg71
g4931
sg64
(lp4975
g57
(g78
g59
NtRp4976
(dp4977
g62
(dp4978
sg71
g4972
sg64
(lp4979
g57
(g58
g59
NtRp4980
(dp4981
g62
(dp4982
g70
I1
ssg71
g4976
sg64
(lp4983
(lp4984
(S'plugin_wiki'
p4985
I00
S'http://web2py.com/examples/default/download'
p4986
tp4987
a(g4372
(S's\r\x00\x00\x00Other Plugins'
tRp4988
I00
g4718
tp4989
a(g4372
(S's\x0e\x00\x00\x00Layout Plugins'
tRp4990
I00
g4721
tp4991
aasbasbasbasbasbasbasbasbasbasbasbasbasbasbasbasbasbasbasbag57
(g73
g59
NtRp4992
(dp4993
g62
(dp4994
sg71
g3882
sg64
(lp4995
g57
(g78
g59
NtRp4996
(dp4997
g62
(dp4998
g82
g83
ssg71
g4992
sg64
(lp4999
S'meta'
p5000
asbag57
(g78
g59
NtRp5001
(dp5002
g62
(dp5003
g89
g90
ssg71
g4992
sg64
(lp5004
S':'
asbag57
(g78
g59
NtRp5005
(dp5006
g62
(dp5007
sg71
g4992
sg64
(lp5008
g57
(g58
g59
NtRp5009
(dp5010
g62
(dp5011
g70
I5
ssg71
g5005
sg64
(lp5012
g57
(g66
g59
NtRp5013
(dp5014
g62
(dp5015
g70
I4
ssg71
Nsg64
(lp5016
g57
(g73
g59
NtRp5017
(dp5018
g62
(dp5019
sg71
g5013
sg64
(lp5020
g57
(g78
g59
NtRp5021
(dp5022
g62
(dp5023
g82
g83
ssg71
g5017
sg64
(lp5024
S'author'
p5025
asbag57
(g78
g59
NtRp5026
(dp5027
g62
(dp5028
g89
g90
ssg71
g5017
sg64
(lp5029
S':'
asbag57
(g78
g59
NtRp5030
(dp5031
g62
(dp5032
sg71
g5017
sg64
(lp5033
g57
(g58
g59
NtRp5034
(dp5035
g62
(dp5036
g70
I4
ssg71
g5030
sg64
(lp5037
S'Your Name <you@example.com>'
p5038
asbasbasbag57
(g73
g59
NtRp5039
(dp5040
g62
(dp5041
sg71
g5013
sg64
(lp5042
g57
(g78
g59
NtRp5043
(dp5044
g62
(dp5045
g82
g83
ssg71
g5039
sg64
(lp5046
S'copyright'
p5047
asbag57
(g78
g59
NtRp5048
(dp5049
g62
(dp5050
g89
g90
ssg71
g5039
sg64
(lp5051
S':'
asbag57
(g78
g59
NtRp5052
(dp5053
g62
(dp5054
sg71
g5039
sg64
(lp5055
g57
(g58
g59
NtRp5056
(dp5057
g62
(dp5058
g70
I4
ssg71
g5052
sg64
(lp5059
S'Copyright 2011'
p5060
asbasbasbag57
(g73
g59
NtRp5061
(dp5062
g62
(dp5063
sg71
g5013
sg64
(lp5064
g57
(g78
g59
NtRp5065
(dp5066
g62
(dp5067
g82
g83
ssg71
g5061
sg64
(lp5068
S'description'
p5069
asbag57
(g78
g59
NtRp5070
(dp5071
g62
(dp5072
g89
g90
ssg71
g5061
sg64
(lp5073
S':'
asbag57
(g78
g59
NtRp5074
(dp5075
g62
(dp5076
sg71
g5061
sg64
(lp5077
g57
(g58
g59
NtRp5078
(dp5079
g62
(dp5080
g70
I4
ssg71
g5074
sg64
(lp5081
S'a cool new app'
p5082
asbasbasbag57
(g73
g59
NtRp5083
(dp5084
g62
(dp5085
sg71
g5013
sg64
(lp5086
g57
(g78
g59
NtRp5087
(dp5088
g62
(dp5089
g82
g83
ssg71
g5083
sg64
(lp5090
S'generator'
p5091
asbag57
(g78
g59
NtRp5092
(dp5093
g62
(dp5094
g89
g90
ssg71
g5083
sg64
(lp5095
S':'
asbag57
(g78
g59
NtRp5096
(dp5097
g62
(dp5098
sg71
g5083
sg64
(lp5099
g57
(g58
g59
NtRp5100
(dp5101
g62
(dp5102
g70
I4
ssg71
g5096
sg64
(lp5103
S'Web2py Web Framework'
p5104
asbasbasbag57
(g73
g59
NtRp5105
(dp5106
g62
(dp5107
sg71
g5013
sg64
(lp5108
g57
(g78
g59
NtRp5109
(dp5110
g62
(dp5111
g82
g83
ssg71
g5105
sg64
(lp5112
S'keywords'
p5113
asbag57
(g78
g59
NtRp5114
(dp5115
g62
(dp5116
g89
g90
ssg71
g5105
sg64
(lp5117
S':'
asbag57
(g78
g59
NtRp5118
(dp5119
g62
(dp5120
sg71
g5105
sg64
(lp5121
g57
(g58
g59
NtRp5122
(dp5123
g62
(dp5124
g70
I4
ssg71
g5118
sg64
(lp5125
S'web2py, python, framework'
p5126
asbasbasbasbasbasbasbag57
(g73
g59
NtRp5127
(dp5128
g62
(dp5129
sg71
g3882
sg64
(lp5130
g57
(g78
g59
NtRp5131
(dp5132
g62
(dp5133
g82
g83
ssg71
g5127
sg64
(lp5134
S'models_to_run'
p5135
asbag57
(g78
g59
NtRp5136
(dp5137
g62
(dp5138
g89
g90
ssg71
g5127
sg64
(lp5139
S':'
asbag57
(g78
g59
NtRp5140
(dp5141
g62
(dp5142
sg71
g5127
sg64
(lp5143
g57
(g58
g59
NtRp5144
(dp5145
g62
(dp5146
g70
I5
ssg71
g5140
sg64
(lp5147
g57
(g66
g59
NtRp5148
(dp5149
g62
(dp5150
g70
I4
ssg71
Nsg64
(lp5151
g57
(g73
g59
NtRp5152
(dp5153
g62
(dp5154
sg71
g5148
sg64
(lp5155
g57
(g78
g59
NtRp5156
(dp5157
g62
(dp5158
sg71
g5152
sg64
(lp5159
g57
(g58
g59
NtRp5160
(dp5161
g62
(dp5162
g70
I4
ssg71
g5156
sg64
(lp5163
S'^\\w+\\.py$'
p5164
asbasbasbag57
(g73
g59
NtRp5165
(dp5166
g62
(dp5167
sg71
g5148
sg64
(lp5168
g57
(g78
g59
NtRp5169
(dp5170
g62
(dp5171
sg71
g5165
sg64
(lp5172
g57
(g58
g59
NtRp5173
(dp5174
g62
(dp5175
g70
I4
ssg71
g5169
sg64
(lp5176
S'^default/\\w+\\.py$'
p5177
asbasbasbag57
(g73
g59
NtRp5178
(dp5179
g62
(dp5180
sg71
g5148
sg64
(lp5181
g57
(g78
g59
NtRp5182
(dp5183
g62
(dp5184
sg71
g5178
sg64
(lp5185
g57
(g58
g59
NtRp5186
(dp5187
g62
(dp5188
g70
I4
ssg71
g5182
sg64
(lp5189
S'^default/rel/\\w+\\.py$'
p5190
asbasbasbasbasbasbasbag57
(g73
g59
NtRp5191
(dp5192
g62
(dp5193
sg71
g3882
sg64
(lp5194
g57
(g78
g59
NtRp5195
(dp5196
g62
(dp5197
g82
g83
ssg71
g5191
sg64
(lp5198
S'postprocessing'
p5199
asbag57
(g78
g59
NtRp5200
(dp5201
g62
(dp5202
g89
g90
ssg71
g5191
sg64
(lp5203
S':'
asbag57
(g78
g59
NtRp5204
(dp5205
g62
(dp5206
sg71
g5191
sg64
(lp5207
g57
(g58
g59
NtRp5208
(dp5209
g62
(dp5210
g70
I5
ssg71
g5204
sg64
(lp5211
g57
(g66
g59
NtRp5212
(dp5213
g62
(dp5214
g70
I4
ssg71
Nsg64
(lp5215
sbasbasbasbag57
(g73
g59
NtRp5216
(dp5217
g62
(dp5218
sg71
g3882
sg64
(lp5219
g57
(g78
g59
NtRp5220
(dp5221
g62
(dp5222
g82
g83
ssg71
g5216
sg64
(lp5223
S'session_cookie_expires'
p5224
asbag57
(g78
g59
NtRp5225
(dp5226
g62
(dp5227
g89
g90
ssg71
g5216
sg64
(lp5228
S':'
asbag57
(g78
g59
NtRp5229
(dp5230
g62
(dp5231
sg71
g5216
sg64
(lp5232
g57
(g58
g59
NtRp5233
(dp5234
g62
(dp5235
g70
I5
ssg71
g5229
sg64
(lp5236
S'None'
p5237
asbasbasbag57
(g73
g59
NtRp5238
(dp5239
g62
(dp5240
sg71
g3882
sg64
(lp5241
g57
(g78
g59
NtRp5242
(dp5243
g62
(dp5244
g82
g83
ssg71
g5238
sg64
(lp5245
S'session_data_name'
p5246
asbag57
(g78
g59
NtRp5247
(dp5248
g62
(dp5249
g89
g90
ssg71
g5238
sg64
(lp5250
S':'
asbag57
(g78
g59
NtRp5251
(dp5252
g62
(dp5253
sg71
g5238
sg64
(lp5254
g57
(g58
g59
NtRp5255
(dp5256
g62
(dp5257
g70
I5
ssg71
g5251
sg64
(lp5258
S'session_data_wsd_tool'
p5259
asbasbasbag57
(g73
g59
NtRp5260
(dp5261
g62
(dp5262
sg71
g3882
sg64
(lp5263
g57
(g78
g59
NtRp5264
(dp5265
g62
(dp5266
g82
g83
ssg71
g5260
sg64
(lp5267
S'session_file'
p5268
asbag57
(g78
g59
NtRp5269
(dp5270
g62
(dp5271
g89
g90
ssg71
g5260
sg64
(lp5272
S':'
asbag57
(g78
g59
NtRp5273
(dp5274
g62
(dp5275
sg71
g5260
sg64
(lp5276
g57
(g58
g59
NtRp5277
(dp5278
g62
(dp5279
g70
I5
ssg71
g5273
sg64
(lp5280
S"<open file '/home/nazrul/web2py/applications/WSD_Tool/sessions/127.0.0.1-1b9513ff-7a4a-46e3-9d60-f0b6086e5c03', mode 'rb+' at 0xad877180>"
p5281
asbasbasbag57
(g73
g59
NtRp5282
(dp5283
g62
(dp5284
sg71
g3882
sg64
(lp5285
g57
(g78
g59
NtRp5286
(dp5287
g62
(dp5288
g82
g83
ssg71
g5282
sg64
(lp5289
S'session_filename'
p5290
asbag57
(g78
g59
NtRp5291
(dp5292
g62
(dp5293
g89
g90
ssg71
g5282
sg64
(lp5294
S':'
asbag57
(g78
g59
NtRp5295
(dp5296
g62
(dp5297
sg71
g5282
sg64
(lp5298
g57
(g58
g59
NtRp5299
(dp5300
g62
(dp5301
g70
I5
ssg71
g5295
sg64
(lp5302
S'/home/nazrul/web2py/applications/WSD_Tool/sessions/127.0.0.1-1b9513ff-7a4a-46e3-9d60-f0b6086e5c03'
p5303
asbasbasbag57
(g73
g59
NtRp5304
(dp5305
g62
(dp5306
sg71
g3882
sg64
(lp5307
g57
(g78
g59
NtRp5308
(dp5309
g62
(dp5310
g82
g83
ssg71
g5304
sg64
(lp5311
S'session_id'
p5312
asbag57
(g78
g59
NtRp5313
(dp5314
g62
(dp5315
g89
g90
ssg71
g5304
sg64
(lp5316
S':'
asbag57
(g78
g59
NtRp5317
(dp5318
g62
(dp5319
sg71
g5304
sg64
(lp5320
g57
(g58
g59
NtRp5321
(dp5322
g62
(dp5323
g70
I5
ssg71
g5317
sg64
(lp5324
g847
asbasbasbag57
(g73
g59
NtRp5325
(dp5326
g62
(dp5327
sg71
g3882
sg64
(lp5328
g57
(g78
g59
NtRp5329
(dp5330
g62
(dp5331
g82
g83
ssg71
g5325
sg64
(lp5332
S'session_id_name'
p5333
asbag57
(g78
g59
NtRp5334
(dp5335
g62
(dp5336
g89
g90
ssg71
g5325
sg64
(lp5337
S':'
asbag57
(g78
g59
NtRp5338
(dp5339
g62
(dp5340
sg71
g5325
sg64
(lp5341
g57
(g58
g59
NtRp5342
(dp5343
g62
(dp5344
g70
I5
ssg71
g5338
sg64
(lp5345
g3939
asbasbasbag57
(g73
g59
NtRp5346
(dp5347
g62
(dp5348
sg71
g3882
sg64
(lp5349
g57
(g78
g59
NtRp5350
(dp5351
g62
(dp5352
g82
g83
ssg71
g5346
sg64
(lp5353
S'session_locked'
p5354
asbag57
(g78
g59
NtRp5355
(dp5356
g62
(dp5357
g89
g90
ssg71
g5346
sg64
(lp5358
S':'
asbag57
(g78
g59
NtRp5359
(dp5360
g62
(dp5361
sg71
g5346
sg64
(lp5362
g57
(g58
g59
NtRp5363
(dp5364
g62
(dp5365
g70
I5
ssg71
g5359
sg64
(lp5366
g1933
asbasbasbag57
(g73
g59
NtRp5367
(dp5368
g62
(dp5369
sg71
g3882
sg64
(lp5370
g57
(g78
g59
NtRp5371
(dp5372
g62
(dp5373
g82
g83
ssg71
g5367
sg64
(lp5374
S'session_new'
p5375
asbag57
(g78
g59
NtRp5376
(dp5377
g62
(dp5378
g89
g90
ssg71
g5367
sg64
(lp5379
S':'
asbag57
(g78
g59
NtRp5380
(dp5381
g62
(dp5382
sg71
g5367
sg64
(lp5383
g57
(g58
g59
NtRp5384
(dp5385
g62
(dp5386
g70
I5
ssg71
g5380
sg64
(lp5387
g100
asbasbasbag57
(g73
g59
NtRp5388
(dp5389
g62
(dp5390
sg71
g3882
sg64
(lp5391
g57
(g78
g59
NtRp5392
(dp5393
g62
(dp5394
g82
g83
ssg71
g5388
sg64
(lp5395
S'session_storage_type'
p5396
asbag57
(g78
g59
NtRp5397
(dp5398
g62
(dp5399
g89
g90
ssg71
g5388
sg64
(lp5400
S':'
asbag57
(g78
g59
NtRp5401
(dp5402
g62
(dp5403
sg71
g5388
sg64
(lp5404
g57
(g58
g59
NtRp5405
(dp5406
g62
(dp5407
g70
I5
ssg71
g5401
sg64
(lp5408
g3343
asbasbasbag57
(g73
g59
NtRp5409
(dp5410
g62
(dp5411
sg71
g3882
sg64
(lp5412
g57
(g78
g59
NtRp5413
(dp5414
g62
(dp5415
g82
g83
ssg71
g5409
sg64
(lp5416
S'status'
p5417
asbag57
(g78
g59
NtRp5418
(dp5419
g62
(dp5420
g89
g90
ssg71
g5409
sg64
(lp5421
S':'
asbag57
(g78
g59
NtRp5422
(dp5423
g62
(dp5424
sg71
g5409
sg64
(lp5425
g57
(g58
g59
NtRp5426
(dp5427
g62
(dp5428
g70
I5
ssg71
g5422
sg64
(lp5429
S'200'
p5430
asbasbasbag57
(g73
g59
NtRp5431
(dp5432
g62
(dp5433
sg71
g3882
sg64
(lp5434
g57
(g78
g59
NtRp5435
(dp5436
g62
(dp5437
g82
g83
ssg71
g5431
sg64
(lp5438
S'subtitle'
p5439
asbag57
(g78
g59
NtRp5440
(dp5441
g62
(dp5442
g89
g90
ssg71
g5431
sg64
(lp5443
S':'
asbag57
(g78
g59
NtRp5444
(dp5445
g62
(dp5446
sg71
g5431
sg64
(lp5447
g57
(g58
g59
NtRp5448
(dp5449
g62
(dp5450
g70
I5
ssg71
g5444
sg64
(lp5451
g4372
(S's\r\x00\x00\x00customize me!'
tRp5452
asbasbasbag57
(g73
g59
NtRp5453
(dp5454
g62
(dp5455
sg71
g3882
sg64
(lp5456
g57
(g78
g59
NtRp5457
(dp5458
g62
(dp5459
g82
g83
ssg71
g5453
sg64
(lp5460
S'title'
p5461
asbag57
(g78
g59
NtRp5462
(dp5463
g62
(dp5464
g89
g90
ssg71
g5453
sg64
(lp5465
S':'
asbag57
(g78
g59
NtRp5466
(dp5467
g62
(dp5468
sg71
g5453
sg64
(lp5469
g57
(g58
g59
NtRp5470
(dp5471
g62
(dp5472
g70
I5
ssg71
g5466
sg64
(lp5473
S'Wsd Tool'
p5474
asbasbasbag57
(g73
g59
NtRp5475
(dp5476
g62
(dp5477
sg71
g3882
sg64
(lp5478
g57
(g78
g59
NtRp5479
(dp5480
g62
(dp5481
g82
g83
ssg71
g5475
sg64
(lp5482
S'view'
p5483
asbag57
(g78
g59
NtRp5484
(dp5485
g62
(dp5486
g89
g90
ssg71
g5475
sg64
(lp5487
S':'
asbag57
(g78
g59
NtRp5488
(dp5489
g62
(dp5490
sg71
g5475
sg64
(lp5491
g57
(g58
g59
NtRp5492
(dp5493
g62
(dp5494
g70
I5
ssg71
g5488
sg64
(lp5495
S'default/rel.html'
p5496
asbasbasbasbasbsS'locals'
p5497
(dp5498
S'f'
S"<open file 'sample', mode 'w'>"
p5499
sS'STDOUT'
p5500
S'-2'
p5501
sS'Popen'
p5502
S"<class 'subprocess.Popen'>"
p5503
sS'st'
p5504
S"'<TITLE> test. </TITLE> \\n <p> There is no asbestos in our products now </p>'"
p5505
sS'PIPE'
p5506
S'-1'
p5507
sS'shell_command'
p5508
S"'Anusaaraka_stanford.sh  sample 0 True'"
p5509
sS's'
S"'There is no asbestos in our products now'"
p5510
sS'event'
p5511
S'<subprocess.Popen object>'
p5512
sssS'traceback'
p5513
S'Traceback (most recent call last):\n  File "/home/nazrul/web2py/gluon/restricted.py", line 212, in restricted\n    exec ccode in environment\n  File "/home/nazrul/web2py/applications/WSD_Tool/controllers/default.py", line 259, in <module>\n  File "/home/nazrul/web2py/gluon/globals.py", line 193, in <lambda>\n    self._caller = lambda f: f()\n  File "/home/nazrul/web2py/applications/WSD_Tool/controllers/default.py", line 253, in rel\n    return dict(a=a)\nNameError: global name \'a\' is not defined\n'
p5514
s.