(dp1
S'output'
p2
S"<type 'exceptions.OSError'> [Errno 8] Exec format error"
p3
sS'layer'
p4
S'/home/nazrul/web2py/applications/WSD_Tool/controllers/default.py'
p5
sS'code'
p6
S'# -*- coding: utf-8 -*-\n# this file is released under public domain and you can use without limitations\n\n#########################################################################\n## This is a samples controller\n## - index is the default action of any application\n## - user is required for authentication and authorization\n## - download is for downloading files uploaded in the db (does streaming)\n## - call exposes all registered services (none by default)\n#########################################################################\nimport os,subprocess\ndef index():\n    redirect(\'home\')\n    """\n    example action using the internationalization operator T and flash\n    rendered by views/default/index.html or views/generic.html\n    """\n    response.flash = "Welcome to web2py!"\n    return dict(message=T(\'Hello World\'))\n\ndef user():\n    """\n    exposes:\n    http://..../[app]/default/user/login\n    http://..../[app]/default/user/logout\n    http://..../[app]/default/user/register\n    http://..../[app]/default/user/profile\n    http://..../[app]/default/user/retrieve_password\n    http://..../[app]/default/user/change_password\n    use @auth.requires_login()\n        @auth.requires_membership(\'group name\')\n        @auth.requires_permission(\'read\',\'table name\',record_id)\n    to decorate functions that need access control\n    """\n    return dict(form=auth())\n\n\ndef download():\n    """\n    allows downloading of uploaded files\n    http://..../[app]/default/download/[filename]\n    """\n    return response.download(request,db)\n\n\ndef call():\n    """\n    exposes services. for example:\n    http://..../[app]/default/call/jsonrpc\n    decorate with @services.jsonrpc the functions to expose\n    supports xml, json, xmlrpc, jsonrpc, amfrpc, rss, csv\n    """\n    return service()\n\n\n@auth.requires_signature()\ndef data():\n    """\n    http://..../[app]/default/data/tables\n    http://..../[app]/default/data/create/[table]\n    http://..../[app]/default/data/read/[table]/[id]\n    http://..../[app]/default/data/update/[table]/[id]\n    http://..../[app]/default/data/delete/[table]/[id]\n    http://..../[app]/default/data/select/[table]\n    http://..../[app]/default/data/search/[table]\n    but URLs must be signed, i.e. linked with\n      A(\'table\',_href=URL(\'data/tables\',user_signature=True))\n    or with the signed load operator\n      LOAD(\'default\',\'data.load\',args=\'tables\',ajax=True,user_signature=True)\n    """\n    return dict(form=crud())\n\n\n\n\n@auth.requires_login()\ndef home():\n    t = auth.user.id\n    h = db(db.rules.userid==t).select()\n    g = []\n    for i in h:\n        g.append(db(db.words.id==i.wid).select(db.words.word))\n    h=[]\n    for i in g:\n        for j in i:\n            h.append(j.word) \n    h=list(set(h))\n    return dict(t=t,h=h)\n\n@auth.requires_login()\ndef word_select():\n    if not request.vars.check:\n        redirect(\'home\')\n    else:\n        check=0\n    if request.vars.submit:\n        w = request.vars.word\n        t = db(db.words).select()\n        for i in t:\n            if i.word==w:\n                session.word = w\n                session.ide = i.id\n                break\n        redirect(\'sentence_select\')\n    return dict()\n\n\n@auth.requires_login()\ndef word_selectc():\n    if not request.vars.check:\n        redirect(\'home\')\n    else:\n        check=0\n    if request.vars.submit:\n        w = request.vars.word\n        t = db(db.words).select()\n        for i in t:\n            if i.word==w:\n                session.word = w\n                session.ide = i.id\n                break\n        redirect(URL(\'sentence_selectc\',vars=dict(second=request.vars.second)))\n    return dict()\n    \n    \n    \n\n\n\n#@auth.requires_login()\n#def reason():\n#    t=session.senid\n#    pre=db((db.rules.wid==session.ide)&(db.rules.sid==session.sid)).select()\n#    c=0\n#    for i in pre:\n#        c+=1\n#    if request.vars.hindit:\n#        db.rules.insert(name=session.word+str(c),userid=auth.user.id,wid=session.ide,sid=session.sid,translation=hindit)\n#        redirect(URL(\'rel\'))\n#    return dict()\n    \n    \n@auth.requires_login()\ndef sentence_select():\n    f = \'\'\n    x = 0\n    if request.vars.submit and (request.vars.hindit):\n        t = request.vars.sentence\n        r = db(db.sentences.esentence==t).select(db.sentences.id)\n        for i in r:\n          session.sid=i.id\n          break\n        pre=db((db.rules.wid==session.ide)&(db.rules.userid==auth.user.id)).select()\n        c=0\n        f=0\n        for i in pre:\n            c+=1\n            if str(session.sid)==i.sid:\n                f=1\n                break\n        if f==0:\n            db.rules.insert(name=session.word+str(c),userid=auth.user.id,wid=session.ide,sid=session.sid,translation=request.vars.hindit)\n        redirect(URL(\'rel\'))\n    return dict(w=session.word,d=session.ide,f=f)\n\n\n@auth.requires_login()\ndef sentence_selectc():\n    f = \'\'\n    x = 0\n    if request.vars.submit:\n        t = request.vars.sentence\n        r = db(db.sentences.esentence==t).select(db.sentences.id)\n        for i in r:\n          hindit=i.id\n          session.sid=i.id\n          break\n        redirect(URL(\'reasonc\',vars=dict(hindit=hindit)))\n    return dict(w=session.word,d=session.ide,f=f)\n\n\n@auth.requires_login()\ndef reasonc():\n    t=session.sid\n    r = db(db.sentences.id==t).select(db.sentences.hsentence)\n    if request.vars.submit:\n        pre=db((db.rules.wid==session.ide)&(db.rules.userid==auth.user.id)).select()\n        c=0\n        f=0\n        for i in pre:\n            c+=1\n            print session.sid,i.sid\n            if i.sid==str(session.sid):\n                f=1\n                break\n        if f==0:\n            db.rules.insert(name=session.word+str(c),userid=auth.user.id,wid=session.ide,sid=session.sid)\n        redirect(URL(\'rel\'))\n    return dict(r=r)\n\n@auth.requires_login()\ndef delaccount():\n    if request.vars.submit:\n        db(db.auth_user.email==request.vars.email).delete()\n        redirect("home")\n    return dict()\n\n@auth.requires_login()\ndef addword():\n    if request.vars.submit:\n        db.words.insert(word=request.vars.word)\n        db.sentences.insert(esentence=request.vars.esentence,hsentence=request.vars.hsentence)\n        w = db(db.words.word==request.vars.word).select(db.words.id)\n        s = db(db.sentences.esentence==request.vars.esentence).select(db.sentences.id)\n        for i in w:\n            for j in s:\n                db.links.insert(wid=i.id,sid=j.id)\n                break\n            break\n        session.flash="Word Added"\n        redirect(\'home\')\n    return dict()\n@auth.requires_login()\ndef delword():\n    if request.vars.submit:\n        g = db(db.words.word==request.vars.word).select(db.words.id)\n        for i in g:\n            db(db.words.id==i.id).delete()\n            db(db.rules.wid==i.id).delete()\n            y = db(db.links.wid==i.id).select(db.links.sid)\n            db(db.links.wid==i.id).delete()\n            for j in y:\n                db(db.sentences.id==j.sid).delete()\n                break\n            break\n            session.flash="Word Deleted "\n        redirect(\'home\')\n    return dict()\ndef rel():\n        bashCommand = "Anusaaraka_stanford.sh  sample 0 True"\n        process = subprocess.Popen(bashCommand.split(), stdout=subprocess.PIPE)\n        output = process.communicate()[0]\n\ndef testt():\n    v=db(db.auth_user).select()\n    return dict(v=v)\n\nresponse._vars=response._caller(rel)\n'
p7
sS'snapshot'
p8
(dp9
S'exception'
p10
(dp11
S'__getslice__'
p12
S"<method-wrapper '__getslice__' of exceptions.OSError object>"
p13
sS'__str__'
p14
S"<method-wrapper '__str__' of exceptions.OSError object>"
p15
sS'__reduce__'
p16
S'<built-in method __reduce__ of exceptions.OSError object>'
p17
sS'__dict__'
p18
S'{\'child_traceback\': \'Traceback (most recent call last):\\n  File "/usr/..., *argrest)\\nOSError: [Errno 8] Exec format error\\n\'}'
p19
sS'__sizeof__'
p20
S'<built-in method __sizeof__ of exceptions.OSError object>'
p21
sS'__init__'
p22
S"<method-wrapper '__init__' of exceptions.OSError object>"
p23
sS'__setattr__'
p24
S"<method-wrapper '__setattr__' of exceptions.OSError object>"
p25
sS'__reduce_ex__'
p26
S'<built-in method __reduce_ex__ of exceptions.OSError object>'
p27
sS'__new__'
p28
S'<built-in method __new__ of type object>'
p29
sS'child_traceback'
p30
S'\'Traceback (most recent call last):\\n  File "/usr/..., *argrest)\\nOSError: [Errno 8] Exec format error\\n\''
p31
sS'errno'
p32
S'8'
sS'__format__'
p33
S'<built-in method __format__ of exceptions.OSError object>'
p34
sS'__class__'
p35
S"<type 'exceptions.OSError'>"
p36
sS'filename'
p37
S'None'
p38
sS'__doc__'
p39
S"'OS system call failed.'"
p40
sS'__getitem__'
p41
S"<method-wrapper '__getitem__' of exceptions.OSError object>"
p42
sS'__setstate__'
p43
S'<built-in method __setstate__ of exceptions.OSError object>'
p44
sS'__getattribute__'
p45
S"<method-wrapper '__getattribute__' of exceptions.OSError object>"
p46
sS'args'
p47
S"(8, 'Exec format error')"
p48
sS'__subclasshook__'
p49
S'<built-in method __subclasshook__ of type object>'
p50
sS'__unicode__'
p51
S'<built-in method __unicode__ of exceptions.OSError object>'
p52
sS'strerror'
p53
S"'Exec format error'"
p54
sS'__delattr__'
p55
S"<method-wrapper '__delattr__' of exceptions.OSError object>"
p56
sS'__repr__'
p57
S"<method-wrapper '__repr__' of exceptions.OSError object>"
p58
sS'__hash__'
p59
S"<method-wrapper '__hash__' of exceptions.OSError object>"
p60
ssS'evalue'
p61
S'[Errno 8] Exec format error'
p62
sS'request'
p63
ccopy_reg
_reconstructor
p64
(cgluon.html
BEAUTIFY
p65
c__builtin__
object
p66
NtRp67
(dp68
S'attributes'
p69
(dp70
sS'components'
p71
(lp72
g64
(cgluon.html
TABLE
p73
g66
NtRp74
(dp75
g69
(dp76
S'level'
p77
I5
ssS'parent'
p78
Nsg71
(lp79
g64
(cgluon.html
TR
p80
g66
NtRp81
(dp82
g69
(dp83
sg78
g74
sg71
(lp84
g64
(cgluon.html
TD
p85
g66
NtRp86
(dp87
g69
(dp88
S'_style'
p89
S'font-weight:bold;vertical-align:top'
p90
ssg78
g81
sg71
(lp91
S'ajax'
p92
asbag64
(g85
g66
NtRp93
(dp94
g69
(dp95
S'_valign'
p96
S'top'
p97
ssg78
g81
sg71
(lp98
S':'
asbag64
(g85
g66
NtRp99
(dp100
g69
(dp101
sg78
g81
sg71
(lp102
g64
(g65
g66
NtRp103
(dp104
g69
(dp105
g77
I5
ssg78
g99
sg71
(lp106
S'False'
p107
asbasbasbag64
(g80
g66
NtRp108
(dp109
g69
(dp110
sg78
g74
sg71
(lp111
g64
(g85
g66
NtRp112
(dp113
g69
(dp114
g89
g90
ssg78
g108
sg71
(lp115
S'application'
p116
asbag64
(g85
g66
NtRp117
(dp118
g69
(dp119
g96
g97
ssg78
g108
sg71
(lp120
S':'
asbag64
(g85
g66
NtRp121
(dp122
g69
(dp123
sg78
g108
sg71
(lp124
g64
(g65
g66
NtRp125
(dp126
g69
(dp127
g77
I5
ssg78
g121
sg71
(lp128
S'WSD_Tool'
p129
asbasbasbag64
(g80
g66
NtRp130
(dp131
g69
(dp132
sg78
g74
sg71
(lp133
g64
(g85
g66
NtRp134
(dp135
g69
(dp136
g89
g90
ssg78
g130
sg71
(lp137
g47
asbag64
(g85
g66
NtRp138
(dp139
g69
(dp140
g96
g97
ssg78
g130
sg71
(lp141
S':'
asbag64
(g85
g66
NtRp142
(dp143
g69
(dp144
sg78
g130
sg71
(lp145
g64
(g65
g66
NtRp146
(dp147
g69
(dp148
g77
I5
ssg78
g142
sg71
(lp149
g64
(g73
g66
NtRp150
(dp151
g69
(dp152
g77
I4
ssg78
Nsg71
(lp153
sbasbasbasbag64
(g80
g66
NtRp154
(dp155
g69
(dp156
sg78
g74
sg71
(lp157
g64
(g85
g66
NtRp158
(dp159
g69
(dp160
g89
g90
ssg78
g154
sg71
(lp161
S'body'
p162
asbag64
(g85
g66
NtRp163
(dp164
g69
(dp165
g96
g97
ssg78
g154
sg71
(lp166
S':'
asbag64
(g85
g66
NtRp167
(dp168
g69
(dp169
sg78
g154
sg71
(lp170
g64
(g65
g66
NtRp171
(dp172
g69
(dp173
g77
I5
ssg78
g167
sg71
(lp174
S'<cStringIO.StringO object at 0xa6b2c60>'
p175
asbasbasbag64
(g80
g66
NtRp176
(dp177
g69
(dp178
sg78
g74
sg71
(lp179
g64
(g85
g66
NtRp180
(dp181
g69
(dp182
g89
g90
ssg78
g176
sg71
(lp183
S'cid'
p184
asbag64
(g85
g66
NtRp185
(dp186
g69
(dp187
g96
g97
ssg78
g176
sg71
(lp188
S':'
asbag64
(g85
g66
NtRp189
(dp190
g69
(dp191
sg78
g176
sg71
(lp192
g64
(g65
g66
NtRp193
(dp194
g69
(dp195
g77
I5
ssg78
g189
sg71
(lp196
S'None'
p197
asbasbasbag64
(g80
g66
NtRp198
(dp199
g69
(dp200
sg78
g74
sg71
(lp201
g64
(g85
g66
NtRp202
(dp203
g69
(dp204
g89
g90
ssg78
g198
sg71
(lp205
S'client'
p206
asbag64
(g85
g66
NtRp207
(dp208
g69
(dp209
g96
g97
ssg78
g198
sg71
(lp210
S':'
asbag64
(g85
g66
NtRp211
(dp212
g69
(dp213
sg78
g198
sg71
(lp214
g64
(g65
g66
NtRp215
(dp216
g69
(dp217
g77
I5
ssg78
g211
sg71
(lp218
S'127.0.0.1'
p219
asbasbasbag64
(g80
g66
NtRp220
(dp221
g69
(dp222
sg78
g74
sg71
(lp223
g64
(g85
g66
NtRp224
(dp225
g69
(dp226
g89
g90
ssg78
g220
sg71
(lp227
S'controller'
p228
asbag64
(g85
g66
NtRp229
(dp230
g69
(dp231
g96
g97
ssg78
g220
sg71
(lp232
S':'
asbag64
(g85
g66
NtRp233
(dp234
g69
(dp235
sg78
g220
sg71
(lp236
g64
(g65
g66
NtRp237
(dp238
g69
(dp239
g77
I5
ssg78
g233
sg71
(lp240
S'default'
p241
asbasbasbag64
(g80
g66
NtRp242
(dp243
g69
(dp244
sg78
g74
sg71
(lp245
g64
(g85
g66
NtRp246
(dp247
g69
(dp248
g89
g90
ssg78
g242
sg71
(lp249
S'cookies'
p250
asbag64
(g85
g66
NtRp251
(dp252
g69
(dp253
g96
g97
ssg78
g242
sg71
(lp254
S':'
asbag64
(g85
g66
NtRp255
(dp256
g69
(dp257
sg78
g242
sg71
(lp258
g64
(g65
g66
NtRp259
(dp260
g69
(dp261
g77
I5
ssg78
g255
sg71
(lp262
g64
(g73
g66
NtRp263
(dp264
g69
(dp265
g77
I4
ssg78
Nsg71
(lp266
g64
(g80
g66
NtRp267
(dp268
g69
(dp269
sg78
g263
sg71
(lp270
g64
(g85
g66
NtRp271
(dp272
g69
(dp273
g89
g90
ssg78
g267
sg71
(lp274
S'KBD'
p275
asbag64
(g85
g66
NtRp276
(dp277
g69
(dp278
g96
g97
ssg78
g267
sg71
(lp279
S':'
asbag64
(g85
g66
NtRp280
(dp281
g69
(dp282
sg78
g267
sg71
(lp283
g64
(g65
g66
NtRp284
(dp285
g69
(dp286
g77
I4
ssg78
g280
sg71
(lp287
S'0hi-0'
p288
ag64
(g73
g66
NtRp289
(dp290
g69
(dp291
g77
I3
ssg78
Nsg71
(lp292
g64
(g80
g66
NtRp293
(dp294
g69
(dp295
sg78
g289
sg71
(lp296
g64
(g85
g66
NtRp297
(dp298
g69
(dp299
g89
g90
ssg78
g293
sg71
(lp300
S'comment'
p301
asbag64
(g85
g66
NtRp302
(dp303
g69
(dp304
g96
g97
ssg78
g293
sg71
(lp305
S':'
asbag64
(g85
g66
NtRp306
(dp307
g69
(dp308
sg78
g293
sg71
(lp309
g64
(g65
g66
NtRp310
(dp311
g69
(dp312
g77
I3
ssg78
g306
sg71
(lp313
S''
asbasbasbag64
(g80
g66
NtRp314
(dp315
g69
(dp316
sg78
g289
sg71
(lp317
g64
(g85
g66
NtRp318
(dp319
g69
(dp320
g89
g90
ssg78
g314
sg71
(lp321
S'domain'
p322
asbag64
(g85
g66
NtRp323
(dp324
g69
(dp325
g96
g97
ssg78
g314
sg71
(lp326
S':'
asbag64
(g85
g66
NtRp327
(dp328
g69
(dp329
sg78
g314
sg71
(lp330
g64
(g65
g66
NtRp331
(dp332
g69
(dp333
g77
I3
ssg78
g327
sg71
(lp334
S''
asbasbasbag64
(g80
g66
NtRp335
(dp336
g69
(dp337
sg78
g289
sg71
(lp338
g64
(g85
g66
NtRp339
(dp340
g69
(dp341
g89
g90
ssg78
g335
sg71
(lp342
S'expires'
p343
asbag64
(g85
g66
NtRp344
(dp345
g69
(dp346
g96
g97
ssg78
g335
sg71
(lp347
S':'
asbag64
(g85
g66
NtRp348
(dp349
g69
(dp350
sg78
g335
sg71
(lp351
g64
(g65
g66
NtRp352
(dp353
g69
(dp354
g77
I3
ssg78
g348
sg71
(lp355
S''
asbasbasbag64
(g80
g66
NtRp356
(dp357
g69
(dp358
sg78
g289
sg71
(lp359
g64
(g85
g66
NtRp360
(dp361
g69
(dp362
g89
g90
ssg78
g356
sg71
(lp363
S'httponly'
p364
asbag64
(g85
g66
NtRp365
(dp366
g69
(dp367
g96
g97
ssg78
g356
sg71
(lp368
S':'
asbag64
(g85
g66
NtRp369
(dp370
g69
(dp371
sg78
g356
sg71
(lp372
g64
(g65
g66
NtRp373
(dp374
g69
(dp375
g77
I3
ssg78
g369
sg71
(lp376
S''
asbasbasbag64
(g80
g66
NtRp377
(dp378
g69
(dp379
sg78
g289
sg71
(lp380
g64
(g85
g66
NtRp381
(dp382
g69
(dp383
g89
g90
ssg78
g377
sg71
(lp384
S'max-age'
p385
asbag64
(g85
g66
NtRp386
(dp387
g69
(dp388
g96
g97
ssg78
g377
sg71
(lp389
S':'
asbag64
(g85
g66
NtRp390
(dp391
g69
(dp392
sg78
g377
sg71
(lp393
g64
(g65
g66
NtRp394
(dp395
g69
(dp396
g77
I3
ssg78
g390
sg71
(lp397
S''
asbasbasbag64
(g80
g66
NtRp398
(dp399
g69
(dp400
sg78
g289
sg71
(lp401
g64
(g85
g66
NtRp402
(dp403
g69
(dp404
g89
g90
ssg78
g398
sg71
(lp405
S'path'
p406
asbag64
(g85
g66
NtRp407
(dp408
g69
(dp409
g96
g97
ssg78
g398
sg71
(lp410
S':'
asbag64
(g85
g66
NtRp411
(dp412
g69
(dp413
sg78
g398
sg71
(lp414
g64
(g65
g66
NtRp415
(dp416
g69
(dp417
g77
I3
ssg78
g411
sg71
(lp418
S''
asbasbasbag64
(g80
g66
NtRp419
(dp420
g69
(dp421
sg78
g289
sg71
(lp422
g64
(g85
g66
NtRp423
(dp424
g69
(dp425
g89
g90
ssg78
g419
sg71
(lp426
S'secure'
p427
asbag64
(g85
g66
NtRp428
(dp429
g69
(dp430
g96
g97
ssg78
g419
sg71
(lp431
S':'
asbag64
(g85
g66
NtRp432
(dp433
g69
(dp434
sg78
g419
sg71
(lp435
g64
(g65
g66
NtRp436
(dp437
g69
(dp438
g77
I3
ssg78
g432
sg71
(lp439
S''
asbasbasbag64
(g80
g66
NtRp440
(dp441
g69
(dp442
sg78
g289
sg71
(lp443
g64
(g85
g66
NtRp444
(dp445
g69
(dp446
g89
g90
ssg78
g440
sg71
(lp447
S'version'
p448
asbag64
(g85
g66
NtRp449
(dp450
g69
(dp451
g96
g97
ssg78
g440
sg71
(lp452
S':'
asbag64
(g85
g66
NtRp453
(dp454
g69
(dp455
sg78
g440
sg71
(lp456
g64
(g65
g66
NtRp457
(dp458
g69
(dp459
g77
I3
ssg78
g453
sg71
(lp460
S''
asbasbasbasbasbasbasbag64
(g80
g66
NtRp461
(dp462
g69
(dp463
sg78
g263
sg71
(lp464
g64
(g85
g66
NtRp465
(dp466
g69
(dp467
g89
g90
ssg78
g461
sg71
(lp468
S'session_id_admin'
p469
asbag64
(g85
g66
NtRp470
(dp471
g69
(dp472
g96
g97
ssg78
g461
sg71
(lp473
S':'
asbag64
(g85
g66
NtRp474
(dp475
g69
(dp476
sg78
g461
sg71
(lp477
g64
(g65
g66
NtRp478
(dp479
g69
(dp480
g77
I4
ssg78
g474
sg71
(lp481
S'127.0.0.1-634e911d-1fde-455e-a6e2-97efd4213cb7'
p482
ag64
(g73
g66
NtRp483
(dp484
g69
(dp485
g77
I3
ssg78
Nsg71
(lp486
g64
(g80
g66
NtRp487
(dp488
g69
(dp489
sg78
g483
sg71
(lp490
g64
(g85
g66
NtRp491
(dp492
g69
(dp493
g89
g90
ssg78
g487
sg71
(lp494
g301
asbag64
(g85
g66
NtRp495
(dp496
g69
(dp497
g96
g97
ssg78
g487
sg71
(lp498
S':'
asbag64
(g85
g66
NtRp499
(dp500
g69
(dp501
sg78
g487
sg71
(lp502
g64
(g65
g66
NtRp503
(dp504
g69
(dp505
g77
I3
ssg78
g499
sg71
(lp506
S''
asbasbasbag64
(g80
g66
NtRp507
(dp508
g69
(dp509
sg78
g483
sg71
(lp510
g64
(g85
g66
NtRp511
(dp512
g69
(dp513
g89
g90
ssg78
g507
sg71
(lp514
g322
asbag64
(g85
g66
NtRp515
(dp516
g69
(dp517
g96
g97
ssg78
g507
sg71
(lp518
S':'
asbag64
(g85
g66
NtRp519
(dp520
g69
(dp521
sg78
g507
sg71
(lp522
g64
(g65
g66
NtRp523
(dp524
g69
(dp525
g77
I3
ssg78
g519
sg71
(lp526
S''
asbasbasbag64
(g80
g66
NtRp527
(dp528
g69
(dp529
sg78
g483
sg71
(lp530
g64
(g85
g66
NtRp531
(dp532
g69
(dp533
g89
g90
ssg78
g527
sg71
(lp534
g343
asbag64
(g85
g66
NtRp535
(dp536
g69
(dp537
g96
g97
ssg78
g527
sg71
(lp538
S':'
asbag64
(g85
g66
NtRp539
(dp540
g69
(dp541
sg78
g527
sg71
(lp542
g64
(g65
g66
NtRp543
(dp544
g69
(dp545
g77
I3
ssg78
g539
sg71
(lp546
S''
asbasbasbag64
(g80
g66
NtRp547
(dp548
g69
(dp549
sg78
g483
sg71
(lp550
g64
(g85
g66
NtRp551
(dp552
g69
(dp553
g89
g90
ssg78
g547
sg71
(lp554
g364
asbag64
(g85
g66
NtRp555
(dp556
g69
(dp557
g96
g97
ssg78
g547
sg71
(lp558
S':'
asbag64
(g85
g66
NtRp559
(dp560
g69
(dp561
sg78
g547
sg71
(lp562
g64
(g65
g66
NtRp563
(dp564
g69
(dp565
g77
I3
ssg78
g559
sg71
(lp566
S''
asbasbasbag64
(g80
g66
NtRp567
(dp568
g69
(dp569
sg78
g483
sg71
(lp570
g64
(g85
g66
NtRp571
(dp572
g69
(dp573
g89
g90
ssg78
g567
sg71
(lp574
g385
asbag64
(g85
g66
NtRp575
(dp576
g69
(dp577
g96
g97
ssg78
g567
sg71
(lp578
S':'
asbag64
(g85
g66
NtRp579
(dp580
g69
(dp581
sg78
g567
sg71
(lp582
g64
(g65
g66
NtRp583
(dp584
g69
(dp585
g77
I3
ssg78
g579
sg71
(lp586
S''
asbasbasbag64
(g80
g66
NtRp587
(dp588
g69
(dp589
sg78
g483
sg71
(lp590
g64
(g85
g66
NtRp591
(dp592
g69
(dp593
g89
g90
ssg78
g587
sg71
(lp594
g406
asbag64
(g85
g66
NtRp595
(dp596
g69
(dp597
g96
g97
ssg78
g587
sg71
(lp598
S':'
asbag64
(g85
g66
NtRp599
(dp600
g69
(dp601
sg78
g587
sg71
(lp602
g64
(g65
g66
NtRp603
(dp604
g69
(dp605
g77
I3
ssg78
g599
sg71
(lp606
S''
asbasbasbag64
(g80
g66
NtRp607
(dp608
g69
(dp609
sg78
g483
sg71
(lp610
g64
(g85
g66
NtRp611
(dp612
g69
(dp613
g89
g90
ssg78
g607
sg71
(lp614
g427
asbag64
(g85
g66
NtRp615
(dp616
g69
(dp617
g96
g97
ssg78
g607
sg71
(lp618
S':'
asbag64
(g85
g66
NtRp619
(dp620
g69
(dp621
sg78
g607
sg71
(lp622
g64
(g65
g66
NtRp623
(dp624
g69
(dp625
g77
I3
ssg78
g619
sg71
(lp626
S''
asbasbasbag64
(g80
g66
NtRp627
(dp628
g69
(dp629
sg78
g483
sg71
(lp630
g64
(g85
g66
NtRp631
(dp632
g69
(dp633
g89
g90
ssg78
g627
sg71
(lp634
g448
asbag64
(g85
g66
NtRp635
(dp636
g69
(dp637
g96
g97
ssg78
g627
sg71
(lp638
S':'
asbag64
(g85
g66
NtRp639
(dp640
g69
(dp641
sg78
g627
sg71
(lp642
g64
(g65
g66
NtRp643
(dp644
g69
(dp645
g77
I3
ssg78
g639
sg71
(lp646
S''
asbasbasbasbasbasbasbag64
(g80
g66
NtRp647
(dp648
g69
(dp649
sg78
g263
sg71
(lp650
g64
(g85
g66
NtRp651
(dp652
g69
(dp653
g89
g90
ssg78
g647
sg71
(lp654
S'session_id_welcome'
p655
asbag64
(g85
g66
NtRp656
(dp657
g69
(dp658
g96
g97
ssg78
g647
sg71
(lp659
S':'
asbag64
(g85
g66
NtRp660
(dp661
g69
(dp662
sg78
g647
sg71
(lp663
g64
(g65
g66
NtRp664
(dp665
g69
(dp666
g77
I4
ssg78
g660
sg71
(lp667
S'127.0.0.1-fcddb8ed-ee0c-4d28-bfa6-6fd1606b92e1'
p668
ag64
(g73
g66
NtRp669
(dp670
g69
(dp671
g77
I3
ssg78
Nsg71
(lp672
g64
(g80
g66
NtRp673
(dp674
g69
(dp675
sg78
g669
sg71
(lp676
g64
(g85
g66
NtRp677
(dp678
g69
(dp679
g89
g90
ssg78
g673
sg71
(lp680
g301
asbag64
(g85
g66
NtRp681
(dp682
g69
(dp683
g96
g97
ssg78
g673
sg71
(lp684
S':'
asbag64
(g85
g66
NtRp685
(dp686
g69
(dp687
sg78
g673
sg71
(lp688
g64
(g65
g66
NtRp689
(dp690
g69
(dp691
g77
I3
ssg78
g685
sg71
(lp692
S''
asbasbasbag64
(g80
g66
NtRp693
(dp694
g69
(dp695
sg78
g669
sg71
(lp696
g64
(g85
g66
NtRp697
(dp698
g69
(dp699
g89
g90
ssg78
g693
sg71
(lp700
g322
asbag64
(g85
g66
NtRp701
(dp702
g69
(dp703
g96
g97
ssg78
g693
sg71
(lp704
S':'
asbag64
(g85
g66
NtRp705
(dp706
g69
(dp707
sg78
g693
sg71
(lp708
g64
(g65
g66
NtRp709
(dp710
g69
(dp711
g77
I3
ssg78
g705
sg71
(lp712
S''
asbasbasbag64
(g80
g66
NtRp713
(dp714
g69
(dp715
sg78
g669
sg71
(lp716
g64
(g85
g66
NtRp717
(dp718
g69
(dp719
g89
g90
ssg78
g713
sg71
(lp720
g343
asbag64
(g85
g66
NtRp721
(dp722
g69
(dp723
g96
g97
ssg78
g713
sg71
(lp724
S':'
asbag64
(g85
g66
NtRp725
(dp726
g69
(dp727
sg78
g713
sg71
(lp728
g64
(g65
g66
NtRp729
(dp730
g69
(dp731
g77
I3
ssg78
g725
sg71
(lp732
S''
asbasbasbag64
(g80
g66
NtRp733
(dp734
g69
(dp735
sg78
g669
sg71
(lp736
g64
(g85
g66
NtRp737
(dp738
g69
(dp739
g89
g90
ssg78
g733
sg71
(lp740
g364
asbag64
(g85
g66
NtRp741
(dp742
g69
(dp743
g96
g97
ssg78
g733
sg71
(lp744
S':'
asbag64
(g85
g66
NtRp745
(dp746
g69
(dp747
sg78
g733
sg71
(lp748
g64
(g65
g66
NtRp749
(dp750
g69
(dp751
g77
I3
ssg78
g745
sg71
(lp752
S''
asbasbasbag64
(g80
g66
NtRp753
(dp754
g69
(dp755
sg78
g669
sg71
(lp756
g64
(g85
g66
NtRp757
(dp758
g69
(dp759
g89
g90
ssg78
g753
sg71
(lp760
g385
asbag64
(g85
g66
NtRp761
(dp762
g69
(dp763
g96
g97
ssg78
g753
sg71
(lp764
S':'
asbag64
(g85
g66
NtRp765
(dp766
g69
(dp767
sg78
g753
sg71
(lp768
g64
(g65
g66
NtRp769
(dp770
g69
(dp771
g77
I3
ssg78
g765
sg71
(lp772
S''
asbasbasbag64
(g80
g66
NtRp773
(dp774
g69
(dp775
sg78
g669
sg71
(lp776
g64
(g85
g66
NtRp777
(dp778
g69
(dp779
g89
g90
ssg78
g773
sg71
(lp780
g406
asbag64
(g85
g66
NtRp781
(dp782
g69
(dp783
g96
g97
ssg78
g773
sg71
(lp784
S':'
asbag64
(g85
g66
NtRp785
(dp786
g69
(dp787
sg78
g773
sg71
(lp788
g64
(g65
g66
NtRp789
(dp790
g69
(dp791
g77
I3
ssg78
g785
sg71
(lp792
S''
asbasbasbag64
(g80
g66
NtRp793
(dp794
g69
(dp795
sg78
g669
sg71
(lp796
g64
(g85
g66
NtRp797
(dp798
g69
(dp799
g89
g90
ssg78
g793
sg71
(lp800
g427
asbag64
(g85
g66
NtRp801
(dp802
g69
(dp803
g96
g97
ssg78
g793
sg71
(lp804
S':'
asbag64
(g85
g66
NtRp805
(dp806
g69
(dp807
sg78
g793
sg71
(lp808
g64
(g65
g66
NtRp809
(dp810
g69
(dp811
g77
I3
ssg78
g805
sg71
(lp812
S''
asbasbasbag64
(g80
g66
NtRp813
(dp814
g69
(dp815
sg78
g669
sg71
(lp816
g64
(g85
g66
NtRp817
(dp818
g69
(dp819
g89
g90
ssg78
g813
sg71
(lp820
g448
asbag64
(g85
g66
NtRp821
(dp822
g69
(dp823
g96
g97
ssg78
g813
sg71
(lp824
S':'
asbag64
(g85
g66
NtRp825
(dp826
g69
(dp827
sg78
g813
sg71
(lp828
g64
(g65
g66
NtRp829
(dp830
g69
(dp831
g77
I3
ssg78
g825
sg71
(lp832
S''
asbasbasbasbasbasbasbag64
(g80
g66
NtRp833
(dp834
g69
(dp835
sg78
g263
sg71
(lp836
g64
(g85
g66
NtRp837
(dp838
g69
(dp839
g89
g90
ssg78
g833
sg71
(lp840
S'session_id_wsd_tool'
p841
asbag64
(g85
g66
NtRp842
(dp843
g69
(dp844
g96
g97
ssg78
g833
sg71
(lp845
S':'
asbag64
(g85
g66
NtRp846
(dp847
g69
(dp848
sg78
g833
sg71
(lp849
g64
(g65
g66
NtRp850
(dp851
g69
(dp852
g77
I4
ssg78
g846
sg71
(lp853
S'127.0.0.1-1b9513ff-7a4a-46e3-9d60-f0b6086e5c03'
p854
ag64
(g73
g66
NtRp855
(dp856
g69
(dp857
g77
I3
ssg78
Nsg71
(lp858
g64
(g80
g66
NtRp859
(dp860
g69
(dp861
sg78
g855
sg71
(lp862
g64
(g85
g66
NtRp863
(dp864
g69
(dp865
g89
g90
ssg78
g859
sg71
(lp866
g301
asbag64
(g85
g66
NtRp867
(dp868
g69
(dp869
g96
g97
ssg78
g859
sg71
(lp870
S':'
asbag64
(g85
g66
NtRp871
(dp872
g69
(dp873
sg78
g859
sg71
(lp874
g64
(g65
g66
NtRp875
(dp876
g69
(dp877
g77
I3
ssg78
g871
sg71
(lp878
S''
asbasbasbag64
(g80
g66
NtRp879
(dp880
g69
(dp881
sg78
g855
sg71
(lp882
g64
(g85
g66
NtRp883
(dp884
g69
(dp885
g89
g90
ssg78
g879
sg71
(lp886
g322
asbag64
(g85
g66
NtRp887
(dp888
g69
(dp889
g96
g97
ssg78
g879
sg71
(lp890
S':'
asbag64
(g85
g66
NtRp891
(dp892
g69
(dp893
sg78
g879
sg71
(lp894
g64
(g65
g66
NtRp895
(dp896
g69
(dp897
g77
I3
ssg78
g891
sg71
(lp898
S''
asbasbasbag64
(g80
g66
NtRp899
(dp900
g69
(dp901
sg78
g855
sg71
(lp902
g64
(g85
g66
NtRp903
(dp904
g69
(dp905
g89
g90
ssg78
g899
sg71
(lp906
g343
asbag64
(g85
g66
NtRp907
(dp908
g69
(dp909
g96
g97
ssg78
g899
sg71
(lp910
S':'
asbag64
(g85
g66
NtRp911
(dp912
g69
(dp913
sg78
g899
sg71
(lp914
g64
(g65
g66
NtRp915
(dp916
g69
(dp917
g77
I3
ssg78
g911
sg71
(lp918
S''
asbasbasbag64
(g80
g66
NtRp919
(dp920
g69
(dp921
sg78
g855
sg71
(lp922
g64
(g85
g66
NtRp923
(dp924
g69
(dp925
g89
g90
ssg78
g919
sg71
(lp926
g364
asbag64
(g85
g66
NtRp927
(dp928
g69
(dp929
g96
g97
ssg78
g919
sg71
(lp930
S':'
asbag64
(g85
g66
NtRp931
(dp932
g69
(dp933
sg78
g919
sg71
(lp934
g64
(g65
g66
NtRp935
(dp936
g69
(dp937
g77
I3
ssg78
g931
sg71
(lp938
S''
asbasbasbag64
(g80
g66
NtRp939
(dp940
g69
(dp941
sg78
g855
sg71
(lp942
g64
(g85
g66
NtRp943
(dp944
g69
(dp945
g89
g90
ssg78
g939
sg71
(lp946
g385
asbag64
(g85
g66
NtRp947
(dp948
g69
(dp949
g96
g97
ssg78
g939
sg71
(lp950
S':'
asbag64
(g85
g66
NtRp951
(dp952
g69
(dp953
sg78
g939
sg71
(lp954
g64
(g65
g66
NtRp955
(dp956
g69
(dp957
g77
I3
ssg78
g951
sg71
(lp958
S''
asbasbasbag64
(g80
g66
NtRp959
(dp960
g69
(dp961
sg78
g855
sg71
(lp962
g64
(g85
g66
NtRp963
(dp964
g69
(dp965
g89
g90
ssg78
g959
sg71
(lp966
g406
asbag64
(g85
g66
NtRp967
(dp968
g69
(dp969
g96
g97
ssg78
g959
sg71
(lp970
S':'
asbag64
(g85
g66
NtRp971
(dp972
g69
(dp973
sg78
g959
sg71
(lp974
g64
(g65
g66
NtRp975
(dp976
g69
(dp977
g77
I3
ssg78
g971
sg71
(lp978
S''
asbasbasbag64
(g80
g66
NtRp979
(dp980
g69
(dp981
sg78
g855
sg71
(lp982
g64
(g85
g66
NtRp983
(dp984
g69
(dp985
g89
g90
ssg78
g979
sg71
(lp986
g427
asbag64
(g85
g66
NtRp987
(dp988
g69
(dp989
g96
g97
ssg78
g979
sg71
(lp990
S':'
asbag64
(g85
g66
NtRp991
(dp992
g69
(dp993
sg78
g979
sg71
(lp994
g64
(g65
g66
NtRp995
(dp996
g69
(dp997
g77
I3
ssg78
g991
sg71
(lp998
S''
asbasbasbag64
(g80
g66
NtRp999
(dp1000
g69
(dp1001
sg78
g855
sg71
(lp1002
g64
(g85
g66
NtRp1003
(dp1004
g69
(dp1005
g89
g90
ssg78
g999
sg71
(lp1006
g448
asbag64
(g85
g66
NtRp1007
(dp1008
g69
(dp1009
g96
g97
ssg78
g999
sg71
(lp1010
S':'
asbag64
(g85
g66
NtRp1011
(dp1012
g69
(dp1013
sg78
g999
sg71
(lp1014
g64
(g65
g66
NtRp1015
(dp1016
g69
(dp1017
g77
I3
ssg78
g1011
sg71
(lp1018
S''
asbasbasbasbasbasbasbasbasbasbasbag64
(g80
g66
NtRp1019
(dp1020
g69
(dp1021
sg78
g74
sg71
(lp1022
g64
(g85
g66
NtRp1023
(dp1024
g69
(dp1025
g89
g90
ssg78
g1019
sg71
(lp1026
S'env'
p1027
asbag64
(g85
g66
NtRp1028
(dp1029
g69
(dp1030
g96
g97
ssg78
g1019
sg71
(lp1031
S':'
asbag64
(g85
g66
NtRp1032
(dp1033
g69
(dp1034
sg78
g1019
sg71
(lp1035
g64
(g65
g66
NtRp1036
(dp1037
g69
(dp1038
g77
I5
ssg78
g1032
sg71
(lp1039
g64
(g73
g66
NtRp1040
(dp1041
g69
(dp1042
g77
I4
ssg78
Nsg71
(lp1043
g64
(g80
g66
NtRp1044
(dp1045
g69
(dp1046
sg78
g1040
sg71
(lp1047
g64
(g85
g66
NtRp1048
(dp1049
g69
(dp1050
g89
g90
ssg78
g1044
sg71
(lp1051
S'app_folders'
p1052
asbag64
(g85
g66
NtRp1053
(dp1054
g69
(dp1055
g96
g97
ssg78
g1044
sg71
(lp1056
S':'
asbag64
(g85
g66
NtRp1057
(dp1058
g69
(dp1059
sg78
g1044
sg71
(lp1060
g64
(g65
g66
NtRp1061
(dp1062
g69
(dp1063
g77
I4
ssg78
g1057
sg71
(lp1064
S"set(['/home/nazrul/web2py/applications/welcome/', '/home/nazrul/web2py/applications/WSD_Tool/', '/home/nazrul/web2py/applications/admin/'])"
p1065
asbasbasbag64
(g80
g66
NtRp1066
(dp1067
g69
(dp1068
sg78
g1040
sg71
(lp1069
g64
(g85
g66
NtRp1070
(dp1071
g69
(dp1072
g89
g90
ssg78
g1066
sg71
(lp1073
S'applications_parent'
p1074
asbag64
(g85
g66
NtRp1075
(dp1076
g69
(dp1077
g96
g97
ssg78
g1066
sg71
(lp1078
S':'
asbag64
(g85
g66
NtRp1079
(dp1080
g69
(dp1081
sg78
g1066
sg71
(lp1082
g64
(g65
g66
NtRp1083
(dp1084
g69
(dp1085
g77
I4
ssg78
g1079
sg71
(lp1086
S'/home/nazrul/web2py'
p1087
asbasbasbag64
(g80
g66
NtRp1088
(dp1089
g69
(dp1090
sg78
g1040
sg71
(lp1091
g64
(g85
g66
NtRp1092
(dp1093
g69
(dp1094
g89
g90
ssg78
g1088
sg71
(lp1095
S'cmd_args'
p1096
asbag64
(g85
g66
NtRp1097
(dp1098
g69
(dp1099
g96
g97
ssg78
g1088
sg71
(lp1100
S':'
asbag64
(g85
g66
NtRp1101
(dp1102
g69
(dp1103
sg78
g1088
sg71
(lp1104
g64
(g65
g66
NtRp1105
(dp1106
g69
(dp1107
g77
I4
ssg78
g1101
sg71
(lp1108
g64
(g73
g66
NtRp1109
(dp1110
g69
(dp1111
g77
I3
ssg78
Nsg71
(lp1112
sbasbasbasbag64
(g80
g66
NtRp1113
(dp1114
g69
(dp1115
sg78
g1040
sg71
(lp1116
g64
(g85
g66
NtRp1117
(dp1118
g69
(dp1119
g89
g90
ssg78
g1113
sg71
(lp1120
S'cmd_options'
p1121
asbag64
(g85
g66
NtRp1122
(dp1123
g69
(dp1124
g96
g97
ssg78
g1113
sg71
(lp1125
S':'
asbag64
(g85
g66
NtRp1126
(dp1127
g69
(dp1128
sg78
g1113
sg71
(lp1129
g64
(g65
g66
NtRp1130
(dp1131
g69
(dp1132
g77
I4
ssg78
g1126
sg71
(lp1133
S"<Values at 0xa44192c: {'verbose': False, 'ip': '127.0.0.1', 'with_scheduler': False, 'ips': [], 'shutdown_timeout': 5, 'taskbar': False, 'port': 8000, 'maxthreads': None, 'softcron': False, 'server_name': 'nazrul-Compaq-Presario-CQ40-Notebook-PC', 'bpython': False, 'nogui': False, 'pid_filename': 'httpserver.pid', 'extcron': False, 'runcron': False, 'run_system_tests': False, 'test': None, 'folder': '/home/nazrul/web2py', 'config': '', 'import_models': False, 'winservice': '', 'shell': None, 'run': '', 'log_filename': 'httpserver.log', 'debuglevel': 30, 'args': [''], 'socket_timeout': 5, 'ssl_ca_certificate': None, 'scheduler': None, 'profiler_filename': None, 'ssl_private_key': '', 'scheduler_groups': None, 'password': '<ask>', 'request_queue_size': 5, 'ssl_certificate': '', 'cronjob': False, 'numthreads': None, 'quiet': False, 'interfaces': None, 'minthreads': None, 'timeout': 10, 'plain': False, 'nobanner': False}>"
p1134
asbasbasbag64
(g80
g66
NtRp1135
(dp1136
g69
(dp1137
sg78
g1040
sg71
(lp1138
g64
(g85
g66
NtRp1139
(dp1140
g69
(dp1141
g89
g90
ssg78
g1135
sg71
(lp1142
S'db_sessions'
p1143
asbag64
(g85
g66
NtRp1144
(dp1145
g69
(dp1146
g96
g97
ssg78
g1135
sg71
(lp1147
S':'
asbag64
(g85
g66
NtRp1148
(dp1149
g69
(dp1150
sg78
g1135
sg71
(lp1151
g64
(g65
g66
NtRp1152
(dp1153
g69
(dp1154
g77
I4
ssg78
g1148
sg71
(lp1155
S'set([])'
p1156
asbasbasbag64
(g80
g66
NtRp1157
(dp1158
g69
(dp1159
sg78
g1040
sg71
(lp1160
g64
(g85
g66
NtRp1161
(dp1162
g69
(dp1163
g89
g90
ssg78
g1157
sg71
(lp1164
S'debugging'
p1165
asbag64
(g85
g66
NtRp1166
(dp1167
g69
(dp1168
g96
g97
ssg78
g1157
sg71
(lp1169
S':'
asbag64
(g85
g66
NtRp1170
(dp1171
g69
(dp1172
sg78
g1157
sg71
(lp1173
g64
(g65
g66
NtRp1174
(dp1175
g69
(dp1176
g77
I4
ssg78
g1170
sg71
(lp1177
g107
asbasbasbag64
(g80
g66
NtRp1178
(dp1179
g69
(dp1180
sg78
g1040
sg71
(lp1181
g64
(g85
g66
NtRp1182
(dp1183
g69
(dp1184
g89
g90
ssg78
g1178
sg71
(lp1185
S'gluon_parent'
p1186
asbag64
(g85
g66
NtRp1187
(dp1188
g69
(dp1189
g96
g97
ssg78
g1178
sg71
(lp1190
S':'
asbag64
(g85
g66
NtRp1191
(dp1192
g69
(dp1193
sg78
g1178
sg71
(lp1194
g64
(g65
g66
NtRp1195
(dp1196
g69
(dp1197
g77
I4
ssg78
g1191
sg71
(lp1198
S'/home/nazrul/web2py'
p1199
asbasbasbag64
(g80
g66
NtRp1200
(dp1201
g69
(dp1202
sg78
g1040
sg71
(lp1203
g64
(g85
g66
NtRp1204
(dp1205
g69
(dp1206
g89
g90
ssg78
g1200
sg71
(lp1207
S'http_accept'
p1208
asbag64
(g85
g66
NtRp1209
(dp1210
g69
(dp1211
g96
g97
ssg78
g1200
sg71
(lp1212
S':'
asbag64
(g85
g66
NtRp1213
(dp1214
g69
(dp1215
sg78
g1200
sg71
(lp1216
g64
(g65
g66
NtRp1217
(dp1218
g69
(dp1219
g77
I4
ssg78
g1213
sg71
(lp1220
S'text/html,application/xhtml+xml,application/xml;q=0.9,*/*;q=0.8'
p1221
asbasbasbag64
(g80
g66
NtRp1222
(dp1223
g69
(dp1224
sg78
g1040
sg71
(lp1225
g64
(g85
g66
NtRp1226
(dp1227
g69
(dp1228
g89
g90
ssg78
g1222
sg71
(lp1229
S'http_accept_encoding'
p1230
asbag64
(g85
g66
NtRp1231
(dp1232
g69
(dp1233
g96
g97
ssg78
g1222
sg71
(lp1234
S':'
asbag64
(g85
g66
NtRp1235
(dp1236
g69
(dp1237
sg78
g1222
sg71
(lp1238
g64
(g65
g66
NtRp1239
(dp1240
g69
(dp1241
g77
I4
ssg78
g1235
sg71
(lp1242
S'gzip, deflate'
p1243
asbasbasbag64
(g80
g66
NtRp1244
(dp1245
g69
(dp1246
sg78
g1040
sg71
(lp1247
g64
(g85
g66
NtRp1248
(dp1249
g69
(dp1250
g89
g90
ssg78
g1244
sg71
(lp1251
S'http_accept_language'
p1252
asbag64
(g85
g66
NtRp1253
(dp1254
g69
(dp1255
g96
g97
ssg78
g1244
sg71
(lp1256
S':'
asbag64
(g85
g66
NtRp1257
(dp1258
g69
(dp1259
sg78
g1244
sg71
(lp1260
g64
(g65
g66
NtRp1261
(dp1262
g69
(dp1263
g77
I4
ssg78
g1257
sg71
(lp1264
S'en-US,en;q=0.5'
p1265
asbasbasbag64
(g80
g66
NtRp1266
(dp1267
g69
(dp1268
sg78
g1040
sg71
(lp1269
g64
(g85
g66
NtRp1270
(dp1271
g69
(dp1272
g89
g90
ssg78
g1266
sg71
(lp1273
S'http_cache_control'
p1274
asbag64
(g85
g66
NtRp1275
(dp1276
g69
(dp1277
g96
g97
ssg78
g1266
sg71
(lp1278
S':'
asbag64
(g85
g66
NtRp1279
(dp1280
g69
(dp1281
sg78
g1266
sg71
(lp1282
g64
(g65
g66
NtRp1283
(dp1284
g69
(dp1285
g77
I4
ssg78
g1279
sg71
(lp1286
S'max-age=0'
p1287
asbasbasbag64
(g80
g66
NtRp1288
(dp1289
g69
(dp1290
sg78
g1040
sg71
(lp1291
g64
(g85
g66
NtRp1292
(dp1293
g69
(dp1294
g89
g90
ssg78
g1288
sg71
(lp1295
S'http_connection'
p1296
asbag64
(g85
g66
NtRp1297
(dp1298
g69
(dp1299
g96
g97
ssg78
g1288
sg71
(lp1300
S':'
asbag64
(g85
g66
NtRp1301
(dp1302
g69
(dp1303
sg78
g1288
sg71
(lp1304
g64
(g65
g66
NtRp1305
(dp1306
g69
(dp1307
g77
I4
ssg78
g1301
sg71
(lp1308
S'keep-alive'
p1309
asbasbasbag64
(g80
g66
NtRp1310
(dp1311
g69
(dp1312
sg78
g1040
sg71
(lp1313
g64
(g85
g66
NtRp1314
(dp1315
g69
(dp1316
g89
g90
ssg78
g1310
sg71
(lp1317
S'http_cookie'
p1318
asbag64
(g85
g66
NtRp1319
(dp1320
g69
(dp1321
g96
g97
ssg78
g1310
sg71
(lp1322
S':'
asbag64
(g85
g66
NtRp1323
(dp1324
g69
(dp1325
sg78
g1310
sg71
(lp1326
g64
(g65
g66
NtRp1327
(dp1328
g69
(dp1329
g77
I4
ssg78
g1323
sg71
(lp1330
S'KBD=0hi-0; session_id_welcome=127.0.0.1-fcddb8ed-ee0c-4d28-bfa6-6fd1606b92e1; session_id_admin=127.0.0.1-634e911d-1fde-455e-a6e2-97efd4213cb7; session_id_wsd_tool=127.0.0.1-1b9513ff-7a4a-46e3-9d60-f0b6086e5c03'
p1331
asbasbasbag64
(g80
g66
NtRp1332
(dp1333
g69
(dp1334
sg78
g1040
sg71
(lp1335
g64
(g85
g66
NtRp1336
(dp1337
g69
(dp1338
g89
g90
ssg78
g1332
sg71
(lp1339
S'http_host'
p1340
asbag64
(g85
g66
NtRp1341
(dp1342
g69
(dp1343
g96
g97
ssg78
g1332
sg71
(lp1344
S':'
asbag64
(g85
g66
NtRp1345
(dp1346
g69
(dp1347
sg78
g1332
sg71
(lp1348
g64
(g65
g66
NtRp1349
(dp1350
g69
(dp1351
g77
I4
ssg78
g1345
sg71
(lp1352
S'127.0.0.1:8000'
p1353
asbasbasbag64
(g80
g66
NtRp1354
(dp1355
g69
(dp1356
sg78
g1040
sg71
(lp1357
g64
(g85
g66
NtRp1358
(dp1359
g69
(dp1360
g89
g90
ssg78
g1354
sg71
(lp1361
S'http_referer'
p1362
asbag64
(g85
g66
NtRp1363
(dp1364
g69
(dp1365
g96
g97
ssg78
g1354
sg71
(lp1366
S':'
asbag64
(g85
g66
NtRp1367
(dp1368
g69
(dp1369
sg78
g1354
sg71
(lp1370
g64
(g65
g66
NtRp1371
(dp1372
g69
(dp1373
g77
I4
ssg78
g1367
sg71
(lp1374
S'http://127.0.0.1:8000/WSD_Tool/default/reasonc?hindit=10'
p1375
asbasbasbag64
(g80
g66
NtRp1376
(dp1377
g69
(dp1378
sg78
g1040
sg71
(lp1379
g64
(g85
g66
NtRp1380
(dp1381
g69
(dp1382
g89
g90
ssg78
g1376
sg71
(lp1383
S'http_user_agent'
p1384
asbag64
(g85
g66
NtRp1385
(dp1386
g69
(dp1387
g96
g97
ssg78
g1376
sg71
(lp1388
S':'
asbag64
(g85
g66
NtRp1389
(dp1390
g69
(dp1391
sg78
g1376
sg71
(lp1392
g64
(g65
g66
NtRp1393
(dp1394
g69
(dp1395
g77
I4
ssg78
g1389
sg71
(lp1396
S'Mozilla/5.0 (X11; Ubuntu; Linux i686; rv:18.0) Gecko/20100101 Firefox/18.0'
p1397
asbasbasbag64
(g80
g66
NtRp1398
(dp1399
g69
(dp1400
sg78
g1040
sg71
(lp1401
g64
(g85
g66
NtRp1402
(dp1403
g69
(dp1404
g89
g90
ssg78
g1398
sg71
(lp1405
S'is_jython'
p1406
asbag64
(g85
g66
NtRp1407
(dp1408
g69
(dp1409
g96
g97
ssg78
g1398
sg71
(lp1410
S':'
asbag64
(g85
g66
NtRp1411
(dp1412
g69
(dp1413
sg78
g1398
sg71
(lp1414
g64
(g65
g66
NtRp1415
(dp1416
g69
(dp1417
g77
I4
ssg78
g1411
sg71
(lp1418
g107
asbasbasbag64
(g80
g66
NtRp1419
(dp1420
g69
(dp1421
sg78
g1040
sg71
(lp1422
g64
(g85
g66
NtRp1423
(dp1424
g69
(dp1425
g89
g90
ssg78
g1419
sg71
(lp1426
S'is_pypy'
p1427
asbag64
(g85
g66
NtRp1428
(dp1429
g69
(dp1430
g96
g97
ssg78
g1419
sg71
(lp1431
S':'
asbag64
(g85
g66
NtRp1432
(dp1433
g69
(dp1434
sg78
g1419
sg71
(lp1435
g64
(g65
g66
NtRp1436
(dp1437
g69
(dp1438
g77
I4
ssg78
g1432
sg71
(lp1439
g107
asbasbasbag64
(g80
g66
NtRp1440
(dp1441
g69
(dp1442
sg78
g1040
sg71
(lp1443
g64
(g85
g66
NtRp1444
(dp1445
g69
(dp1446
g89
g90
ssg78
g1440
sg71
(lp1447
S'local_hosts'
p1448
asbag64
(g85
g66
NtRp1449
(dp1450
g69
(dp1451
g96
g97
ssg78
g1440
sg71
(lp1452
S':'
asbag64
(g85
g66
NtRp1453
(dp1454
g69
(dp1455
sg78
g1440
sg71
(lp1456
g64
(g65
g66
NtRp1457
(dp1458
g69
(dp1459
g77
I4
ssg78
g1453
sg71
(lp1460
g64
(g73
g66
NtRp1461
(dp1462
g69
(dp1463
g77
I3
ssg78
Nsg71
(lp1464
g64
(g80
g66
NtRp1465
(dp1466
g69
(dp1467
sg78
g1461
sg71
(lp1468
g64
(g85
g66
NtRp1469
(dp1470
g69
(dp1471
sg78
g1465
sg71
(lp1472
g64
(g65
g66
NtRp1473
(dp1474
g69
(dp1475
g77
I3
ssg78
g1469
sg71
(lp1476
S'::1'
p1477
asbasbasbag64
(g80
g66
NtRp1478
(dp1479
g69
(dp1480
sg78
g1461
sg71
(lp1481
g64
(g85
g66
NtRp1482
(dp1483
g69
(dp1484
sg78
g1478
sg71
(lp1485
g64
(g65
g66
NtRp1486
(dp1487
g69
(dp1488
g77
I3
ssg78
g1482
sg71
(lp1489
S'127.0.1.1'
p1490
asbasbasbag64
(g80
g66
NtRp1491
(dp1492
g69
(dp1493
sg78
g1461
sg71
(lp1494
g64
(g85
g66
NtRp1495
(dp1496
g69
(dp1497
sg78
g1491
sg71
(lp1498
g64
(g65
g66
NtRp1499
(dp1500
g69
(dp1501
g77
I3
ssg78
g1495
sg71
(lp1502
S'::ffff:127.0.0.1'
p1503
asbasbasbag64
(g80
g66
NtRp1504
(dp1505
g69
(dp1506
sg78
g1461
sg71
(lp1507
g64
(g85
g66
NtRp1508
(dp1509
g69
(dp1510
sg78
g1504
sg71
(lp1511
g64
(g65
g66
NtRp1512
(dp1513
g69
(dp1514
g77
I3
ssg78
g1508
sg71
(lp1515
S'127.0.0.1'
p1516
asbasbasbag64
(g80
g66
NtRp1517
(dp1518
g69
(dp1519
sg78
g1461
sg71
(lp1520
g64
(g85
g66
NtRp1521
(dp1522
g69
(dp1523
sg78
g1517
sg71
(lp1524
g64
(g65
g66
NtRp1525
(dp1526
g69
(dp1527
g77
I3
ssg78
g1521
sg71
(lp1528
S'nazrul-Compaq-Presario-CQ40-Notebook-PC'
p1529
asbasbasbasbasbasbasbag64
(g80
g66
NtRp1530
(dp1531
g69
(dp1532
sg78
g1040
sg71
(lp1533
g64
(g85
g66
NtRp1534
(dp1535
g69
(dp1536
g89
g90
ssg78
g1530
sg71
(lp1537
S'path_info'
p1538
asbag64
(g85
g66
NtRp1539
(dp1540
g69
(dp1541
g96
g97
ssg78
g1530
sg71
(lp1542
S':'
asbag64
(g85
g66
NtRp1543
(dp1544
g69
(dp1545
sg78
g1530
sg71
(lp1546
g64
(g65
g66
NtRp1547
(dp1548
g69
(dp1549
g77
I4
ssg78
g1543
sg71
(lp1550
S'/WSD_Tool/default/rel'
p1551
asbasbasbag64
(g80
g66
NtRp1552
(dp1553
g69
(dp1554
sg78
g1040
sg71
(lp1555
g64
(g85
g66
NtRp1556
(dp1557
g69
(dp1558
g89
g90
ssg78
g1552
sg71
(lp1559
S'query_string'
p1560
asbag64
(g85
g66
NtRp1561
(dp1562
g69
(dp1563
g96
g97
ssg78
g1552
sg71
(lp1564
S':'
asbag64
(g85
g66
NtRp1565
(dp1566
g69
(dp1567
sg78
g1552
sg71
(lp1568
g64
(g65
g66
NtRp1569
(dp1570
g69
(dp1571
g77
I4
ssg78
g1565
sg71
(lp1572
S''
asbasbasbag64
(g80
g66
NtRp1573
(dp1574
g69
(dp1575
sg78
g1040
sg71
(lp1576
g64
(g85
g66
NtRp1577
(dp1578
g69
(dp1579
g89
g90
ssg78
g1573
sg71
(lp1580
S'remote_addr'
p1581
asbag64
(g85
g66
NtRp1582
(dp1583
g69
(dp1584
g96
g97
ssg78
g1573
sg71
(lp1585
S':'
asbag64
(g85
g66
NtRp1586
(dp1587
g69
(dp1588
sg78
g1573
sg71
(lp1589
g64
(g65
g66
NtRp1590
(dp1591
g69
(dp1592
g77
I4
ssg78
g1586
sg71
(lp1593
g219
asbasbasbag64
(g80
g66
NtRp1594
(dp1595
g69
(dp1596
sg78
g1040
sg71
(lp1597
g64
(g85
g66
NtRp1598
(dp1599
g69
(dp1600
g89
g90
ssg78
g1594
sg71
(lp1601
S'remote_port'
p1602
asbag64
(g85
g66
NtRp1603
(dp1604
g69
(dp1605
g96
g97
ssg78
g1594
sg71
(lp1606
S':'
asbag64
(g85
g66
NtRp1607
(dp1608
g69
(dp1609
sg78
g1594
sg71
(lp1610
g64
(g65
g66
NtRp1611
(dp1612
g69
(dp1613
g77
I4
ssg78
g1607
sg71
(lp1614
S'54373'
p1615
asbasbasbag64
(g80
g66
NtRp1616
(dp1617
g69
(dp1618
sg78
g1040
sg71
(lp1619
g64
(g85
g66
NtRp1620
(dp1621
g69
(dp1622
g89
g90
ssg78
g1616
sg71
(lp1623
S'request_method'
p1624
asbag64
(g85
g66
NtRp1625
(dp1626
g69
(dp1627
g96
g97
ssg78
g1616
sg71
(lp1628
S':'
asbag64
(g85
g66
NtRp1629
(dp1630
g69
(dp1631
sg78
g1616
sg71
(lp1632
g64
(g65
g66
NtRp1633
(dp1634
g69
(dp1635
g77
I4
ssg78
g1629
sg71
(lp1636
S'GET'
p1637
asbasbasbag64
(g80
g66
NtRp1638
(dp1639
g69
(dp1640
sg78
g1040
sg71
(lp1641
g64
(g85
g66
NtRp1642
(dp1643
g69
(dp1644
g89
g90
ssg78
g1638
sg71
(lp1645
S'request_uri'
p1646
asbag64
(g85
g66
NtRp1647
(dp1648
g69
(dp1649
g96
g97
ssg78
g1638
sg71
(lp1650
S':'
asbag64
(g85
g66
NtRp1651
(dp1652
g69
(dp1653
sg78
g1638
sg71
(lp1654
g64
(g65
g66
NtRp1655
(dp1656
g69
(dp1657
g77
I4
ssg78
g1651
sg71
(lp1658
g1551
asbasbasbag64
(g80
g66
NtRp1659
(dp1660
g69
(dp1661
sg78
g1040
sg71
(lp1662
g64
(g85
g66
NtRp1663
(dp1664
g69
(dp1665
g89
g90
ssg78
g1659
sg71
(lp1666
S'script_name'
p1667
asbag64
(g85
g66
NtRp1668
(dp1669
g69
(dp1670
g96
g97
ssg78
g1659
sg71
(lp1671
S':'
asbag64
(g85
g66
NtRp1672
(dp1673
g69
(dp1674
sg78
g1659
sg71
(lp1675
g64
(g65
g66
NtRp1676
(dp1677
g69
(dp1678
g77
I4
ssg78
g1672
sg71
(lp1679
S''
asbasbasbag64
(g80
g66
NtRp1680
(dp1681
g69
(dp1682
sg78
g1040
sg71
(lp1683
g64
(g85
g66
NtRp1684
(dp1685
g69
(dp1686
g89
g90
ssg78
g1680
sg71
(lp1687
S'server_name'
p1688
asbag64
(g85
g66
NtRp1689
(dp1690
g69
(dp1691
g96
g97
ssg78
g1680
sg71
(lp1692
S':'
asbag64
(g85
g66
NtRp1693
(dp1694
g69
(dp1695
sg78
g1680
sg71
(lp1696
g64
(g65
g66
NtRp1697
(dp1698
g69
(dp1699
g77
I4
ssg78
g1693
sg71
(lp1700
S'nazrul-Compaq-Presario-CQ40-Notebook-PC'
p1701
asbasbasbag64
(g80
g66
NtRp1702
(dp1703
g69
(dp1704
sg78
g1040
sg71
(lp1705
g64
(g85
g66
NtRp1706
(dp1707
g69
(dp1708
g89
g90
ssg78
g1702
sg71
(lp1709
S'server_port'
p1710
asbag64
(g85
g66
NtRp1711
(dp1712
g69
(dp1713
g96
g97
ssg78
g1702
sg71
(lp1714
S':'
asbag64
(g85
g66
NtRp1715
(dp1716
g69
(dp1717
sg78
g1702
sg71
(lp1718
g64
(g65
g66
NtRp1719
(dp1720
g69
(dp1721
g77
I4
ssg78
g1715
sg71
(lp1722
S'8000'
p1723
asbasbasbag64
(g80
g66
NtRp1724
(dp1725
g69
(dp1726
sg78
g1040
sg71
(lp1727
g64
(g85
g66
NtRp1728
(dp1729
g69
(dp1730
g89
g90
ssg78
g1724
sg71
(lp1731
S'server_protocol'
p1732
asbag64
(g85
g66
NtRp1733
(dp1734
g69
(dp1735
g96
g97
ssg78
g1724
sg71
(lp1736
S':'
asbag64
(g85
g66
NtRp1737
(dp1738
g69
(dp1739
sg78
g1724
sg71
(lp1740
g64
(g65
g66
NtRp1741
(dp1742
g69
(dp1743
g77
I4
ssg78
g1737
sg71
(lp1744
S'HTTP/1.1'
p1745
asbasbasbag64
(g80
g66
NtRp1746
(dp1747
g69
(dp1748
sg78
g1040
sg71
(lp1749
g64
(g85
g66
NtRp1750
(dp1751
g69
(dp1752
g89
g90
ssg78
g1746
sg71
(lp1753
S'server_software'
p1754
asbag64
(g85
g66
NtRp1755
(dp1756
g69
(dp1757
g96
g97
ssg78
g1746
sg71
(lp1758
S':'
asbag64
(g85
g66
NtRp1759
(dp1760
g69
(dp1761
sg78
g1746
sg71
(lp1762
g64
(g65
g66
NtRp1763
(dp1764
g69
(dp1765
g77
I4
ssg78
g1759
sg71
(lp1766
S'Rocket 1.2.6'
p1767
asbasbasbag64
(g80
g66
NtRp1768
(dp1769
g69
(dp1770
sg78
g1040
sg71
(lp1771
g64
(g85
g66
NtRp1772
(dp1773
g69
(dp1774
g89
g90
ssg78
g1768
sg71
(lp1775
S'web2py_path'
p1776
asbag64
(g85
g66
NtRp1777
(dp1778
g69
(dp1779
g96
g97
ssg78
g1768
sg71
(lp1780
S':'
asbag64
(g85
g66
NtRp1781
(dp1782
g69
(dp1783
sg78
g1768
sg71
(lp1784
g64
(g65
g66
NtRp1785
(dp1786
g69
(dp1787
g77
I4
ssg78
g1781
sg71
(lp1788
g1087
asbasbasbag64
(g80
g66
NtRp1789
(dp1790
g69
(dp1791
sg78
g1040
sg71
(lp1792
g64
(g85
g66
NtRp1793
(dp1794
g69
(dp1795
g89
g90
ssg78
g1789
sg71
(lp1796
S'web2py_version'
p1797
asbag64
(g85
g66
NtRp1798
(dp1799
g69
(dp1800
g96
g97
ssg78
g1789
sg71
(lp1801
S':'
asbag64
(g85
g66
NtRp1802
(dp1803
g69
(dp1804
sg78
g1789
sg71
(lp1805
g64
(g65
g66
NtRp1806
(dp1807
g69
(dp1808
g77
I4
ssg78
g1802
sg71
(lp1809
g64
(g73
g66
NtRp1810
(dp1811
g69
(dp1812
g77
I3
ssg78
Nsg71
(lp1813
g64
(g80
g66
NtRp1814
(dp1815
g69
(dp1816
sg78
g1810
sg71
(lp1817
g64
(g85
g66
NtRp1818
(dp1819
g69
(dp1820
sg78
g1814
sg71
(lp1821
g64
(g65
g66
NtRp1822
(dp1823
g69
(dp1824
g77
I3
ssg78
g1818
sg71
(lp1825
S'2'
asbasbasbag64
(g80
g66
NtRp1826
(dp1827
g69
(dp1828
sg78
g1810
sg71
(lp1829
g64
(g85
g66
NtRp1830
(dp1831
g69
(dp1832
sg78
g1826
sg71
(lp1833
g64
(g65
g66
NtRp1834
(dp1835
g69
(dp1836
g77
I3
ssg78
g1830
sg71
(lp1837
S'3'
asbasbasbag64
(g80
g66
NtRp1838
(dp1839
g69
(dp1840
sg78
g1810
sg71
(lp1841
g64
(g85
g66
NtRp1842
(dp1843
g69
(dp1844
sg78
g1838
sg71
(lp1845
g64
(g65
g66
NtRp1846
(dp1847
g69
(dp1848
g77
I3
ssg78
g1842
sg71
(lp1849
S'2'
asbasbasbag64
(g80
g66
NtRp1850
(dp1851
g69
(dp1852
sg78
g1810
sg71
(lp1853
g64
(g85
g66
NtRp1854
(dp1855
g69
(dp1856
sg78
g1850
sg71
(lp1857
g64
(g65
g66
NtRp1858
(dp1859
g69
(dp1860
g77
I3
ssg78
g1854
sg71
(lp1861
S'datetime.datetime(2012, 12, 17, 15, 3, 30)'
p1862
asbasbasbag64
(g80
g66
NtRp1863
(dp1864
g69
(dp1865
sg78
g1810
sg71
(lp1866
g64
(g85
g66
NtRp1867
(dp1868
g69
(dp1869
sg78
g1863
sg71
(lp1870
g64
(g65
g66
NtRp1871
(dp1872
g69
(dp1873
g77
I3
ssg78
g1867
sg71
(lp1874
S'stable'
p1875
asbasbasbasbasbasbasbag64
(g80
g66
NtRp1876
(dp1877
g69
(dp1878
sg78
g1040
sg71
(lp1879
g64
(g85
g66
NtRp1880
(dp1881
g69
(dp1882
g89
g90
ssg78
g1876
sg71
(lp1883
S'wsgi_errors'
p1884
asbag64
(g85
g66
NtRp1885
(dp1886
g69
(dp1887
g96
g97
ssg78
g1876
sg71
(lp1888
S':'
asbag64
(g85
g66
NtRp1889
(dp1890
g69
(dp1891
sg78
g1876
sg71
(lp1892
g64
(g65
g66
NtRp1893
(dp1894
g69
(dp1895
g77
I4
ssg78
g1889
sg71
(lp1896
S"<open file '<stderr>', mode 'w' at 0xb72a80d0>"
p1897
asbasbasbag64
(g80
g66
NtRp1898
(dp1899
g69
(dp1900
sg78
g1040
sg71
(lp1901
g64
(g85
g66
NtRp1902
(dp1903
g69
(dp1904
g89
g90
ssg78
g1898
sg71
(lp1905
S'wsgi_file_wrapper'
p1906
asbag64
(g85
g66
NtRp1907
(dp1908
g69
(dp1909
g96
g97
ssg78
g1898
sg71
(lp1910
S':'
asbag64
(g85
g66
NtRp1911
(dp1912
g69
(dp1913
sg78
g1898
sg71
(lp1914
g64
(g65
g66
NtRp1915
(dp1916
g69
(dp1917
g77
I4
ssg78
g1911
sg71
(lp1918
S'<class wsgiref.util.FileWrapper at 0xa40147c>'
p1919
asbasbasbag64
(g80
g66
NtRp1920
(dp1921
g69
(dp1922
sg78
g1040
sg71
(lp1923
g64
(g85
g66
NtRp1924
(dp1925
g69
(dp1926
g89
g90
ssg78
g1920
sg71
(lp1927
S'wsgi_input'
p1928
asbag64
(g85
g66
NtRp1929
(dp1930
g69
(dp1931
g96
g97
ssg78
g1920
sg71
(lp1932
S':'
asbag64
(g85
g66
NtRp1933
(dp1934
g69
(dp1935
sg78
g1920
sg71
(lp1936
g64
(g65
g66
NtRp1937
(dp1938
g69
(dp1939
g77
I4
ssg78
g1933
sg71
(lp1940
S'<socket._fileobject object at 0xa78bfac>'
p1941
asbasbasbag64
(g80
g66
NtRp1942
(dp1943
g69
(dp1944
sg78
g1040
sg71
(lp1945
g64
(g85
g66
NtRp1946
(dp1947
g69
(dp1948
g89
g90
ssg78
g1942
sg71
(lp1949
S'wsgi_multiprocess'
p1950
asbag64
(g85
g66
NtRp1951
(dp1952
g69
(dp1953
g96
g97
ssg78
g1942
sg71
(lp1954
S':'
asbag64
(g85
g66
NtRp1955
(dp1956
g69
(dp1957
sg78
g1942
sg71
(lp1958
g64
(g65
g66
NtRp1959
(dp1960
g69
(dp1961
g77
I4
ssg78
g1955
sg71
(lp1962
g107
asbasbasbag64
(g80
g66
NtRp1963
(dp1964
g69
(dp1965
sg78
g1040
sg71
(lp1966
g64
(g85
g66
NtRp1967
(dp1968
g69
(dp1969
g89
g90
ssg78
g1963
sg71
(lp1970
S'wsgi_multithread'
p1971
asbag64
(g85
g66
NtRp1972
(dp1973
g69
(dp1974
g96
g97
ssg78
g1963
sg71
(lp1975
S':'
asbag64
(g85
g66
NtRp1976
(dp1977
g69
(dp1978
sg78
g1963
sg71
(lp1979
g64
(g65
g66
NtRp1980
(dp1981
g69
(dp1982
g77
I4
ssg78
g1976
sg71
(lp1983
S'True'
p1984
asbasbasbag64
(g80
g66
NtRp1985
(dp1986
g69
(dp1987
sg78
g1040
sg71
(lp1988
g64
(g85
g66
NtRp1989
(dp1990
g69
(dp1991
g89
g90
ssg78
g1985
sg71
(lp1992
S'wsgi_run_once'
p1993
asbag64
(g85
g66
NtRp1994
(dp1995
g69
(dp1996
g96
g97
ssg78
g1985
sg71
(lp1997
S':'
asbag64
(g85
g66
NtRp1998
(dp1999
g69
(dp2000
sg78
g1985
sg71
(lp2001
g64
(g65
g66
NtRp2002
(dp2003
g69
(dp2004
g77
I4
ssg78
g1998
sg71
(lp2005
g107
asbasbasbag64
(g80
g66
NtRp2006
(dp2007
g69
(dp2008
sg78
g1040
sg71
(lp2009
g64
(g85
g66
NtRp2010
(dp2011
g69
(dp2012
g89
g90
ssg78
g2006
sg71
(lp2013
S'wsgi_url_scheme'
p2014
asbag64
(g85
g66
NtRp2015
(dp2016
g69
(dp2017
g96
g97
ssg78
g2006
sg71
(lp2018
S':'
asbag64
(g85
g66
NtRp2019
(dp2020
g69
(dp2021
sg78
g2006
sg71
(lp2022
g64
(g65
g66
NtRp2023
(dp2024
g69
(dp2025
g77
I4
ssg78
g2019
sg71
(lp2026
S'http'
p2027
asbasbasbag64
(g80
g66
NtRp2028
(dp2029
g69
(dp2030
sg78
g1040
sg71
(lp2031
g64
(g85
g66
NtRp2032
(dp2033
g69
(dp2034
g89
g90
ssg78
g2028
sg71
(lp2035
S'wsgi_version'
p2036
asbag64
(g85
g66
NtRp2037
(dp2038
g69
(dp2039
g96
g97
ssg78
g2028
sg71
(lp2040
S':'
asbag64
(g85
g66
NtRp2041
(dp2042
g69
(dp2043
sg78
g2028
sg71
(lp2044
g64
(g65
g66
NtRp2045
(dp2046
g69
(dp2047
g77
I4
ssg78
g2041
sg71
(lp2048
g64
(g73
g66
NtRp2049
(dp2050
g69
(dp2051
g77
I3
ssg78
Nsg71
(lp2052
g64
(g80
g66
NtRp2053
(dp2054
g69
(dp2055
sg78
g2049
sg71
(lp2056
g64
(g85
g66
NtRp2057
(dp2058
g69
(dp2059
sg78
g2053
sg71
(lp2060
g64
(g65
g66
NtRp2061
(dp2062
g69
(dp2063
g77
I3
ssg78
g2057
sg71
(lp2064
S'1'
asbasbasbag64
(g80
g66
NtRp2065
(dp2066
g69
(dp2067
sg78
g2049
sg71
(lp2068
g64
(g85
g66
NtRp2069
(dp2070
g69
(dp2071
sg78
g2065
sg71
(lp2072
g64
(g65
g66
NtRp2073
(dp2074
g69
(dp2075
g77
I3
ssg78
g2069
sg71
(lp2076
S'0'
asbasbasbasbasbasbasbasbasbasbasbag64
(g80
g66
NtRp2077
(dp2078
g69
(dp2079
sg78
g74
sg71
(lp2080
g64
(g85
g66
NtRp2081
(dp2082
g69
(dp2083
g89
g90
ssg78
g2077
sg71
(lp2084
S'extension'
p2085
asbag64
(g85
g66
NtRp2086
(dp2087
g69
(dp2088
g96
g97
ssg78
g2077
sg71
(lp2089
S':'
asbag64
(g85
g66
NtRp2090
(dp2091
g69
(dp2092
sg78
g2077
sg71
(lp2093
g64
(g65
g66
NtRp2094
(dp2095
g69
(dp2096
g77
I5
ssg78
g2090
sg71
(lp2097
S'html'
p2098
asbasbasbag64
(g80
g66
NtRp2099
(dp2100
g69
(dp2101
sg78
g74
sg71
(lp2102
g64
(g85
g66
NtRp2103
(dp2104
g69
(dp2105
g89
g90
ssg78
g2099
sg71
(lp2106
S'folder'
p2107
asbag64
(g85
g66
NtRp2108
(dp2109
g69
(dp2110
g96
g97
ssg78
g2099
sg71
(lp2111
S':'
asbag64
(g85
g66
NtRp2112
(dp2113
g69
(dp2114
sg78
g2099
sg71
(lp2115
g64
(g65
g66
NtRp2116
(dp2117
g69
(dp2118
g77
I5
ssg78
g2112
sg71
(lp2119
S'/home/nazrul/web2py/applications/WSD_Tool/'
p2120
asbasbasbag64
(g80
g66
NtRp2121
(dp2122
g69
(dp2123
sg78
g74
sg71
(lp2124
g64
(g85
g66
NtRp2125
(dp2126
g69
(dp2127
g89
g90
ssg78
g2121
sg71
(lp2128
S'function'
p2129
asbag64
(g85
g66
NtRp2130
(dp2131
g69
(dp2132
g96
g97
ssg78
g2121
sg71
(lp2133
S':'
asbag64
(g85
g66
NtRp2134
(dp2135
g69
(dp2136
sg78
g2121
sg71
(lp2137
g64
(g65
g66
NtRp2138
(dp2139
g69
(dp2140
g77
I5
ssg78
g2134
sg71
(lp2141
S'rel'
p2142
asbasbasbag64
(g80
g66
NtRp2143
(dp2144
g69
(dp2145
sg78
g74
sg71
(lp2146
g64
(g85
g66
NtRp2147
(dp2148
g69
(dp2149
g89
g90
ssg78
g2143
sg71
(lp2150
S'get_vars'
p2151
asbag64
(g85
g66
NtRp2152
(dp2153
g69
(dp2154
g96
g97
ssg78
g2143
sg71
(lp2155
S':'
asbag64
(g85
g66
NtRp2156
(dp2157
g69
(dp2158
sg78
g2143
sg71
(lp2159
g64
(g65
g66
NtRp2160
(dp2161
g69
(dp2162
g77
I5
ssg78
g2156
sg71
(lp2163
g64
(g73
g66
NtRp2164
(dp2165
g69
(dp2166
g77
I4
ssg78
Nsg71
(lp2167
sbasbasbasbag64
(g80
g66
NtRp2168
(dp2169
g69
(dp2170
sg78
g74
sg71
(lp2171
g64
(g85
g66
NtRp2172
(dp2173
g69
(dp2174
g89
g90
ssg78
g2168
sg71
(lp2175
S'global_settings'
p2176
asbag64
(g85
g66
NtRp2177
(dp2178
g69
(dp2179
g96
g97
ssg78
g2168
sg71
(lp2180
S':'
asbag64
(g85
g66
NtRp2181
(dp2182
g69
(dp2183
sg78
g2168
sg71
(lp2184
g64
(g65
g66
NtRp2185
(dp2186
g69
(dp2187
g77
I5
ssg78
g2181
sg71
(lp2188
g64
(g73
g66
NtRp2189
(dp2190
g69
(dp2191
g77
I4
ssg78
Nsg71
(lp2192
g64
(g80
g66
NtRp2193
(dp2194
g69
(dp2195
sg78
g2189
sg71
(lp2196
g64
(g85
g66
NtRp2197
(dp2198
g69
(dp2199
g89
g90
ssg78
g2193
sg71
(lp2200
g1052
asbag64
(g85
g66
NtRp2201
(dp2202
g69
(dp2203
g96
g97
ssg78
g2193
sg71
(lp2204
S':'
asbag64
(g85
g66
NtRp2205
(dp2206
g69
(dp2207
sg78
g2193
sg71
(lp2208
g64
(g65
g66
NtRp2209
(dp2210
g69
(dp2211
g77
I4
ssg78
g2205
sg71
(lp2212
S"set(['/home/nazrul/web2py/applications/welcome/', '/home/nazrul/web2py/applications/WSD_Tool/', '/home/nazrul/web2py/applications/admin/'])"
p2213
asbasbasbag64
(g80
g66
NtRp2214
(dp2215
g69
(dp2216
sg78
g2189
sg71
(lp2217
g64
(g85
g66
NtRp2218
(dp2219
g69
(dp2220
g89
g90
ssg78
g2214
sg71
(lp2221
g1074
asbag64
(g85
g66
NtRp2222
(dp2223
g69
(dp2224
g96
g97
ssg78
g2214
sg71
(lp2225
S':'
asbag64
(g85
g66
NtRp2226
(dp2227
g69
(dp2228
sg78
g2214
sg71
(lp2229
g64
(g65
g66
NtRp2230
(dp2231
g69
(dp2232
g77
I4
ssg78
g2226
sg71
(lp2233
g1087
asbasbasbag64
(g80
g66
NtRp2234
(dp2235
g69
(dp2236
sg78
g2189
sg71
(lp2237
g64
(g85
g66
NtRp2238
(dp2239
g69
(dp2240
g89
g90
ssg78
g2234
sg71
(lp2241
g1096
asbag64
(g85
g66
NtRp2242
(dp2243
g69
(dp2244
g96
g97
ssg78
g2234
sg71
(lp2245
S':'
asbag64
(g85
g66
NtRp2246
(dp2247
g69
(dp2248
sg78
g2234
sg71
(lp2249
g64
(g65
g66
NtRp2250
(dp2251
g69
(dp2252
g77
I4
ssg78
g2246
sg71
(lp2253
g64
(g73
g66
NtRp2254
(dp2255
g69
(dp2256
g77
I3
ssg78
Nsg71
(lp2257
sbasbasbasbag64
(g80
g66
NtRp2258
(dp2259
g69
(dp2260
sg78
g2189
sg71
(lp2261
g64
(g85
g66
NtRp2262
(dp2263
g69
(dp2264
g89
g90
ssg78
g2258
sg71
(lp2265
g1121
asbag64
(g85
g66
NtRp2266
(dp2267
g69
(dp2268
g96
g97
ssg78
g2258
sg71
(lp2269
S':'
asbag64
(g85
g66
NtRp2270
(dp2271
g69
(dp2272
sg78
g2258
sg71
(lp2273
g64
(g65
g66
NtRp2274
(dp2275
g69
(dp2276
g77
I4
ssg78
g2270
sg71
(lp2277
S"<Values at 0xa44192c: {'verbose': False, 'ip': '127.0.0.1', 'with_scheduler': False, 'ips': [], 'shutdown_timeout': 5, 'taskbar': False, 'port': 8000, 'maxthreads': None, 'softcron': False, 'server_name': 'nazrul-Compaq-Presario-CQ40-Notebook-PC', 'bpython': False, 'nogui': False, 'pid_filename': 'httpserver.pid', 'extcron': False, 'runcron': False, 'run_system_tests': False, 'test': None, 'folder': '/home/nazrul/web2py', 'config': '', 'import_models': False, 'winservice': '', 'shell': None, 'run': '', 'log_filename': 'httpserver.log', 'debuglevel': 30, 'args': [''], 'socket_timeout': 5, 'ssl_ca_certificate': None, 'scheduler': None, 'profiler_filename': None, 'ssl_private_key': '', 'scheduler_groups': None, 'password': '<ask>', 'request_queue_size': 5, 'ssl_certificate': '', 'cronjob': False, 'numthreads': None, 'quiet': False, 'interfaces': None, 'minthreads': None, 'timeout': 10, 'plain': False, 'nobanner': False}>"
p2278
asbasbasbag64
(g80
g66
NtRp2279
(dp2280
g69
(dp2281
sg78
g2189
sg71
(lp2282
g64
(g85
g66
NtRp2283
(dp2284
g69
(dp2285
g89
g90
ssg78
g2279
sg71
(lp2286
g1143
asbag64
(g85
g66
NtRp2287
(dp2288
g69
(dp2289
g96
g97
ssg78
g2279
sg71
(lp2290
S':'
asbag64
(g85
g66
NtRp2291
(dp2292
g69
(dp2293
sg78
g2279
sg71
(lp2294
g64
(g65
g66
NtRp2295
(dp2296
g69
(dp2297
g77
I4
ssg78
g2291
sg71
(lp2298
S'set([])'
p2299
asbasbasbag64
(g80
g66
NtRp2300
(dp2301
g69
(dp2302
sg78
g2189
sg71
(lp2303
g64
(g85
g66
NtRp2304
(dp2305
g69
(dp2306
g89
g90
ssg78
g2300
sg71
(lp2307
g1165
asbag64
(g85
g66
NtRp2308
(dp2309
g69
(dp2310
g96
g97
ssg78
g2300
sg71
(lp2311
S':'
asbag64
(g85
g66
NtRp2312
(dp2313
g69
(dp2314
sg78
g2300
sg71
(lp2315
g64
(g65
g66
NtRp2316
(dp2317
g69
(dp2318
g77
I4
ssg78
g2312
sg71
(lp2319
g107
asbasbasbag64
(g80
g66
NtRp2320
(dp2321
g69
(dp2322
sg78
g2189
sg71
(lp2323
g64
(g85
g66
NtRp2324
(dp2325
g69
(dp2326
g89
g90
ssg78
g2320
sg71
(lp2327
g1186
asbag64
(g85
g66
NtRp2328
(dp2329
g69
(dp2330
g96
g97
ssg78
g2320
sg71
(lp2331
S':'
asbag64
(g85
g66
NtRp2332
(dp2333
g69
(dp2334
sg78
g2320
sg71
(lp2335
g64
(g65
g66
NtRp2336
(dp2337
g69
(dp2338
g77
I4
ssg78
g2332
sg71
(lp2339
g1199
asbasbasbag64
(g80
g66
NtRp2340
(dp2341
g69
(dp2342
sg78
g2189
sg71
(lp2343
g64
(g85
g66
NtRp2344
(dp2345
g69
(dp2346
g89
g90
ssg78
g2340
sg71
(lp2347
g1406
asbag64
(g85
g66
NtRp2348
(dp2349
g69
(dp2350
g96
g97
ssg78
g2340
sg71
(lp2351
S':'
asbag64
(g85
g66
NtRp2352
(dp2353
g69
(dp2354
sg78
g2340
sg71
(lp2355
g64
(g65
g66
NtRp2356
(dp2357
g69
(dp2358
g77
I4
ssg78
g2352
sg71
(lp2359
g107
asbasbasbag64
(g80
g66
NtRp2360
(dp2361
g69
(dp2362
sg78
g2189
sg71
(lp2363
g64
(g85
g66
NtRp2364
(dp2365
g69
(dp2366
g89
g90
ssg78
g2360
sg71
(lp2367
g1427
asbag64
(g85
g66
NtRp2368
(dp2369
g69
(dp2370
g96
g97
ssg78
g2360
sg71
(lp2371
S':'
asbag64
(g85
g66
NtRp2372
(dp2373
g69
(dp2374
sg78
g2360
sg71
(lp2375
g64
(g65
g66
NtRp2376
(dp2377
g69
(dp2378
g77
I4
ssg78
g2372
sg71
(lp2379
g107
asbasbasbag64
(g80
g66
NtRp2380
(dp2381
g69
(dp2382
sg78
g2189
sg71
(lp2383
g64
(g85
g66
NtRp2384
(dp2385
g69
(dp2386
g89
g90
ssg78
g2380
sg71
(lp2387
g1448
asbag64
(g85
g66
NtRp2388
(dp2389
g69
(dp2390
g96
g97
ssg78
g2380
sg71
(lp2391
S':'
asbag64
(g85
g66
NtRp2392
(dp2393
g69
(dp2394
sg78
g2380
sg71
(lp2395
g64
(g65
g66
NtRp2396
(dp2397
g69
(dp2398
g77
I4
ssg78
g2392
sg71
(lp2399
g64
(g73
g66
NtRp2400
(dp2401
g69
(dp2402
g77
I3
ssg78
Nsg71
(lp2403
g64
(g80
g66
NtRp2404
(dp2405
g69
(dp2406
sg78
g2400
sg71
(lp2407
g64
(g85
g66
NtRp2408
(dp2409
g69
(dp2410
sg78
g2404
sg71
(lp2411
g64
(g65
g66
NtRp2412
(dp2413
g69
(dp2414
g77
I3
ssg78
g2408
sg71
(lp2415
g1477
asbasbasbag64
(g80
g66
NtRp2416
(dp2417
g69
(dp2418
sg78
g2400
sg71
(lp2419
g64
(g85
g66
NtRp2420
(dp2421
g69
(dp2422
sg78
g2416
sg71
(lp2423
g64
(g65
g66
NtRp2424
(dp2425
g69
(dp2426
g77
I3
ssg78
g2420
sg71
(lp2427
g1490
asbasbasbag64
(g80
g66
NtRp2428
(dp2429
g69
(dp2430
sg78
g2400
sg71
(lp2431
g64
(g85
g66
NtRp2432
(dp2433
g69
(dp2434
sg78
g2428
sg71
(lp2435
g64
(g65
g66
NtRp2436
(dp2437
g69
(dp2438
g77
I3
ssg78
g2432
sg71
(lp2439
g1503
asbasbasbag64
(g80
g66
NtRp2440
(dp2441
g69
(dp2442
sg78
g2400
sg71
(lp2443
g64
(g85
g66
NtRp2444
(dp2445
g69
(dp2446
sg78
g2440
sg71
(lp2447
g64
(g65
g66
NtRp2448
(dp2449
g69
(dp2450
g77
I3
ssg78
g2444
sg71
(lp2451
g1516
asbasbasbag64
(g80
g66
NtRp2452
(dp2453
g69
(dp2454
sg78
g2400
sg71
(lp2455
g64
(g85
g66
NtRp2456
(dp2457
g69
(dp2458
sg78
g2452
sg71
(lp2459
g64
(g65
g66
NtRp2460
(dp2461
g69
(dp2462
g77
I3
ssg78
g2456
sg71
(lp2463
g1529
asbasbasbasbasbasbasbag64
(g80
g66
NtRp2464
(dp2465
g69
(dp2466
sg78
g2189
sg71
(lp2467
g64
(g85
g66
NtRp2468
(dp2469
g69
(dp2470
g89
g90
ssg78
g2464
sg71
(lp2471
g1797
asbag64
(g85
g66
NtRp2472
(dp2473
g69
(dp2474
g96
g97
ssg78
g2464
sg71
(lp2475
S':'
asbag64
(g85
g66
NtRp2476
(dp2477
g69
(dp2478
sg78
g2464
sg71
(lp2479
g64
(g65
g66
NtRp2480
(dp2481
g69
(dp2482
g77
I4
ssg78
g2476
sg71
(lp2483
g64
(g73
g66
NtRp2484
(dp2485
g69
(dp2486
g77
I3
ssg78
Nsg71
(lp2487
g64
(g80
g66
NtRp2488
(dp2489
g69
(dp2490
sg78
g2484
sg71
(lp2491
g64
(g85
g66
NtRp2492
(dp2493
g69
(dp2494
sg78
g2488
sg71
(lp2495
g64
(g65
g66
NtRp2496
(dp2497
g69
(dp2498
g77
I3
ssg78
g2492
sg71
(lp2499
S'2'
asbasbasbag64
(g80
g66
NtRp2500
(dp2501
g69
(dp2502
sg78
g2484
sg71
(lp2503
g64
(g85
g66
NtRp2504
(dp2505
g69
(dp2506
sg78
g2500
sg71
(lp2507
g64
(g65
g66
NtRp2508
(dp2509
g69
(dp2510
g77
I3
ssg78
g2504
sg71
(lp2511
S'3'
asbasbasbag64
(g80
g66
NtRp2512
(dp2513
g69
(dp2514
sg78
g2484
sg71
(lp2515
g64
(g85
g66
NtRp2516
(dp2517
g69
(dp2518
sg78
g2512
sg71
(lp2519
g64
(g65
g66
NtRp2520
(dp2521
g69
(dp2522
g77
I3
ssg78
g2516
sg71
(lp2523
S'2'
asbasbasbag64
(g80
g66
NtRp2524
(dp2525
g69
(dp2526
sg78
g2484
sg71
(lp2527
g64
(g85
g66
NtRp2528
(dp2529
g69
(dp2530
sg78
g2524
sg71
(lp2531
g64
(g65
g66
NtRp2532
(dp2533
g69
(dp2534
g77
I3
ssg78
g2528
sg71
(lp2535
S'datetime.datetime(2012, 12, 17, 15, 3, 30)'
p2536
asbasbasbag64
(g80
g66
NtRp2537
(dp2538
g69
(dp2539
sg78
g2484
sg71
(lp2540
g64
(g85
g66
NtRp2541
(dp2542
g69
(dp2543
sg78
g2537
sg71
(lp2544
g64
(g65
g66
NtRp2545
(dp2546
g69
(dp2547
g77
I3
ssg78
g2541
sg71
(lp2548
g1875
asbasbasbasbasbasbasbasbasbasbasbag64
(g80
g66
NtRp2549
(dp2550
g69
(dp2551
sg78
g74
sg71
(lp2552
g64
(g85
g66
NtRp2553
(dp2554
g69
(dp2555
g89
g90
ssg78
g2549
sg71
(lp2556
S'is_https'
p2557
asbag64
(g85
g66
NtRp2558
(dp2559
g69
(dp2560
g96
g97
ssg78
g2549
sg71
(lp2561
S':'
asbag64
(g85
g66
NtRp2562
(dp2563
g69
(dp2564
sg78
g2549
sg71
(lp2565
g64
(g65
g66
NtRp2566
(dp2567
g69
(dp2568
g77
I5
ssg78
g2562
sg71
(lp2569
g107
asbasbasbag64
(g80
g66
NtRp2570
(dp2571
g69
(dp2572
sg78
g74
sg71
(lp2573
g64
(g85
g66
NtRp2574
(dp2575
g69
(dp2576
g89
g90
ssg78
g2570
sg71
(lp2577
S'is_local'
p2578
asbag64
(g85
g66
NtRp2579
(dp2580
g69
(dp2581
g96
g97
ssg78
g2570
sg71
(lp2582
S':'
asbag64
(g85
g66
NtRp2583
(dp2584
g69
(dp2585
sg78
g2570
sg71
(lp2586
g64
(g65
g66
NtRp2587
(dp2588
g69
(dp2589
g77
I5
ssg78
g2583
sg71
(lp2590
g1984
asbasbasbag64
(g80
g66
NtRp2591
(dp2592
g69
(dp2593
sg78
g74
sg71
(lp2594
g64
(g85
g66
NtRp2595
(dp2596
g69
(dp2597
g89
g90
ssg78
g2591
sg71
(lp2598
S'is_restful'
p2599
asbag64
(g85
g66
NtRp2600
(dp2601
g69
(dp2602
g96
g97
ssg78
g2591
sg71
(lp2603
S':'
asbag64
(g85
g66
NtRp2604
(dp2605
g69
(dp2606
sg78
g2591
sg71
(lp2607
g64
(g65
g66
NtRp2608
(dp2609
g69
(dp2610
g77
I5
ssg78
g2604
sg71
(lp2611
g107
asbasbasbag64
(g80
g66
NtRp2612
(dp2613
g69
(dp2614
sg78
g74
sg71
(lp2615
g64
(g85
g66
NtRp2616
(dp2617
g69
(dp2618
g89
g90
ssg78
g2612
sg71
(lp2619
S'now'
p2620
asbag64
(g85
g66
NtRp2621
(dp2622
g69
(dp2623
g96
g97
ssg78
g2612
sg71
(lp2624
S':'
asbag64
(g85
g66
NtRp2625
(dp2626
g69
(dp2627
sg78
g2612
sg71
(lp2628
g64
(g65
g66
NtRp2629
(dp2630
g69
(dp2631
g77
I5
ssg78
g2625
sg71
(lp2632
S'datetime.datetime(2013, 11, 9, 15, 26, 33, 739265)'
p2633
asbasbasbag64
(g80
g66
NtRp2634
(dp2635
g69
(dp2636
sg78
g74
sg71
(lp2637
g64
(g85
g66
NtRp2638
(dp2639
g69
(dp2640
g89
g90
ssg78
g2634
sg71
(lp2641
S'post_vars'
p2642
asbag64
(g85
g66
NtRp2643
(dp2644
g69
(dp2645
g96
g97
ssg78
g2634
sg71
(lp2646
S':'
asbag64
(g85
g66
NtRp2647
(dp2648
g69
(dp2649
sg78
g2634
sg71
(lp2650
g64
(g65
g66
NtRp2651
(dp2652
g69
(dp2653
g77
I5
ssg78
g2647
sg71
(lp2654
g64
(g73
g66
NtRp2655
(dp2656
g69
(dp2657
g77
I4
ssg78
Nsg71
(lp2658
sbasbasbasbag64
(g80
g66
NtRp2659
(dp2660
g69
(dp2661
sg78
g74
sg71
(lp2662
g64
(g85
g66
NtRp2663
(dp2664
g69
(dp2665
g89
g90
ssg78
g2659
sg71
(lp2666
S'raw_args'
p2667
asbag64
(g85
g66
NtRp2668
(dp2669
g69
(dp2670
g96
g97
ssg78
g2659
sg71
(lp2671
S':'
asbag64
(g85
g66
NtRp2672
(dp2673
g69
(dp2674
sg78
g2659
sg71
(lp2675
g64
(g65
g66
NtRp2676
(dp2677
g69
(dp2678
g77
I5
ssg78
g2672
sg71
(lp2679
S''
asbasbasbag64
(g80
g66
NtRp2680
(dp2681
g69
(dp2682
sg78
g74
sg71
(lp2683
g64
(g85
g66
NtRp2684
(dp2685
g69
(dp2686
g89
g90
ssg78
g2680
sg71
(lp2687
S'raw_extension'
p2688
asbag64
(g85
g66
NtRp2689
(dp2690
g69
(dp2691
g96
g97
ssg78
g2680
sg71
(lp2692
S':'
asbag64
(g85
g66
NtRp2693
(dp2694
g69
(dp2695
sg78
g2680
sg71
(lp2696
g64
(g65
g66
NtRp2697
(dp2698
g69
(dp2699
g77
I5
ssg78
g2693
sg71
(lp2700
S'None'
p2701
asbasbasbag64
(g80
g66
NtRp2702
(dp2703
g69
(dp2704
sg78
g74
sg71
(lp2705
g64
(g85
g66
NtRp2706
(dp2707
g69
(dp2708
g89
g90
ssg78
g2702
sg71
(lp2709
S'url'
p2710
asbag64
(g85
g66
NtRp2711
(dp2712
g69
(dp2713
g96
g97
ssg78
g2702
sg71
(lp2714
S':'
asbag64
(g85
g66
NtRp2715
(dp2716
g69
(dp2717
sg78
g2702
sg71
(lp2718
g64
(g65
g66
NtRp2719
(dp2720
g69
(dp2721
g77
I5
ssg78
g2715
sg71
(lp2722
g1551
asbasbasbag64
(g80
g66
NtRp2723
(dp2724
g69
(dp2725
sg78
g74
sg71
(lp2726
g64
(g85
g66
NtRp2727
(dp2728
g69
(dp2729
g89
g90
ssg78
g2723
sg71
(lp2730
S'utcnow'
p2731
asbag64
(g85
g66
NtRp2732
(dp2733
g69
(dp2734
g96
g97
ssg78
g2723
sg71
(lp2735
S':'
asbag64
(g85
g66
NtRp2736
(dp2737
g69
(dp2738
sg78
g2723
sg71
(lp2739
g64
(g65
g66
NtRp2740
(dp2741
g69
(dp2742
g77
I5
ssg78
g2736
sg71
(lp2743
S'datetime.datetime(2013, 11, 9, 9, 56, 33, 739315)'
p2744
asbasbasbag64
(g80
g66
NtRp2745
(dp2746
g69
(dp2747
sg78
g74
sg71
(lp2748
g64
(g85
g66
NtRp2749
(dp2750
g69
(dp2751
g89
g90
ssg78
g2745
sg71
(lp2752
S'uuid'
p2753
asbag64
(g85
g66
NtRp2754
(dp2755
g69
(dp2756
g96
g97
ssg78
g2745
sg71
(lp2757
S':'
asbag64
(g85
g66
NtRp2758
(dp2759
g69
(dp2760
sg78
g2745
sg71
(lp2761
g64
(g65
g66
NtRp2762
(dp2763
g69
(dp2764
g77
I5
ssg78
g2758
sg71
(lp2765
S'WSD_Tool/127.0.0.1.2013-11-09.15-26-33.19fef2e7-1858-4ae2-babb-881a6cfce0a3'
p2766
asbasbasbag64
(g80
g66
NtRp2767
(dp2768
g69
(dp2769
sg78
g74
sg71
(lp2770
g64
(g85
g66
NtRp2771
(dp2772
g69
(dp2773
g89
g90
ssg78
g2767
sg71
(lp2774
S'vars'
p2775
asbag64
(g85
g66
NtRp2776
(dp2777
g69
(dp2778
g96
g97
ssg78
g2767
sg71
(lp2779
S':'
asbag64
(g85
g66
NtRp2780
(dp2781
g69
(dp2782
sg78
g2767
sg71
(lp2783
g64
(g65
g66
NtRp2784
(dp2785
g69
(dp2786
g77
I5
ssg78
g2780
sg71
(lp2787
g64
(g73
g66
NtRp2788
(dp2789
g69
(dp2790
g77
I4
ssg78
Nsg71
(lp2791
sbasbasbasbag64
(g80
g66
NtRp2792
(dp2793
g69
(dp2794
sg78
g74
sg71
(lp2795
g64
(g85
g66
NtRp2796
(dp2797
g69
(dp2798
g89
g90
ssg78
g2792
sg71
(lp2799
S'wsgi'
p2800
asbag64
(g85
g66
NtRp2801
(dp2802
g69
(dp2803
g96
g97
ssg78
g2792
sg71
(lp2804
S':'
asbag64
(g85
g66
NtRp2805
(dp2806
g69
(dp2807
sg78
g2792
sg71
(lp2808
g64
(g65
g66
NtRp2809
(dp2810
g69
(dp2811
g77
I5
ssg78
g2805
sg71
(lp2812
g64
(g73
g66
NtRp2813
(dp2814
g69
(dp2815
g77
I4
ssg78
Nsg71
(lp2816
g64
(g80
g66
NtRp2817
(dp2818
g69
(dp2819
sg78
g2813
sg71
(lp2820
g64
(g85
g66
NtRp2821
(dp2822
g69
(dp2823
g89
g90
ssg78
g2817
sg71
(lp2824
S'environ'
p2825
asbag64
(g85
g66
NtRp2826
(dp2827
g69
(dp2828
g96
g97
ssg78
g2817
sg71
(lp2829
S':'
asbag64
(g85
g66
NtRp2830
(dp2831
g69
(dp2832
sg78
g2817
sg71
(lp2833
g64
(g65
g66
NtRp2834
(dp2835
g69
(dp2836
g77
I4
ssg78
g2830
sg71
(lp2837
g64
(g73
g66
NtRp2838
(dp2839
g69
(dp2840
g77
I3
ssg78
Nsg71
(lp2841
g64
(g80
g66
NtRp2842
(dp2843
g69
(dp2844
sg78
g2838
sg71
(lp2845
g64
(g85
g66
NtRp2846
(dp2847
g69
(dp2848
g89
g90
ssg78
g2842
sg71
(lp2849
S'HTTP_ACCEPT'
p2850
asbag64
(g85
g66
NtRp2851
(dp2852
g69
(dp2853
g96
g97
ssg78
g2842
sg71
(lp2854
S':'
asbag64
(g85
g66
NtRp2855
(dp2856
g69
(dp2857
sg78
g2842
sg71
(lp2858
g64
(g65
g66
NtRp2859
(dp2860
g69
(dp2861
g77
I3
ssg78
g2855
sg71
(lp2862
g1221
asbasbasbag64
(g80
g66
NtRp2863
(dp2864
g69
(dp2865
sg78
g2838
sg71
(lp2866
g64
(g85
g66
NtRp2867
(dp2868
g69
(dp2869
g89
g90
ssg78
g2863
sg71
(lp2870
S'HTTP_ACCEPT_ENCODING'
p2871
asbag64
(g85
g66
NtRp2872
(dp2873
g69
(dp2874
g96
g97
ssg78
g2863
sg71
(lp2875
S':'
asbag64
(g85
g66
NtRp2876
(dp2877
g69
(dp2878
sg78
g2863
sg71
(lp2879
g64
(g65
g66
NtRp2880
(dp2881
g69
(dp2882
g77
I3
ssg78
g2876
sg71
(lp2883
g1243
asbasbasbag64
(g80
g66
NtRp2884
(dp2885
g69
(dp2886
sg78
g2838
sg71
(lp2887
g64
(g85
g66
NtRp2888
(dp2889
g69
(dp2890
g89
g90
ssg78
g2884
sg71
(lp2891
S'HTTP_ACCEPT_LANGUAGE'
p2892
asbag64
(g85
g66
NtRp2893
(dp2894
g69
(dp2895
g96
g97
ssg78
g2884
sg71
(lp2896
S':'
asbag64
(g85
g66
NtRp2897
(dp2898
g69
(dp2899
sg78
g2884
sg71
(lp2900
g64
(g65
g66
NtRp2901
(dp2902
g69
(dp2903
g77
I3
ssg78
g2897
sg71
(lp2904
g1265
asbasbasbag64
(g80
g66
NtRp2905
(dp2906
g69
(dp2907
sg78
g2838
sg71
(lp2908
g64
(g85
g66
NtRp2909
(dp2910
g69
(dp2911
g89
g90
ssg78
g2905
sg71
(lp2912
S'HTTP_CACHE_CONTROL'
p2913
asbag64
(g85
g66
NtRp2914
(dp2915
g69
(dp2916
g96
g97
ssg78
g2905
sg71
(lp2917
S':'
asbag64
(g85
g66
NtRp2918
(dp2919
g69
(dp2920
sg78
g2905
sg71
(lp2921
g64
(g65
g66
NtRp2922
(dp2923
g69
(dp2924
g77
I3
ssg78
g2918
sg71
(lp2925
g1287
asbasbasbag64
(g80
g66
NtRp2926
(dp2927
g69
(dp2928
sg78
g2838
sg71
(lp2929
g64
(g85
g66
NtRp2930
(dp2931
g69
(dp2932
g89
g90
ssg78
g2926
sg71
(lp2933
S'HTTP_CONNECTION'
p2934
asbag64
(g85
g66
NtRp2935
(dp2936
g69
(dp2937
g96
g97
ssg78
g2926
sg71
(lp2938
S':'
asbag64
(g85
g66
NtRp2939
(dp2940
g69
(dp2941
sg78
g2926
sg71
(lp2942
g64
(g65
g66
NtRp2943
(dp2944
g69
(dp2945
g77
I3
ssg78
g2939
sg71
(lp2946
g1309
asbasbasbag64
(g80
g66
NtRp2947
(dp2948
g69
(dp2949
sg78
g2838
sg71
(lp2950
g64
(g85
g66
NtRp2951
(dp2952
g69
(dp2953
g89
g90
ssg78
g2947
sg71
(lp2954
S'HTTP_COOKIE'
p2955
asbag64
(g85
g66
NtRp2956
(dp2957
g69
(dp2958
g96
g97
ssg78
g2947
sg71
(lp2959
S':'
asbag64
(g85
g66
NtRp2960
(dp2961
g69
(dp2962
sg78
g2947
sg71
(lp2963
g64
(g65
g66
NtRp2964
(dp2965
g69
(dp2966
g77
I3
ssg78
g2960
sg71
(lp2967
g1331
asbasbasbag64
(g80
g66
NtRp2968
(dp2969
g69
(dp2970
sg78
g2838
sg71
(lp2971
g64
(g85
g66
NtRp2972
(dp2973
g69
(dp2974
g89
g90
ssg78
g2968
sg71
(lp2975
S'HTTP_HOST'
p2976
asbag64
(g85
g66
NtRp2977
(dp2978
g69
(dp2979
g96
g97
ssg78
g2968
sg71
(lp2980
S':'
asbag64
(g85
g66
NtRp2981
(dp2982
g69
(dp2983
sg78
g2968
sg71
(lp2984
g64
(g65
g66
NtRp2985
(dp2986
g69
(dp2987
g77
I3
ssg78
g2981
sg71
(lp2988
g1353
asbasbasbag64
(g80
g66
NtRp2989
(dp2990
g69
(dp2991
sg78
g2838
sg71
(lp2992
g64
(g85
g66
NtRp2993
(dp2994
g69
(dp2995
g89
g90
ssg78
g2989
sg71
(lp2996
S'HTTP_REFERER'
p2997
asbag64
(g85
g66
NtRp2998
(dp2999
g69
(dp3000
g96
g97
ssg78
g2989
sg71
(lp3001
S':'
asbag64
(g85
g66
NtRp3002
(dp3003
g69
(dp3004
sg78
g2989
sg71
(lp3005
g64
(g65
g66
NtRp3006
(dp3007
g69
(dp3008
g77
I3
ssg78
g3002
sg71
(lp3009
g1375
asbasbasbag64
(g80
g66
NtRp3010
(dp3011
g69
(dp3012
sg78
g2838
sg71
(lp3013
g64
(g85
g66
NtRp3014
(dp3015
g69
(dp3016
g89
g90
ssg78
g3010
sg71
(lp3017
S'HTTP_USER_AGENT'
p3018
asbag64
(g85
g66
NtRp3019
(dp3020
g69
(dp3021
g96
g97
ssg78
g3010
sg71
(lp3022
S':'
asbag64
(g85
g66
NtRp3023
(dp3024
g69
(dp3025
sg78
g3010
sg71
(lp3026
g64
(g65
g66
NtRp3027
(dp3028
g69
(dp3029
g77
I3
ssg78
g3023
sg71
(lp3030
g1397
asbasbasbag64
(g80
g66
NtRp3031
(dp3032
g69
(dp3033
sg78
g2838
sg71
(lp3034
g64
(g85
g66
NtRp3035
(dp3036
g69
(dp3037
g89
g90
ssg78
g3031
sg71
(lp3038
S'PATH_INFO'
p3039
asbag64
(g85
g66
NtRp3040
(dp3041
g69
(dp3042
g96
g97
ssg78
g3031
sg71
(lp3043
S':'
asbag64
(g85
g66
NtRp3044
(dp3045
g69
(dp3046
sg78
g3031
sg71
(lp3047
g64
(g65
g66
NtRp3048
(dp3049
g69
(dp3050
g77
I3
ssg78
g3044
sg71
(lp3051
g1551
asbasbasbag64
(g80
g66
NtRp3052
(dp3053
g69
(dp3054
sg78
g2838
sg71
(lp3055
g64
(g85
g66
NtRp3056
(dp3057
g69
(dp3058
g89
g90
ssg78
g3052
sg71
(lp3059
S'QUERY_STRING'
p3060
asbag64
(g85
g66
NtRp3061
(dp3062
g69
(dp3063
g96
g97
ssg78
g3052
sg71
(lp3064
S':'
asbag64
(g85
g66
NtRp3065
(dp3066
g69
(dp3067
sg78
g3052
sg71
(lp3068
g64
(g65
g66
NtRp3069
(dp3070
g69
(dp3071
g77
I3
ssg78
g3065
sg71
(lp3072
S''
asbasbasbag64
(g80
g66
NtRp3073
(dp3074
g69
(dp3075
sg78
g2838
sg71
(lp3076
g64
(g85
g66
NtRp3077
(dp3078
g69
(dp3079
g89
g90
ssg78
g3073
sg71
(lp3080
S'REMOTE_ADDR'
p3081
asbag64
(g85
g66
NtRp3082
(dp3083
g69
(dp3084
g96
g97
ssg78
g3073
sg71
(lp3085
S':'
asbag64
(g85
g66
NtRp3086
(dp3087
g69
(dp3088
sg78
g3073
sg71
(lp3089
g64
(g65
g66
NtRp3090
(dp3091
g69
(dp3092
g77
I3
ssg78
g3086
sg71
(lp3093
g219
asbasbasbag64
(g80
g66
NtRp3094
(dp3095
g69
(dp3096
sg78
g2838
sg71
(lp3097
g64
(g85
g66
NtRp3098
(dp3099
g69
(dp3100
g89
g90
ssg78
g3094
sg71
(lp3101
S'REMOTE_PORT'
p3102
asbag64
(g85
g66
NtRp3103
(dp3104
g69
(dp3105
g96
g97
ssg78
g3094
sg71
(lp3106
S':'
asbag64
(g85
g66
NtRp3107
(dp3108
g69
(dp3109
sg78
g3094
sg71
(lp3110
g64
(g65
g66
NtRp3111
(dp3112
g69
(dp3113
g77
I3
ssg78
g3107
sg71
(lp3114
g1615
asbasbasbag64
(g80
g66
NtRp3115
(dp3116
g69
(dp3117
sg78
g2838
sg71
(lp3118
g64
(g85
g66
NtRp3119
(dp3120
g69
(dp3121
g89
g90
ssg78
g3115
sg71
(lp3122
S'REQUEST_METHOD'
p3123
asbag64
(g85
g66
NtRp3124
(dp3125
g69
(dp3126
g96
g97
ssg78
g3115
sg71
(lp3127
S':'
asbag64
(g85
g66
NtRp3128
(dp3129
g69
(dp3130
sg78
g3115
sg71
(lp3131
g64
(g65
g66
NtRp3132
(dp3133
g69
(dp3134
g77
I3
ssg78
g3128
sg71
(lp3135
g1637
asbasbasbag64
(g80
g66
NtRp3136
(dp3137
g69
(dp3138
sg78
g2838
sg71
(lp3139
g64
(g85
g66
NtRp3140
(dp3141
g69
(dp3142
g89
g90
ssg78
g3136
sg71
(lp3143
S'REQUEST_URI'
p3144
asbag64
(g85
g66
NtRp3145
(dp3146
g69
(dp3147
g96
g97
ssg78
g3136
sg71
(lp3148
S':'
asbag64
(g85
g66
NtRp3149
(dp3150
g69
(dp3151
sg78
g3136
sg71
(lp3152
g64
(g65
g66
NtRp3153
(dp3154
g69
(dp3155
g77
I3
ssg78
g3149
sg71
(lp3156
g1551
asbasbasbag64
(g80
g66
NtRp3157
(dp3158
g69
(dp3159
sg78
g2838
sg71
(lp3160
g64
(g85
g66
NtRp3161
(dp3162
g69
(dp3163
g89
g90
ssg78
g3157
sg71
(lp3164
S'SCRIPT_NAME'
p3165
asbag64
(g85
g66
NtRp3166
(dp3167
g69
(dp3168
g96
g97
ssg78
g3157
sg71
(lp3169
S':'
asbag64
(g85
g66
NtRp3170
(dp3171
g69
(dp3172
sg78
g3157
sg71
(lp3173
g64
(g65
g66
NtRp3174
(dp3175
g69
(dp3176
g77
I3
ssg78
g3170
sg71
(lp3177
S''
asbasbasbag64
(g80
g66
NtRp3178
(dp3179
g69
(dp3180
sg78
g2838
sg71
(lp3181
g64
(g85
g66
NtRp3182
(dp3183
g69
(dp3184
g89
g90
ssg78
g3178
sg71
(lp3185
S'SERVER_NAME'
p3186
asbag64
(g85
g66
NtRp3187
(dp3188
g69
(dp3189
g96
g97
ssg78
g3178
sg71
(lp3190
S':'
asbag64
(g85
g66
NtRp3191
(dp3192
g69
(dp3193
sg78
g3178
sg71
(lp3194
g64
(g65
g66
NtRp3195
(dp3196
g69
(dp3197
g77
I3
ssg78
g3191
sg71
(lp3198
g1701
asbasbasbag64
(g80
g66
NtRp3199
(dp3200
g69
(dp3201
sg78
g2838
sg71
(lp3202
g64
(g85
g66
NtRp3203
(dp3204
g69
(dp3205
g89
g90
ssg78
g3199
sg71
(lp3206
S'SERVER_PORT'
p3207
asbag64
(g85
g66
NtRp3208
(dp3209
g69
(dp3210
g96
g97
ssg78
g3199
sg71
(lp3211
S':'
asbag64
(g85
g66
NtRp3212
(dp3213
g69
(dp3214
sg78
g3199
sg71
(lp3215
g64
(g65
g66
NtRp3216
(dp3217
g69
(dp3218
g77
I3
ssg78
g3212
sg71
(lp3219
g1723
asbasbasbag64
(g80
g66
NtRp3220
(dp3221
g69
(dp3222
sg78
g2838
sg71
(lp3223
g64
(g85
g66
NtRp3224
(dp3225
g69
(dp3226
g89
g90
ssg78
g3220
sg71
(lp3227
S'SERVER_PROTOCOL'
p3228
asbag64
(g85
g66
NtRp3229
(dp3230
g69
(dp3231
g96
g97
ssg78
g3220
sg71
(lp3232
S':'
asbag64
(g85
g66
NtRp3233
(dp3234
g69
(dp3235
sg78
g3220
sg71
(lp3236
g64
(g65
g66
NtRp3237
(dp3238
g69
(dp3239
g77
I3
ssg78
g3233
sg71
(lp3240
g1745
asbasbasbag64
(g80
g66
NtRp3241
(dp3242
g69
(dp3243
sg78
g2838
sg71
(lp3244
g64
(g85
g66
NtRp3245
(dp3246
g69
(dp3247
g89
g90
ssg78
g3241
sg71
(lp3248
S'SERVER_SOFTWARE'
p3249
asbag64
(g85
g66
NtRp3250
(dp3251
g69
(dp3252
g96
g97
ssg78
g3241
sg71
(lp3253
S':'
asbag64
(g85
g66
NtRp3254
(dp3255
g69
(dp3256
sg78
g3241
sg71
(lp3257
g64
(g65
g66
NtRp3258
(dp3259
g69
(dp3260
g77
I3
ssg78
g3254
sg71
(lp3261
g1767
asbasbasbag64
(g80
g66
NtRp3262
(dp3263
g69
(dp3264
sg78
g2838
sg71
(lp3265
g64
(g85
g66
NtRp3266
(dp3267
g69
(dp3268
g89
g90
ssg78
g3262
sg71
(lp3269
S'wsgi.errors'
p3270
asbag64
(g85
g66
NtRp3271
(dp3272
g69
(dp3273
g96
g97
ssg78
g3262
sg71
(lp3274
S':'
asbag64
(g85
g66
NtRp3275
(dp3276
g69
(dp3277
sg78
g3262
sg71
(lp3278
g64
(g65
g66
NtRp3279
(dp3280
g69
(dp3281
g77
I3
ssg78
g3275
sg71
(lp3282
S"<open file '<stderr>', mode 'w' at 0xb72a80d0>"
p3283
asbasbasbag64
(g80
g66
NtRp3284
(dp3285
g69
(dp3286
sg78
g2838
sg71
(lp3287
g64
(g85
g66
NtRp3288
(dp3289
g69
(dp3290
g89
g90
ssg78
g3284
sg71
(lp3291
S'wsgi.file_wrapper'
p3292
asbag64
(g85
g66
NtRp3293
(dp3294
g69
(dp3295
g96
g97
ssg78
g3284
sg71
(lp3296
S':'
asbag64
(g85
g66
NtRp3297
(dp3298
g69
(dp3299
sg78
g3284
sg71
(lp3300
g64
(g65
g66
NtRp3301
(dp3302
g69
(dp3303
g77
I3
ssg78
g3297
sg71
(lp3304
S'<class wsgiref.util.FileWrapper at 0xa40147c>'
p3305
asbasbasbag64
(g80
g66
NtRp3306
(dp3307
g69
(dp3308
sg78
g2838
sg71
(lp3309
g64
(g85
g66
NtRp3310
(dp3311
g69
(dp3312
g89
g90
ssg78
g3306
sg71
(lp3313
S'wsgi.input'
p3314
asbag64
(g85
g66
NtRp3315
(dp3316
g69
(dp3317
g96
g97
ssg78
g3306
sg71
(lp3318
S':'
asbag64
(g85
g66
NtRp3319
(dp3320
g69
(dp3321
sg78
g3306
sg71
(lp3322
g64
(g65
g66
NtRp3323
(dp3324
g69
(dp3325
g77
I3
ssg78
g3319
sg71
(lp3326
S'<cStringIO.StringO object at 0xa6b2c60>'
p3327
asbasbasbag64
(g80
g66
NtRp3328
(dp3329
g69
(dp3330
sg78
g2838
sg71
(lp3331
g64
(g85
g66
NtRp3332
(dp3333
g69
(dp3334
g89
g90
ssg78
g3328
sg71
(lp3335
S'wsgi.multiprocess'
p3336
asbag64
(g85
g66
NtRp3337
(dp3338
g69
(dp3339
g96
g97
ssg78
g3328
sg71
(lp3340
S':'
asbag64
(g85
g66
NtRp3341
(dp3342
g69
(dp3343
sg78
g3328
sg71
(lp3344
g64
(g65
g66
NtRp3345
(dp3346
g69
(dp3347
g77
I3
ssg78
g3341
sg71
(lp3348
g107
asbasbasbag64
(g80
g66
NtRp3349
(dp3350
g69
(dp3351
sg78
g2838
sg71
(lp3352
g64
(g85
g66
NtRp3353
(dp3354
g69
(dp3355
g89
g90
ssg78
g3349
sg71
(lp3356
S'wsgi.multithread'
p3357
asbag64
(g85
g66
NtRp3358
(dp3359
g69
(dp3360
g96
g97
ssg78
g3349
sg71
(lp3361
S':'
asbag64
(g85
g66
NtRp3362
(dp3363
g69
(dp3364
sg78
g3349
sg71
(lp3365
g64
(g65
g66
NtRp3366
(dp3367
g69
(dp3368
g77
I3
ssg78
g3362
sg71
(lp3369
g1984
asbasbasbag64
(g80
g66
NtRp3370
(dp3371
g69
(dp3372
sg78
g2838
sg71
(lp3373
g64
(g85
g66
NtRp3374
(dp3375
g69
(dp3376
g89
g90
ssg78
g3370
sg71
(lp3377
S'wsgi.run_once'
p3378
asbag64
(g85
g66
NtRp3379
(dp3380
g69
(dp3381
g96
g97
ssg78
g3370
sg71
(lp3382
S':'
asbag64
(g85
g66
NtRp3383
(dp3384
g69
(dp3385
sg78
g3370
sg71
(lp3386
g64
(g65
g66
NtRp3387
(dp3388
g69
(dp3389
g77
I3
ssg78
g3383
sg71
(lp3390
g107
asbasbasbag64
(g80
g66
NtRp3391
(dp3392
g69
(dp3393
sg78
g2838
sg71
(lp3394
g64
(g85
g66
NtRp3395
(dp3396
g69
(dp3397
g89
g90
ssg78
g3391
sg71
(lp3398
S'wsgi.url_scheme'
p3399
asbag64
(g85
g66
NtRp3400
(dp3401
g69
(dp3402
g96
g97
ssg78
g3391
sg71
(lp3403
S':'
asbag64
(g85
g66
NtRp3404
(dp3405
g69
(dp3406
sg78
g3391
sg71
(lp3407
g64
(g65
g66
NtRp3408
(dp3409
g69
(dp3410
g77
I3
ssg78
g3404
sg71
(lp3411
g2027
asbasbasbag64
(g80
g66
NtRp3412
(dp3413
g69
(dp3414
sg78
g2838
sg71
(lp3415
g64
(g85
g66
NtRp3416
(dp3417
g69
(dp3418
g89
g90
ssg78
g3412
sg71
(lp3419
S'wsgi.version'
p3420
asbag64
(g85
g66
NtRp3421
(dp3422
g69
(dp3423
g96
g97
ssg78
g3412
sg71
(lp3424
S':'
asbag64
(g85
g66
NtRp3425
(dp3426
g69
(dp3427
sg78
g3412
sg71
(lp3428
g64
(g65
g66
NtRp3429
(dp3430
g69
(dp3431
g77
I3
ssg78
g3425
sg71
(lp3432
S'1'
asbasbasbasbasbasbasbasbasbasbasbasbasbsS'frames'
p3433
(lp3434
(dp3435
S'file'
p3436
S'/home/nazrul/web2py/gluon/restricted.py'
p3437
sS'dump'
p3438
(dp3439
S'environment'
p3440
S"{'A': <class 'gluon.html.A'>, 'Auth': <class 'gluon.tools.Auth'>, 'B': <class 'gluon.html.B'>, 'BEAUTIFY': <class 'gluon.html.BEAUTIFY'>, 'BODY': <class 'gluon.html.BODY'>, 'BR': <class 'gluon.html.BR'>, 'BUTTON': <class 'gluon.html.BUTTON'>, 'CAT': <class 'gluon.html.CAT'>, 'CENTER': <class 'gluon.html.CENTER'>, 'CLEANUP': <class 'gluon.validators.CLEANUP'>, ...}"
p3441
sS'ccode'
p3442
S'<code object <module> at 0xa91c4e8, file "/home/...ations/WSD_Tool/controllers/default.py", line 11>'
p3443
ssS'lnum'
p3444
I212
sS'lines'
p3445
(dp3446
I207
S'    try:'
p3447
sI208
S'        if isinstance(code, types.CodeType):'
p3448
sI209
S'            ccode = code'
p3449
sI210
S'        else:'
p3450
sI211
S'            ccode = compile2(code, layer)'
p3451
sI212
S'        exec ccode in environment'
p3452
sI213
S'    except HTTP:'
p3453
sI214
S'        raise'
p3454
sI215
S'    except RestrictedError:'
p3455
sI216
S'        # do not encapsulate (obfuscate) the original RestrictedError'
p3456
ssS'call'
p3457
S"(code='# -*- coding: utf-8 -*-\\n# this file is released ... dict(v=v)\\n\\nresponse._vars=response._caller(rel)\\n', environment={'A': <class 'gluon.html.A'>, 'Auth': <class 'gluon.tools.Auth'>, 'B': <class 'gluon.html.B'>, 'BEAUTIFY': <class 'gluon.html.BEAUTIFY'>, 'BODY': <class 'gluon.html.BODY'>, 'BR': <class 'gluon.html.BR'>, 'BUTTON': <class 'gluon.html.BUTTON'>, 'CAT': <class 'gluon.html.CAT'>, 'CENTER': <class 'gluon.html.CENTER'>, 'CLEANUP': <class 'gluon.validators.CLEANUP'>, ...}, layer='/home/nazrul/web2py/applications/WSD_Tool/controllers/default.py')"
p3458
sS'func'
p3459
S'restricted'
p3460
sa(dp3461
g3436
S'/home/nazrul/web2py/applications/WSD_Tool/controllers/default.py'
p3462
sg3438
(dp3463
sg3444
I248
sg3445
(dp3464
I237
S"        redirect('home')"
p3465
sI238
S'    return dict()'
p3466
sI239
S'def rel():'
p3467
sI240
S'        bashCommand = "Anusaaraka_stanford.sh  sample 0 True"'
p3468
sI241
S'        process = subprocess.Popen(bashCommand.split(), stdout=subprocess.PIPE)'
p3469
sI242
S'        output = process.communicate()[0]'
p3470
sI243
S''
sI244
S'def testt():'
p3471
sI245
S'    v=db(db.auth_user).select()'
p3472
sI246
S'    return dict(v=v)'
p3473
ssg3457
S'()'
p3474
sg3459
S'<module>'
p3475
sa(dp3476
g3436
S'/home/nazrul/web2py/gluon/globals.py'
p3477
sg3438
(dp3478
S'self'
p3479
S'undefined'
p3480
sS'f'
S'<function rel>'
p3481
ssg3444
I193
sg3445
(dp3482
I192
S'        self._vars = None'
p3483
sI193
S'        self._caller = lambda f: f()'
p3484
sI194
S'        self._view_environment = None'
p3485
sI195
S'        self._custom_commit = None'
p3486
sI196
S'        self._custom_rollback = None'
p3487
sI197
S''
sI188
S'        self.menu = []             # used by the default view layout'
p3488
sI189
S'        self.files = []            # used by web2py_ajax.html'
p3489
sI190
S'        self.generic_patterns = []  # patterns to allow generic views'
p3490
sI191
S"        self.delimiters = ('{{', '}}')"
p3491
ssg3457
S'(f=<function rel>)'
p3492
sg3459
S'<lambda>'
p3493
sa(dp3494
g3436
S'/home/nazrul/web2py/applications/WSD_Tool/controllers/default.py'
p3495
sg3438
(dp3496
S'bashCommand.split'
p3497
S'<built-in method split of str object>'
p3498
sS'subprocess.Popen'
p3499
S"<class 'subprocess.Popen'>"
p3500
sS'process'
p3501
g3480
sS'subprocess.PIPE'
p3502
S'-1'
p3503
sS'stdout'
p3504
g3480
sS'bashCommand'
p3505
S"'Anusaaraka_stanford.sh  sample 0 True'"
p3506
sS'global subprocess'
p3507
S"<module 'subprocess' from '/usr/lib/python2.7/subprocess.pyc'>"
p3508
ssg3444
I241
sg3445
(dp3509
I236
S'            session.flash="Word Deleted "'
p3510
sI237
S"        redirect('home')"
p3511
sI238
S'    return dict()'
p3512
sI239
S'def rel():'
p3513
sI240
S'        bashCommand = "Anusaaraka_stanford.sh  sample 0 True"'
p3514
sI241
S'        process = subprocess.Popen(bashCommand.split(), stdout=subprocess.PIPE)'
p3515
sI242
S'        output = process.communicate()[0]'
p3516
sI243
S''
sI244
S'def testt():'
p3517
sI245
S'    v=db(db.auth_user).select()'
p3518
ssg3457
S'()'
p3519
sg3459
S'rel'
p3520
sa(dp3521
g3436
S'/usr/lib/python2.7/subprocess.py'
p3522
sg3438
(dp3523
S'errwrite'
p3524
S'None'
p3525
sS'errread'
p3526
S'None'
p3527
ssg3444
I679
sg3445
(dp3528
I674
S'        self._execute_child(args, executable, preexec_fn, close_fds,'
p3529
sI675
S'                            cwd, env, universal_newlines,'
p3530
sI676
S'                            startupinfo, creationflags, shell,'
p3531
sI677
S'                            p2cread, p2cwrite,'
p3532
sI678
S'                            c2pread, c2pwrite,'
p3533
sI679
S'                            errread, errwrite)'
p3534
sI680
S''
sI681
S'        if mswindows:'
p3535
sI682
S'            if p2cwrite is not None:'
p3536
sI683
S'                p2cwrite = msvcrt.open_osfhandle(p2cwrite.Detach(), 0)'
p3537
ssg3457
S"(self=<subprocess.Popen object>, args=['Anusaaraka_stanford.sh', 'sample', '0', 'True'], bufsize=0, executable=None, stdin=None, stdout=-1, stderr=None, preexec_fn=None, close_fds=False, shell=False, cwd=None, env=None, universal_newlines=False, startupinfo=None, creationflags=0)"
p3538
sg3459
g22
sa(dp3539
g3436
S'/usr/lib/python2.7/subprocess.py'
p3540
sg3438
(dp3541
S'child_exception'
p3542
S"OSError(8, 'Exec format error')"
p3543
ssg3444
I1249
sg3445
(dp3544
I1248
S'                        os.close(fd)'
p3545
sI1249
S'                raise child_exception'
p3546
sI1250
S''
sI1251
S''
sI1252
S'        def _handle_exitstatus(self, sts, _WIFSIGNALED=os.WIFSIGNALED,'
p3547
sI1253
S'                _WTERMSIG=os.WTERMSIG, _WIFEXITED=os.WIFEXITED,'
p3548
sI1244
S'                        raise'
p3549
sI1245
S'                child_exception = pickle.loads(data)'
p3550
sI1246
S'                for fd in (p2cwrite, c2pread, errread):'
p3551
sI1247
S'                    if fd is not None:'
p3552
ssg3457
S"(self=<subprocess.Popen object>, args=['Anusaaraka_stanford.sh', 'sample', '0', 'True'], executable='Anusaaraka_stanford.sh', preexec_fn=None, close_fds=False, cwd=None, env=None, universal_newlines=False, startupinfo=None, creationflags=0, shell=False, p2cread=None, p2cwrite=None, c2pread=9, c2pwrite=10, errread=None, errwrite=None)"
p3553
sg3459
S'_execute_child'
p3554
sasS'pyver'
p3555
S'Python 2.7.3: /usr/bin/python'
p3556
sS'session'
p3557
g64
(g65
g66
NtRp3558
(dp3559
g69
(dp3560
sg71
(lp3561
g64
(g73
g66
NtRp3562
(dp3563
g69
(dp3564
g77
I5
ssg78
Nsg71
(lp3565
g64
(g80
g66
NtRp3566
(dp3567
g69
(dp3568
sg78
g3562
sg71
(lp3569
g64
(g85
g66
NtRp3570
(dp3571
g69
(dp3572
g89
g90
ssg78
g3566
sg71
(lp3573
S'auth'
p3574
asbag64
(g85
g66
NtRp3575
(dp3576
g69
(dp3577
g96
g97
ssg78
g3566
sg71
(lp3578
S':'
asbag64
(g85
g66
NtRp3579
(dp3580
g69
(dp3581
sg78
g3566
sg71
(lp3582
g64
(g65
g66
NtRp3583
(dp3584
g69
(dp3585
g77
I5
ssg78
g3579
sg71
(lp3586
g64
(g73
g66
NtRp3587
(dp3588
g69
(dp3589
g77
I4
ssg78
Nsg71
(lp3590
g64
(g80
g66
NtRp3591
(dp3592
g69
(dp3593
sg78
g3587
sg71
(lp3594
g64
(g85
g66
NtRp3595
(dp3596
g69
(dp3597
g89
g90
ssg78
g3591
sg71
(lp3598
S'expiration'
p3599
asbag64
(g85
g66
NtRp3600
(dp3601
g69
(dp3602
g96
g97
ssg78
g3591
sg71
(lp3603
S':'
asbag64
(g85
g66
NtRp3604
(dp3605
g69
(dp3606
sg78
g3591
sg71
(lp3607
g64
(g65
g66
NtRp3608
(dp3609
g69
(dp3610
g77
I4
ssg78
g3604
sg71
(lp3611
S'3600'
p3612
asbasbasbag64
(g80
g66
NtRp3613
(dp3614
g69
(dp3615
sg78
g3587
sg71
(lp3616
g64
(g85
g66
NtRp3617
(dp3618
g69
(dp3619
g89
g90
ssg78
g3613
sg71
(lp3620
S'hmac_key'
p3621
asbag64
(g85
g66
NtRp3622
(dp3623
g69
(dp3624
g96
g97
ssg78
g3613
sg71
(lp3625
S':'
asbag64
(g85
g66
NtRp3626
(dp3627
g69
(dp3628
sg78
g3613
sg71
(lp3629
g64
(g65
g66
NtRp3630
(dp3631
g69
(dp3632
g77
I4
ssg78
g3626
sg71
(lp3633
S'8602439a-0584-4b9c-bb16-2c64975f2cc4'
p3634
asbasbasbag64
(g80
g66
NtRp3635
(dp3636
g69
(dp3637
sg78
g3587
sg71
(lp3638
g64
(g85
g66
NtRp3639
(dp3640
g69
(dp3641
g89
g90
ssg78
g3635
sg71
(lp3642
S'last_visit'
p3643
asbag64
(g85
g66
NtRp3644
(dp3645
g69
(dp3646
g96
g97
ssg78
g3635
sg71
(lp3647
S':'
asbag64
(g85
g66
NtRp3648
(dp3649
g69
(dp3650
sg78
g3635
sg71
(lp3651
g64
(g65
g66
NtRp3652
(dp3653
g69
(dp3654
g77
I4
ssg78
g3648
sg71
(lp3655
S'datetime.datetime(2013, 11, 9, 15, 21, 48, 393649)'
p3656
asbasbasbag64
(g80
g66
NtRp3657
(dp3658
g69
(dp3659
sg78
g3587
sg71
(lp3660
g64
(g85
g66
NtRp3661
(dp3662
g69
(dp3663
g89
g90
ssg78
g3657
sg71
(lp3664
S'remember'
p3665
asbag64
(g85
g66
NtRp3666
(dp3667
g69
(dp3668
g96
g97
ssg78
g3657
sg71
(lp3669
S':'
asbag64
(g85
g66
NtRp3670
(dp3671
g69
(dp3672
sg78
g3657
sg71
(lp3673
g64
(g65
g66
NtRp3674
(dp3675
g69
(dp3676
g77
I4
ssg78
g3670
sg71
(lp3677
g107
asbasbasbag64
(g80
g66
NtRp3678
(dp3679
g69
(dp3680
sg78
g3587
sg71
(lp3681
g64
(g85
g66
NtRp3682
(dp3683
g69
(dp3684
g89
g90
ssg78
g3678
sg71
(lp3685
S'user'
p3686
asbag64
(g85
g66
NtRp3687
(dp3688
g69
(dp3689
g96
g97
ssg78
g3678
sg71
(lp3690
S':'
asbag64
(g85
g66
NtRp3691
(dp3692
g69
(dp3693
sg78
g3678
sg71
(lp3694
g64
(g65
g66
NtRp3695
(dp3696
g69
(dp3697
g77
I4
ssg78
g3691
sg71
(lp3698
g64
(g73
g66
NtRp3699
(dp3700
g69
(dp3701
g77
I3
ssg78
Nsg71
(lp3702
g64
(g80
g66
NtRp3703
(dp3704
g69
(dp3705
sg78
g3699
sg71
(lp3706
g64
(g85
g66
NtRp3707
(dp3708
g69
(dp3709
g89
g90
ssg78
g3703
sg71
(lp3710
S'email'
p3711
asbag64
(g85
g66
NtRp3712
(dp3713
g69
(dp3714
g96
g97
ssg78
g3703
sg71
(lp3715
S':'
asbag64
(g85
g66
NtRp3716
(dp3717
g69
(dp3718
sg78
g3703
sg71
(lp3719
g64
(g65
g66
NtRp3720
(dp3721
g69
(dp3722
g77
I3
ssg78
g3716
sg71
(lp3723
S'user@sys.com'
p3724
asbasbasbag64
(g80
g66
NtRp3725
(dp3726
g69
(dp3727
sg78
g3699
sg71
(lp3728
g64
(g85
g66
NtRp3729
(dp3730
g69
(dp3731
g89
g90
ssg78
g3725
sg71
(lp3732
S'first_name'
p3733
asbag64
(g85
g66
NtRp3734
(dp3735
g69
(dp3736
g96
g97
ssg78
g3725
sg71
(lp3737
S':'
asbag64
(g85
g66
NtRp3738
(dp3739
g69
(dp3740
sg78
g3725
sg71
(lp3741
g64
(g65
g66
NtRp3742
(dp3743
g69
(dp3744
g77
I3
ssg78
g3738
sg71
(lp3745
S'user'
p3746
asbasbasbag64
(g80
g66
NtRp3747
(dp3748
g69
(dp3749
sg78
g3699
sg71
(lp3750
g64
(g85
g66
NtRp3751
(dp3752
g69
(dp3753
g89
g90
ssg78
g3747
sg71
(lp3754
S'id'
p3755
asbag64
(g85
g66
NtRp3756
(dp3757
g69
(dp3758
g96
g97
ssg78
g3747
sg71
(lp3759
S':'
asbag64
(g85
g66
NtRp3760
(dp3761
g69
(dp3762
sg78
g3747
sg71
(lp3763
g64
(g65
g66
NtRp3764
(dp3765
g69
(dp3766
g77
I3
ssg78
g3760
sg71
(lp3767
S'7'
asbasbasbag64
(g80
g66
NtRp3768
(dp3769
g69
(dp3770
sg78
g3699
sg71
(lp3771
g64
(g85
g66
NtRp3772
(dp3773
g69
(dp3774
g89
g90
ssg78
g3768
sg71
(lp3775
S'last_name'
p3776
asbag64
(g85
g66
NtRp3777
(dp3778
g69
(dp3779
g96
g97
ssg78
g3768
sg71
(lp3780
S':'
asbag64
(g85
g66
NtRp3781
(dp3782
g69
(dp3783
sg78
g3768
sg71
(lp3784
g64
(g65
g66
NtRp3785
(dp3786
g69
(dp3787
g77
I3
ssg78
g3781
sg71
(lp3788
S'user'
p3789
asbasbasbag64
(g80
g66
NtRp3790
(dp3791
g69
(dp3792
sg78
g3699
sg71
(lp3793
g64
(g85
g66
NtRp3794
(dp3795
g69
(dp3796
g89
g90
ssg78
g3790
sg71
(lp3797
S'registration_id'
p3798
asbag64
(g85
g66
NtRp3799
(dp3800
g69
(dp3801
g96
g97
ssg78
g3790
sg71
(lp3802
S':'
asbag64
(g85
g66
NtRp3803
(dp3804
g69
(dp3805
sg78
g3790
sg71
(lp3806
g64
(g65
g66
NtRp3807
(dp3808
g69
(dp3809
g77
I3
ssg78
g3803
sg71
(lp3810
S''
asbasbasbag64
(g80
g66
NtRp3811
(dp3812
g69
(dp3813
sg78
g3699
sg71
(lp3814
g64
(g85
g66
NtRp3815
(dp3816
g69
(dp3817
g89
g90
ssg78
g3811
sg71
(lp3818
S'registration_key'
p3819
asbag64
(g85
g66
NtRp3820
(dp3821
g69
(dp3822
g96
g97
ssg78
g3811
sg71
(lp3823
S':'
asbag64
(g85
g66
NtRp3824
(dp3825
g69
(dp3826
sg78
g3811
sg71
(lp3827
g64
(g65
g66
NtRp3828
(dp3829
g69
(dp3830
g77
I3
ssg78
g3824
sg71
(lp3831
S''
asbasbasbag64
(g80
g66
NtRp3832
(dp3833
g69
(dp3834
sg78
g3699
sg71
(lp3835
g64
(g85
g66
NtRp3836
(dp3837
g69
(dp3838
g89
g90
ssg78
g3832
sg71
(lp3839
S'reset_password_key'
p3840
asbag64
(g85
g66
NtRp3841
(dp3842
g69
(dp3843
g96
g97
ssg78
g3832
sg71
(lp3844
S':'
asbag64
(g85
g66
NtRp3845
(dp3846
g69
(dp3847
sg78
g3832
sg71
(lp3848
g64
(g65
g66
NtRp3849
(dp3850
g69
(dp3851
g77
I3
ssg78
g3845
sg71
(lp3852
S''
asbasbasbasbasbasbasbag64
(g80
g66
NtRp3853
(dp3854
g69
(dp3855
sg78
g3587
sg71
(lp3856
g64
(g85
g66
NtRp3857
(dp3858
g69
(dp3859
g89
g90
ssg78
g3853
sg71
(lp3860
S'user_groups'
p3861
asbag64
(g85
g66
NtRp3862
(dp3863
g69
(dp3864
g96
g97
ssg78
g3853
sg71
(lp3865
S':'
asbag64
(g85
g66
NtRp3866
(dp3867
g69
(dp3868
sg78
g3853
sg71
(lp3869
g64
(g65
g66
NtRp3870
(dp3871
g69
(dp3872
g77
I4
ssg78
g3866
sg71
(lp3873
g64
(g73
g66
NtRp3874
(dp3875
g69
(dp3876
g77
I3
ssg78
Nsg71
(lp3877
sbasbasbasbasbasbasbasbag64
(g80
g66
NtRp3878
(dp3879
g69
(dp3880
sg78
g3562
sg71
(lp3881
g64
(g85
g66
NtRp3882
(dp3883
g69
(dp3884
g89
g90
ssg78
g3878
sg71
(lp3885
S'flash'
p3886
asbag64
(g85
g66
NtRp3887
(dp3888
g69
(dp3889
g96
g97
ssg78
g3878
sg71
(lp3890
S':'
asbag64
(g85
g66
NtRp3891
(dp3892
g69
(dp3893
sg78
g3878
sg71
(lp3894
g64
(g65
g66
NtRp3895
(dp3896
g69
(dp3897
g77
I5
ssg78
g3891
sg71
(lp3898
S'None'
p3899
asbasbasbag64
(g80
g66
NtRp3900
(dp3901
g69
(dp3902
sg78
g3562
sg71
(lp3903
g64
(g85
g66
NtRp3904
(dp3905
g69
(dp3906
g89
g90
ssg78
g3900
sg71
(lp3907
S'ide'
p3908
asbag64
(g85
g66
NtRp3909
(dp3910
g69
(dp3911
g96
g97
ssg78
g3900
sg71
(lp3912
S':'
asbag64
(g85
g66
NtRp3913
(dp3914
g69
(dp3915
sg78
g3900
sg71
(lp3916
g64
(g65
g66
NtRp3917
(dp3918
g69
(dp3919
g77
I5
ssg78
g3913
sg71
(lp3920
S'9'
asbasbasbag64
(g80
g66
NtRp3921
(dp3922
g69
(dp3923
sg78
g3562
sg71
(lp3924
g64
(g85
g66
NtRp3925
(dp3926
g69
(dp3927
g89
g90
ssg78
g3921
sg71
(lp3928
S'last_orderby'
p3929
asbag64
(g85
g66
NtRp3930
(dp3931
g69
(dp3932
g96
g97
ssg78
g3921
sg71
(lp3933
S':'
asbag64
(g85
g66
NtRp3934
(dp3935
g69
(dp3936
sg78
g3921
sg71
(lp3937
g64
(g65
g66
NtRp3938
(dp3939
g69
(dp3940
g77
I5
ssg78
g3934
sg71
(lp3941
S'None'
p3942
asbasbasbag64
(g80
g66
NtRp3943
(dp3944
g69
(dp3945
sg78
g3562
sg71
(lp3946
g64
(g85
g66
NtRp3947
(dp3948
g69
(dp3949
g89
g90
ssg78
g3943
sg71
(lp3950
S'last_query'
p3951
asbag64
(g85
g66
NtRp3952
(dp3953
g69
(dp3954
g96
g97
ssg78
g3943
sg71
(lp3955
S':'
asbag64
(g85
g66
NtRp3956
(dp3957
g69
(dp3958
sg78
g3943
sg71
(lp3959
g64
(g65
g66
NtRp3960
(dp3961
g69
(dp3962
g77
I5
ssg78
g3956
sg71
(lp3963
S'db.rules.id>0'
p3964
asbasbasbag64
(g80
g66
NtRp3965
(dp3966
g69
(dp3967
sg78
g3562
sg71
(lp3968
g64
(g85
g66
NtRp3969
(dp3970
g69
(dp3971
g89
g90
ssg78
g3965
sg71
(lp3972
S'sid'
p3973
asbag64
(g85
g66
NtRp3974
(dp3975
g69
(dp3976
g96
g97
ssg78
g3965
sg71
(lp3977
S':'
asbag64
(g85
g66
NtRp3978
(dp3979
g69
(dp3980
sg78
g3965
sg71
(lp3981
g64
(g65
g66
NtRp3982
(dp3983
g69
(dp3984
g77
I5
ssg78
g3978
sg71
(lp3985
S'10'
p3986
asbasbasbag64
(g80
g66
NtRp3987
(dp3988
g69
(dp3989
sg78
g3562
sg71
(lp3990
g64
(g85
g66
NtRp3991
(dp3992
g69
(dp3993
g89
g90
ssg78
g3987
sg71
(lp3994
S'word'
p3995
asbag64
(g85
g66
NtRp3996
(dp3997
g69
(dp3998
g96
g97
ssg78
g3987
sg71
(lp3999
S':'
asbag64
(g85
g66
NtRp4000
(dp4001
g69
(dp4002
sg78
g3987
sg71
(lp4003
g64
(g65
g66
NtRp4004
(dp4005
g69
(dp4006
g77
I5
ssg78
g4000
sg71
(lp4007
S'old'
p4008
asbasbasbasbasbsS'etype'
p4009
S"<type 'exceptions.OSError'>"
p4010
sS'date'
p4011
S'Sat Nov  9 15:26:33 2013'
p4012
sS'response'
p4013
g64
(g65
g66
NtRp4014
(dp4015
g69
(dp4016
sg71
(lp4017
g64
(g73
g66
NtRp4018
(dp4019
g69
(dp4020
g77
I5
ssg78
Nsg71
(lp4021
g64
(g80
g66
NtRp4022
(dp4023
g69
(dp4024
sg78
g4018
sg71
(lp4025
g64
(g85
g66
NtRp4026
(dp4027
g69
(dp4028
g89
g90
ssg78
g4022
sg71
(lp4029
g162
asbag64
(g85
g66
NtRp4030
(dp4031
g69
(dp4032
g96
g97
ssg78
g4022
sg71
(lp4033
S':'
asbag64
(g85
g66
NtRp4034
(dp4035
g69
(dp4036
sg78
g4022
sg71
(lp4037
g64
(g65
g66
NtRp4038
(dp4039
g69
(dp4040
g77
I5
ssg78
g4034
sg71
(lp4041
S'<cStringIO.StringO object at 0xadb4bda0>'
p4042
asbasbasbag64
(g80
g66
NtRp4043
(dp4044
g69
(dp4045
sg78
g4018
sg71
(lp4046
g64
(g85
g66
NtRp4047
(dp4048
g69
(dp4049
g89
g90
ssg78
g4043
sg71
(lp4050
g250
asbag64
(g85
g66
NtRp4051
(dp4052
g69
(dp4053
g96
g97
ssg78
g4043
sg71
(lp4054
S':'
asbag64
(g85
g66
NtRp4055
(dp4056
g69
(dp4057
sg78
g4043
sg71
(lp4058
g64
(g65
g66
NtRp4059
(dp4060
g69
(dp4061
g77
I5
ssg78
g4055
sg71
(lp4062
g64
(g73
g66
NtRp4063
(dp4064
g69
(dp4065
g77
I4
ssg78
Nsg71
(lp4066
g64
(g80
g66
NtRp4067
(dp4068
g69
(dp4069
sg78
g4063
sg71
(lp4070
g64
(g85
g66
NtRp4071
(dp4072
g69
(dp4073
g89
g90
ssg78
g4067
sg71
(lp4074
S'session_id_wsd_tool'
p4075
asbag64
(g85
g66
NtRp4076
(dp4077
g69
(dp4078
g96
g97
ssg78
g4067
sg71
(lp4079
S':'
asbag64
(g85
g66
NtRp4080
(dp4081
g69
(dp4082
sg78
g4067
sg71
(lp4083
g64
(g65
g66
NtRp4084
(dp4085
g69
(dp4086
g77
I4
ssg78
g4080
sg71
(lp4087
g854
ag64
(g73
g66
NtRp4088
(dp4089
g69
(dp4090
g77
I3
ssg78
Nsg71
(lp4091
g64
(g80
g66
NtRp4092
(dp4093
g69
(dp4094
sg78
g4088
sg71
(lp4095
g64
(g85
g66
NtRp4096
(dp4097
g69
(dp4098
g89
g90
ssg78
g4092
sg71
(lp4099
g301
asbag64
(g85
g66
NtRp4100
(dp4101
g69
(dp4102
g96
g97
ssg78
g4092
sg71
(lp4103
S':'
asbag64
(g85
g66
NtRp4104
(dp4105
g69
(dp4106
sg78
g4092
sg71
(lp4107
g64
(g65
g66
NtRp4108
(dp4109
g69
(dp4110
g77
I3
ssg78
g4104
sg71
(lp4111
S''
asbasbasbag64
(g80
g66
NtRp4112
(dp4113
g69
(dp4114
sg78
g4088
sg71
(lp4115
g64
(g85
g66
NtRp4116
(dp4117
g69
(dp4118
g89
g90
ssg78
g4112
sg71
(lp4119
g322
asbag64
(g85
g66
NtRp4120
(dp4121
g69
(dp4122
g96
g97
ssg78
g4112
sg71
(lp4123
S':'
asbag64
(g85
g66
NtRp4124
(dp4125
g69
(dp4126
sg78
g4112
sg71
(lp4127
g64
(g65
g66
NtRp4128
(dp4129
g69
(dp4130
g77
I3
ssg78
g4124
sg71
(lp4131
S''
asbasbasbag64
(g80
g66
NtRp4132
(dp4133
g69
(dp4134
sg78
g4088
sg71
(lp4135
g64
(g85
g66
NtRp4136
(dp4137
g69
(dp4138
g89
g90
ssg78
g4132
sg71
(lp4139
g343
asbag64
(g85
g66
NtRp4140
(dp4141
g69
(dp4142
g96
g97
ssg78
g4132
sg71
(lp4143
S':'
asbag64
(g85
g66
NtRp4144
(dp4145
g69
(dp4146
sg78
g4132
sg71
(lp4147
g64
(g65
g66
NtRp4148
(dp4149
g69
(dp4150
g77
I3
ssg78
g4144
sg71
(lp4151
S''
asbasbasbag64
(g80
g66
NtRp4152
(dp4153
g69
(dp4154
sg78
g4088
sg71
(lp4155
g64
(g85
g66
NtRp4156
(dp4157
g69
(dp4158
g89
g90
ssg78
g4152
sg71
(lp4159
g364
asbag64
(g85
g66
NtRp4160
(dp4161
g69
(dp4162
g96
g97
ssg78
g4152
sg71
(lp4163
S':'
asbag64
(g85
g66
NtRp4164
(dp4165
g69
(dp4166
sg78
g4152
sg71
(lp4167
g64
(g65
g66
NtRp4168
(dp4169
g69
(dp4170
g77
I3
ssg78
g4164
sg71
(lp4171
S''
asbasbasbag64
(g80
g66
NtRp4172
(dp4173
g69
(dp4174
sg78
g4088
sg71
(lp4175
g64
(g85
g66
NtRp4176
(dp4177
g69
(dp4178
g89
g90
ssg78
g4172
sg71
(lp4179
g385
asbag64
(g85
g66
NtRp4180
(dp4181
g69
(dp4182
g96
g97
ssg78
g4172
sg71
(lp4183
S':'
asbag64
(g85
g66
NtRp4184
(dp4185
g69
(dp4186
sg78
g4172
sg71
(lp4187
g64
(g65
g66
NtRp4188
(dp4189
g69
(dp4190
g77
I3
ssg78
g4184
sg71
(lp4191
S''
asbasbasbag64
(g80
g66
NtRp4192
(dp4193
g69
(dp4194
sg78
g4088
sg71
(lp4195
g64
(g85
g66
NtRp4196
(dp4197
g69
(dp4198
g89
g90
ssg78
g4192
sg71
(lp4199
g406
asbag64
(g85
g66
NtRp4200
(dp4201
g69
(dp4202
g96
g97
ssg78
g4192
sg71
(lp4203
S':'
asbag64
(g85
g66
NtRp4204
(dp4205
g69
(dp4206
sg78
g4192
sg71
(lp4207
g64
(g65
g66
NtRp4208
(dp4209
g69
(dp4210
g77
I3
ssg78
g4204
sg71
(lp4211
S'/'
asbasbasbag64
(g80
g66
NtRp4212
(dp4213
g69
(dp4214
sg78
g4088
sg71
(lp4215
g64
(g85
g66
NtRp4216
(dp4217
g69
(dp4218
g89
g90
ssg78
g4212
sg71
(lp4219
g427
asbag64
(g85
g66
NtRp4220
(dp4221
g69
(dp4222
g96
g97
ssg78
g4212
sg71
(lp4223
S':'
asbag64
(g85
g66
NtRp4224
(dp4225
g69
(dp4226
sg78
g4212
sg71
(lp4227
g64
(g65
g66
NtRp4228
(dp4229
g69
(dp4230
g77
I3
ssg78
g4224
sg71
(lp4231
S''
asbasbasbag64
(g80
g66
NtRp4232
(dp4233
g69
(dp4234
sg78
g4088
sg71
(lp4235
g64
(g85
g66
NtRp4236
(dp4237
g69
(dp4238
g89
g90
ssg78
g4232
sg71
(lp4239
g448
asbag64
(g85
g66
NtRp4240
(dp4241
g69
(dp4242
g96
g97
ssg78
g4232
sg71
(lp4243
S':'
asbag64
(g85
g66
NtRp4244
(dp4245
g69
(dp4246
sg78
g4232
sg71
(lp4247
g64
(g65
g66
NtRp4248
(dp4249
g69
(dp4250
g77
I3
ssg78
g4244
sg71
(lp4251
S''
asbasbasbasbasbasbasbasbasbasbasbag64
(g80
g66
NtRp4252
(dp4253
g69
(dp4254
sg78
g4018
sg71
(lp4255
g64
(g85
g66
NtRp4256
(dp4257
g69
(dp4258
g89
g90
ssg78
g4252
sg71
(lp4259
S'delimiters'
p4260
asbag64
(g85
g66
NtRp4261
(dp4262
g69
(dp4263
g96
g97
ssg78
g4252
sg71
(lp4264
S':'
asbag64
(g85
g66
NtRp4265
(dp4266
g69
(dp4267
sg78
g4252
sg71
(lp4268
g64
(g65
g66
NtRp4269
(dp4270
g69
(dp4271
g77
I5
ssg78
g4265
sg71
(lp4272
g64
(g73
g66
NtRp4273
(dp4274
g69
(dp4275
g77
I4
ssg78
Nsg71
(lp4276
g64
(g80
g66
NtRp4277
(dp4278
g69
(dp4279
sg78
g4273
sg71
(lp4280
g64
(g85
g66
NtRp4281
(dp4282
g69
(dp4283
sg78
g4277
sg71
(lp4284
g64
(g65
g66
NtRp4285
(dp4286
g69
(dp4287
g77
I4
ssg78
g4281
sg71
(lp4288
S'{{'
p4289
asbasbasbag64
(g80
g66
NtRp4290
(dp4291
g69
(dp4292
sg78
g4273
sg71
(lp4293
g64
(g85
g66
NtRp4294
(dp4295
g69
(dp4296
sg78
g4290
sg71
(lp4297
g64
(g65
g66
NtRp4298
(dp4299
g69
(dp4300
g77
I4
ssg78
g4294
sg71
(lp4301
S'}}'
p4302
asbasbasbasbasbasbasbag64
(g80
g66
NtRp4303
(dp4304
g69
(dp4305
sg78
g4018
sg71
(lp4306
g64
(g85
g66
NtRp4307
(dp4308
g69
(dp4309
g89
g90
ssg78
g4303
sg71
(lp4310
S'files'
p4311
asbag64
(g85
g66
NtRp4312
(dp4313
g69
(dp4314
g96
g97
ssg78
g4303
sg71
(lp4315
S':'
asbag64
(g85
g66
NtRp4316
(dp4317
g69
(dp4318
sg78
g4303
sg71
(lp4319
g64
(g65
g66
NtRp4320
(dp4321
g69
(dp4322
g77
I5
ssg78
g4316
sg71
(lp4323
g64
(g73
g66
NtRp4324
(dp4325
g69
(dp4326
g77
I4
ssg78
Nsg71
(lp4327
sbasbasbasbag64
(g80
g66
NtRp4328
(dp4329
g69
(dp4330
sg78
g4018
sg71
(lp4331
g64
(g85
g66
NtRp4332
(dp4333
g69
(dp4334
g89
g90
ssg78
g4328
sg71
(lp4335
S'flash'
p4336
asbag64
(g85
g66
NtRp4337
(dp4338
g69
(dp4339
g96
g97
ssg78
g4328
sg71
(lp4340
S':'
asbag64
(g85
g66
NtRp4341
(dp4342
g69
(dp4343
sg78
g4328
sg71
(lp4344
g64
(g65
g66
NtRp4345
(dp4346
g69
(dp4347
g77
I5
ssg78
g4341
sg71
(lp4348
S''
asbasbasbag64
(g80
g66
NtRp4349
(dp4350
g69
(dp4351
sg78
g4018
sg71
(lp4352
g64
(g85
g66
NtRp4353
(dp4354
g69
(dp4355
g89
g90
ssg78
g4349
sg71
(lp4356
S'generic_patterns'
p4357
asbag64
(g85
g66
NtRp4358
(dp4359
g69
(dp4360
g96
g97
ssg78
g4349
sg71
(lp4361
S':'
asbag64
(g85
g66
NtRp4362
(dp4363
g69
(dp4364
sg78
g4349
sg71
(lp4365
g64
(g65
g66
NtRp4366
(dp4367
g69
(dp4368
g77
I5
ssg78
g4362
sg71
(lp4369
g64
(g73
g66
NtRp4370
(dp4371
g69
(dp4372
g77
I4
ssg78
Nsg71
(lp4373
g64
(g80
g66
NtRp4374
(dp4375
g69
(dp4376
sg78
g4370
sg71
(lp4377
g64
(g85
g66
NtRp4378
(dp4379
g69
(dp4380
sg78
g4374
sg71
(lp4381
g64
(g65
g66
NtRp4382
(dp4383
g69
(dp4384
g77
I4
ssg78
g4378
sg71
(lp4385
S'*'
asbasbasbasbasbasbasbag64
(g80
g66
NtRp4386
(dp4387
g69
(dp4388
sg78
g4018
sg71
(lp4389
g64
(g85
g66
NtRp4390
(dp4391
g69
(dp4392
g89
g90
ssg78
g4386
sg71
(lp4393
S'google_analytics_id'
p4394
asbag64
(g85
g66
NtRp4395
(dp4396
g69
(dp4397
g96
g97
ssg78
g4386
sg71
(lp4398
S':'
asbag64
(g85
g66
NtRp4399
(dp4400
g69
(dp4401
sg78
g4386
sg71
(lp4402
g64
(g65
g66
NtRp4403
(dp4404
g69
(dp4405
g77
I5
ssg78
g4399
sg71
(lp4406
S'None'
p4407
asbasbasbag64
(g80
g66
NtRp4408
(dp4409
g69
(dp4410
sg78
g4018
sg71
(lp4411
g64
(g85
g66
NtRp4412
(dp4413
g69
(dp4414
g89
g90
ssg78
g4408
sg71
(lp4415
S'headers'
p4416
asbag64
(g85
g66
NtRp4417
(dp4418
g69
(dp4419
g96
g97
ssg78
g4408
sg71
(lp4420
S':'
asbag64
(g85
g66
NtRp4421
(dp4422
g69
(dp4423
sg78
g4408
sg71
(lp4424
g64
(g65
g66
NtRp4425
(dp4426
g69
(dp4427
g77
I5
ssg78
g4421
sg71
(lp4428
g64
(g73
g66
NtRp4429
(dp4430
g69
(dp4431
g77
I4
ssg78
Nsg71
(lp4432
g64
(g80
g66
NtRp4433
(dp4434
g69
(dp4435
sg78
g4429
sg71
(lp4436
g64
(g85
g66
NtRp4437
(dp4438
g69
(dp4439
g89
g90
ssg78
g4433
sg71
(lp4440
S'X-Powered-By'
p4441
asbag64
(g85
g66
NtRp4442
(dp4443
g69
(dp4444
g96
g97
ssg78
g4433
sg71
(lp4445
S':'
asbag64
(g85
g66
NtRp4446
(dp4447
g69
(dp4448
sg78
g4433
sg71
(lp4449
g64
(g65
g66
NtRp4450
(dp4451
g69
(dp4452
g77
I4
ssg78
g4446
sg71
(lp4453
S'web2py'
p4454
asbasbasbasbasbasbasbag64
(g80
g66
NtRp4455
(dp4456
g69
(dp4457
sg78
g4018
sg71
(lp4458
g64
(g85
g66
NtRp4459
(dp4460
g69
(dp4461
g89
g90
ssg78
g4455
sg71
(lp4462
S'menu'
p4463
asbag64
(g85
g66
NtRp4464
(dp4465
g69
(dp4466
g96
g97
ssg78
g4455
sg71
(lp4467
S':'
asbag64
(g85
g66
NtRp4468
(dp4469
g69
(dp4470
sg78
g4455
sg71
(lp4471
g64
(g65
g66
NtRp4472
(dp4473
g69
(dp4474
g77
I5
ssg78
g4468
sg71
(lp4475
g64
(g73
g66
NtRp4476
(dp4477
g69
(dp4478
g77
I4
ssg78
Nsg71
(lp4479
g64
(g80
g66
NtRp4480
(dp4481
g69
(dp4482
sg78
g4476
sg71
(lp4483
g64
(g85
g66
NtRp4484
(dp4485
g69
(dp4486
sg78
g4480
sg71
(lp4487
g64
(g65
g66
NtRp4488
(dp4489
g69
(dp4490
g77
I4
ssg78
g4484
sg71
(lp4491
g64
(g73
g66
NtRp4492
(dp4493
g69
(dp4494
g77
I3
ssg78
Nsg71
(lp4495
g64
(g80
g66
NtRp4496
(dp4497
g69
(dp4498
sg78
g4492
sg71
(lp4499
g64
(g85
g66
NtRp4500
(dp4501
g69
(dp4502
sg78
g4496
sg71
(lp4503
g64
(g65
g66
NtRp4504
(dp4505
g69
(dp4506
g77
I3
ssg78
g4500
sg71
(lp4507
cgluon.languages
lazyT_unpickle
p4508
(S't\x04\x00\x00\x00Home'
tRp4509
asbasbasbag64
(g80
g66
NtRp4510
(dp4511
g69
(dp4512
sg78
g4492
sg71
(lp4513
g64
(g85
g66
NtRp4514
(dp4515
g69
(dp4516
sg78
g4510
sg71
(lp4517
g64
(g65
g66
NtRp4518
(dp4519
g69
(dp4520
g77
I3
ssg78
g4514
sg71
(lp4521
g107
asbasbasbag64
(g80
g66
NtRp4522
(dp4523
g69
(dp4524
sg78
g4492
sg71
(lp4525
g64
(g85
g66
NtRp4526
(dp4527
g69
(dp4528
sg78
g4522
sg71
(lp4529
g64
(g65
g66
NtRp4530
(dp4531
g69
(dp4532
g77
I3
ssg78
g4526
sg71
(lp4533
S'/WSD_Tool/default/index'
p4534
asbasbasbag64
(g80
g66
NtRp4535
(dp4536
g69
(dp4537
sg78
g4492
sg71
(lp4538
g64
(g85
g66
NtRp4539
(dp4540
g69
(dp4541
sg78
g4535
sg71
(lp4542
g64
(g65
g66
NtRp4543
(dp4544
g69
(dp4545
g77
I3
ssg78
g4539
sg71
(lp4546
g64
(g73
g66
NtRp4547
(dp4548
g69
(dp4549
g77
I2
ssg78
Nsg71
(lp4550
sbasbasbasbasbasbasbasbag64
(g80
g66
NtRp4551
(dp4552
g69
(dp4553
sg78
g4476
sg71
(lp4554
g64
(g85
g66
NtRp4555
(dp4556
g69
(dp4557
sg78
g4551
sg71
(lp4558
g64
(g65
g66
NtRp4559
(dp4560
g69
(dp4561
g77
I4
ssg78
g4555
sg71
(lp4562
g64
(g73
g66
NtRp4563
(dp4564
g69
(dp4565
g77
I3
ssg78
Nsg71
(lp4566
g64
(g80
g66
NtRp4567
(dp4568
g69
(dp4569
sg78
g4563
sg71
(lp4570
g64
(g85
g66
NtRp4571
(dp4572
g69
(dp4573
sg78
g4567
sg71
(lp4574
g64
(g65
g66
NtRp4575
(dp4576
g69
(dp4577
g77
I3
ssg78
g4571
sg71
(lp4578
g64
(cgluon.html
SPAN
p4579
g66
NtRp4580
(dp4581
g69
(dp4582
g89
S'color:yellow'
p4583
ssg78
Nsg71
(lp4584
g4454
asbasbasbasbag64
(g80
g66
NtRp4585
(dp4586
g69
(dp4587
sg78
g4563
sg71
(lp4588
g64
(g85
g66
NtRp4589
(dp4590
g69
(dp4591
sg78
g4585
sg71
(lp4592
g64
(g65
g66
NtRp4593
(dp4594
g69
(dp4595
g77
I3
ssg78
g4589
sg71
(lp4596
g107
asbasbasbag64
(g80
g66
NtRp4597
(dp4598
g69
(dp4599
sg78
g4563
sg71
(lp4600
g64
(g85
g66
NtRp4601
(dp4602
g69
(dp4603
sg78
g4597
sg71
(lp4604
g64
(g65
g66
NtRp4605
(dp4606
g69
(dp4607
g77
I3
ssg78
g4601
sg71
(lp4608
S'None'
p4609
asbasbasbag64
(g80
g66
NtRp4610
(dp4611
g69
(dp4612
sg78
g4563
sg71
(lp4613
g64
(g85
g66
NtRp4614
(dp4615
g69
(dp4616
sg78
g4610
sg71
(lp4617
g64
(g65
g66
NtRp4618
(dp4619
g69
(dp4620
g77
I3
ssg78
g4614
sg71
(lp4621
g64
(g73
g66
NtRp4622
(dp4623
g69
(dp4624
g77
I2
ssg78
Nsg71
(lp4625
g64
(g80
g66
NtRp4626
(dp4627
g69
(dp4628
sg78
g4622
sg71
(lp4629
g64
(g85
g66
NtRp4630
(dp4631
g69
(dp4632
sg78
g4626
sg71
(lp4633
g64
(g65
g66
NtRp4634
(dp4635
g69
(dp4636
g77
I2
ssg78
g4630
sg71
(lp4637
g64
(g73
g66
NtRp4638
(dp4639
g69
(dp4640
g77
I1
ssg78
Nsg71
(lp4641
g64
(g80
g66
NtRp4642
(dp4643
g69
(dp4644
sg78
g4638
sg71
(lp4645
g64
(g85
g66
NtRp4646
(dp4647
g69
(dp4648
sg78
g4642
sg71
(lp4649
g64
(g65
g66
NtRp4650
(dp4651
g69
(dp4652
g77
I1
ssg78
g4646
sg71
(lp4653
g4508
(S's\x08\x00\x00\x00My Sites'
tRp4654
asbasbasbag64
(g80
g66
NtRp4655
(dp4656
g69
(dp4657
sg78
g4638
sg71
(lp4658
g64
(g85
g66
NtRp4659
(dp4660
g69
(dp4661
sg78
g4655
sg71
(lp4662
g64
(g65
g66
NtRp4663
(dp4664
g69
(dp4665
g77
I1
ssg78
g4659
sg71
(lp4666
I00
asbasbasbag64
(g80
g66
NtRp4667
(dp4668
g69
(dp4669
sg78
g4638
sg71
(lp4670
g64
(g85
g66
NtRp4671
(dp4672
g69
(dp4673
sg78
g4667
sg71
(lp4674
g64
(g65
g66
NtRp4675
(dp4676
g69
(dp4677
g77
I1
ssg78
g4671
sg71
(lp4678
S'/admin/default/site'
p4679
asbasbasbasbasbasbasbag64
(g80
g66
NtRp4680
(dp4681
g69
(dp4682
sg78
g4622
sg71
(lp4683
g64
(g85
g66
NtRp4684
(dp4685
g69
(dp4686
sg78
g4680
sg71
(lp4687
g64
(g65
g66
NtRp4688
(dp4689
g69
(dp4690
g77
I2
ssg78
g4684
sg71
(lp4691
g64
(g73
g66
NtRp4692
(dp4693
g69
(dp4694
g77
I1
ssg78
Nsg71
(lp4695
g64
(g80
g66
NtRp4696
(dp4697
g69
(dp4698
sg78
g4692
sg71
(lp4699
g64
(g85
g66
NtRp4700
(dp4701
g69
(dp4702
sg78
g4696
sg71
(lp4703
g64
(g65
g66
NtRp4704
(dp4705
g69
(dp4706
g77
I1
ssg78
g4700
sg71
(lp4707
g4508
(S's\x08\x00\x00\x00This App'
tRp4708
asbasbasbag64
(g80
g66
NtRp4709
(dp4710
g69
(dp4711
sg78
g4692
sg71
(lp4712
g64
(g85
g66
NtRp4713
(dp4714
g69
(dp4715
sg78
g4709
sg71
(lp4716
g64
(g65
g66
NtRp4717
(dp4718
g69
(dp4719
g77
I1
ssg78
g4713
sg71
(lp4720
I00
asbasbasbag64
(g80
g66
NtRp4721
(dp4722
g69
(dp4723
sg78
g4692
sg71
(lp4724
g64
(g85
g66
NtRp4725
(dp4726
g69
(dp4727
sg78
g4721
sg71
(lp4728
g64
(g65
g66
NtRp4729
(dp4730
g69
(dp4731
g77
I1
ssg78
g4725
sg71
(lp4732
S'/admin/default/design/WSD_Tool'
p4733
asbasbasbag64
(g80
g66
NtRp4734
(dp4735
g69
(dp4736
sg78
g4692
sg71
(lp4737
g64
(g85
g66
NtRp4738
(dp4739
g69
(dp4740
sg78
g4734
sg71
(lp4741
g64
(g65
g66
NtRp4742
(dp4743
g69
(dp4744
g77
I1
ssg78
g4738
sg71
(lp4745
(lp4746
(g4508
(S't\n\x00\x00\x00Controller'
tRp4747
I00
S'/admin/default/edit/WSD_Tool/controllers/default.py'
tp4748
a(g4508
(S't\x04\x00\x00\x00View'
tRp4749
I00
S'/admin/default/edit/WSD_Tool/views/default/rel.html'
tp4750
a(g4508
(S't\x06\x00\x00\x00Layout'
tRp4751
I00
S'/admin/default/edit/WSD_Tool/views/layout.html'
tp4752
a(g4508
(S't\n\x00\x00\x00Stylesheet'
tRp4753
I00
S'/admin/default/edit/WSD_Tool/static/css/web2py.css'
tp4754
a(g4508
(S's\x08\x00\x00\x00DB Model'
tRp4755
I00
S'/admin/default/edit/WSD_Tool/models/db.py'
tp4756
a(g4508
(S's\n\x00\x00\x00Menu Model'
tRp4757
I00
S'/admin/default/edit/WSD_Tool/models/menu.py'
tp4758
a(g4508
(S't\x08\x00\x00\x00Database'
tRp4759
I00
S'/WSD_Tool/appadmin/index'
tp4760
a(g4508
(S't\x06\x00\x00\x00Errors'
tRp4761
I00
S'/admin/default/errors/WSD_Tool'
tp4762
a(g4508
(S't\x05\x00\x00\x00About'
tRp4763
I00
S'/admin/default/about/WSD_Tool'
tp4764
aasbasbasbasbasbasbasbag64
(g80
g66
NtRp4765
(dp4766
g69
(dp4767
sg78
g4622
sg71
(lp4768
g64
(g85
g66
NtRp4769
(dp4770
g69
(dp4771
sg78
g4765
sg71
(lp4772
g64
(g65
g66
NtRp4773
(dp4774
g69
(dp4775
g77
I2
ssg78
g4769
sg71
(lp4776
g64
(g73
g66
NtRp4777
(dp4778
g69
(dp4779
g77
I1
ssg78
Nsg71
(lp4780
g64
(g80
g66
NtRp4781
(dp4782
g69
(dp4783
sg78
g4777
sg71
(lp4784
g64
(g85
g66
NtRp4785
(dp4786
g69
(dp4787
sg78
g4781
sg71
(lp4788
g64
(g65
g66
NtRp4789
(dp4790
g69
(dp4791
g77
I1
ssg78
g4785
sg71
(lp4792
S'web2py.com'
p4793
asbasbasbag64
(g80
g66
NtRp4794
(dp4795
g69
(dp4796
sg78
g4777
sg71
(lp4797
g64
(g85
g66
NtRp4798
(dp4799
g69
(dp4800
sg78
g4794
sg71
(lp4801
g64
(g65
g66
NtRp4802
(dp4803
g69
(dp4804
g77
I1
ssg78
g4798
sg71
(lp4805
I00
asbasbasbag64
(g80
g66
NtRp4806
(dp4807
g69
(dp4808
sg78
g4777
sg71
(lp4809
g64
(g85
g66
NtRp4810
(dp4811
g69
(dp4812
sg78
g4806
sg71
(lp4813
g64
(g65
g66
NtRp4814
(dp4815
g69
(dp4816
g77
I1
ssg78
g4810
sg71
(lp4817
S'http://www.web2py.com'
p4818
asbasbasbag64
(g80
g66
NtRp4819
(dp4820
g69
(dp4821
sg78
g4777
sg71
(lp4822
g64
(g85
g66
NtRp4823
(dp4824
g69
(dp4825
sg78
g4819
sg71
(lp4826
g64
(g65
g66
NtRp4827
(dp4828
g69
(dp4829
g77
I1
ssg78
g4823
sg71
(lp4830
(lp4831
(g4508
(S't\x08\x00\x00\x00Download'
tRp4832
I00
S'http://www.web2py.com/examples/default/download'
p4833
tp4834
a(g4508
(S't\x07\x00\x00\x00Support'
tRp4835
I00
S'http://www.web2py.com/examples/default/support'
p4836
tp4837
a(g4508
(S't\x04\x00\x00\x00Demo'
tRp4838
I00
S'http://web2py.com/demo_admin'
p4839
tp4840
a(g4508
(S's\x0e\x00\x00\x00Quick Examples'
tRp4841
I00
S'http://web2py.com/examples/default/examples'
p4842
tp4843
a(g4508
(S't\x03\x00\x00\x00FAQ'
tRp4844
I00
S'http://web2py.com/AlterEgo'
p4845
tp4846
a(g4508
(S't\x06\x00\x00\x00Videos'
tRp4847
I00
S'http://www.web2py.com/examples/default/videos/'
p4848
tp4849
a(g4508
(S's\x11\x00\x00\x00Free Applications'
tRp4850
I00
S'http://web2py.com/appliances'
p4851
tp4852
a(g4508
(S't\x07\x00\x00\x00Plugins'
tRp4853
I00
S'http://web2py.com/plugins'
p4854
tp4855
a(g4508
(S't\x07\x00\x00\x00Layouts'
tRp4856
I00
S'http://web2py.com/layouts'
p4857
tp4858
a(g4508
(S't\x07\x00\x00\x00Recipes'
tRp4859
I00
S'http://web2pyslices.com/'
p4860
tp4861
a(g4508
(S't\x08\x00\x00\x00Semantic'
tRp4862
I00
S'http://web2py.com/semantic'
p4863
tp4864
aasbasbasbasbasbasbasbag64
(g80
g66
NtRp4865
(dp4866
g69
(dp4867
sg78
g4622
sg71
(lp4868
g64
(g85
g66
NtRp4869
(dp4870
g69
(dp4871
sg78
g4865
sg71
(lp4872
g64
(g65
g66
NtRp4873
(dp4874
g69
(dp4875
g77
I2
ssg78
g4869
sg71
(lp4876
g64
(g73
g66
NtRp4877
(dp4878
g69
(dp4879
g77
I1
ssg78
Nsg71
(lp4880
g64
(g80
g66
NtRp4881
(dp4882
g69
(dp4883
sg78
g4877
sg71
(lp4884
g64
(g85
g66
NtRp4885
(dp4886
g69
(dp4887
sg78
g4881
sg71
(lp4888
g64
(g65
g66
NtRp4889
(dp4890
g69
(dp4891
g77
I1
ssg78
g4885
sg71
(lp4892
g4508
(S't\r\x00\x00\x00Documentation'
tRp4893
asbasbasbag64
(g80
g66
NtRp4894
(dp4895
g69
(dp4896
sg78
g4877
sg71
(lp4897
g64
(g85
g66
NtRp4898
(dp4899
g69
(dp4900
sg78
g4894
sg71
(lp4901
g64
(g65
g66
NtRp4902
(dp4903
g69
(dp4904
g77
I1
ssg78
g4898
sg71
(lp4905
I00
asbasbasbag64
(g80
g66
NtRp4906
(dp4907
g69
(dp4908
sg78
g4877
sg71
(lp4909
g64
(g85
g66
NtRp4910
(dp4911
g69
(dp4912
sg78
g4906
sg71
(lp4913
g64
(g65
g66
NtRp4914
(dp4915
g69
(dp4916
g77
I1
ssg78
g4910
sg71
(lp4917
S'http://www.web2py.com/book'
p4918
asbasbasbag64
(g80
g66
NtRp4919
(dp4920
g69
(dp4921
sg78
g4877
sg71
(lp4922
g64
(g85
g66
NtRp4923
(dp4924
g69
(dp4925
sg78
g4919
sg71
(lp4926
g64
(g65
g66
NtRp4927
(dp4928
g69
(dp4929
g77
I1
ssg78
g4923
sg71
(lp4930
(lp4931
(g4508
(S't\x07\x00\x00\x00Preface'
tRp4932
I00
S'http://www.web2py.com/book/default/chapter/00'
p4933
tp4934
a(g4508
(S't\x0c\x00\x00\x00Introduction'
tRp4935
I00
S'http://www.web2py.com/book/default/chapter/01'
p4936
tp4937
a(g4508
(S't\x06\x00\x00\x00Python'
tRp4938
I00
S'http://www.web2py.com/book/default/chapter/02'
p4939
tp4940
a(g4508
(S't\x08\x00\x00\x00Overview'
tRp4941
I00
S'http://www.web2py.com/book/default/chapter/03'
p4942
tp4943
a(g4508
(S's\x08\x00\x00\x00The Core'
tRp4944
I00
S'http://www.web2py.com/book/default/chapter/04'
p4945
tp4946
a(g4508
(S's\t\x00\x00\x00The Views'
tRp4947
I00
S'http://www.web2py.com/book/default/chapter/05'
p4948
tp4949
a(g4508
(S't\x08\x00\x00\x00Database'
tRp4950
I00
S'http://www.web2py.com/book/default/chapter/06'
p4951
tp4952
a(g4508
(S's\x14\x00\x00\x00Forms and Validators'
tRp4953
I00
S'http://www.web2py.com/book/default/chapter/07'
p4954
tp4955
a(g4508
(S's\r\x00\x00\x00Email and SMS'
tRp4956
I00
S'http://www.web2py.com/book/default/chapter/08'
p4957
tp4958
a(g4508
(S's\x0e\x00\x00\x00Access Control'
tRp4959
I00
S'http://www.web2py.com/book/default/chapter/09'
p4960
tp4961
a(g4508
(S't\x08\x00\x00\x00Services'
tRp4962
I00
S'http://www.web2py.com/book/default/chapter/10'
p4963
tp4964
a(g4508
(S's\x0c\x00\x00\x00Ajax Recipes'
tRp4965
I00
S'http://www.web2py.com/book/default/chapter/11'
p4966
tp4967
a(g4508
(S's\x16\x00\x00\x00Components and Plugins'
tRp4968
I00
S'http://www.web2py.com/book/default/chapter/12'
p4969
tp4970
a(g4508
(S's\x12\x00\x00\x00Deployment Recipes'
tRp4971
I00
S'http://www.web2py.com/book/default/chapter/13'
p4972
tp4973
a(g4508
(S's\r\x00\x00\x00Other Recipes'
tRp4974
I00
S'http://www.web2py.com/book/default/chapter/14'
p4975
tp4976
a(g4508
(S's\r\x00\x00\x00Buy this book'
tRp4977
I00
S'http://stores.lulu.com/web2py'
p4978
tp4979
aasbasbasbasbasbasbasbag64
(g80
g66
NtRp4980
(dp4981
g69
(dp4982
sg78
g4622
sg71
(lp4983
g64
(g85
g66
NtRp4984
(dp4985
g69
(dp4986
sg78
g4980
sg71
(lp4987
g64
(g65
g66
NtRp4988
(dp4989
g69
(dp4990
g77
I2
ssg78
g4984
sg71
(lp4991
g64
(g73
g66
NtRp4992
(dp4993
g69
(dp4994
g77
I1
ssg78
Nsg71
(lp4995
g64
(g80
g66
NtRp4996
(dp4997
g69
(dp4998
sg78
g4992
sg71
(lp4999
g64
(g85
g66
NtRp5000
(dp5001
g69
(dp5002
sg78
g4996
sg71
(lp5003
g64
(g65
g66
NtRp5004
(dp5005
g69
(dp5006
g77
I1
ssg78
g5000
sg71
(lp5007
g4508
(S't\t\x00\x00\x00Community'
tRp5008
asbasbasbag64
(g80
g66
NtRp5009
(dp5010
g69
(dp5011
sg78
g4992
sg71
(lp5012
g64
(g85
g66
NtRp5013
(dp5014
g69
(dp5015
sg78
g5009
sg71
(lp5016
g64
(g65
g66
NtRp5017
(dp5018
g69
(dp5019
g77
I1
ssg78
g5013
sg71
(lp5020
I00
asbasbasbag64
(g80
g66
NtRp5021
(dp5022
g69
(dp5023
sg78
g4992
sg71
(lp5024
g64
(g85
g66
NtRp5025
(dp5026
g69
(dp5027
sg78
g5021
sg71
(lp5028
g64
(g65
g66
NtRp5029
(dp5030
g69
(dp5031
g77
I1
ssg78
g5025
sg71
(lp5032
Nasbasbasbag64
(g80
g66
NtRp5033
(dp5034
g69
(dp5035
sg78
g4992
sg71
(lp5036
g64
(g85
g66
NtRp5037
(dp5038
g69
(dp5039
sg78
g5033
sg71
(lp5040
g64
(g65
g66
NtRp5041
(dp5042
g69
(dp5043
g77
I1
ssg78
g5037
sg71
(lp5044
(lp5045
(g4508
(S't\x06\x00\x00\x00Groups'
tRp5046
I00
S'http://www.web2py.com/examples/default/usergroups'
p5047
tp5048
a(g4508
(S't\x07\x00\x00\x00Twitter'
tRp5049
I00
S'http://twitter.com/web2py'
p5050
tp5051
a(g4508
(S's\t\x00\x00\x00Live Chat'
tRp5052
I00
S'http://webchat.freenode.net/?channels=web2py'
p5053
tp5054
aasbasbasbasbasbasbasbag64
(g80
g66
NtRp5055
(dp5056
g69
(dp5057
sg78
g4622
sg71
(lp5058
g64
(g85
g66
NtRp5059
(dp5060
g69
(dp5061
sg78
g5055
sg71
(lp5062
g64
(g65
g66
NtRp5063
(dp5064
g69
(dp5065
g77
I2
ssg78
g5059
sg71
(lp5066
g64
(g73
g66
NtRp5067
(dp5068
g69
(dp5069
g77
I1
ssg78
Nsg71
(lp5070
g64
(g80
g66
NtRp5071
(dp5072
g69
(dp5073
sg78
g5067
sg71
(lp5074
g64
(g85
g66
NtRp5075
(dp5076
g69
(dp5077
sg78
g5071
sg71
(lp5078
g64
(g65
g66
NtRp5079
(dp5080
g69
(dp5081
g77
I1
ssg78
g5075
sg71
(lp5082
g4508
(S't\x07\x00\x00\x00Plugins'
tRp5083
asbasbasbag64
(g80
g66
NtRp5084
(dp5085
g69
(dp5086
sg78
g5067
sg71
(lp5087
g64
(g85
g66
NtRp5088
(dp5089
g69
(dp5090
sg78
g5084
sg71
(lp5091
g64
(g65
g66
NtRp5092
(dp5093
g69
(dp5094
g77
I1
ssg78
g5088
sg71
(lp5095
I00
asbasbasbag64
(g80
g66
NtRp5096
(dp5097
g69
(dp5098
sg78
g5067
sg71
(lp5099
g64
(g85
g66
NtRp5100
(dp5101
g69
(dp5102
sg78
g5096
sg71
(lp5103
g64
(g65
g66
NtRp5104
(dp5105
g69
(dp5106
g77
I1
ssg78
g5100
sg71
(lp5107
Nasbasbasbag64
(g80
g66
NtRp5108
(dp5109
g69
(dp5110
sg78
g5067
sg71
(lp5111
g64
(g85
g66
NtRp5112
(dp5113
g69
(dp5114
sg78
g5108
sg71
(lp5115
g64
(g65
g66
NtRp5116
(dp5117
g69
(dp5118
g77
I1
ssg78
g5112
sg71
(lp5119
(lp5120
(S'plugin_wiki'
p5121
I00
S'http://web2py.com/examples/default/download'
p5122
tp5123
a(g4508
(S's\r\x00\x00\x00Other Plugins'
tRp5124
I00
g4854
tp5125
a(g4508
(S's\x0e\x00\x00\x00Layout Plugins'
tRp5126
I00
g4857
tp5127
aasbasbasbasbasbasbasbasbasbasbasbasbasbasbasbasbasbasbasbag64
(g80
g66
NtRp5128
(dp5129
g69
(dp5130
sg78
g4018
sg71
(lp5131
g64
(g85
g66
NtRp5132
(dp5133
g69
(dp5134
g89
g90
ssg78
g5128
sg71
(lp5135
S'meta'
p5136
asbag64
(g85
g66
NtRp5137
(dp5138
g69
(dp5139
g96
g97
ssg78
g5128
sg71
(lp5140
S':'
asbag64
(g85
g66
NtRp5141
(dp5142
g69
(dp5143
sg78
g5128
sg71
(lp5144
g64
(g65
g66
NtRp5145
(dp5146
g69
(dp5147
g77
I5
ssg78
g5141
sg71
(lp5148
g64
(g73
g66
NtRp5149
(dp5150
g69
(dp5151
g77
I4
ssg78
Nsg71
(lp5152
g64
(g80
g66
NtRp5153
(dp5154
g69
(dp5155
sg78
g5149
sg71
(lp5156
g64
(g85
g66
NtRp5157
(dp5158
g69
(dp5159
g89
g90
ssg78
g5153
sg71
(lp5160
S'author'
p5161
asbag64
(g85
g66
NtRp5162
(dp5163
g69
(dp5164
g96
g97
ssg78
g5153
sg71
(lp5165
S':'
asbag64
(g85
g66
NtRp5166
(dp5167
g69
(dp5168
sg78
g5153
sg71
(lp5169
g64
(g65
g66
NtRp5170
(dp5171
g69
(dp5172
g77
I4
ssg78
g5166
sg71
(lp5173
S'Your Name <you@example.com>'
p5174
asbasbasbag64
(g80
g66
NtRp5175
(dp5176
g69
(dp5177
sg78
g5149
sg71
(lp5178
g64
(g85
g66
NtRp5179
(dp5180
g69
(dp5181
g89
g90
ssg78
g5175
sg71
(lp5182
S'copyright'
p5183
asbag64
(g85
g66
NtRp5184
(dp5185
g69
(dp5186
g96
g97
ssg78
g5175
sg71
(lp5187
S':'
asbag64
(g85
g66
NtRp5188
(dp5189
g69
(dp5190
sg78
g5175
sg71
(lp5191
g64
(g65
g66
NtRp5192
(dp5193
g69
(dp5194
g77
I4
ssg78
g5188
sg71
(lp5195
S'Copyright 2011'
p5196
asbasbasbag64
(g80
g66
NtRp5197
(dp5198
g69
(dp5199
sg78
g5149
sg71
(lp5200
g64
(g85
g66
NtRp5201
(dp5202
g69
(dp5203
g89
g90
ssg78
g5197
sg71
(lp5204
S'description'
p5205
asbag64
(g85
g66
NtRp5206
(dp5207
g69
(dp5208
g96
g97
ssg78
g5197
sg71
(lp5209
S':'
asbag64
(g85
g66
NtRp5210
(dp5211
g69
(dp5212
sg78
g5197
sg71
(lp5213
g64
(g65
g66
NtRp5214
(dp5215
g69
(dp5216
g77
I4
ssg78
g5210
sg71
(lp5217
S'a cool new app'
p5218
asbasbasbag64
(g80
g66
NtRp5219
(dp5220
g69
(dp5221
sg78
g5149
sg71
(lp5222
g64
(g85
g66
NtRp5223
(dp5224
g69
(dp5225
g89
g90
ssg78
g5219
sg71
(lp5226
S'generator'
p5227
asbag64
(g85
g66
NtRp5228
(dp5229
g69
(dp5230
g96
g97
ssg78
g5219
sg71
(lp5231
S':'
asbag64
(g85
g66
NtRp5232
(dp5233
g69
(dp5234
sg78
g5219
sg71
(lp5235
g64
(g65
g66
NtRp5236
(dp5237
g69
(dp5238
g77
I4
ssg78
g5232
sg71
(lp5239
S'Web2py Web Framework'
p5240
asbasbasbag64
(g80
g66
NtRp5241
(dp5242
g69
(dp5243
sg78
g5149
sg71
(lp5244
g64
(g85
g66
NtRp5245
(dp5246
g69
(dp5247
g89
g90
ssg78
g5241
sg71
(lp5248
S'keywords'
p5249
asbag64
(g85
g66
NtRp5250
(dp5251
g69
(dp5252
g96
g97
ssg78
g5241
sg71
(lp5253
S':'
asbag64
(g85
g66
NtRp5254
(dp5255
g69
(dp5256
sg78
g5241
sg71
(lp5257
g64
(g65
g66
NtRp5258
(dp5259
g69
(dp5260
g77
I4
ssg78
g5254
sg71
(lp5261
S'web2py, python, framework'
p5262
asbasbasbasbasbasbasbag64
(g80
g66
NtRp5263
(dp5264
g69
(dp5265
sg78
g4018
sg71
(lp5266
g64
(g85
g66
NtRp5267
(dp5268
g69
(dp5269
g89
g90
ssg78
g5263
sg71
(lp5270
S'models_to_run'
p5271
asbag64
(g85
g66
NtRp5272
(dp5273
g69
(dp5274
g96
g97
ssg78
g5263
sg71
(lp5275
S':'
asbag64
(g85
g66
NtRp5276
(dp5277
g69
(dp5278
sg78
g5263
sg71
(lp5279
g64
(g65
g66
NtRp5280
(dp5281
g69
(dp5282
g77
I5
ssg78
g5276
sg71
(lp5283
g64
(g73
g66
NtRp5284
(dp5285
g69
(dp5286
g77
I4
ssg78
Nsg71
(lp5287
g64
(g80
g66
NtRp5288
(dp5289
g69
(dp5290
sg78
g5284
sg71
(lp5291
g64
(g85
g66
NtRp5292
(dp5293
g69
(dp5294
sg78
g5288
sg71
(lp5295
g64
(g65
g66
NtRp5296
(dp5297
g69
(dp5298
g77
I4
ssg78
g5292
sg71
(lp5299
S'^\\w+\\.py$'
p5300
asbasbasbag64
(g80
g66
NtRp5301
(dp5302
g69
(dp5303
sg78
g5284
sg71
(lp5304
g64
(g85
g66
NtRp5305
(dp5306
g69
(dp5307
sg78
g5301
sg71
(lp5308
g64
(g65
g66
NtRp5309
(dp5310
g69
(dp5311
g77
I4
ssg78
g5305
sg71
(lp5312
S'^default/\\w+\\.py$'
p5313
asbasbasbag64
(g80
g66
NtRp5314
(dp5315
g69
(dp5316
sg78
g5284
sg71
(lp5317
g64
(g85
g66
NtRp5318
(dp5319
g69
(dp5320
sg78
g5314
sg71
(lp5321
g64
(g65
g66
NtRp5322
(dp5323
g69
(dp5324
g77
I4
ssg78
g5318
sg71
(lp5325
S'^default/rel/\\w+\\.py$'
p5326
asbasbasbasbasbasbasbag64
(g80
g66
NtRp5327
(dp5328
g69
(dp5329
sg78
g4018
sg71
(lp5330
g64
(g85
g66
NtRp5331
(dp5332
g69
(dp5333
g89
g90
ssg78
g5327
sg71
(lp5334
S'postprocessing'
p5335
asbag64
(g85
g66
NtRp5336
(dp5337
g69
(dp5338
g96
g97
ssg78
g5327
sg71
(lp5339
S':'
asbag64
(g85
g66
NtRp5340
(dp5341
g69
(dp5342
sg78
g5327
sg71
(lp5343
g64
(g65
g66
NtRp5344
(dp5345
g69
(dp5346
g77
I5
ssg78
g5340
sg71
(lp5347
g64
(g73
g66
NtRp5348
(dp5349
g69
(dp5350
g77
I4
ssg78
Nsg71
(lp5351
sbasbasbasbag64
(g80
g66
NtRp5352
(dp5353
g69
(dp5354
sg78
g4018
sg71
(lp5355
g64
(g85
g66
NtRp5356
(dp5357
g69
(dp5358
g89
g90
ssg78
g5352
sg71
(lp5359
S'session_cookie_expires'
p5360
asbag64
(g85
g66
NtRp5361
(dp5362
g69
(dp5363
g96
g97
ssg78
g5352
sg71
(lp5364
S':'
asbag64
(g85
g66
NtRp5365
(dp5366
g69
(dp5367
sg78
g5352
sg71
(lp5368
g64
(g65
g66
NtRp5369
(dp5370
g69
(dp5371
g77
I5
ssg78
g5365
sg71
(lp5372
S'None'
p5373
asbasbasbag64
(g80
g66
NtRp5374
(dp5375
g69
(dp5376
sg78
g4018
sg71
(lp5377
g64
(g85
g66
NtRp5378
(dp5379
g69
(dp5380
g89
g90
ssg78
g5374
sg71
(lp5381
S'session_data_name'
p5382
asbag64
(g85
g66
NtRp5383
(dp5384
g69
(dp5385
g96
g97
ssg78
g5374
sg71
(lp5386
S':'
asbag64
(g85
g66
NtRp5387
(dp5388
g69
(dp5389
sg78
g5374
sg71
(lp5390
g64
(g65
g66
NtRp5391
(dp5392
g69
(dp5393
g77
I5
ssg78
g5387
sg71
(lp5394
S'session_data_wsd_tool'
p5395
asbasbasbag64
(g80
g66
NtRp5396
(dp5397
g69
(dp5398
sg78
g4018
sg71
(lp5399
g64
(g85
g66
NtRp5400
(dp5401
g69
(dp5402
g89
g90
ssg78
g5396
sg71
(lp5403
S'session_file'
p5404
asbag64
(g85
g66
NtRp5405
(dp5406
g69
(dp5407
g96
g97
ssg78
g5396
sg71
(lp5408
S':'
asbag64
(g85
g66
NtRp5409
(dp5410
g69
(dp5411
sg78
g5396
sg71
(lp5412
g64
(g65
g66
NtRp5413
(dp5414
g69
(dp5415
g77
I5
ssg78
g5409
sg71
(lp5416
S"<open file '/home/nazrul/web2py/applications/WSD_Tool/sessions/127.0.0.1-1b9513ff-7a4a-46e3-9d60-f0b6086e5c03', mode 'rb+' at 0xaaa1d88>"
p5417
asbasbasbag64
(g80
g66
NtRp5418
(dp5419
g69
(dp5420
sg78
g4018
sg71
(lp5421
g64
(g85
g66
NtRp5422
(dp5423
g69
(dp5424
g89
g90
ssg78
g5418
sg71
(lp5425
S'session_filename'
p5426
asbag64
(g85
g66
NtRp5427
(dp5428
g69
(dp5429
g96
g97
ssg78
g5418
sg71
(lp5430
S':'
asbag64
(g85
g66
NtRp5431
(dp5432
g69
(dp5433
sg78
g5418
sg71
(lp5434
g64
(g65
g66
NtRp5435
(dp5436
g69
(dp5437
g77
I5
ssg78
g5431
sg71
(lp5438
S'/home/nazrul/web2py/applications/WSD_Tool/sessions/127.0.0.1-1b9513ff-7a4a-46e3-9d60-f0b6086e5c03'
p5439
asbasbasbag64
(g80
g66
NtRp5440
(dp5441
g69
(dp5442
sg78
g4018
sg71
(lp5443
g64
(g85
g66
NtRp5444
(dp5445
g69
(dp5446
g89
g90
ssg78
g5440
sg71
(lp5447
S'session_id'
p5448
asbag64
(g85
g66
NtRp5449
(dp5450
g69
(dp5451
g96
g97
ssg78
g5440
sg71
(lp5452
S':'
asbag64
(g85
g66
NtRp5453
(dp5454
g69
(dp5455
sg78
g5440
sg71
(lp5456
g64
(g65
g66
NtRp5457
(dp5458
g69
(dp5459
g77
I5
ssg78
g5453
sg71
(lp5460
g854
asbasbasbag64
(g80
g66
NtRp5461
(dp5462
g69
(dp5463
sg78
g4018
sg71
(lp5464
g64
(g85
g66
NtRp5465
(dp5466
g69
(dp5467
g89
g90
ssg78
g5461
sg71
(lp5468
S'session_id_name'
p5469
asbag64
(g85
g66
NtRp5470
(dp5471
g69
(dp5472
g96
g97
ssg78
g5461
sg71
(lp5473
S':'
asbag64
(g85
g66
NtRp5474
(dp5475
g69
(dp5476
sg78
g5461
sg71
(lp5477
g64
(g65
g66
NtRp5478
(dp5479
g69
(dp5480
g77
I5
ssg78
g5474
sg71
(lp5481
g4075
asbasbasbag64
(g80
g66
NtRp5482
(dp5483
g69
(dp5484
sg78
g4018
sg71
(lp5485
g64
(g85
g66
NtRp5486
(dp5487
g69
(dp5488
g89
g90
ssg78
g5482
sg71
(lp5489
S'session_locked'
p5490
asbag64
(g85
g66
NtRp5491
(dp5492
g69
(dp5493
g96
g97
ssg78
g5482
sg71
(lp5494
S':'
asbag64
(g85
g66
NtRp5495
(dp5496
g69
(dp5497
sg78
g5482
sg71
(lp5498
g64
(g65
g66
NtRp5499
(dp5500
g69
(dp5501
g77
I5
ssg78
g5495
sg71
(lp5502
g1984
asbasbasbag64
(g80
g66
NtRp5503
(dp5504
g69
(dp5505
sg78
g4018
sg71
(lp5506
g64
(g85
g66
NtRp5507
(dp5508
g69
(dp5509
g89
g90
ssg78
g5503
sg71
(lp5510
S'session_new'
p5511
asbag64
(g85
g66
NtRp5512
(dp5513
g69
(dp5514
g96
g97
ssg78
g5503
sg71
(lp5515
S':'
asbag64
(g85
g66
NtRp5516
(dp5517
g69
(dp5518
sg78
g5503
sg71
(lp5519
g64
(g65
g66
NtRp5520
(dp5521
g69
(dp5522
g77
I5
ssg78
g5516
sg71
(lp5523
g107
asbasbasbag64
(g80
g66
NtRp5524
(dp5525
g69
(dp5526
sg78
g4018
sg71
(lp5527
g64
(g85
g66
NtRp5528
(dp5529
g69
(dp5530
g89
g90
ssg78
g5524
sg71
(lp5531
S'session_storage_type'
p5532
asbag64
(g85
g66
NtRp5533
(dp5534
g69
(dp5535
g96
g97
ssg78
g5524
sg71
(lp5536
S':'
asbag64
(g85
g66
NtRp5537
(dp5538
g69
(dp5539
sg78
g5524
sg71
(lp5540
g64
(g65
g66
NtRp5541
(dp5542
g69
(dp5543
g77
I5
ssg78
g5537
sg71
(lp5544
g3436
asbasbasbag64
(g80
g66
NtRp5545
(dp5546
g69
(dp5547
sg78
g4018
sg71
(lp5548
g64
(g85
g66
NtRp5549
(dp5550
g69
(dp5551
g89
g90
ssg78
g5545
sg71
(lp5552
S'status'
p5553
asbag64
(g85
g66
NtRp5554
(dp5555
g69
(dp5556
g96
g97
ssg78
g5545
sg71
(lp5557
S':'
asbag64
(g85
g66
NtRp5558
(dp5559
g69
(dp5560
sg78
g5545
sg71
(lp5561
g64
(g65
g66
NtRp5562
(dp5563
g69
(dp5564
g77
I5
ssg78
g5558
sg71
(lp5565
S'200'
p5566
asbasbasbag64
(g80
g66
NtRp5567
(dp5568
g69
(dp5569
sg78
g4018
sg71
(lp5570
g64
(g85
g66
NtRp5571
(dp5572
g69
(dp5573
g89
g90
ssg78
g5567
sg71
(lp5574
S'subtitle'
p5575
asbag64
(g85
g66
NtRp5576
(dp5577
g69
(dp5578
g96
g97
ssg78
g5567
sg71
(lp5579
S':'
asbag64
(g85
g66
NtRp5580
(dp5581
g69
(dp5582
sg78
g5567
sg71
(lp5583
g64
(g65
g66
NtRp5584
(dp5585
g69
(dp5586
g77
I5
ssg78
g5580
sg71
(lp5587
g4508
(S's\r\x00\x00\x00customize me!'
tRp5588
asbasbasbag64
(g80
g66
NtRp5589
(dp5590
g69
(dp5591
sg78
g4018
sg71
(lp5592
g64
(g85
g66
NtRp5593
(dp5594
g69
(dp5595
g89
g90
ssg78
g5589
sg71
(lp5596
S'title'
p5597
asbag64
(g85
g66
NtRp5598
(dp5599
g69
(dp5600
g96
g97
ssg78
g5589
sg71
(lp5601
S':'
asbag64
(g85
g66
NtRp5602
(dp5603
g69
(dp5604
sg78
g5589
sg71
(lp5605
g64
(g65
g66
NtRp5606
(dp5607
g69
(dp5608
g77
I5
ssg78
g5602
sg71
(lp5609
S'Wsd Tool'
p5610
asbasbasbag64
(g80
g66
NtRp5611
(dp5612
g69
(dp5613
sg78
g4018
sg71
(lp5614
g64
(g85
g66
NtRp5615
(dp5616
g69
(dp5617
g89
g90
ssg78
g5611
sg71
(lp5618
S'view'
p5619
asbag64
(g85
g66
NtRp5620
(dp5621
g69
(dp5622
g96
g97
ssg78
g5611
sg71
(lp5623
S':'
asbag64
(g85
g66
NtRp5624
(dp5625
g69
(dp5626
sg78
g5611
sg71
(lp5627
g64
(g65
g66
NtRp5628
(dp5629
g69
(dp5630
g77
I5
ssg78
g5624
sg71
(lp5631
S'default/rel.html'
p5632
asbasbasbasbasbsS'locals'
p5633
(dp5634
S'errread'
p5635
S'None'
p5636
sS'c2pread'
p5637
S'9'
sS'gc_was_enabled'
p5638
g1984
sS'errwrite'
p5639
S'None'
p5640
sS'child_exception'
p5641
S"OSError(8, 'Exec format error')"
p5642
sS'errpipe_write'
p5643
S'14'
p5644
sS'executable'
p5645
S"'Anusaaraka_stanford.sh'"
p5646
sS'close_fds'
p5647
g107
sS'self'
p5648
S'<subprocess.Popen object>'
p5649
sg1027
S'None'
p5650
sS'cwd'
p5651
S'None'
p5652
sS'shell'
p5653
g107
sg47
S"['Anusaaraka_stanford.sh', 'sample', '0', 'True']"
p5654
sS'fd'
p5655
S'None'
p5656
sS'c2pwrite'
p5657
S'10'
p5658
sS'data'
p5659
S'"cexceptions\\nOSError\\np0\\n(I8\\nS\'Exec format error\'\\n...)\\\\nOSError: [Errno 8] Exec format error\\\\n\'\\np6\\nsb."'
p5660
sS'creationflags'
p5661
S'0'
sS'errpipe_read'
p5662
S'13'
p5663
sS'preexec_fn'
p5664
S'None'
p5665
sS'p2cread'
p5666
S'None'
p5667
sS'startupinfo'
p5668
S'None'
p5669
sS'p2cwrite'
p5670
S'None'
p5671
sS'universal_newlines'
p5672
g107
sssS'traceback'
p5673
S'Traceback (most recent call last):\n  File "/home/nazrul/web2py/gluon/restricted.py", line 212, in restricted\n    exec ccode in environment\n  File "/home/nazrul/web2py/applications/WSD_Tool/controllers/default.py", line 248, in <module>\n  File "/home/nazrul/web2py/gluon/globals.py", line 193, in <lambda>\n    self._caller = lambda f: f()\n  File "/home/nazrul/web2py/applications/WSD_Tool/controllers/default.py", line 241, in rel\n    process = subprocess.Popen(bashCommand.split(), stdout=subprocess.PIPE)\n  File "/usr/lib/python2.7/subprocess.py", line 679, in __init__\n    errread, errwrite)\n  File "/usr/lib/python2.7/subprocess.py", line 1249, in _execute_child\n    raise child_exception\nOSError: [Errno 8] Exec format error\n'
p5674
s.