(dp1
S'output'
p2
S"<type 'exceptions.IOError'> [Errno 2] No such file or directory: '$HOME_anu_tmp/tmp/sample_tmp/2.1/word.dat'"
p3
sS'layer'
p4
S'/home/nazrul/web2py/applications/WSD_Tool/controllers/default.py'
p5
sS'code'
p6
S'# -*- coding: utf-8 -*-\n# this file is released under public domain and you can use without limitations\n\n#########################################################################\n## This is a samples controller\n## - index is the default action of any application\n## - user is required for authentication and authorization\n## - download is for downloading files uploaded in the db (does streaming)\n## - call exposes all registered services (none by default)\n#########################################################################\nimport os,subprocess\ndef index():\n    redirect(\'home\')\n    """\n    example action using the internationalization operator T and flash\n    rendered by views/default/index.html or views/generic.html\n    """\n    response.flash = "Welcome to web2py!"\n    return dict(message=T(\'Hello World\'))\n\ndef user():\n    """\n    exposes:\n    http://..../[app]/default/user/login\n    http://..../[app]/default/user/logout\n    http://..../[app]/default/user/register\n    http://..../[app]/default/user/profile\n    http://..../[app]/default/user/retrieve_password\n    http://..../[app]/default/user/change_password\n    use @auth.requires_login()\n        @auth.requires_membership(\'group name\')\n        @auth.requires_permission(\'read\',\'table name\',record_id)\n    to decorate functions that need access control\n    """\n    return dict(form=auth())\n\n\ndef download():\n    """\n    allows downloading of uploaded files\n    http://..../[app]/default/download/[filename]\n    """\n    return response.download(request,db)\n\n\ndef call():\n    """\n    exposes services. for example:\n    http://..../[app]/default/call/jsonrpc\n    decorate with @services.jsonrpc the functions to expose\n    supports xml, json, xmlrpc, jsonrpc, amfrpc, rss, csv\n    """\n    return service()\n\n\n@auth.requires_signature()\ndef data():\n    """\n    http://..../[app]/default/data/tables\n    http://..../[app]/default/data/create/[table]\n    http://..../[app]/default/data/read/[table]/[id]\n    http://..../[app]/default/data/update/[table]/[id]\n    http://..../[app]/default/data/delete/[table]/[id]\n    http://..../[app]/default/data/select/[table]\n    http://..../[app]/default/data/search/[table]\n    but URLs must be signed, i.e. linked with\n      A(\'table\',_href=URL(\'data/tables\',user_signature=True))\n    or with the signed load operator\n      LOAD(\'default\',\'data.load\',args=\'tables\',ajax=True,user_signature=True)\n    """\n    return dict(form=crud())\n\n\n\n\n@auth.requires_login()\ndef home():\n    t = auth.user.id\n    h = db(db.rules.userid==t).select()\n    g = []\n    for i in h:\n        g.append(db(db.words.id==i.wid).select(db.words.word))\n    h=[]\n    for i in g:\n        for j in i:\n            h.append(j.word) \n    h=list(set(h))\n    return dict(t=t,h=h)\n\n@auth.requires_login()\ndef word_select():\n    if not request.vars.check:\n        redirect(\'home\')\n    else:\n        check=0\n    if request.vars.submit:\n        w = request.vars.word\n        t = db(db.words).select()\n        for i in t:\n            if i.word==w:\n                session.word = w\n                session.ide = i.id\n                break\n        redirect(\'sentence_select\')\n    return dict()\n\n\n@auth.requires_login()\ndef word_selectc():\n    if not request.vars.check:\n        redirect(\'home\')\n    else:\n        check=0\n    if request.vars.submit:\n        w = request.vars.word\n        t = db(db.words).select()\n        for i in t:\n            if i.word==w:\n                session.word = w\n                session.ide = i.id\n                break\n        redirect(URL(\'sentence_selectc\',vars=dict(second=request.vars.second)))\n    return dict()\n    \n    \n    \n\n\n\n#@auth.requires_login()\n#def reason():\n#    t=session.senid\n#    pre=db((db.rules.wid==session.ide)&(db.rules.sid==session.sid)).select()\n#    c=0\n#    for i in pre:\n#        c+=1\n#    if request.vars.hindit:\n#        db.rules.insert(name=session.word+str(c),userid=auth.user.id,wid=session.ide,sid=session.sid,translation=hindit)\n#        redirect(URL(\'rel\'))\n#    return dict()\n    \n    \n@auth.requires_login()\ndef sentence_select():\n    f = \'\'\n    x = 0\n    if request.vars.submit and (request.vars.hindit):\n        t = request.vars.sentence\n        r = db(db.sentences.esentence==t).select(db.sentences.id)\n        for i in r:\n          session.sid=i.id\n          break\n        pre=db((db.rules.wid==session.ide)&(db.rules.userid==auth.user.id)).select()\n        c=0\n        f=0\n        for i in pre:\n            c+=1\n            if str(session.sid)==i.sid:\n                f=1\n                break\n        if f==0:\n            db.rules.insert(name=session.word+str(c),userid=auth.user.id,wid=session.ide,sid=session.sid,translation=request.vars.hindit)\n        redirect(URL(\'rel\'))\n    return dict(w=session.word,d=session.ide,f=f)\n\n\n@auth.requires_login()\ndef sentence_selectc():\n    f = \'\'\n    x = 0\n    if request.vars.submit:\n        t = request.vars.sentence\n        r = db(db.sentences.esentence==t).select(db.sentences.id)\n        for i in r:\n          hindit=i.id\n          session.sid=i.id\n          break\n        redirect(URL(\'reasonc\',vars=dict(hindit=hindit)))\n    return dict(w=session.word,d=session.ide,f=f)\n\n\n@auth.requires_login()\ndef reasonc():\n    t=session.sid\n    r = db(db.sentences.id==t).select(db.sentences.hsentence)\n    if request.vars.submit:\n        pre=db((db.rules.wid==session.ide)&(db.rules.userid==auth.user.id)).select()\n        c=0\n        f=0\n        for i in pre:\n            c+=1\n            print session.sid,i.sid\n            if i.sid==str(session.sid):\n                f=1\n                break\n        if f==0:\n            db.rules.insert(name=session.word+str(c),userid=auth.user.id,wid=session.ide,sid=session.sid)\n        redirect(URL(\'rel\'))\n    return dict(r=r)\n\n@auth.requires_login()\ndef delaccount():\n    if request.vars.submit:\n        db(db.auth_user.email==request.vars.email).delete()\n        redirect("home")\n    return dict()\n\n@auth.requires_login()\ndef addword():\n    if request.vars.submit:\n        db.words.insert(word=request.vars.word)\n        db.sentences.insert(esentence=request.vars.esentence,hsentence=request.vars.hsentence)\n        w = db(db.words.word==request.vars.word).select(db.words.id)\n        s = db(db.sentences.esentence==request.vars.esentence).select(db.sentences.id)\n        for i in w:\n            for j in s:\n                db.links.insert(wid=i.id,sid=j.id)\n                break\n            break\n        session.flash="Word Added"\n        redirect(\'home\')\n    return dict()\n@auth.requires_login()\ndef delword():\n    if request.vars.submit:\n        g = db(db.words.word==request.vars.word).select(db.words.id)\n        for i in g:\n            db(db.words.id==i.id).delete()\n            db(db.rules.wid==i.id).delete()\n            y = db(db.links.wid==i.id).select(db.links.sid)\n            db(db.links.wid==i.id).delete()\n            for j in y:\n                db(db.sentences.id==j.sid).delete()\n                break\n            break\n            session.flash="Word Deleted "\n        redirect(\'home\')\n    return dict()\ndef rel():\n       s=db(db.sentences.id==session.sid).select(db.sentences.esentence)\n       s=s[0].esentence\n       #f=open(\'sample\',\'w\')\n       #st="<TITLE> test. </TITLE> \\n <p> " + s + " </p>\\n"\n       #f.write(st)\n       #from subprocess import Popen, PIPE, STDOUT\n       #shell_command = \'Anusaaraka_stanford.sh  sample 0 True\'\n       #event = Popen(shell_command, shell=True, stdin=PIPE, stdout=PIPE, stderr=STDOUT)\n       #event.communicate()\n       os.system("Anusaaraka_stanford.sh sample 0 True")\n       #f.close()\n       f=open(\'$HOME_anu_tmp/tmp/sample_tmp/2.1/word.dat\',\'r\')\n       a=f.read()\n       f.close()\n       return dict(a=a) \n        \ndef testt():\n    v=db(db.auth_user).select()\n    return dict(v=v)\n\nresponse._vars=response._caller(rel)\n'
p7
sS'snapshot'
p8
(dp9
S'exception'
p10
(dp11
S'__getslice__'
p12
S"<method-wrapper '__getslice__' of exceptions.IOError object>"
p13
sS'__str__'
p14
S"<method-wrapper '__str__' of exceptions.IOError object>"
p15
sS'__reduce__'
p16
S'<built-in method __reduce__ of exceptions.IOError object>'
p17
sS'__dict__'
p18
S'{}'
p19
sS'__sizeof__'
p20
S'<built-in method __sizeof__ of exceptions.IOError object>'
p21
sS'__init__'
p22
S"<method-wrapper '__init__' of exceptions.IOError object>"
p23
sS'__setattr__'
p24
S"<method-wrapper '__setattr__' of exceptions.IOError object>"
p25
sS'__reduce_ex__'
p26
S'<built-in method __reduce_ex__ of exceptions.IOError object>'
p27
sS'__new__'
p28
S'<built-in method __new__ of type object>'
p29
sS'errno'
p30
S'2'
sS'__format__'
p31
S'<built-in method __format__ of exceptions.IOError object>'
p32
sS'__class__'
p33
S"<type 'exceptions.IOError'>"
p34
sS'filename'
p35
S"'$HOME_anu_tmp/tmp/sample_tmp/2.1/word.dat'"
p36
sS'__doc__'
p37
S"'I/O operation failed.'"
p38
sS'__getitem__'
p39
S"<method-wrapper '__getitem__' of exceptions.IOError object>"
p40
sS'__setstate__'
p41
S'<built-in method __setstate__ of exceptions.IOError object>'
p42
sS'__getattribute__'
p43
S"<method-wrapper '__getattribute__' of exceptions.IOError object>"
p44
sS'args'
p45
S"(2, 'No such file or directory')"
p46
sS'__subclasshook__'
p47
S'<built-in method __subclasshook__ of type object>'
p48
sS'__unicode__'
p49
S'<built-in method __unicode__ of exceptions.IOError object>'
p50
sS'strerror'
p51
S"'No such file or directory'"
p52
sS'__delattr__'
p53
S"<method-wrapper '__delattr__' of exceptions.IOError object>"
p54
sS'__repr__'
p55
S"<method-wrapper '__repr__' of exceptions.IOError object>"
p56
sS'__hash__'
p57
S"<method-wrapper '__hash__' of exceptions.IOError object>"
p58
ssS'evalue'
p59
S"[Errno 2] No such file or directory: '$HOME_anu_tmp/tmp/sample_tmp/2.1/word.dat'"
p60
sS'request'
p61
ccopy_reg
_reconstructor
p62
(cgluon.html
BEAUTIFY
p63
c__builtin__
object
p64
NtRp65
(dp66
S'attributes'
p67
(dp68
sS'components'
p69
(lp70
g62
(cgluon.html
TABLE
p71
g64
NtRp72
(dp73
g67
(dp74
S'level'
p75
I5
ssS'parent'
p76
Nsg69
(lp77
g62
(cgluon.html
TR
p78
g64
NtRp79
(dp80
g67
(dp81
sg76
g72
sg69
(lp82
g62
(cgluon.html
TD
p83
g64
NtRp84
(dp85
g67
(dp86
S'_style'
p87
S'font-weight:bold;vertical-align:top'
p88
ssg76
g79
sg69
(lp89
S'ajax'
p90
asbag62
(g83
g64
NtRp91
(dp92
g67
(dp93
S'_valign'
p94
S'top'
p95
ssg76
g79
sg69
(lp96
S':'
asbag62
(g83
g64
NtRp97
(dp98
g67
(dp99
sg76
g79
sg69
(lp100
g62
(g63
g64
NtRp101
(dp102
g67
(dp103
g75
I5
ssg76
g97
sg69
(lp104
S'False'
p105
asbasbasbag62
(g78
g64
NtRp106
(dp107
g67
(dp108
sg76
g72
sg69
(lp109
g62
(g83
g64
NtRp110
(dp111
g67
(dp112
g87
g88
ssg76
g106
sg69
(lp113
S'application'
p114
asbag62
(g83
g64
NtRp115
(dp116
g67
(dp117
g94
g95
ssg76
g106
sg69
(lp118
S':'
asbag62
(g83
g64
NtRp119
(dp120
g67
(dp121
sg76
g106
sg69
(lp122
g62
(g63
g64
NtRp123
(dp124
g67
(dp125
g75
I5
ssg76
g119
sg69
(lp126
S'WSD_Tool'
p127
asbasbasbag62
(g78
g64
NtRp128
(dp129
g67
(dp130
sg76
g72
sg69
(lp131
g62
(g83
g64
NtRp132
(dp133
g67
(dp134
g87
g88
ssg76
g128
sg69
(lp135
g45
asbag62
(g83
g64
NtRp136
(dp137
g67
(dp138
g94
g95
ssg76
g128
sg69
(lp139
S':'
asbag62
(g83
g64
NtRp140
(dp141
g67
(dp142
sg76
g128
sg69
(lp143
g62
(g63
g64
NtRp144
(dp145
g67
(dp146
g75
I5
ssg76
g140
sg69
(lp147
g62
(g71
g64
NtRp148
(dp149
g67
(dp150
g75
I4
ssg76
Nsg69
(lp151
sbasbasbasbag62
(g78
g64
NtRp152
(dp153
g67
(dp154
sg76
g72
sg69
(lp155
g62
(g83
g64
NtRp156
(dp157
g67
(dp158
g87
g88
ssg76
g152
sg69
(lp159
S'body'
p160
asbag62
(g83
g64
NtRp161
(dp162
g67
(dp163
g94
g95
ssg76
g152
sg69
(lp164
S':'
asbag62
(g83
g64
NtRp165
(dp166
g67
(dp167
sg76
g152
sg69
(lp168
g62
(g63
g64
NtRp169
(dp170
g67
(dp171
g75
I5
ssg76
g165
sg69
(lp172
S'<cStringIO.StringO object at 0xadb20d00>'
p173
asbasbasbag62
(g78
g64
NtRp174
(dp175
g67
(dp176
sg76
g72
sg69
(lp177
g62
(g83
g64
NtRp178
(dp179
g67
(dp180
g87
g88
ssg76
g174
sg69
(lp181
S'cid'
p182
asbag62
(g83
g64
NtRp183
(dp184
g67
(dp185
g94
g95
ssg76
g174
sg69
(lp186
S':'
asbag62
(g83
g64
NtRp187
(dp188
g67
(dp189
sg76
g174
sg69
(lp190
g62
(g63
g64
NtRp191
(dp192
g67
(dp193
g75
I5
ssg76
g187
sg69
(lp194
S'None'
p195
asbasbasbag62
(g78
g64
NtRp196
(dp197
g67
(dp198
sg76
g72
sg69
(lp199
g62
(g83
g64
NtRp200
(dp201
g67
(dp202
g87
g88
ssg76
g196
sg69
(lp203
S'client'
p204
asbag62
(g83
g64
NtRp205
(dp206
g67
(dp207
g94
g95
ssg76
g196
sg69
(lp208
S':'
asbag62
(g83
g64
NtRp209
(dp210
g67
(dp211
sg76
g196
sg69
(lp212
g62
(g63
g64
NtRp213
(dp214
g67
(dp215
g75
I5
ssg76
g209
sg69
(lp216
S'127.0.0.1'
p217
asbasbasbag62
(g78
g64
NtRp218
(dp219
g67
(dp220
sg76
g72
sg69
(lp221
g62
(g83
g64
NtRp222
(dp223
g67
(dp224
g87
g88
ssg76
g218
sg69
(lp225
S'controller'
p226
asbag62
(g83
g64
NtRp227
(dp228
g67
(dp229
g94
g95
ssg76
g218
sg69
(lp230
S':'
asbag62
(g83
g64
NtRp231
(dp232
g67
(dp233
sg76
g218
sg69
(lp234
g62
(g63
g64
NtRp235
(dp236
g67
(dp237
g75
I5
ssg76
g231
sg69
(lp238
S'default'
p239
asbasbasbag62
(g78
g64
NtRp240
(dp241
g67
(dp242
sg76
g72
sg69
(lp243
g62
(g83
g64
NtRp244
(dp245
g67
(dp246
g87
g88
ssg76
g240
sg69
(lp247
S'cookies'
p248
asbag62
(g83
g64
NtRp249
(dp250
g67
(dp251
g94
g95
ssg76
g240
sg69
(lp252
S':'
asbag62
(g83
g64
NtRp253
(dp254
g67
(dp255
sg76
g240
sg69
(lp256
g62
(g63
g64
NtRp257
(dp258
g67
(dp259
g75
I5
ssg76
g253
sg69
(lp260
g62
(g71
g64
NtRp261
(dp262
g67
(dp263
g75
I4
ssg76
Nsg69
(lp264
g62
(g78
g64
NtRp265
(dp266
g67
(dp267
sg76
g261
sg69
(lp268
g62
(g83
g64
NtRp269
(dp270
g67
(dp271
g87
g88
ssg76
g265
sg69
(lp272
S'KBD'
p273
asbag62
(g83
g64
NtRp274
(dp275
g67
(dp276
g94
g95
ssg76
g265
sg69
(lp277
S':'
asbag62
(g83
g64
NtRp278
(dp279
g67
(dp280
sg76
g265
sg69
(lp281
g62
(g63
g64
NtRp282
(dp283
g67
(dp284
g75
I4
ssg76
g278
sg69
(lp285
S'0hi-0'
p286
ag62
(g71
g64
NtRp287
(dp288
g67
(dp289
g75
I3
ssg76
Nsg69
(lp290
g62
(g78
g64
NtRp291
(dp292
g67
(dp293
sg76
g287
sg69
(lp294
g62
(g83
g64
NtRp295
(dp296
g67
(dp297
g87
g88
ssg76
g291
sg69
(lp298
S'comment'
p299
asbag62
(g83
g64
NtRp300
(dp301
g67
(dp302
g94
g95
ssg76
g291
sg69
(lp303
S':'
asbag62
(g83
g64
NtRp304
(dp305
g67
(dp306
sg76
g291
sg69
(lp307
g62
(g63
g64
NtRp308
(dp309
g67
(dp310
g75
I3
ssg76
g304
sg69
(lp311
S''
asbasbasbag62
(g78
g64
NtRp312
(dp313
g67
(dp314
sg76
g287
sg69
(lp315
g62
(g83
g64
NtRp316
(dp317
g67
(dp318
g87
g88
ssg76
g312
sg69
(lp319
S'domain'
p320
asbag62
(g83
g64
NtRp321
(dp322
g67
(dp323
g94
g95
ssg76
g312
sg69
(lp324
S':'
asbag62
(g83
g64
NtRp325
(dp326
g67
(dp327
sg76
g312
sg69
(lp328
g62
(g63
g64
NtRp329
(dp330
g67
(dp331
g75
I3
ssg76
g325
sg69
(lp332
S''
asbasbasbag62
(g78
g64
NtRp333
(dp334
g67
(dp335
sg76
g287
sg69
(lp336
g62
(g83
g64
NtRp337
(dp338
g67
(dp339
g87
g88
ssg76
g333
sg69
(lp340
S'expires'
p341
asbag62
(g83
g64
NtRp342
(dp343
g67
(dp344
g94
g95
ssg76
g333
sg69
(lp345
S':'
asbag62
(g83
g64
NtRp346
(dp347
g67
(dp348
sg76
g333
sg69
(lp349
g62
(g63
g64
NtRp350
(dp351
g67
(dp352
g75
I3
ssg76
g346
sg69
(lp353
S''
asbasbasbag62
(g78
g64
NtRp354
(dp355
g67
(dp356
sg76
g287
sg69
(lp357
g62
(g83
g64
NtRp358
(dp359
g67
(dp360
g87
g88
ssg76
g354
sg69
(lp361
S'httponly'
p362
asbag62
(g83
g64
NtRp363
(dp364
g67
(dp365
g94
g95
ssg76
g354
sg69
(lp366
S':'
asbag62
(g83
g64
NtRp367
(dp368
g67
(dp369
sg76
g354
sg69
(lp370
g62
(g63
g64
NtRp371
(dp372
g67
(dp373
g75
I3
ssg76
g367
sg69
(lp374
S''
asbasbasbag62
(g78
g64
NtRp375
(dp376
g67
(dp377
sg76
g287
sg69
(lp378
g62
(g83
g64
NtRp379
(dp380
g67
(dp381
g87
g88
ssg76
g375
sg69
(lp382
S'max-age'
p383
asbag62
(g83
g64
NtRp384
(dp385
g67
(dp386
g94
g95
ssg76
g375
sg69
(lp387
S':'
asbag62
(g83
g64
NtRp388
(dp389
g67
(dp390
sg76
g375
sg69
(lp391
g62
(g63
g64
NtRp392
(dp393
g67
(dp394
g75
I3
ssg76
g388
sg69
(lp395
S''
asbasbasbag62
(g78
g64
NtRp396
(dp397
g67
(dp398
sg76
g287
sg69
(lp399
g62
(g83
g64
NtRp400
(dp401
g67
(dp402
g87
g88
ssg76
g396
sg69
(lp403
S'path'
p404
asbag62
(g83
g64
NtRp405
(dp406
g67
(dp407
g94
g95
ssg76
g396
sg69
(lp408
S':'
asbag62
(g83
g64
NtRp409
(dp410
g67
(dp411
sg76
g396
sg69
(lp412
g62
(g63
g64
NtRp413
(dp414
g67
(dp415
g75
I3
ssg76
g409
sg69
(lp416
S''
asbasbasbag62
(g78
g64
NtRp417
(dp418
g67
(dp419
sg76
g287
sg69
(lp420
g62
(g83
g64
NtRp421
(dp422
g67
(dp423
g87
g88
ssg76
g417
sg69
(lp424
S'secure'
p425
asbag62
(g83
g64
NtRp426
(dp427
g67
(dp428
g94
g95
ssg76
g417
sg69
(lp429
S':'
asbag62
(g83
g64
NtRp430
(dp431
g67
(dp432
sg76
g417
sg69
(lp433
g62
(g63
g64
NtRp434
(dp435
g67
(dp436
g75
I3
ssg76
g430
sg69
(lp437
S''
asbasbasbag62
(g78
g64
NtRp438
(dp439
g67
(dp440
sg76
g287
sg69
(lp441
g62
(g83
g64
NtRp442
(dp443
g67
(dp444
g87
g88
ssg76
g438
sg69
(lp445
S'version'
p446
asbag62
(g83
g64
NtRp447
(dp448
g67
(dp449
g94
g95
ssg76
g438
sg69
(lp450
S':'
asbag62
(g83
g64
NtRp451
(dp452
g67
(dp453
sg76
g438
sg69
(lp454
g62
(g63
g64
NtRp455
(dp456
g67
(dp457
g75
I3
ssg76
g451
sg69
(lp458
S''
asbasbasbasbasbasbasbag62
(g78
g64
NtRp459
(dp460
g67
(dp461
sg76
g261
sg69
(lp462
g62
(g83
g64
NtRp463
(dp464
g67
(dp465
g87
g88
ssg76
g459
sg69
(lp466
S'session_id_admin'
p467
asbag62
(g83
g64
NtRp468
(dp469
g67
(dp470
g94
g95
ssg76
g459
sg69
(lp471
S':'
asbag62
(g83
g64
NtRp472
(dp473
g67
(dp474
sg76
g459
sg69
(lp475
g62
(g63
g64
NtRp476
(dp477
g67
(dp478
g75
I4
ssg76
g472
sg69
(lp479
S'127.0.0.1-634e911d-1fde-455e-a6e2-97efd4213cb7'
p480
ag62
(g71
g64
NtRp481
(dp482
g67
(dp483
g75
I3
ssg76
Nsg69
(lp484
g62
(g78
g64
NtRp485
(dp486
g67
(dp487
sg76
g481
sg69
(lp488
g62
(g83
g64
NtRp489
(dp490
g67
(dp491
g87
g88
ssg76
g485
sg69
(lp492
g299
asbag62
(g83
g64
NtRp493
(dp494
g67
(dp495
g94
g95
ssg76
g485
sg69
(lp496
S':'
asbag62
(g83
g64
NtRp497
(dp498
g67
(dp499
sg76
g485
sg69
(lp500
g62
(g63
g64
NtRp501
(dp502
g67
(dp503
g75
I3
ssg76
g497
sg69
(lp504
S''
asbasbasbag62
(g78
g64
NtRp505
(dp506
g67
(dp507
sg76
g481
sg69
(lp508
g62
(g83
g64
NtRp509
(dp510
g67
(dp511
g87
g88
ssg76
g505
sg69
(lp512
g320
asbag62
(g83
g64
NtRp513
(dp514
g67
(dp515
g94
g95
ssg76
g505
sg69
(lp516
S':'
asbag62
(g83
g64
NtRp517
(dp518
g67
(dp519
sg76
g505
sg69
(lp520
g62
(g63
g64
NtRp521
(dp522
g67
(dp523
g75
I3
ssg76
g517
sg69
(lp524
S''
asbasbasbag62
(g78
g64
NtRp525
(dp526
g67
(dp527
sg76
g481
sg69
(lp528
g62
(g83
g64
NtRp529
(dp530
g67
(dp531
g87
g88
ssg76
g525
sg69
(lp532
g341
asbag62
(g83
g64
NtRp533
(dp534
g67
(dp535
g94
g95
ssg76
g525
sg69
(lp536
S':'
asbag62
(g83
g64
NtRp537
(dp538
g67
(dp539
sg76
g525
sg69
(lp540
g62
(g63
g64
NtRp541
(dp542
g67
(dp543
g75
I3
ssg76
g537
sg69
(lp544
S''
asbasbasbag62
(g78
g64
NtRp545
(dp546
g67
(dp547
sg76
g481
sg69
(lp548
g62
(g83
g64
NtRp549
(dp550
g67
(dp551
g87
g88
ssg76
g545
sg69
(lp552
g362
asbag62
(g83
g64
NtRp553
(dp554
g67
(dp555
g94
g95
ssg76
g545
sg69
(lp556
S':'
asbag62
(g83
g64
NtRp557
(dp558
g67
(dp559
sg76
g545
sg69
(lp560
g62
(g63
g64
NtRp561
(dp562
g67
(dp563
g75
I3
ssg76
g557
sg69
(lp564
S''
asbasbasbag62
(g78
g64
NtRp565
(dp566
g67
(dp567
sg76
g481
sg69
(lp568
g62
(g83
g64
NtRp569
(dp570
g67
(dp571
g87
g88
ssg76
g565
sg69
(lp572
g383
asbag62
(g83
g64
NtRp573
(dp574
g67
(dp575
g94
g95
ssg76
g565
sg69
(lp576
S':'
asbag62
(g83
g64
NtRp577
(dp578
g67
(dp579
sg76
g565
sg69
(lp580
g62
(g63
g64
NtRp581
(dp582
g67
(dp583
g75
I3
ssg76
g577
sg69
(lp584
S''
asbasbasbag62
(g78
g64
NtRp585
(dp586
g67
(dp587
sg76
g481
sg69
(lp588
g62
(g83
g64
NtRp589
(dp590
g67
(dp591
g87
g88
ssg76
g585
sg69
(lp592
g404
asbag62
(g83
g64
NtRp593
(dp594
g67
(dp595
g94
g95
ssg76
g585
sg69
(lp596
S':'
asbag62
(g83
g64
NtRp597
(dp598
g67
(dp599
sg76
g585
sg69
(lp600
g62
(g63
g64
NtRp601
(dp602
g67
(dp603
g75
I3
ssg76
g597
sg69
(lp604
S''
asbasbasbag62
(g78
g64
NtRp605
(dp606
g67
(dp607
sg76
g481
sg69
(lp608
g62
(g83
g64
NtRp609
(dp610
g67
(dp611
g87
g88
ssg76
g605
sg69
(lp612
g425
asbag62
(g83
g64
NtRp613
(dp614
g67
(dp615
g94
g95
ssg76
g605
sg69
(lp616
S':'
asbag62
(g83
g64
NtRp617
(dp618
g67
(dp619
sg76
g605
sg69
(lp620
g62
(g63
g64
NtRp621
(dp622
g67
(dp623
g75
I3
ssg76
g617
sg69
(lp624
S''
asbasbasbag62
(g78
g64
NtRp625
(dp626
g67
(dp627
sg76
g481
sg69
(lp628
g62
(g83
g64
NtRp629
(dp630
g67
(dp631
g87
g88
ssg76
g625
sg69
(lp632
g446
asbag62
(g83
g64
NtRp633
(dp634
g67
(dp635
g94
g95
ssg76
g625
sg69
(lp636
S':'
asbag62
(g83
g64
NtRp637
(dp638
g67
(dp639
sg76
g625
sg69
(lp640
g62
(g63
g64
NtRp641
(dp642
g67
(dp643
g75
I3
ssg76
g637
sg69
(lp644
S''
asbasbasbasbasbasbasbag62
(g78
g64
NtRp645
(dp646
g67
(dp647
sg76
g261
sg69
(lp648
g62
(g83
g64
NtRp649
(dp650
g67
(dp651
g87
g88
ssg76
g645
sg69
(lp652
S'session_id_welcome'
p653
asbag62
(g83
g64
NtRp654
(dp655
g67
(dp656
g94
g95
ssg76
g645
sg69
(lp657
S':'
asbag62
(g83
g64
NtRp658
(dp659
g67
(dp660
sg76
g645
sg69
(lp661
g62
(g63
g64
NtRp662
(dp663
g67
(dp664
g75
I4
ssg76
g658
sg69
(lp665
S'127.0.0.1-fcddb8ed-ee0c-4d28-bfa6-6fd1606b92e1'
p666
ag62
(g71
g64
NtRp667
(dp668
g67
(dp669
g75
I3
ssg76
Nsg69
(lp670
g62
(g78
g64
NtRp671
(dp672
g67
(dp673
sg76
g667
sg69
(lp674
g62
(g83
g64
NtRp675
(dp676
g67
(dp677
g87
g88
ssg76
g671
sg69
(lp678
g299
asbag62
(g83
g64
NtRp679
(dp680
g67
(dp681
g94
g95
ssg76
g671
sg69
(lp682
S':'
asbag62
(g83
g64
NtRp683
(dp684
g67
(dp685
sg76
g671
sg69
(lp686
g62
(g63
g64
NtRp687
(dp688
g67
(dp689
g75
I3
ssg76
g683
sg69
(lp690
S''
asbasbasbag62
(g78
g64
NtRp691
(dp692
g67
(dp693
sg76
g667
sg69
(lp694
g62
(g83
g64
NtRp695
(dp696
g67
(dp697
g87
g88
ssg76
g691
sg69
(lp698
g320
asbag62
(g83
g64
NtRp699
(dp700
g67
(dp701
g94
g95
ssg76
g691
sg69
(lp702
S':'
asbag62
(g83
g64
NtRp703
(dp704
g67
(dp705
sg76
g691
sg69
(lp706
g62
(g63
g64
NtRp707
(dp708
g67
(dp709
g75
I3
ssg76
g703
sg69
(lp710
S''
asbasbasbag62
(g78
g64
NtRp711
(dp712
g67
(dp713
sg76
g667
sg69
(lp714
g62
(g83
g64
NtRp715
(dp716
g67
(dp717
g87
g88
ssg76
g711
sg69
(lp718
g341
asbag62
(g83
g64
NtRp719
(dp720
g67
(dp721
g94
g95
ssg76
g711
sg69
(lp722
S':'
asbag62
(g83
g64
NtRp723
(dp724
g67
(dp725
sg76
g711
sg69
(lp726
g62
(g63
g64
NtRp727
(dp728
g67
(dp729
g75
I3
ssg76
g723
sg69
(lp730
S''
asbasbasbag62
(g78
g64
NtRp731
(dp732
g67
(dp733
sg76
g667
sg69
(lp734
g62
(g83
g64
NtRp735
(dp736
g67
(dp737
g87
g88
ssg76
g731
sg69
(lp738
g362
asbag62
(g83
g64
NtRp739
(dp740
g67
(dp741
g94
g95
ssg76
g731
sg69
(lp742
S':'
asbag62
(g83
g64
NtRp743
(dp744
g67
(dp745
sg76
g731
sg69
(lp746
g62
(g63
g64
NtRp747
(dp748
g67
(dp749
g75
I3
ssg76
g743
sg69
(lp750
S''
asbasbasbag62
(g78
g64
NtRp751
(dp752
g67
(dp753
sg76
g667
sg69
(lp754
g62
(g83
g64
NtRp755
(dp756
g67
(dp757
g87
g88
ssg76
g751
sg69
(lp758
g383
asbag62
(g83
g64
NtRp759
(dp760
g67
(dp761
g94
g95
ssg76
g751
sg69
(lp762
S':'
asbag62
(g83
g64
NtRp763
(dp764
g67
(dp765
sg76
g751
sg69
(lp766
g62
(g63
g64
NtRp767
(dp768
g67
(dp769
g75
I3
ssg76
g763
sg69
(lp770
S''
asbasbasbag62
(g78
g64
NtRp771
(dp772
g67
(dp773
sg76
g667
sg69
(lp774
g62
(g83
g64
NtRp775
(dp776
g67
(dp777
g87
g88
ssg76
g771
sg69
(lp778
g404
asbag62
(g83
g64
NtRp779
(dp780
g67
(dp781
g94
g95
ssg76
g771
sg69
(lp782
S':'
asbag62
(g83
g64
NtRp783
(dp784
g67
(dp785
sg76
g771
sg69
(lp786
g62
(g63
g64
NtRp787
(dp788
g67
(dp789
g75
I3
ssg76
g783
sg69
(lp790
S''
asbasbasbag62
(g78
g64
NtRp791
(dp792
g67
(dp793
sg76
g667
sg69
(lp794
g62
(g83
g64
NtRp795
(dp796
g67
(dp797
g87
g88
ssg76
g791
sg69
(lp798
g425
asbag62
(g83
g64
NtRp799
(dp800
g67
(dp801
g94
g95
ssg76
g791
sg69
(lp802
S':'
asbag62
(g83
g64
NtRp803
(dp804
g67
(dp805
sg76
g791
sg69
(lp806
g62
(g63
g64
NtRp807
(dp808
g67
(dp809
g75
I3
ssg76
g803
sg69
(lp810
S''
asbasbasbag62
(g78
g64
NtRp811
(dp812
g67
(dp813
sg76
g667
sg69
(lp814
g62
(g83
g64
NtRp815
(dp816
g67
(dp817
g87
g88
ssg76
g811
sg69
(lp818
g446
asbag62
(g83
g64
NtRp819
(dp820
g67
(dp821
g94
g95
ssg76
g811
sg69
(lp822
S':'
asbag62
(g83
g64
NtRp823
(dp824
g67
(dp825
sg76
g811
sg69
(lp826
g62
(g63
g64
NtRp827
(dp828
g67
(dp829
g75
I3
ssg76
g823
sg69
(lp830
S''
asbasbasbasbasbasbasbag62
(g78
g64
NtRp831
(dp832
g67
(dp833
sg76
g261
sg69
(lp834
g62
(g83
g64
NtRp835
(dp836
g67
(dp837
g87
g88
ssg76
g831
sg69
(lp838
S'session_id_wsd_tool'
p839
asbag62
(g83
g64
NtRp840
(dp841
g67
(dp842
g94
g95
ssg76
g831
sg69
(lp843
S':'
asbag62
(g83
g64
NtRp844
(dp845
g67
(dp846
sg76
g831
sg69
(lp847
g62
(g63
g64
NtRp848
(dp849
g67
(dp850
g75
I4
ssg76
g844
sg69
(lp851
S'127.0.0.1-1b9513ff-7a4a-46e3-9d60-f0b6086e5c03'
p852
ag62
(g71
g64
NtRp853
(dp854
g67
(dp855
g75
I3
ssg76
Nsg69
(lp856
g62
(g78
g64
NtRp857
(dp858
g67
(dp859
sg76
g853
sg69
(lp860
g62
(g83
g64
NtRp861
(dp862
g67
(dp863
g87
g88
ssg76
g857
sg69
(lp864
g299
asbag62
(g83
g64
NtRp865
(dp866
g67
(dp867
g94
g95
ssg76
g857
sg69
(lp868
S':'
asbag62
(g83
g64
NtRp869
(dp870
g67
(dp871
sg76
g857
sg69
(lp872
g62
(g63
g64
NtRp873
(dp874
g67
(dp875
g75
I3
ssg76
g869
sg69
(lp876
S''
asbasbasbag62
(g78
g64
NtRp877
(dp878
g67
(dp879
sg76
g853
sg69
(lp880
g62
(g83
g64
NtRp881
(dp882
g67
(dp883
g87
g88
ssg76
g877
sg69
(lp884
g320
asbag62
(g83
g64
NtRp885
(dp886
g67
(dp887
g94
g95
ssg76
g877
sg69
(lp888
S':'
asbag62
(g83
g64
NtRp889
(dp890
g67
(dp891
sg76
g877
sg69
(lp892
g62
(g63
g64
NtRp893
(dp894
g67
(dp895
g75
I3
ssg76
g889
sg69
(lp896
S''
asbasbasbag62
(g78
g64
NtRp897
(dp898
g67
(dp899
sg76
g853
sg69
(lp900
g62
(g83
g64
NtRp901
(dp902
g67
(dp903
g87
g88
ssg76
g897
sg69
(lp904
g341
asbag62
(g83
g64
NtRp905
(dp906
g67
(dp907
g94
g95
ssg76
g897
sg69
(lp908
S':'
asbag62
(g83
g64
NtRp909
(dp910
g67
(dp911
sg76
g897
sg69
(lp912
g62
(g63
g64
NtRp913
(dp914
g67
(dp915
g75
I3
ssg76
g909
sg69
(lp916
S''
asbasbasbag62
(g78
g64
NtRp917
(dp918
g67
(dp919
sg76
g853
sg69
(lp920
g62
(g83
g64
NtRp921
(dp922
g67
(dp923
g87
g88
ssg76
g917
sg69
(lp924
g362
asbag62
(g83
g64
NtRp925
(dp926
g67
(dp927
g94
g95
ssg76
g917
sg69
(lp928
S':'
asbag62
(g83
g64
NtRp929
(dp930
g67
(dp931
sg76
g917
sg69
(lp932
g62
(g63
g64
NtRp933
(dp934
g67
(dp935
g75
I3
ssg76
g929
sg69
(lp936
S''
asbasbasbag62
(g78
g64
NtRp937
(dp938
g67
(dp939
sg76
g853
sg69
(lp940
g62
(g83
g64
NtRp941
(dp942
g67
(dp943
g87
g88
ssg76
g937
sg69
(lp944
g383
asbag62
(g83
g64
NtRp945
(dp946
g67
(dp947
g94
g95
ssg76
g937
sg69
(lp948
S':'
asbag62
(g83
g64
NtRp949
(dp950
g67
(dp951
sg76
g937
sg69
(lp952
g62
(g63
g64
NtRp953
(dp954
g67
(dp955
g75
I3
ssg76
g949
sg69
(lp956
S''
asbasbasbag62
(g78
g64
NtRp957
(dp958
g67
(dp959
sg76
g853
sg69
(lp960
g62
(g83
g64
NtRp961
(dp962
g67
(dp963
g87
g88
ssg76
g957
sg69
(lp964
g404
asbag62
(g83
g64
NtRp965
(dp966
g67
(dp967
g94
g95
ssg76
g957
sg69
(lp968
S':'
asbag62
(g83
g64
NtRp969
(dp970
g67
(dp971
sg76
g957
sg69
(lp972
g62
(g63
g64
NtRp973
(dp974
g67
(dp975
g75
I3
ssg76
g969
sg69
(lp976
S''
asbasbasbag62
(g78
g64
NtRp977
(dp978
g67
(dp979
sg76
g853
sg69
(lp980
g62
(g83
g64
NtRp981
(dp982
g67
(dp983
g87
g88
ssg76
g977
sg69
(lp984
g425
asbag62
(g83
g64
NtRp985
(dp986
g67
(dp987
g94
g95
ssg76
g977
sg69
(lp988
S':'
asbag62
(g83
g64
NtRp989
(dp990
g67
(dp991
sg76
g977
sg69
(lp992
g62
(g63
g64
NtRp993
(dp994
g67
(dp995
g75
I3
ssg76
g989
sg69
(lp996
S''
asbasbasbag62
(g78
g64
NtRp997
(dp998
g67
(dp999
sg76
g853
sg69
(lp1000
g62
(g83
g64
NtRp1001
(dp1002
g67
(dp1003
g87
g88
ssg76
g997
sg69
(lp1004
g446
asbag62
(g83
g64
NtRp1005
(dp1006
g67
(dp1007
g94
g95
ssg76
g997
sg69
(lp1008
S':'
asbag62
(g83
g64
NtRp1009
(dp1010
g67
(dp1011
sg76
g997
sg69
(lp1012
g62
(g63
g64
NtRp1013
(dp1014
g67
(dp1015
g75
I3
ssg76
g1009
sg69
(lp1016
S''
asbasbasbasbasbasbasbasbasbasbasbag62
(g78
g64
NtRp1017
(dp1018
g67
(dp1019
sg76
g72
sg69
(lp1020
g62
(g83
g64
NtRp1021
(dp1022
g67
(dp1023
g87
g88
ssg76
g1017
sg69
(lp1024
S'env'
p1025
asbag62
(g83
g64
NtRp1026
(dp1027
g67
(dp1028
g94
g95
ssg76
g1017
sg69
(lp1029
S':'
asbag62
(g83
g64
NtRp1030
(dp1031
g67
(dp1032
sg76
g1017
sg69
(lp1033
g62
(g63
g64
NtRp1034
(dp1035
g67
(dp1036
g75
I5
ssg76
g1030
sg69
(lp1037
g62
(g71
g64
NtRp1038
(dp1039
g67
(dp1040
g75
I4
ssg76
Nsg69
(lp1041
g62
(g78
g64
NtRp1042
(dp1043
g67
(dp1044
sg76
g1038
sg69
(lp1045
g62
(g83
g64
NtRp1046
(dp1047
g67
(dp1048
g87
g88
ssg76
g1042
sg69
(lp1049
S'app_folders'
p1050
asbag62
(g83
g64
NtRp1051
(dp1052
g67
(dp1053
g94
g95
ssg76
g1042
sg69
(lp1054
S':'
asbag62
(g83
g64
NtRp1055
(dp1056
g67
(dp1057
sg76
g1042
sg69
(lp1058
g62
(g63
g64
NtRp1059
(dp1060
g67
(dp1061
g75
I4
ssg76
g1055
sg69
(lp1062
S"set(['/home/nazrul/web2py/applications/welcome/', '/home/nazrul/web2py/applications/WSD_Tool/', '/home/nazrul/web2py/applications/admin/'])"
p1063
asbasbasbag62
(g78
g64
NtRp1064
(dp1065
g67
(dp1066
sg76
g1038
sg69
(lp1067
g62
(g83
g64
NtRp1068
(dp1069
g67
(dp1070
g87
g88
ssg76
g1064
sg69
(lp1071
S'applications_parent'
p1072
asbag62
(g83
g64
NtRp1073
(dp1074
g67
(dp1075
g94
g95
ssg76
g1064
sg69
(lp1076
S':'
asbag62
(g83
g64
NtRp1077
(dp1078
g67
(dp1079
sg76
g1064
sg69
(lp1080
g62
(g63
g64
NtRp1081
(dp1082
g67
(dp1083
g75
I4
ssg76
g1077
sg69
(lp1084
S'/home/nazrul/web2py'
p1085
asbasbasbag62
(g78
g64
NtRp1086
(dp1087
g67
(dp1088
sg76
g1038
sg69
(lp1089
g62
(g83
g64
NtRp1090
(dp1091
g67
(dp1092
g87
g88
ssg76
g1086
sg69
(lp1093
S'cmd_args'
p1094
asbag62
(g83
g64
NtRp1095
(dp1096
g67
(dp1097
g94
g95
ssg76
g1086
sg69
(lp1098
S':'
asbag62
(g83
g64
NtRp1099
(dp1100
g67
(dp1101
sg76
g1086
sg69
(lp1102
g62
(g63
g64
NtRp1103
(dp1104
g67
(dp1105
g75
I4
ssg76
g1099
sg69
(lp1106
g62
(g71
g64
NtRp1107
(dp1108
g67
(dp1109
g75
I3
ssg76
Nsg69
(lp1110
sbasbasbasbag62
(g78
g64
NtRp1111
(dp1112
g67
(dp1113
sg76
g1038
sg69
(lp1114
g62
(g83
g64
NtRp1115
(dp1116
g67
(dp1117
g87
g88
ssg76
g1111
sg69
(lp1118
S'cmd_options'
p1119
asbag62
(g83
g64
NtRp1120
(dp1121
g67
(dp1122
g94
g95
ssg76
g1111
sg69
(lp1123
S':'
asbag62
(g83
g64
NtRp1124
(dp1125
g67
(dp1126
sg76
g1111
sg69
(lp1127
g62
(g63
g64
NtRp1128
(dp1129
g67
(dp1130
g75
I4
ssg76
g1124
sg69
(lp1131
S"<Values at 0xa44192c: {'verbose': False, 'ip': '127.0.0.1', 'with_scheduler': False, 'ips': [], 'shutdown_timeout': 5, 'taskbar': False, 'port': 8000, 'maxthreads': None, 'softcron': False, 'server_name': 'nazrul-Compaq-Presario-CQ40-Notebook-PC', 'bpython': False, 'nogui': False, 'pid_filename': 'httpserver.pid', 'extcron': False, 'runcron': False, 'run_system_tests': False, 'test': None, 'folder': '/home/nazrul/web2py', 'config': '', 'import_models': False, 'winservice': '', 'shell': None, 'run': '', 'log_filename': 'httpserver.log', 'debuglevel': 30, 'args': [''], 'socket_timeout': 5, 'ssl_ca_certificate': None, 'scheduler': None, 'profiler_filename': None, 'ssl_private_key': '', 'scheduler_groups': None, 'password': '<ask>', 'request_queue_size': 5, 'ssl_certificate': '', 'cronjob': False, 'numthreads': None, 'quiet': False, 'interfaces': None, 'minthreads': None, 'timeout': 10, 'plain': False, 'nobanner': False}>"
p1132
asbasbasbag62
(g78
g64
NtRp1133
(dp1134
g67
(dp1135
sg76
g1038
sg69
(lp1136
g62
(g83
g64
NtRp1137
(dp1138
g67
(dp1139
g87
g88
ssg76
g1133
sg69
(lp1140
S'db_sessions'
p1141
asbag62
(g83
g64
NtRp1142
(dp1143
g67
(dp1144
g94
g95
ssg76
g1133
sg69
(lp1145
S':'
asbag62
(g83
g64
NtRp1146
(dp1147
g67
(dp1148
sg76
g1133
sg69
(lp1149
g62
(g63
g64
NtRp1150
(dp1151
g67
(dp1152
g75
I4
ssg76
g1146
sg69
(lp1153
S'set([])'
p1154
asbasbasbag62
(g78
g64
NtRp1155
(dp1156
g67
(dp1157
sg76
g1038
sg69
(lp1158
g62
(g83
g64
NtRp1159
(dp1160
g67
(dp1161
g87
g88
ssg76
g1155
sg69
(lp1162
S'debugging'
p1163
asbag62
(g83
g64
NtRp1164
(dp1165
g67
(dp1166
g94
g95
ssg76
g1155
sg69
(lp1167
S':'
asbag62
(g83
g64
NtRp1168
(dp1169
g67
(dp1170
sg76
g1155
sg69
(lp1171
g62
(g63
g64
NtRp1172
(dp1173
g67
(dp1174
g75
I4
ssg76
g1168
sg69
(lp1175
g105
asbasbasbag62
(g78
g64
NtRp1176
(dp1177
g67
(dp1178
sg76
g1038
sg69
(lp1179
g62
(g83
g64
NtRp1180
(dp1181
g67
(dp1182
g87
g88
ssg76
g1176
sg69
(lp1183
S'gluon_parent'
p1184
asbag62
(g83
g64
NtRp1185
(dp1186
g67
(dp1187
g94
g95
ssg76
g1176
sg69
(lp1188
S':'
asbag62
(g83
g64
NtRp1189
(dp1190
g67
(dp1191
sg76
g1176
sg69
(lp1192
g62
(g63
g64
NtRp1193
(dp1194
g67
(dp1195
g75
I4
ssg76
g1189
sg69
(lp1196
S'/home/nazrul/web2py'
p1197
asbasbasbag62
(g78
g64
NtRp1198
(dp1199
g67
(dp1200
sg76
g1038
sg69
(lp1201
g62
(g83
g64
NtRp1202
(dp1203
g67
(dp1204
g87
g88
ssg76
g1198
sg69
(lp1205
S'http_accept'
p1206
asbag62
(g83
g64
NtRp1207
(dp1208
g67
(dp1209
g94
g95
ssg76
g1198
sg69
(lp1210
S':'
asbag62
(g83
g64
NtRp1211
(dp1212
g67
(dp1213
sg76
g1198
sg69
(lp1214
g62
(g63
g64
NtRp1215
(dp1216
g67
(dp1217
g75
I4
ssg76
g1211
sg69
(lp1218
S'text/html,application/xhtml+xml,application/xml;q=0.9,*/*;q=0.8'
p1219
asbasbasbag62
(g78
g64
NtRp1220
(dp1221
g67
(dp1222
sg76
g1038
sg69
(lp1223
g62
(g83
g64
NtRp1224
(dp1225
g67
(dp1226
g87
g88
ssg76
g1220
sg69
(lp1227
S'http_accept_encoding'
p1228
asbag62
(g83
g64
NtRp1229
(dp1230
g67
(dp1231
g94
g95
ssg76
g1220
sg69
(lp1232
S':'
asbag62
(g83
g64
NtRp1233
(dp1234
g67
(dp1235
sg76
g1220
sg69
(lp1236
g62
(g63
g64
NtRp1237
(dp1238
g67
(dp1239
g75
I4
ssg76
g1233
sg69
(lp1240
S'gzip, deflate'
p1241
asbasbasbag62
(g78
g64
NtRp1242
(dp1243
g67
(dp1244
sg76
g1038
sg69
(lp1245
g62
(g83
g64
NtRp1246
(dp1247
g67
(dp1248
g87
g88
ssg76
g1242
sg69
(lp1249
S'http_accept_language'
p1250
asbag62
(g83
g64
NtRp1251
(dp1252
g67
(dp1253
g94
g95
ssg76
g1242
sg69
(lp1254
S':'
asbag62
(g83
g64
NtRp1255
(dp1256
g67
(dp1257
sg76
g1242
sg69
(lp1258
g62
(g63
g64
NtRp1259
(dp1260
g67
(dp1261
g75
I4
ssg76
g1255
sg69
(lp1262
S'en-US,en;q=0.5'
p1263
asbasbasbag62
(g78
g64
NtRp1264
(dp1265
g67
(dp1266
sg76
g1038
sg69
(lp1267
g62
(g83
g64
NtRp1268
(dp1269
g67
(dp1270
g87
g88
ssg76
g1264
sg69
(lp1271
S'http_connection'
p1272
asbag62
(g83
g64
NtRp1273
(dp1274
g67
(dp1275
g94
g95
ssg76
g1264
sg69
(lp1276
S':'
asbag62
(g83
g64
NtRp1277
(dp1278
g67
(dp1279
sg76
g1264
sg69
(lp1280
g62
(g63
g64
NtRp1281
(dp1282
g67
(dp1283
g75
I4
ssg76
g1277
sg69
(lp1284
S'keep-alive'
p1285
asbasbasbag62
(g78
g64
NtRp1286
(dp1287
g67
(dp1288
sg76
g1038
sg69
(lp1289
g62
(g83
g64
NtRp1290
(dp1291
g67
(dp1292
g87
g88
ssg76
g1286
sg69
(lp1293
S'http_cookie'
p1294
asbag62
(g83
g64
NtRp1295
(dp1296
g67
(dp1297
g94
g95
ssg76
g1286
sg69
(lp1298
S':'
asbag62
(g83
g64
NtRp1299
(dp1300
g67
(dp1301
sg76
g1286
sg69
(lp1302
g62
(g63
g64
NtRp1303
(dp1304
g67
(dp1305
g75
I4
ssg76
g1299
sg69
(lp1306
S'KBD=0hi-0; session_id_welcome=127.0.0.1-fcddb8ed-ee0c-4d28-bfa6-6fd1606b92e1; session_id_admin=127.0.0.1-634e911d-1fde-455e-a6e2-97efd4213cb7; session_id_wsd_tool=127.0.0.1-1b9513ff-7a4a-46e3-9d60-f0b6086e5c03'
p1307
asbasbasbag62
(g78
g64
NtRp1308
(dp1309
g67
(dp1310
sg76
g1038
sg69
(lp1311
g62
(g83
g64
NtRp1312
(dp1313
g67
(dp1314
g87
g88
ssg76
g1308
sg69
(lp1315
S'http_host'
p1316
asbag62
(g83
g64
NtRp1317
(dp1318
g67
(dp1319
g94
g95
ssg76
g1308
sg69
(lp1320
S':'
asbag62
(g83
g64
NtRp1321
(dp1322
g67
(dp1323
sg76
g1308
sg69
(lp1324
g62
(g63
g64
NtRp1325
(dp1326
g67
(dp1327
g75
I4
ssg76
g1321
sg69
(lp1328
S'127.0.0.1:8000'
p1329
asbasbasbag62
(g78
g64
NtRp1330
(dp1331
g67
(dp1332
sg76
g1038
sg69
(lp1333
g62
(g83
g64
NtRp1334
(dp1335
g67
(dp1336
g87
g88
ssg76
g1330
sg69
(lp1337
S'http_user_agent'
p1338
asbag62
(g83
g64
NtRp1339
(dp1340
g67
(dp1341
g94
g95
ssg76
g1330
sg69
(lp1342
S':'
asbag62
(g83
g64
NtRp1343
(dp1344
g67
(dp1345
sg76
g1330
sg69
(lp1346
g62
(g63
g64
NtRp1347
(dp1348
g67
(dp1349
g75
I4
ssg76
g1343
sg69
(lp1350
S'Mozilla/5.0 (X11; Ubuntu; Linux i686; rv:18.0) Gecko/20100101 Firefox/18.0'
p1351
asbasbasbag62
(g78
g64
NtRp1352
(dp1353
g67
(dp1354
sg76
g1038
sg69
(lp1355
g62
(g83
g64
NtRp1356
(dp1357
g67
(dp1358
g87
g88
ssg76
g1352
sg69
(lp1359
S'is_jython'
p1360
asbag62
(g83
g64
NtRp1361
(dp1362
g67
(dp1363
g94
g95
ssg76
g1352
sg69
(lp1364
S':'
asbag62
(g83
g64
NtRp1365
(dp1366
g67
(dp1367
sg76
g1352
sg69
(lp1368
g62
(g63
g64
NtRp1369
(dp1370
g67
(dp1371
g75
I4
ssg76
g1365
sg69
(lp1372
g105
asbasbasbag62
(g78
g64
NtRp1373
(dp1374
g67
(dp1375
sg76
g1038
sg69
(lp1376
g62
(g83
g64
NtRp1377
(dp1378
g67
(dp1379
g87
g88
ssg76
g1373
sg69
(lp1380
S'is_pypy'
p1381
asbag62
(g83
g64
NtRp1382
(dp1383
g67
(dp1384
g94
g95
ssg76
g1373
sg69
(lp1385
S':'
asbag62
(g83
g64
NtRp1386
(dp1387
g67
(dp1388
sg76
g1373
sg69
(lp1389
g62
(g63
g64
NtRp1390
(dp1391
g67
(dp1392
g75
I4
ssg76
g1386
sg69
(lp1393
g105
asbasbasbag62
(g78
g64
NtRp1394
(dp1395
g67
(dp1396
sg76
g1038
sg69
(lp1397
g62
(g83
g64
NtRp1398
(dp1399
g67
(dp1400
g87
g88
ssg76
g1394
sg69
(lp1401
S'local_hosts'
p1402
asbag62
(g83
g64
NtRp1403
(dp1404
g67
(dp1405
g94
g95
ssg76
g1394
sg69
(lp1406
S':'
asbag62
(g83
g64
NtRp1407
(dp1408
g67
(dp1409
sg76
g1394
sg69
(lp1410
g62
(g63
g64
NtRp1411
(dp1412
g67
(dp1413
g75
I4
ssg76
g1407
sg69
(lp1414
g62
(g71
g64
NtRp1415
(dp1416
g67
(dp1417
g75
I3
ssg76
Nsg69
(lp1418
g62
(g78
g64
NtRp1419
(dp1420
g67
(dp1421
sg76
g1415
sg69
(lp1422
g62
(g83
g64
NtRp1423
(dp1424
g67
(dp1425
sg76
g1419
sg69
(lp1426
g62
(g63
g64
NtRp1427
(dp1428
g67
(dp1429
g75
I3
ssg76
g1423
sg69
(lp1430
S'::1'
p1431
asbasbasbag62
(g78
g64
NtRp1432
(dp1433
g67
(dp1434
sg76
g1415
sg69
(lp1435
g62
(g83
g64
NtRp1436
(dp1437
g67
(dp1438
sg76
g1432
sg69
(lp1439
g62
(g63
g64
NtRp1440
(dp1441
g67
(dp1442
g75
I3
ssg76
g1436
sg69
(lp1443
S'127.0.1.1'
p1444
asbasbasbag62
(g78
g64
NtRp1445
(dp1446
g67
(dp1447
sg76
g1415
sg69
(lp1448
g62
(g83
g64
NtRp1449
(dp1450
g67
(dp1451
sg76
g1445
sg69
(lp1452
g62
(g63
g64
NtRp1453
(dp1454
g67
(dp1455
g75
I3
ssg76
g1449
sg69
(lp1456
S'::ffff:127.0.0.1'
p1457
asbasbasbag62
(g78
g64
NtRp1458
(dp1459
g67
(dp1460
sg76
g1415
sg69
(lp1461
g62
(g83
g64
NtRp1462
(dp1463
g67
(dp1464
sg76
g1458
sg69
(lp1465
g62
(g63
g64
NtRp1466
(dp1467
g67
(dp1468
g75
I3
ssg76
g1462
sg69
(lp1469
S'127.0.0.1'
p1470
asbasbasbag62
(g78
g64
NtRp1471
(dp1472
g67
(dp1473
sg76
g1415
sg69
(lp1474
g62
(g83
g64
NtRp1475
(dp1476
g67
(dp1477
sg76
g1471
sg69
(lp1478
g62
(g63
g64
NtRp1479
(dp1480
g67
(dp1481
g75
I3
ssg76
g1475
sg69
(lp1482
S'nazrul-Compaq-Presario-CQ40-Notebook-PC'
p1483
asbasbasbasbasbasbasbag62
(g78
g64
NtRp1484
(dp1485
g67
(dp1486
sg76
g1038
sg69
(lp1487
g62
(g83
g64
NtRp1488
(dp1489
g67
(dp1490
g87
g88
ssg76
g1484
sg69
(lp1491
S'path_info'
p1492
asbag62
(g83
g64
NtRp1493
(dp1494
g67
(dp1495
g94
g95
ssg76
g1484
sg69
(lp1496
S':'
asbag62
(g83
g64
NtRp1497
(dp1498
g67
(dp1499
sg76
g1484
sg69
(lp1500
g62
(g63
g64
NtRp1501
(dp1502
g67
(dp1503
g75
I4
ssg76
g1497
sg69
(lp1504
S'/WSD_Tool/default/rel'
p1505
asbasbasbag62
(g78
g64
NtRp1506
(dp1507
g67
(dp1508
sg76
g1038
sg69
(lp1509
g62
(g83
g64
NtRp1510
(dp1511
g67
(dp1512
g87
g88
ssg76
g1506
sg69
(lp1513
S'query_string'
p1514
asbag62
(g83
g64
NtRp1515
(dp1516
g67
(dp1517
g94
g95
ssg76
g1506
sg69
(lp1518
S':'
asbag62
(g83
g64
NtRp1519
(dp1520
g67
(dp1521
sg76
g1506
sg69
(lp1522
g62
(g63
g64
NtRp1523
(dp1524
g67
(dp1525
g75
I4
ssg76
g1519
sg69
(lp1526
S''
asbasbasbag62
(g78
g64
NtRp1527
(dp1528
g67
(dp1529
sg76
g1038
sg69
(lp1530
g62
(g83
g64
NtRp1531
(dp1532
g67
(dp1533
g87
g88
ssg76
g1527
sg69
(lp1534
S'remote_addr'
p1535
asbag62
(g83
g64
NtRp1536
(dp1537
g67
(dp1538
g94
g95
ssg76
g1527
sg69
(lp1539
S':'
asbag62
(g83
g64
NtRp1540
(dp1541
g67
(dp1542
sg76
g1527
sg69
(lp1543
g62
(g63
g64
NtRp1544
(dp1545
g67
(dp1546
g75
I4
ssg76
g1540
sg69
(lp1547
g217
asbasbasbag62
(g78
g64
NtRp1548
(dp1549
g67
(dp1550
sg76
g1038
sg69
(lp1551
g62
(g83
g64
NtRp1552
(dp1553
g67
(dp1554
g87
g88
ssg76
g1548
sg69
(lp1555
S'remote_port'
p1556
asbag62
(g83
g64
NtRp1557
(dp1558
g67
(dp1559
g94
g95
ssg76
g1548
sg69
(lp1560
S':'
asbag62
(g83
g64
NtRp1561
(dp1562
g67
(dp1563
sg76
g1548
sg69
(lp1564
g62
(g63
g64
NtRp1565
(dp1566
g67
(dp1567
g75
I4
ssg76
g1561
sg69
(lp1568
S'54832'
p1569
asbasbasbag62
(g78
g64
NtRp1570
(dp1571
g67
(dp1572
sg76
g1038
sg69
(lp1573
g62
(g83
g64
NtRp1574
(dp1575
g67
(dp1576
g87
g88
ssg76
g1570
sg69
(lp1577
S'request_method'
p1578
asbag62
(g83
g64
NtRp1579
(dp1580
g67
(dp1581
g94
g95
ssg76
g1570
sg69
(lp1582
S':'
asbag62
(g83
g64
NtRp1583
(dp1584
g67
(dp1585
sg76
g1570
sg69
(lp1586
g62
(g63
g64
NtRp1587
(dp1588
g67
(dp1589
g75
I4
ssg76
g1583
sg69
(lp1590
S'GET'
p1591
asbasbasbag62
(g78
g64
NtRp1592
(dp1593
g67
(dp1594
sg76
g1038
sg69
(lp1595
g62
(g83
g64
NtRp1596
(dp1597
g67
(dp1598
g87
g88
ssg76
g1592
sg69
(lp1599
S'request_uri'
p1600
asbag62
(g83
g64
NtRp1601
(dp1602
g67
(dp1603
g94
g95
ssg76
g1592
sg69
(lp1604
S':'
asbag62
(g83
g64
NtRp1605
(dp1606
g67
(dp1607
sg76
g1592
sg69
(lp1608
g62
(g63
g64
NtRp1609
(dp1610
g67
(dp1611
g75
I4
ssg76
g1605
sg69
(lp1612
g1505
asbasbasbag62
(g78
g64
NtRp1613
(dp1614
g67
(dp1615
sg76
g1038
sg69
(lp1616
g62
(g83
g64
NtRp1617
(dp1618
g67
(dp1619
g87
g88
ssg76
g1613
sg69
(lp1620
S'script_name'
p1621
asbag62
(g83
g64
NtRp1622
(dp1623
g67
(dp1624
g94
g95
ssg76
g1613
sg69
(lp1625
S':'
asbag62
(g83
g64
NtRp1626
(dp1627
g67
(dp1628
sg76
g1613
sg69
(lp1629
g62
(g63
g64
NtRp1630
(dp1631
g67
(dp1632
g75
I4
ssg76
g1626
sg69
(lp1633
S''
asbasbasbag62
(g78
g64
NtRp1634
(dp1635
g67
(dp1636
sg76
g1038
sg69
(lp1637
g62
(g83
g64
NtRp1638
(dp1639
g67
(dp1640
g87
g88
ssg76
g1634
sg69
(lp1641
S'server_name'
p1642
asbag62
(g83
g64
NtRp1643
(dp1644
g67
(dp1645
g94
g95
ssg76
g1634
sg69
(lp1646
S':'
asbag62
(g83
g64
NtRp1647
(dp1648
g67
(dp1649
sg76
g1634
sg69
(lp1650
g62
(g63
g64
NtRp1651
(dp1652
g67
(dp1653
g75
I4
ssg76
g1647
sg69
(lp1654
S'nazrul-Compaq-Presario-CQ40-Notebook-PC'
p1655
asbasbasbag62
(g78
g64
NtRp1656
(dp1657
g67
(dp1658
sg76
g1038
sg69
(lp1659
g62
(g83
g64
NtRp1660
(dp1661
g67
(dp1662
g87
g88
ssg76
g1656
sg69
(lp1663
S'server_port'
p1664
asbag62
(g83
g64
NtRp1665
(dp1666
g67
(dp1667
g94
g95
ssg76
g1656
sg69
(lp1668
S':'
asbag62
(g83
g64
NtRp1669
(dp1670
g67
(dp1671
sg76
g1656
sg69
(lp1672
g62
(g63
g64
NtRp1673
(dp1674
g67
(dp1675
g75
I4
ssg76
g1669
sg69
(lp1676
S'8000'
p1677
asbasbasbag62
(g78
g64
NtRp1678
(dp1679
g67
(dp1680
sg76
g1038
sg69
(lp1681
g62
(g83
g64
NtRp1682
(dp1683
g67
(dp1684
g87
g88
ssg76
g1678
sg69
(lp1685
S'server_protocol'
p1686
asbag62
(g83
g64
NtRp1687
(dp1688
g67
(dp1689
g94
g95
ssg76
g1678
sg69
(lp1690
S':'
asbag62
(g83
g64
NtRp1691
(dp1692
g67
(dp1693
sg76
g1678
sg69
(lp1694
g62
(g63
g64
NtRp1695
(dp1696
g67
(dp1697
g75
I4
ssg76
g1691
sg69
(lp1698
S'HTTP/1.1'
p1699
asbasbasbag62
(g78
g64
NtRp1700
(dp1701
g67
(dp1702
sg76
g1038
sg69
(lp1703
g62
(g83
g64
NtRp1704
(dp1705
g67
(dp1706
g87
g88
ssg76
g1700
sg69
(lp1707
S'server_software'
p1708
asbag62
(g83
g64
NtRp1709
(dp1710
g67
(dp1711
g94
g95
ssg76
g1700
sg69
(lp1712
S':'
asbag62
(g83
g64
NtRp1713
(dp1714
g67
(dp1715
sg76
g1700
sg69
(lp1716
g62
(g63
g64
NtRp1717
(dp1718
g67
(dp1719
g75
I4
ssg76
g1713
sg69
(lp1720
S'Rocket 1.2.6'
p1721
asbasbasbag62
(g78
g64
NtRp1722
(dp1723
g67
(dp1724
sg76
g1038
sg69
(lp1725
g62
(g83
g64
NtRp1726
(dp1727
g67
(dp1728
g87
g88
ssg76
g1722
sg69
(lp1729
S'web2py_path'
p1730
asbag62
(g83
g64
NtRp1731
(dp1732
g67
(dp1733
g94
g95
ssg76
g1722
sg69
(lp1734
S':'
asbag62
(g83
g64
NtRp1735
(dp1736
g67
(dp1737
sg76
g1722
sg69
(lp1738
g62
(g63
g64
NtRp1739
(dp1740
g67
(dp1741
g75
I4
ssg76
g1735
sg69
(lp1742
g1085
asbasbasbag62
(g78
g64
NtRp1743
(dp1744
g67
(dp1745
sg76
g1038
sg69
(lp1746
g62
(g83
g64
NtRp1747
(dp1748
g67
(dp1749
g87
g88
ssg76
g1743
sg69
(lp1750
S'web2py_version'
p1751
asbag62
(g83
g64
NtRp1752
(dp1753
g67
(dp1754
g94
g95
ssg76
g1743
sg69
(lp1755
S':'
asbag62
(g83
g64
NtRp1756
(dp1757
g67
(dp1758
sg76
g1743
sg69
(lp1759
g62
(g63
g64
NtRp1760
(dp1761
g67
(dp1762
g75
I4
ssg76
g1756
sg69
(lp1763
g62
(g71
g64
NtRp1764
(dp1765
g67
(dp1766
g75
I3
ssg76
Nsg69
(lp1767
g62
(g78
g64
NtRp1768
(dp1769
g67
(dp1770
sg76
g1764
sg69
(lp1771
g62
(g83
g64
NtRp1772
(dp1773
g67
(dp1774
sg76
g1768
sg69
(lp1775
g62
(g63
g64
NtRp1776
(dp1777
g67
(dp1778
g75
I3
ssg76
g1772
sg69
(lp1779
S'2'
asbasbasbag62
(g78
g64
NtRp1780
(dp1781
g67
(dp1782
sg76
g1764
sg69
(lp1783
g62
(g83
g64
NtRp1784
(dp1785
g67
(dp1786
sg76
g1780
sg69
(lp1787
g62
(g63
g64
NtRp1788
(dp1789
g67
(dp1790
g75
I3
ssg76
g1784
sg69
(lp1791
S'3'
asbasbasbag62
(g78
g64
NtRp1792
(dp1793
g67
(dp1794
sg76
g1764
sg69
(lp1795
g62
(g83
g64
NtRp1796
(dp1797
g67
(dp1798
sg76
g1792
sg69
(lp1799
g62
(g63
g64
NtRp1800
(dp1801
g67
(dp1802
g75
I3
ssg76
g1796
sg69
(lp1803
S'2'
asbasbasbag62
(g78
g64
NtRp1804
(dp1805
g67
(dp1806
sg76
g1764
sg69
(lp1807
g62
(g83
g64
NtRp1808
(dp1809
g67
(dp1810
sg76
g1804
sg69
(lp1811
g62
(g63
g64
NtRp1812
(dp1813
g67
(dp1814
g75
I3
ssg76
g1808
sg69
(lp1815
S'datetime.datetime(2012, 12, 17, 15, 3, 30)'
p1816
asbasbasbag62
(g78
g64
NtRp1817
(dp1818
g67
(dp1819
sg76
g1764
sg69
(lp1820
g62
(g83
g64
NtRp1821
(dp1822
g67
(dp1823
sg76
g1817
sg69
(lp1824
g62
(g63
g64
NtRp1825
(dp1826
g67
(dp1827
g75
I3
ssg76
g1821
sg69
(lp1828
S'stable'
p1829
asbasbasbasbasbasbasbag62
(g78
g64
NtRp1830
(dp1831
g67
(dp1832
sg76
g1038
sg69
(lp1833
g62
(g83
g64
NtRp1834
(dp1835
g67
(dp1836
g87
g88
ssg76
g1830
sg69
(lp1837
S'wsgi_errors'
p1838
asbag62
(g83
g64
NtRp1839
(dp1840
g67
(dp1841
g94
g95
ssg76
g1830
sg69
(lp1842
S':'
asbag62
(g83
g64
NtRp1843
(dp1844
g67
(dp1845
sg76
g1830
sg69
(lp1846
g62
(g63
g64
NtRp1847
(dp1848
g67
(dp1849
g75
I4
ssg76
g1843
sg69
(lp1850
S"<open file '<stderr>', mode 'w' at 0xb72a80d0>"
p1851
asbasbasbag62
(g78
g64
NtRp1852
(dp1853
g67
(dp1854
sg76
g1038
sg69
(lp1855
g62
(g83
g64
NtRp1856
(dp1857
g67
(dp1858
g87
g88
ssg76
g1852
sg69
(lp1859
S'wsgi_file_wrapper'
p1860
asbag62
(g83
g64
NtRp1861
(dp1862
g67
(dp1863
g94
g95
ssg76
g1852
sg69
(lp1864
S':'
asbag62
(g83
g64
NtRp1865
(dp1866
g67
(dp1867
sg76
g1852
sg69
(lp1868
g62
(g63
g64
NtRp1869
(dp1870
g67
(dp1871
g75
I4
ssg76
g1865
sg69
(lp1872
S'<class wsgiref.util.FileWrapper at 0xa40147c>'
p1873
asbasbasbag62
(g78
g64
NtRp1874
(dp1875
g67
(dp1876
sg76
g1038
sg69
(lp1877
g62
(g83
g64
NtRp1878
(dp1879
g67
(dp1880
g87
g88
ssg76
g1874
sg69
(lp1881
S'wsgi_input'
p1882
asbag62
(g83
g64
NtRp1883
(dp1884
g67
(dp1885
g94
g95
ssg76
g1874
sg69
(lp1886
S':'
asbag62
(g83
g64
NtRp1887
(dp1888
g67
(dp1889
sg76
g1874
sg69
(lp1890
g62
(g63
g64
NtRp1891
(dp1892
g67
(dp1893
g75
I4
ssg76
g1887
sg69
(lp1894
S'<socket._fileobject object at 0xa98f3ac>'
p1895
asbasbasbag62
(g78
g64
NtRp1896
(dp1897
g67
(dp1898
sg76
g1038
sg69
(lp1899
g62
(g83
g64
NtRp1900
(dp1901
g67
(dp1902
g87
g88
ssg76
g1896
sg69
(lp1903
S'wsgi_multiprocess'
p1904
asbag62
(g83
g64
NtRp1905
(dp1906
g67
(dp1907
g94
g95
ssg76
g1896
sg69
(lp1908
S':'
asbag62
(g83
g64
NtRp1909
(dp1910
g67
(dp1911
sg76
g1896
sg69
(lp1912
g62
(g63
g64
NtRp1913
(dp1914
g67
(dp1915
g75
I4
ssg76
g1909
sg69
(lp1916
g105
asbasbasbag62
(g78
g64
NtRp1917
(dp1918
g67
(dp1919
sg76
g1038
sg69
(lp1920
g62
(g83
g64
NtRp1921
(dp1922
g67
(dp1923
g87
g88
ssg76
g1917
sg69
(lp1924
S'wsgi_multithread'
p1925
asbag62
(g83
g64
NtRp1926
(dp1927
g67
(dp1928
g94
g95
ssg76
g1917
sg69
(lp1929
S':'
asbag62
(g83
g64
NtRp1930
(dp1931
g67
(dp1932
sg76
g1917
sg69
(lp1933
g62
(g63
g64
NtRp1934
(dp1935
g67
(dp1936
g75
I4
ssg76
g1930
sg69
(lp1937
S'True'
p1938
asbasbasbag62
(g78
g64
NtRp1939
(dp1940
g67
(dp1941
sg76
g1038
sg69
(lp1942
g62
(g83
g64
NtRp1943
(dp1944
g67
(dp1945
g87
g88
ssg76
g1939
sg69
(lp1946
S'wsgi_run_once'
p1947
asbag62
(g83
g64
NtRp1948
(dp1949
g67
(dp1950
g94
g95
ssg76
g1939
sg69
(lp1951
S':'
asbag62
(g83
g64
NtRp1952
(dp1953
g67
(dp1954
sg76
g1939
sg69
(lp1955
g62
(g63
g64
NtRp1956
(dp1957
g67
(dp1958
g75
I4
ssg76
g1952
sg69
(lp1959
g105
asbasbasbag62
(g78
g64
NtRp1960
(dp1961
g67
(dp1962
sg76
g1038
sg69
(lp1963
g62
(g83
g64
NtRp1964
(dp1965
g67
(dp1966
g87
g88
ssg76
g1960
sg69
(lp1967
S'wsgi_url_scheme'
p1968
asbag62
(g83
g64
NtRp1969
(dp1970
g67
(dp1971
g94
g95
ssg76
g1960
sg69
(lp1972
S':'
asbag62
(g83
g64
NtRp1973
(dp1974
g67
(dp1975
sg76
g1960
sg69
(lp1976
g62
(g63
g64
NtRp1977
(dp1978
g67
(dp1979
g75
I4
ssg76
g1973
sg69
(lp1980
S'http'
p1981
asbasbasbag62
(g78
g64
NtRp1982
(dp1983
g67
(dp1984
sg76
g1038
sg69
(lp1985
g62
(g83
g64
NtRp1986
(dp1987
g67
(dp1988
g87
g88
ssg76
g1982
sg69
(lp1989
S'wsgi_version'
p1990
asbag62
(g83
g64
NtRp1991
(dp1992
g67
(dp1993
g94
g95
ssg76
g1982
sg69
(lp1994
S':'
asbag62
(g83
g64
NtRp1995
(dp1996
g67
(dp1997
sg76
g1982
sg69
(lp1998
g62
(g63
g64
NtRp1999
(dp2000
g67
(dp2001
g75
I4
ssg76
g1995
sg69
(lp2002
g62
(g71
g64
NtRp2003
(dp2004
g67
(dp2005
g75
I3
ssg76
Nsg69
(lp2006
g62
(g78
g64
NtRp2007
(dp2008
g67
(dp2009
sg76
g2003
sg69
(lp2010
g62
(g83
g64
NtRp2011
(dp2012
g67
(dp2013
sg76
g2007
sg69
(lp2014
g62
(g63
g64
NtRp2015
(dp2016
g67
(dp2017
g75
I3
ssg76
g2011
sg69
(lp2018
S'1'
asbasbasbag62
(g78
g64
NtRp2019
(dp2020
g67
(dp2021
sg76
g2003
sg69
(lp2022
g62
(g83
g64
NtRp2023
(dp2024
g67
(dp2025
sg76
g2019
sg69
(lp2026
g62
(g63
g64
NtRp2027
(dp2028
g67
(dp2029
g75
I3
ssg76
g2023
sg69
(lp2030
S'0'
asbasbasbasbasbasbasbasbasbasbasbag62
(g78
g64
NtRp2031
(dp2032
g67
(dp2033
sg76
g72
sg69
(lp2034
g62
(g83
g64
NtRp2035
(dp2036
g67
(dp2037
g87
g88
ssg76
g2031
sg69
(lp2038
S'extension'
p2039
asbag62
(g83
g64
NtRp2040
(dp2041
g67
(dp2042
g94
g95
ssg76
g2031
sg69
(lp2043
S':'
asbag62
(g83
g64
NtRp2044
(dp2045
g67
(dp2046
sg76
g2031
sg69
(lp2047
g62
(g63
g64
NtRp2048
(dp2049
g67
(dp2050
g75
I5
ssg76
g2044
sg69
(lp2051
S'html'
p2052
asbasbasbag62
(g78
g64
NtRp2053
(dp2054
g67
(dp2055
sg76
g72
sg69
(lp2056
g62
(g83
g64
NtRp2057
(dp2058
g67
(dp2059
g87
g88
ssg76
g2053
sg69
(lp2060
S'folder'
p2061
asbag62
(g83
g64
NtRp2062
(dp2063
g67
(dp2064
g94
g95
ssg76
g2053
sg69
(lp2065
S':'
asbag62
(g83
g64
NtRp2066
(dp2067
g67
(dp2068
sg76
g2053
sg69
(lp2069
g62
(g63
g64
NtRp2070
(dp2071
g67
(dp2072
g75
I5
ssg76
g2066
sg69
(lp2073
S'/home/nazrul/web2py/applications/WSD_Tool/'
p2074
asbasbasbag62
(g78
g64
NtRp2075
(dp2076
g67
(dp2077
sg76
g72
sg69
(lp2078
g62
(g83
g64
NtRp2079
(dp2080
g67
(dp2081
g87
g88
ssg76
g2075
sg69
(lp2082
S'function'
p2083
asbag62
(g83
g64
NtRp2084
(dp2085
g67
(dp2086
g94
g95
ssg76
g2075
sg69
(lp2087
S':'
asbag62
(g83
g64
NtRp2088
(dp2089
g67
(dp2090
sg76
g2075
sg69
(lp2091
g62
(g63
g64
NtRp2092
(dp2093
g67
(dp2094
g75
I5
ssg76
g2088
sg69
(lp2095
S'rel'
p2096
asbasbasbag62
(g78
g64
NtRp2097
(dp2098
g67
(dp2099
sg76
g72
sg69
(lp2100
g62
(g83
g64
NtRp2101
(dp2102
g67
(dp2103
g87
g88
ssg76
g2097
sg69
(lp2104
S'get_vars'
p2105
asbag62
(g83
g64
NtRp2106
(dp2107
g67
(dp2108
g94
g95
ssg76
g2097
sg69
(lp2109
S':'
asbag62
(g83
g64
NtRp2110
(dp2111
g67
(dp2112
sg76
g2097
sg69
(lp2113
g62
(g63
g64
NtRp2114
(dp2115
g67
(dp2116
g75
I5
ssg76
g2110
sg69
(lp2117
g62
(g71
g64
NtRp2118
(dp2119
g67
(dp2120
g75
I4
ssg76
Nsg69
(lp2121
sbasbasbasbag62
(g78
g64
NtRp2122
(dp2123
g67
(dp2124
sg76
g72
sg69
(lp2125
g62
(g83
g64
NtRp2126
(dp2127
g67
(dp2128
g87
g88
ssg76
g2122
sg69
(lp2129
S'global_settings'
p2130
asbag62
(g83
g64
NtRp2131
(dp2132
g67
(dp2133
g94
g95
ssg76
g2122
sg69
(lp2134
S':'
asbag62
(g83
g64
NtRp2135
(dp2136
g67
(dp2137
sg76
g2122
sg69
(lp2138
g62
(g63
g64
NtRp2139
(dp2140
g67
(dp2141
g75
I5
ssg76
g2135
sg69
(lp2142
g62
(g71
g64
NtRp2143
(dp2144
g67
(dp2145
g75
I4
ssg76
Nsg69
(lp2146
g62
(g78
g64
NtRp2147
(dp2148
g67
(dp2149
sg76
g2143
sg69
(lp2150
g62
(g83
g64
NtRp2151
(dp2152
g67
(dp2153
g87
g88
ssg76
g2147
sg69
(lp2154
g1050
asbag62
(g83
g64
NtRp2155
(dp2156
g67
(dp2157
g94
g95
ssg76
g2147
sg69
(lp2158
S':'
asbag62
(g83
g64
NtRp2159
(dp2160
g67
(dp2161
sg76
g2147
sg69
(lp2162
g62
(g63
g64
NtRp2163
(dp2164
g67
(dp2165
g75
I4
ssg76
g2159
sg69
(lp2166
S"set(['/home/nazrul/web2py/applications/welcome/', '/home/nazrul/web2py/applications/WSD_Tool/', '/home/nazrul/web2py/applications/admin/'])"
p2167
asbasbasbag62
(g78
g64
NtRp2168
(dp2169
g67
(dp2170
sg76
g2143
sg69
(lp2171
g62
(g83
g64
NtRp2172
(dp2173
g67
(dp2174
g87
g88
ssg76
g2168
sg69
(lp2175
g1072
asbag62
(g83
g64
NtRp2176
(dp2177
g67
(dp2178
g94
g95
ssg76
g2168
sg69
(lp2179
S':'
asbag62
(g83
g64
NtRp2180
(dp2181
g67
(dp2182
sg76
g2168
sg69
(lp2183
g62
(g63
g64
NtRp2184
(dp2185
g67
(dp2186
g75
I4
ssg76
g2180
sg69
(lp2187
g1085
asbasbasbag62
(g78
g64
NtRp2188
(dp2189
g67
(dp2190
sg76
g2143
sg69
(lp2191
g62
(g83
g64
NtRp2192
(dp2193
g67
(dp2194
g87
g88
ssg76
g2188
sg69
(lp2195
g1094
asbag62
(g83
g64
NtRp2196
(dp2197
g67
(dp2198
g94
g95
ssg76
g2188
sg69
(lp2199
S':'
asbag62
(g83
g64
NtRp2200
(dp2201
g67
(dp2202
sg76
g2188
sg69
(lp2203
g62
(g63
g64
NtRp2204
(dp2205
g67
(dp2206
g75
I4
ssg76
g2200
sg69
(lp2207
g62
(g71
g64
NtRp2208
(dp2209
g67
(dp2210
g75
I3
ssg76
Nsg69
(lp2211
sbasbasbasbag62
(g78
g64
NtRp2212
(dp2213
g67
(dp2214
sg76
g2143
sg69
(lp2215
g62
(g83
g64
NtRp2216
(dp2217
g67
(dp2218
g87
g88
ssg76
g2212
sg69
(lp2219
g1119
asbag62
(g83
g64
NtRp2220
(dp2221
g67
(dp2222
g94
g95
ssg76
g2212
sg69
(lp2223
S':'
asbag62
(g83
g64
NtRp2224
(dp2225
g67
(dp2226
sg76
g2212
sg69
(lp2227
g62
(g63
g64
NtRp2228
(dp2229
g67
(dp2230
g75
I4
ssg76
g2224
sg69
(lp2231
S"<Values at 0xa44192c: {'verbose': False, 'ip': '127.0.0.1', 'with_scheduler': False, 'ips': [], 'shutdown_timeout': 5, 'taskbar': False, 'port': 8000, 'maxthreads': None, 'softcron': False, 'server_name': 'nazrul-Compaq-Presario-CQ40-Notebook-PC', 'bpython': False, 'nogui': False, 'pid_filename': 'httpserver.pid', 'extcron': False, 'runcron': False, 'run_system_tests': False, 'test': None, 'folder': '/home/nazrul/web2py', 'config': '', 'import_models': False, 'winservice': '', 'shell': None, 'run': '', 'log_filename': 'httpserver.log', 'debuglevel': 30, 'args': [''], 'socket_timeout': 5, 'ssl_ca_certificate': None, 'scheduler': None, 'profiler_filename': None, 'ssl_private_key': '', 'scheduler_groups': None, 'password': '<ask>', 'request_queue_size': 5, 'ssl_certificate': '', 'cronjob': False, 'numthreads': None, 'quiet': False, 'interfaces': None, 'minthreads': None, 'timeout': 10, 'plain': False, 'nobanner': False}>"
p2232
asbasbasbag62
(g78
g64
NtRp2233
(dp2234
g67
(dp2235
sg76
g2143
sg69
(lp2236
g62
(g83
g64
NtRp2237
(dp2238
g67
(dp2239
g87
g88
ssg76
g2233
sg69
(lp2240
g1141
asbag62
(g83
g64
NtRp2241
(dp2242
g67
(dp2243
g94
g95
ssg76
g2233
sg69
(lp2244
S':'
asbag62
(g83
g64
NtRp2245
(dp2246
g67
(dp2247
sg76
g2233
sg69
(lp2248
g62
(g63
g64
NtRp2249
(dp2250
g67
(dp2251
g75
I4
ssg76
g2245
sg69
(lp2252
S'set([])'
p2253
asbasbasbag62
(g78
g64
NtRp2254
(dp2255
g67
(dp2256
sg76
g2143
sg69
(lp2257
g62
(g83
g64
NtRp2258
(dp2259
g67
(dp2260
g87
g88
ssg76
g2254
sg69
(lp2261
g1163
asbag62
(g83
g64
NtRp2262
(dp2263
g67
(dp2264
g94
g95
ssg76
g2254
sg69
(lp2265
S':'
asbag62
(g83
g64
NtRp2266
(dp2267
g67
(dp2268
sg76
g2254
sg69
(lp2269
g62
(g63
g64
NtRp2270
(dp2271
g67
(dp2272
g75
I4
ssg76
g2266
sg69
(lp2273
g105
asbasbasbag62
(g78
g64
NtRp2274
(dp2275
g67
(dp2276
sg76
g2143
sg69
(lp2277
g62
(g83
g64
NtRp2278
(dp2279
g67
(dp2280
g87
g88
ssg76
g2274
sg69
(lp2281
g1184
asbag62
(g83
g64
NtRp2282
(dp2283
g67
(dp2284
g94
g95
ssg76
g2274
sg69
(lp2285
S':'
asbag62
(g83
g64
NtRp2286
(dp2287
g67
(dp2288
sg76
g2274
sg69
(lp2289
g62
(g63
g64
NtRp2290
(dp2291
g67
(dp2292
g75
I4
ssg76
g2286
sg69
(lp2293
g1197
asbasbasbag62
(g78
g64
NtRp2294
(dp2295
g67
(dp2296
sg76
g2143
sg69
(lp2297
g62
(g83
g64
NtRp2298
(dp2299
g67
(dp2300
g87
g88
ssg76
g2294
sg69
(lp2301
g1360
asbag62
(g83
g64
NtRp2302
(dp2303
g67
(dp2304
g94
g95
ssg76
g2294
sg69
(lp2305
S':'
asbag62
(g83
g64
NtRp2306
(dp2307
g67
(dp2308
sg76
g2294
sg69
(lp2309
g62
(g63
g64
NtRp2310
(dp2311
g67
(dp2312
g75
I4
ssg76
g2306
sg69
(lp2313
g105
asbasbasbag62
(g78
g64
NtRp2314
(dp2315
g67
(dp2316
sg76
g2143
sg69
(lp2317
g62
(g83
g64
NtRp2318
(dp2319
g67
(dp2320
g87
g88
ssg76
g2314
sg69
(lp2321
g1381
asbag62
(g83
g64
NtRp2322
(dp2323
g67
(dp2324
g94
g95
ssg76
g2314
sg69
(lp2325
S':'
asbag62
(g83
g64
NtRp2326
(dp2327
g67
(dp2328
sg76
g2314
sg69
(lp2329
g62
(g63
g64
NtRp2330
(dp2331
g67
(dp2332
g75
I4
ssg76
g2326
sg69
(lp2333
g105
asbasbasbag62
(g78
g64
NtRp2334
(dp2335
g67
(dp2336
sg76
g2143
sg69
(lp2337
g62
(g83
g64
NtRp2338
(dp2339
g67
(dp2340
g87
g88
ssg76
g2334
sg69
(lp2341
g1402
asbag62
(g83
g64
NtRp2342
(dp2343
g67
(dp2344
g94
g95
ssg76
g2334
sg69
(lp2345
S':'
asbag62
(g83
g64
NtRp2346
(dp2347
g67
(dp2348
sg76
g2334
sg69
(lp2349
g62
(g63
g64
NtRp2350
(dp2351
g67
(dp2352
g75
I4
ssg76
g2346
sg69
(lp2353
g62
(g71
g64
NtRp2354
(dp2355
g67
(dp2356
g75
I3
ssg76
Nsg69
(lp2357
g62
(g78
g64
NtRp2358
(dp2359
g67
(dp2360
sg76
g2354
sg69
(lp2361
g62
(g83
g64
NtRp2362
(dp2363
g67
(dp2364
sg76
g2358
sg69
(lp2365
g62
(g63
g64
NtRp2366
(dp2367
g67
(dp2368
g75
I3
ssg76
g2362
sg69
(lp2369
g1431
asbasbasbag62
(g78
g64
NtRp2370
(dp2371
g67
(dp2372
sg76
g2354
sg69
(lp2373
g62
(g83
g64
NtRp2374
(dp2375
g67
(dp2376
sg76
g2370
sg69
(lp2377
g62
(g63
g64
NtRp2378
(dp2379
g67
(dp2380
g75
I3
ssg76
g2374
sg69
(lp2381
g1444
asbasbasbag62
(g78
g64
NtRp2382
(dp2383
g67
(dp2384
sg76
g2354
sg69
(lp2385
g62
(g83
g64
NtRp2386
(dp2387
g67
(dp2388
sg76
g2382
sg69
(lp2389
g62
(g63
g64
NtRp2390
(dp2391
g67
(dp2392
g75
I3
ssg76
g2386
sg69
(lp2393
g1457
asbasbasbag62
(g78
g64
NtRp2394
(dp2395
g67
(dp2396
sg76
g2354
sg69
(lp2397
g62
(g83
g64
NtRp2398
(dp2399
g67
(dp2400
sg76
g2394
sg69
(lp2401
g62
(g63
g64
NtRp2402
(dp2403
g67
(dp2404
g75
I3
ssg76
g2398
sg69
(lp2405
g1470
asbasbasbag62
(g78
g64
NtRp2406
(dp2407
g67
(dp2408
sg76
g2354
sg69
(lp2409
g62
(g83
g64
NtRp2410
(dp2411
g67
(dp2412
sg76
g2406
sg69
(lp2413
g62
(g63
g64
NtRp2414
(dp2415
g67
(dp2416
g75
I3
ssg76
g2410
sg69
(lp2417
g1483
asbasbasbasbasbasbasbag62
(g78
g64
NtRp2418
(dp2419
g67
(dp2420
sg76
g2143
sg69
(lp2421
g62
(g83
g64
NtRp2422
(dp2423
g67
(dp2424
g87
g88
ssg76
g2418
sg69
(lp2425
g1751
asbag62
(g83
g64
NtRp2426
(dp2427
g67
(dp2428
g94
g95
ssg76
g2418
sg69
(lp2429
S':'
asbag62
(g83
g64
NtRp2430
(dp2431
g67
(dp2432
sg76
g2418
sg69
(lp2433
g62
(g63
g64
NtRp2434
(dp2435
g67
(dp2436
g75
I4
ssg76
g2430
sg69
(lp2437
g62
(g71
g64
NtRp2438
(dp2439
g67
(dp2440
g75
I3
ssg76
Nsg69
(lp2441
g62
(g78
g64
NtRp2442
(dp2443
g67
(dp2444
sg76
g2438
sg69
(lp2445
g62
(g83
g64
NtRp2446
(dp2447
g67
(dp2448
sg76
g2442
sg69
(lp2449
g62
(g63
g64
NtRp2450
(dp2451
g67
(dp2452
g75
I3
ssg76
g2446
sg69
(lp2453
S'2'
asbasbasbag62
(g78
g64
NtRp2454
(dp2455
g67
(dp2456
sg76
g2438
sg69
(lp2457
g62
(g83
g64
NtRp2458
(dp2459
g67
(dp2460
sg76
g2454
sg69
(lp2461
g62
(g63
g64
NtRp2462
(dp2463
g67
(dp2464
g75
I3
ssg76
g2458
sg69
(lp2465
S'3'
asbasbasbag62
(g78
g64
NtRp2466
(dp2467
g67
(dp2468
sg76
g2438
sg69
(lp2469
g62
(g83
g64
NtRp2470
(dp2471
g67
(dp2472
sg76
g2466
sg69
(lp2473
g62
(g63
g64
NtRp2474
(dp2475
g67
(dp2476
g75
I3
ssg76
g2470
sg69
(lp2477
S'2'
asbasbasbag62
(g78
g64
NtRp2478
(dp2479
g67
(dp2480
sg76
g2438
sg69
(lp2481
g62
(g83
g64
NtRp2482
(dp2483
g67
(dp2484
sg76
g2478
sg69
(lp2485
g62
(g63
g64
NtRp2486
(dp2487
g67
(dp2488
g75
I3
ssg76
g2482
sg69
(lp2489
S'datetime.datetime(2012, 12, 17, 15, 3, 30)'
p2490
asbasbasbag62
(g78
g64
NtRp2491
(dp2492
g67
(dp2493
sg76
g2438
sg69
(lp2494
g62
(g83
g64
NtRp2495
(dp2496
g67
(dp2497
sg76
g2491
sg69
(lp2498
g62
(g63
g64
NtRp2499
(dp2500
g67
(dp2501
g75
I3
ssg76
g2495
sg69
(lp2502
g1829
asbasbasbasbasbasbasbasbasbasbasbag62
(g78
g64
NtRp2503
(dp2504
g67
(dp2505
sg76
g72
sg69
(lp2506
g62
(g83
g64
NtRp2507
(dp2508
g67
(dp2509
g87
g88
ssg76
g2503
sg69
(lp2510
S'is_https'
p2511
asbag62
(g83
g64
NtRp2512
(dp2513
g67
(dp2514
g94
g95
ssg76
g2503
sg69
(lp2515
S':'
asbag62
(g83
g64
NtRp2516
(dp2517
g67
(dp2518
sg76
g2503
sg69
(lp2519
g62
(g63
g64
NtRp2520
(dp2521
g67
(dp2522
g75
I5
ssg76
g2516
sg69
(lp2523
g105
asbasbasbag62
(g78
g64
NtRp2524
(dp2525
g67
(dp2526
sg76
g72
sg69
(lp2527
g62
(g83
g64
NtRp2528
(dp2529
g67
(dp2530
g87
g88
ssg76
g2524
sg69
(lp2531
S'is_local'
p2532
asbag62
(g83
g64
NtRp2533
(dp2534
g67
(dp2535
g94
g95
ssg76
g2524
sg69
(lp2536
S':'
asbag62
(g83
g64
NtRp2537
(dp2538
g67
(dp2539
sg76
g2524
sg69
(lp2540
g62
(g63
g64
NtRp2541
(dp2542
g67
(dp2543
g75
I5
ssg76
g2537
sg69
(lp2544
g1938
asbasbasbag62
(g78
g64
NtRp2545
(dp2546
g67
(dp2547
sg76
g72
sg69
(lp2548
g62
(g83
g64
NtRp2549
(dp2550
g67
(dp2551
g87
g88
ssg76
g2545
sg69
(lp2552
S'is_restful'
p2553
asbag62
(g83
g64
NtRp2554
(dp2555
g67
(dp2556
g94
g95
ssg76
g2545
sg69
(lp2557
S':'
asbag62
(g83
g64
NtRp2558
(dp2559
g67
(dp2560
sg76
g2545
sg69
(lp2561
g62
(g63
g64
NtRp2562
(dp2563
g67
(dp2564
g75
I5
ssg76
g2558
sg69
(lp2565
g105
asbasbasbag62
(g78
g64
NtRp2566
(dp2567
g67
(dp2568
sg76
g72
sg69
(lp2569
g62
(g83
g64
NtRp2570
(dp2571
g67
(dp2572
g87
g88
ssg76
g2566
sg69
(lp2573
S'now'
p2574
asbag62
(g83
g64
NtRp2575
(dp2576
g67
(dp2577
g94
g95
ssg76
g2566
sg69
(lp2578
S':'
asbag62
(g83
g64
NtRp2579
(dp2580
g67
(dp2581
sg76
g2566
sg69
(lp2582
g62
(g63
g64
NtRp2583
(dp2584
g67
(dp2585
g75
I5
ssg76
g2579
sg69
(lp2586
S'datetime.datetime(2013, 11, 9, 16, 55, 24, 296986)'
p2587
asbasbasbag62
(g78
g64
NtRp2588
(dp2589
g67
(dp2590
sg76
g72
sg69
(lp2591
g62
(g83
g64
NtRp2592
(dp2593
g67
(dp2594
g87
g88
ssg76
g2588
sg69
(lp2595
S'post_vars'
p2596
asbag62
(g83
g64
NtRp2597
(dp2598
g67
(dp2599
g94
g95
ssg76
g2588
sg69
(lp2600
S':'
asbag62
(g83
g64
NtRp2601
(dp2602
g67
(dp2603
sg76
g2588
sg69
(lp2604
g62
(g63
g64
NtRp2605
(dp2606
g67
(dp2607
g75
I5
ssg76
g2601
sg69
(lp2608
g62
(g71
g64
NtRp2609
(dp2610
g67
(dp2611
g75
I4
ssg76
Nsg69
(lp2612
sbasbasbasbag62
(g78
g64
NtRp2613
(dp2614
g67
(dp2615
sg76
g72
sg69
(lp2616
g62
(g83
g64
NtRp2617
(dp2618
g67
(dp2619
g87
g88
ssg76
g2613
sg69
(lp2620
S'raw_args'
p2621
asbag62
(g83
g64
NtRp2622
(dp2623
g67
(dp2624
g94
g95
ssg76
g2613
sg69
(lp2625
S':'
asbag62
(g83
g64
NtRp2626
(dp2627
g67
(dp2628
sg76
g2613
sg69
(lp2629
g62
(g63
g64
NtRp2630
(dp2631
g67
(dp2632
g75
I5
ssg76
g2626
sg69
(lp2633
S''
asbasbasbag62
(g78
g64
NtRp2634
(dp2635
g67
(dp2636
sg76
g72
sg69
(lp2637
g62
(g83
g64
NtRp2638
(dp2639
g67
(dp2640
g87
g88
ssg76
g2634
sg69
(lp2641
S'raw_extension'
p2642
asbag62
(g83
g64
NtRp2643
(dp2644
g67
(dp2645
g94
g95
ssg76
g2634
sg69
(lp2646
S':'
asbag62
(g83
g64
NtRp2647
(dp2648
g67
(dp2649
sg76
g2634
sg69
(lp2650
g62
(g63
g64
NtRp2651
(dp2652
g67
(dp2653
g75
I5
ssg76
g2647
sg69
(lp2654
S'None'
p2655
asbasbasbag62
(g78
g64
NtRp2656
(dp2657
g67
(dp2658
sg76
g72
sg69
(lp2659
g62
(g83
g64
NtRp2660
(dp2661
g67
(dp2662
g87
g88
ssg76
g2656
sg69
(lp2663
S'url'
p2664
asbag62
(g83
g64
NtRp2665
(dp2666
g67
(dp2667
g94
g95
ssg76
g2656
sg69
(lp2668
S':'
asbag62
(g83
g64
NtRp2669
(dp2670
g67
(dp2671
sg76
g2656
sg69
(lp2672
g62
(g63
g64
NtRp2673
(dp2674
g67
(dp2675
g75
I5
ssg76
g2669
sg69
(lp2676
g1505
asbasbasbag62
(g78
g64
NtRp2677
(dp2678
g67
(dp2679
sg76
g72
sg69
(lp2680
g62
(g83
g64
NtRp2681
(dp2682
g67
(dp2683
g87
g88
ssg76
g2677
sg69
(lp2684
S'utcnow'
p2685
asbag62
(g83
g64
NtRp2686
(dp2687
g67
(dp2688
g94
g95
ssg76
g2677
sg69
(lp2689
S':'
asbag62
(g83
g64
NtRp2690
(dp2691
g67
(dp2692
sg76
g2677
sg69
(lp2693
g62
(g63
g64
NtRp2694
(dp2695
g67
(dp2696
g75
I5
ssg76
g2690
sg69
(lp2697
S'datetime.datetime(2013, 11, 9, 11, 25, 24, 297026)'
p2698
asbasbasbag62
(g78
g64
NtRp2699
(dp2700
g67
(dp2701
sg76
g72
sg69
(lp2702
g62
(g83
g64
NtRp2703
(dp2704
g67
(dp2705
g87
g88
ssg76
g2699
sg69
(lp2706
S'uuid'
p2707
asbag62
(g83
g64
NtRp2708
(dp2709
g67
(dp2710
g94
g95
ssg76
g2699
sg69
(lp2711
S':'
asbag62
(g83
g64
NtRp2712
(dp2713
g67
(dp2714
sg76
g2699
sg69
(lp2715
g62
(g63
g64
NtRp2716
(dp2717
g67
(dp2718
g75
I5
ssg76
g2712
sg69
(lp2719
S'WSD_Tool/127.0.0.1.2013-11-09.16-55-24.3c4a3359-3c9e-43ba-ade2-3d73a848b4dd'
p2720
asbasbasbag62
(g78
g64
NtRp2721
(dp2722
g67
(dp2723
sg76
g72
sg69
(lp2724
g62
(g83
g64
NtRp2725
(dp2726
g67
(dp2727
g87
g88
ssg76
g2721
sg69
(lp2728
S'vars'
p2729
asbag62
(g83
g64
NtRp2730
(dp2731
g67
(dp2732
g94
g95
ssg76
g2721
sg69
(lp2733
S':'
asbag62
(g83
g64
NtRp2734
(dp2735
g67
(dp2736
sg76
g2721
sg69
(lp2737
g62
(g63
g64
NtRp2738
(dp2739
g67
(dp2740
g75
I5
ssg76
g2734
sg69
(lp2741
g62
(g71
g64
NtRp2742
(dp2743
g67
(dp2744
g75
I4
ssg76
Nsg69
(lp2745
sbasbasbasbag62
(g78
g64
NtRp2746
(dp2747
g67
(dp2748
sg76
g72
sg69
(lp2749
g62
(g83
g64
NtRp2750
(dp2751
g67
(dp2752
g87
g88
ssg76
g2746
sg69
(lp2753
S'wsgi'
p2754
asbag62
(g83
g64
NtRp2755
(dp2756
g67
(dp2757
g94
g95
ssg76
g2746
sg69
(lp2758
S':'
asbag62
(g83
g64
NtRp2759
(dp2760
g67
(dp2761
sg76
g2746
sg69
(lp2762
g62
(g63
g64
NtRp2763
(dp2764
g67
(dp2765
g75
I5
ssg76
g2759
sg69
(lp2766
g62
(g71
g64
NtRp2767
(dp2768
g67
(dp2769
g75
I4
ssg76
Nsg69
(lp2770
g62
(g78
g64
NtRp2771
(dp2772
g67
(dp2773
sg76
g2767
sg69
(lp2774
g62
(g83
g64
NtRp2775
(dp2776
g67
(dp2777
g87
g88
ssg76
g2771
sg69
(lp2778
S'environ'
p2779
asbag62
(g83
g64
NtRp2780
(dp2781
g67
(dp2782
g94
g95
ssg76
g2771
sg69
(lp2783
S':'
asbag62
(g83
g64
NtRp2784
(dp2785
g67
(dp2786
sg76
g2771
sg69
(lp2787
g62
(g63
g64
NtRp2788
(dp2789
g67
(dp2790
g75
I4
ssg76
g2784
sg69
(lp2791
g62
(g71
g64
NtRp2792
(dp2793
g67
(dp2794
g75
I3
ssg76
Nsg69
(lp2795
g62
(g78
g64
NtRp2796
(dp2797
g67
(dp2798
sg76
g2792
sg69
(lp2799
g62
(g83
g64
NtRp2800
(dp2801
g67
(dp2802
g87
g88
ssg76
g2796
sg69
(lp2803
S'HTTP_ACCEPT'
p2804
asbag62
(g83
g64
NtRp2805
(dp2806
g67
(dp2807
g94
g95
ssg76
g2796
sg69
(lp2808
S':'
asbag62
(g83
g64
NtRp2809
(dp2810
g67
(dp2811
sg76
g2796
sg69
(lp2812
g62
(g63
g64
NtRp2813
(dp2814
g67
(dp2815
g75
I3
ssg76
g2809
sg69
(lp2816
g1219
asbasbasbag62
(g78
g64
NtRp2817
(dp2818
g67
(dp2819
sg76
g2792
sg69
(lp2820
g62
(g83
g64
NtRp2821
(dp2822
g67
(dp2823
g87
g88
ssg76
g2817
sg69
(lp2824
S'HTTP_ACCEPT_ENCODING'
p2825
asbag62
(g83
g64
NtRp2826
(dp2827
g67
(dp2828
g94
g95
ssg76
g2817
sg69
(lp2829
S':'
asbag62
(g83
g64
NtRp2830
(dp2831
g67
(dp2832
sg76
g2817
sg69
(lp2833
g62
(g63
g64
NtRp2834
(dp2835
g67
(dp2836
g75
I3
ssg76
g2830
sg69
(lp2837
g1241
asbasbasbag62
(g78
g64
NtRp2838
(dp2839
g67
(dp2840
sg76
g2792
sg69
(lp2841
g62
(g83
g64
NtRp2842
(dp2843
g67
(dp2844
g87
g88
ssg76
g2838
sg69
(lp2845
S'HTTP_ACCEPT_LANGUAGE'
p2846
asbag62
(g83
g64
NtRp2847
(dp2848
g67
(dp2849
g94
g95
ssg76
g2838
sg69
(lp2850
S':'
asbag62
(g83
g64
NtRp2851
(dp2852
g67
(dp2853
sg76
g2838
sg69
(lp2854
g62
(g63
g64
NtRp2855
(dp2856
g67
(dp2857
g75
I3
ssg76
g2851
sg69
(lp2858
g1263
asbasbasbag62
(g78
g64
NtRp2859
(dp2860
g67
(dp2861
sg76
g2792
sg69
(lp2862
g62
(g83
g64
NtRp2863
(dp2864
g67
(dp2865
g87
g88
ssg76
g2859
sg69
(lp2866
S'HTTP_CONNECTION'
p2867
asbag62
(g83
g64
NtRp2868
(dp2869
g67
(dp2870
g94
g95
ssg76
g2859
sg69
(lp2871
S':'
asbag62
(g83
g64
NtRp2872
(dp2873
g67
(dp2874
sg76
g2859
sg69
(lp2875
g62
(g63
g64
NtRp2876
(dp2877
g67
(dp2878
g75
I3
ssg76
g2872
sg69
(lp2879
g1285
asbasbasbag62
(g78
g64
NtRp2880
(dp2881
g67
(dp2882
sg76
g2792
sg69
(lp2883
g62
(g83
g64
NtRp2884
(dp2885
g67
(dp2886
g87
g88
ssg76
g2880
sg69
(lp2887
S'HTTP_COOKIE'
p2888
asbag62
(g83
g64
NtRp2889
(dp2890
g67
(dp2891
g94
g95
ssg76
g2880
sg69
(lp2892
S':'
asbag62
(g83
g64
NtRp2893
(dp2894
g67
(dp2895
sg76
g2880
sg69
(lp2896
g62
(g63
g64
NtRp2897
(dp2898
g67
(dp2899
g75
I3
ssg76
g2893
sg69
(lp2900
g1307
asbasbasbag62
(g78
g64
NtRp2901
(dp2902
g67
(dp2903
sg76
g2792
sg69
(lp2904
g62
(g83
g64
NtRp2905
(dp2906
g67
(dp2907
g87
g88
ssg76
g2901
sg69
(lp2908
S'HTTP_HOST'
p2909
asbag62
(g83
g64
NtRp2910
(dp2911
g67
(dp2912
g94
g95
ssg76
g2901
sg69
(lp2913
S':'
asbag62
(g83
g64
NtRp2914
(dp2915
g67
(dp2916
sg76
g2901
sg69
(lp2917
g62
(g63
g64
NtRp2918
(dp2919
g67
(dp2920
g75
I3
ssg76
g2914
sg69
(lp2921
g1329
asbasbasbag62
(g78
g64
NtRp2922
(dp2923
g67
(dp2924
sg76
g2792
sg69
(lp2925
g62
(g83
g64
NtRp2926
(dp2927
g67
(dp2928
g87
g88
ssg76
g2922
sg69
(lp2929
S'HTTP_USER_AGENT'
p2930
asbag62
(g83
g64
NtRp2931
(dp2932
g67
(dp2933
g94
g95
ssg76
g2922
sg69
(lp2934
S':'
asbag62
(g83
g64
NtRp2935
(dp2936
g67
(dp2937
sg76
g2922
sg69
(lp2938
g62
(g63
g64
NtRp2939
(dp2940
g67
(dp2941
g75
I3
ssg76
g2935
sg69
(lp2942
g1351
asbasbasbag62
(g78
g64
NtRp2943
(dp2944
g67
(dp2945
sg76
g2792
sg69
(lp2946
g62
(g83
g64
NtRp2947
(dp2948
g67
(dp2949
g87
g88
ssg76
g2943
sg69
(lp2950
S'PATH_INFO'
p2951
asbag62
(g83
g64
NtRp2952
(dp2953
g67
(dp2954
g94
g95
ssg76
g2943
sg69
(lp2955
S':'
asbag62
(g83
g64
NtRp2956
(dp2957
g67
(dp2958
sg76
g2943
sg69
(lp2959
g62
(g63
g64
NtRp2960
(dp2961
g67
(dp2962
g75
I3
ssg76
g2956
sg69
(lp2963
g1505
asbasbasbag62
(g78
g64
NtRp2964
(dp2965
g67
(dp2966
sg76
g2792
sg69
(lp2967
g62
(g83
g64
NtRp2968
(dp2969
g67
(dp2970
g87
g88
ssg76
g2964
sg69
(lp2971
S'QUERY_STRING'
p2972
asbag62
(g83
g64
NtRp2973
(dp2974
g67
(dp2975
g94
g95
ssg76
g2964
sg69
(lp2976
S':'
asbag62
(g83
g64
NtRp2977
(dp2978
g67
(dp2979
sg76
g2964
sg69
(lp2980
g62
(g63
g64
NtRp2981
(dp2982
g67
(dp2983
g75
I3
ssg76
g2977
sg69
(lp2984
S''
asbasbasbag62
(g78
g64
NtRp2985
(dp2986
g67
(dp2987
sg76
g2792
sg69
(lp2988
g62
(g83
g64
NtRp2989
(dp2990
g67
(dp2991
g87
g88
ssg76
g2985
sg69
(lp2992
S'REMOTE_ADDR'
p2993
asbag62
(g83
g64
NtRp2994
(dp2995
g67
(dp2996
g94
g95
ssg76
g2985
sg69
(lp2997
S':'
asbag62
(g83
g64
NtRp2998
(dp2999
g67
(dp3000
sg76
g2985
sg69
(lp3001
g62
(g63
g64
NtRp3002
(dp3003
g67
(dp3004
g75
I3
ssg76
g2998
sg69
(lp3005
g217
asbasbasbag62
(g78
g64
NtRp3006
(dp3007
g67
(dp3008
sg76
g2792
sg69
(lp3009
g62
(g83
g64
NtRp3010
(dp3011
g67
(dp3012
g87
g88
ssg76
g3006
sg69
(lp3013
S'REMOTE_PORT'
p3014
asbag62
(g83
g64
NtRp3015
(dp3016
g67
(dp3017
g94
g95
ssg76
g3006
sg69
(lp3018
S':'
asbag62
(g83
g64
NtRp3019
(dp3020
g67
(dp3021
sg76
g3006
sg69
(lp3022
g62
(g63
g64
NtRp3023
(dp3024
g67
(dp3025
g75
I3
ssg76
g3019
sg69
(lp3026
g1569
asbasbasbag62
(g78
g64
NtRp3027
(dp3028
g67
(dp3029
sg76
g2792
sg69
(lp3030
g62
(g83
g64
NtRp3031
(dp3032
g67
(dp3033
g87
g88
ssg76
g3027
sg69
(lp3034
S'REQUEST_METHOD'
p3035
asbag62
(g83
g64
NtRp3036
(dp3037
g67
(dp3038
g94
g95
ssg76
g3027
sg69
(lp3039
S':'
asbag62
(g83
g64
NtRp3040
(dp3041
g67
(dp3042
sg76
g3027
sg69
(lp3043
g62
(g63
g64
NtRp3044
(dp3045
g67
(dp3046
g75
I3
ssg76
g3040
sg69
(lp3047
g1591
asbasbasbag62
(g78
g64
NtRp3048
(dp3049
g67
(dp3050
sg76
g2792
sg69
(lp3051
g62
(g83
g64
NtRp3052
(dp3053
g67
(dp3054
g87
g88
ssg76
g3048
sg69
(lp3055
S'REQUEST_URI'
p3056
asbag62
(g83
g64
NtRp3057
(dp3058
g67
(dp3059
g94
g95
ssg76
g3048
sg69
(lp3060
S':'
asbag62
(g83
g64
NtRp3061
(dp3062
g67
(dp3063
sg76
g3048
sg69
(lp3064
g62
(g63
g64
NtRp3065
(dp3066
g67
(dp3067
g75
I3
ssg76
g3061
sg69
(lp3068
g1505
asbasbasbag62
(g78
g64
NtRp3069
(dp3070
g67
(dp3071
sg76
g2792
sg69
(lp3072
g62
(g83
g64
NtRp3073
(dp3074
g67
(dp3075
g87
g88
ssg76
g3069
sg69
(lp3076
S'SCRIPT_NAME'
p3077
asbag62
(g83
g64
NtRp3078
(dp3079
g67
(dp3080
g94
g95
ssg76
g3069
sg69
(lp3081
S':'
asbag62
(g83
g64
NtRp3082
(dp3083
g67
(dp3084
sg76
g3069
sg69
(lp3085
g62
(g63
g64
NtRp3086
(dp3087
g67
(dp3088
g75
I3
ssg76
g3082
sg69
(lp3089
S''
asbasbasbag62
(g78
g64
NtRp3090
(dp3091
g67
(dp3092
sg76
g2792
sg69
(lp3093
g62
(g83
g64
NtRp3094
(dp3095
g67
(dp3096
g87
g88
ssg76
g3090
sg69
(lp3097
S'SERVER_NAME'
p3098
asbag62
(g83
g64
NtRp3099
(dp3100
g67
(dp3101
g94
g95
ssg76
g3090
sg69
(lp3102
S':'
asbag62
(g83
g64
NtRp3103
(dp3104
g67
(dp3105
sg76
g3090
sg69
(lp3106
g62
(g63
g64
NtRp3107
(dp3108
g67
(dp3109
g75
I3
ssg76
g3103
sg69
(lp3110
g1655
asbasbasbag62
(g78
g64
NtRp3111
(dp3112
g67
(dp3113
sg76
g2792
sg69
(lp3114
g62
(g83
g64
NtRp3115
(dp3116
g67
(dp3117
g87
g88
ssg76
g3111
sg69
(lp3118
S'SERVER_PORT'
p3119
asbag62
(g83
g64
NtRp3120
(dp3121
g67
(dp3122
g94
g95
ssg76
g3111
sg69
(lp3123
S':'
asbag62
(g83
g64
NtRp3124
(dp3125
g67
(dp3126
sg76
g3111
sg69
(lp3127
g62
(g63
g64
NtRp3128
(dp3129
g67
(dp3130
g75
I3
ssg76
g3124
sg69
(lp3131
g1677
asbasbasbag62
(g78
g64
NtRp3132
(dp3133
g67
(dp3134
sg76
g2792
sg69
(lp3135
g62
(g83
g64
NtRp3136
(dp3137
g67
(dp3138
g87
g88
ssg76
g3132
sg69
(lp3139
S'SERVER_PROTOCOL'
p3140
asbag62
(g83
g64
NtRp3141
(dp3142
g67
(dp3143
g94
g95
ssg76
g3132
sg69
(lp3144
S':'
asbag62
(g83
g64
NtRp3145
(dp3146
g67
(dp3147
sg76
g3132
sg69
(lp3148
g62
(g63
g64
NtRp3149
(dp3150
g67
(dp3151
g75
I3
ssg76
g3145
sg69
(lp3152
g1699
asbasbasbag62
(g78
g64
NtRp3153
(dp3154
g67
(dp3155
sg76
g2792
sg69
(lp3156
g62
(g83
g64
NtRp3157
(dp3158
g67
(dp3159
g87
g88
ssg76
g3153
sg69
(lp3160
S'SERVER_SOFTWARE'
p3161
asbag62
(g83
g64
NtRp3162
(dp3163
g67
(dp3164
g94
g95
ssg76
g3153
sg69
(lp3165
S':'
asbag62
(g83
g64
NtRp3166
(dp3167
g67
(dp3168
sg76
g3153
sg69
(lp3169
g62
(g63
g64
NtRp3170
(dp3171
g67
(dp3172
g75
I3
ssg76
g3166
sg69
(lp3173
g1721
asbasbasbag62
(g78
g64
NtRp3174
(dp3175
g67
(dp3176
sg76
g2792
sg69
(lp3177
g62
(g83
g64
NtRp3178
(dp3179
g67
(dp3180
g87
g88
ssg76
g3174
sg69
(lp3181
S'wsgi.errors'
p3182
asbag62
(g83
g64
NtRp3183
(dp3184
g67
(dp3185
g94
g95
ssg76
g3174
sg69
(lp3186
S':'
asbag62
(g83
g64
NtRp3187
(dp3188
g67
(dp3189
sg76
g3174
sg69
(lp3190
g62
(g63
g64
NtRp3191
(dp3192
g67
(dp3193
g75
I3
ssg76
g3187
sg69
(lp3194
S"<open file '<stderr>', mode 'w' at 0xb72a80d0>"
p3195
asbasbasbag62
(g78
g64
NtRp3196
(dp3197
g67
(dp3198
sg76
g2792
sg69
(lp3199
g62
(g83
g64
NtRp3200
(dp3201
g67
(dp3202
g87
g88
ssg76
g3196
sg69
(lp3203
S'wsgi.file_wrapper'
p3204
asbag62
(g83
g64
NtRp3205
(dp3206
g67
(dp3207
g94
g95
ssg76
g3196
sg69
(lp3208
S':'
asbag62
(g83
g64
NtRp3209
(dp3210
g67
(dp3211
sg76
g3196
sg69
(lp3212
g62
(g63
g64
NtRp3213
(dp3214
g67
(dp3215
g75
I3
ssg76
g3209
sg69
(lp3216
S'<class wsgiref.util.FileWrapper at 0xa40147c>'
p3217
asbasbasbag62
(g78
g64
NtRp3218
(dp3219
g67
(dp3220
sg76
g2792
sg69
(lp3221
g62
(g83
g64
NtRp3222
(dp3223
g67
(dp3224
g87
g88
ssg76
g3218
sg69
(lp3225
S'wsgi.input'
p3226
asbag62
(g83
g64
NtRp3227
(dp3228
g67
(dp3229
g94
g95
ssg76
g3218
sg69
(lp3230
S':'
asbag62
(g83
g64
NtRp3231
(dp3232
g67
(dp3233
sg76
g3218
sg69
(lp3234
g62
(g63
g64
NtRp3235
(dp3236
g67
(dp3237
g75
I3
ssg76
g3231
sg69
(lp3238
S'<cStringIO.StringO object at 0xadb20d00>'
p3239
asbasbasbag62
(g78
g64
NtRp3240
(dp3241
g67
(dp3242
sg76
g2792
sg69
(lp3243
g62
(g83
g64
NtRp3244
(dp3245
g67
(dp3246
g87
g88
ssg76
g3240
sg69
(lp3247
S'wsgi.multiprocess'
p3248
asbag62
(g83
g64
NtRp3249
(dp3250
g67
(dp3251
g94
g95
ssg76
g3240
sg69
(lp3252
S':'
asbag62
(g83
g64
NtRp3253
(dp3254
g67
(dp3255
sg76
g3240
sg69
(lp3256
g62
(g63
g64
NtRp3257
(dp3258
g67
(dp3259
g75
I3
ssg76
g3253
sg69
(lp3260
g105
asbasbasbag62
(g78
g64
NtRp3261
(dp3262
g67
(dp3263
sg76
g2792
sg69
(lp3264
g62
(g83
g64
NtRp3265
(dp3266
g67
(dp3267
g87
g88
ssg76
g3261
sg69
(lp3268
S'wsgi.multithread'
p3269
asbag62
(g83
g64
NtRp3270
(dp3271
g67
(dp3272
g94
g95
ssg76
g3261
sg69
(lp3273
S':'
asbag62
(g83
g64
NtRp3274
(dp3275
g67
(dp3276
sg76
g3261
sg69
(lp3277
g62
(g63
g64
NtRp3278
(dp3279
g67
(dp3280
g75
I3
ssg76
g3274
sg69
(lp3281
g1938
asbasbasbag62
(g78
g64
NtRp3282
(dp3283
g67
(dp3284
sg76
g2792
sg69
(lp3285
g62
(g83
g64
NtRp3286
(dp3287
g67
(dp3288
g87
g88
ssg76
g3282
sg69
(lp3289
S'wsgi.run_once'
p3290
asbag62
(g83
g64
NtRp3291
(dp3292
g67
(dp3293
g94
g95
ssg76
g3282
sg69
(lp3294
S':'
asbag62
(g83
g64
NtRp3295
(dp3296
g67
(dp3297
sg76
g3282
sg69
(lp3298
g62
(g63
g64
NtRp3299
(dp3300
g67
(dp3301
g75
I3
ssg76
g3295
sg69
(lp3302
g105
asbasbasbag62
(g78
g64
NtRp3303
(dp3304
g67
(dp3305
sg76
g2792
sg69
(lp3306
g62
(g83
g64
NtRp3307
(dp3308
g67
(dp3309
g87
g88
ssg76
g3303
sg69
(lp3310
S'wsgi.url_scheme'
p3311
asbag62
(g83
g64
NtRp3312
(dp3313
g67
(dp3314
g94
g95
ssg76
g3303
sg69
(lp3315
S':'
asbag62
(g83
g64
NtRp3316
(dp3317
g67
(dp3318
sg76
g3303
sg69
(lp3319
g62
(g63
g64
NtRp3320
(dp3321
g67
(dp3322
g75
I3
ssg76
g3316
sg69
(lp3323
g1981
asbasbasbag62
(g78
g64
NtRp3324
(dp3325
g67
(dp3326
sg76
g2792
sg69
(lp3327
g62
(g83
g64
NtRp3328
(dp3329
g67
(dp3330
g87
g88
ssg76
g3324
sg69
(lp3331
S'wsgi.version'
p3332
asbag62
(g83
g64
NtRp3333
(dp3334
g67
(dp3335
g94
g95
ssg76
g3324
sg69
(lp3336
S':'
asbag62
(g83
g64
NtRp3337
(dp3338
g67
(dp3339
sg76
g3324
sg69
(lp3340
g62
(g63
g64
NtRp3341
(dp3342
g67
(dp3343
g75
I3
ssg76
g3337
sg69
(lp3344
S'1'
asbasbasbasbasbasbasbasbasbasbasbasbasbsS'frames'
p3345
(lp3346
(dp3347
S'file'
p3348
S'/home/nazrul/web2py/gluon/restricted.py'
p3349
sS'dump'
p3350
(dp3351
S'environment'
p3352
S"{'A': <class 'gluon.html.A'>, 'Auth': <class 'gluon.tools.Auth'>, 'B': <class 'gluon.html.B'>, 'BEAUTIFY': <class 'gluon.html.BEAUTIFY'>, 'BODY': <class 'gluon.html.BODY'>, 'BR': <class 'gluon.html.BR'>, 'BUTTON': <class 'gluon.html.BUTTON'>, 'CAT': <class 'gluon.html.CAT'>, 'CENTER': <class 'gluon.html.CENTER'>, 'CLEANUP': <class 'gluon.validators.CLEANUP'>, ...}"
p3353
sS'ccode'
p3354
S'<code object <module> at 0xad65bba8, file "/home...ations/WSD_Tool/controllers/default.py", line 11>'
p3355
ssS'lnum'
p3356
I212
sS'lines'
p3357
(dp3358
I207
S'    try:'
p3359
sI208
S'        if isinstance(code, types.CodeType):'
p3360
sI209
S'            ccode = code'
p3361
sI210
S'        else:'
p3362
sI211
S'            ccode = compile2(code, layer)'
p3363
sI212
S'        exec ccode in environment'
p3364
sI213
S'    except HTTP:'
p3365
sI214
S'        raise'
p3366
sI215
S'    except RestrictedError:'
p3367
sI216
S'        # do not encapsulate (obfuscate) the original RestrictedError'
p3368
ssS'call'
p3369
S"(code='# -*- coding: utf-8 -*-\\n# this file is released ... dict(v=v)\\n\\nresponse._vars=response._caller(rel)\\n', environment={'A': <class 'gluon.html.A'>, 'Auth': <class 'gluon.tools.Auth'>, 'B': <class 'gluon.html.B'>, 'BEAUTIFY': <class 'gluon.html.BEAUTIFY'>, 'BODY': <class 'gluon.html.BODY'>, 'BR': <class 'gluon.html.BR'>, 'BUTTON': <class 'gluon.html.BUTTON'>, 'CAT': <class 'gluon.html.CAT'>, 'CENTER': <class 'gluon.html.CENTER'>, 'CLEANUP': <class 'gluon.validators.CLEANUP'>, ...}, layer='/home/nazrul/web2py/applications/WSD_Tool/controllers/default.py')"
p3370
sS'func'
p3371
S'restricted'
p3372
sa(dp3373
g3348
S'/home/nazrul/web2py/applications/WSD_Tool/controllers/default.py'
p3374
sg3350
(dp3375
sg3356
I260
sg3357
(dp3376
I256
S'def testt():'
p3377
sI257
S'    v=db(db.auth_user).select()'
p3378
sI258
S'    return dict(v=v)'
p3379
sI249
S'       os.system("Anusaaraka_stanford.sh sample 0 True")'
p3380
sI250
S'       #f.close()'
p3381
sI251
S"       f=open('$HOME_anu_tmp/tmp/sample_tmp/2.1/word.dat','r')"
p3382
sI252
S'       a=f.read()'
p3383
sI253
S'       f.close()'
p3384
sI254
S'       return dict(a=a)'
p3385
sI255
S''
ssg3369
S'()'
p3386
sg3371
S'<module>'
p3387
sa(dp3388
g3348
S'/home/nazrul/web2py/gluon/globals.py'
p3389
sg3350
(dp3390
S'self'
p3391
S'undefined'
p3392
sS'f'
S'<function rel>'
p3393
ssg3356
I193
sg3357
(dp3394
I192
S'        self._vars = None'
p3395
sI193
S'        self._caller = lambda f: f()'
p3396
sI194
S'        self._view_environment = None'
p3397
sI195
S'        self._custom_commit = None'
p3398
sI196
S'        self._custom_rollback = None'
p3399
sI197
S''
sI188
S'        self.menu = []             # used by the default view layout'
p3400
sI189
S'        self.files = []            # used by web2py_ajax.html'
p3401
sI190
S'        self.generic_patterns = []  # patterns to allow generic views'
p3402
sI191
S"        self.delimiters = ('{{', '}}')"
p3403
ssg3369
S'(f=<function rel>)'
p3404
sg3371
S'<lambda>'
p3405
sa(dp3406
g3348
S'/home/nazrul/web2py/applications/WSD_Tool/controllers/default.py'
p3407
sg3350
(dp3408
S'builtinopen'
p3409
S'<built-in function open>'
p3410
sS'f'
g3392
ssg3356
I251
sg3357
(dp3411
I246
S"       #shell_command = 'Anusaaraka_stanford.sh  sample 0 True'"
p3412
sI247
S'       #event = Popen(shell_command, shell=True, stdin=PIPE, stdout=PIPE, stderr=STDOUT)'
p3413
sI248
S'       #event.communicate()'
p3414
sI249
S'       os.system("Anusaaraka_stanford.sh sample 0 True")'
p3415
sI250
S'       #f.close()'
p3416
sI251
S"       f=open('$HOME_anu_tmp/tmp/sample_tmp/2.1/word.dat','r')"
p3417
sI252
S'       a=f.read()'
p3418
sI253
S'       f.close()'
p3419
sI254
S'       return dict(a=a)'
p3420
sI255
S''
ssg3369
S'()'
p3421
sg3371
S'rel'
p3422
sasS'pyver'
p3423
S'Python 2.7.3: /usr/bin/python'
p3424
sS'session'
p3425
g62
(g63
g64
NtRp3426
(dp3427
g67
(dp3428
sg69
(lp3429
g62
(g71
g64
NtRp3430
(dp3431
g67
(dp3432
g75
I5
ssg76
Nsg69
(lp3433
g62
(g78
g64
NtRp3434
(dp3435
g67
(dp3436
sg76
g3430
sg69
(lp3437
g62
(g83
g64
NtRp3438
(dp3439
g67
(dp3440
g87
g88
ssg76
g3434
sg69
(lp3441
S'auth'
p3442
asbag62
(g83
g64
NtRp3443
(dp3444
g67
(dp3445
g94
g95
ssg76
g3434
sg69
(lp3446
S':'
asbag62
(g83
g64
NtRp3447
(dp3448
g67
(dp3449
sg76
g3434
sg69
(lp3450
g62
(g63
g64
NtRp3451
(dp3452
g67
(dp3453
g75
I5
ssg76
g3447
sg69
(lp3454
g62
(g71
g64
NtRp3455
(dp3456
g67
(dp3457
g75
I4
ssg76
Nsg69
(lp3458
g62
(g78
g64
NtRp3459
(dp3460
g67
(dp3461
sg76
g3455
sg69
(lp3462
g62
(g83
g64
NtRp3463
(dp3464
g67
(dp3465
g87
g88
ssg76
g3459
sg69
(lp3466
S'expiration'
p3467
asbag62
(g83
g64
NtRp3468
(dp3469
g67
(dp3470
g94
g95
ssg76
g3459
sg69
(lp3471
S':'
asbag62
(g83
g64
NtRp3472
(dp3473
g67
(dp3474
sg76
g3459
sg69
(lp3475
g62
(g63
g64
NtRp3476
(dp3477
g67
(dp3478
g75
I4
ssg76
g3472
sg69
(lp3479
S'3600'
p3480
asbasbasbag62
(g78
g64
NtRp3481
(dp3482
g67
(dp3483
sg76
g3455
sg69
(lp3484
g62
(g83
g64
NtRp3485
(dp3486
g67
(dp3487
g87
g88
ssg76
g3481
sg69
(lp3488
S'hmac_key'
p3489
asbag62
(g83
g64
NtRp3490
(dp3491
g67
(dp3492
g94
g95
ssg76
g3481
sg69
(lp3493
S':'
asbag62
(g83
g64
NtRp3494
(dp3495
g67
(dp3496
sg76
g3481
sg69
(lp3497
g62
(g63
g64
NtRp3498
(dp3499
g67
(dp3500
g75
I4
ssg76
g3494
sg69
(lp3501
S'8602439a-0584-4b9c-bb16-2c64975f2cc4'
p3502
asbasbasbag62
(g78
g64
NtRp3503
(dp3504
g67
(dp3505
sg76
g3455
sg69
(lp3506
g62
(g83
g64
NtRp3507
(dp3508
g67
(dp3509
g87
g88
ssg76
g3503
sg69
(lp3510
S'last_visit'
p3511
asbag62
(g83
g64
NtRp3512
(dp3513
g67
(dp3514
g94
g95
ssg76
g3503
sg69
(lp3515
S':'
asbag62
(g83
g64
NtRp3516
(dp3517
g67
(dp3518
sg76
g3503
sg69
(lp3519
g62
(g63
g64
NtRp3520
(dp3521
g67
(dp3522
g75
I4
ssg76
g3516
sg69
(lp3523
S'datetime.datetime(2013, 11, 9, 16, 55, 24, 296986)'
p3524
asbasbasbag62
(g78
g64
NtRp3525
(dp3526
g67
(dp3527
sg76
g3455
sg69
(lp3528
g62
(g83
g64
NtRp3529
(dp3530
g67
(dp3531
g87
g88
ssg76
g3525
sg69
(lp3532
S'remember'
p3533
asbag62
(g83
g64
NtRp3534
(dp3535
g67
(dp3536
g94
g95
ssg76
g3525
sg69
(lp3537
S':'
asbag62
(g83
g64
NtRp3538
(dp3539
g67
(dp3540
sg76
g3525
sg69
(lp3541
g62
(g63
g64
NtRp3542
(dp3543
g67
(dp3544
g75
I4
ssg76
g3538
sg69
(lp3545
g105
asbasbasbag62
(g78
g64
NtRp3546
(dp3547
g67
(dp3548
sg76
g3455
sg69
(lp3549
g62
(g83
g64
NtRp3550
(dp3551
g67
(dp3552
g87
g88
ssg76
g3546
sg69
(lp3553
S'user'
p3554
asbag62
(g83
g64
NtRp3555
(dp3556
g67
(dp3557
g94
g95
ssg76
g3546
sg69
(lp3558
S':'
asbag62
(g83
g64
NtRp3559
(dp3560
g67
(dp3561
sg76
g3546
sg69
(lp3562
g62
(g63
g64
NtRp3563
(dp3564
g67
(dp3565
g75
I4
ssg76
g3559
sg69
(lp3566
g62
(g71
g64
NtRp3567
(dp3568
g67
(dp3569
g75
I3
ssg76
Nsg69
(lp3570
g62
(g78
g64
NtRp3571
(dp3572
g67
(dp3573
sg76
g3567
sg69
(lp3574
g62
(g83
g64
NtRp3575
(dp3576
g67
(dp3577
g87
g88
ssg76
g3571
sg69
(lp3578
S'email'
p3579
asbag62
(g83
g64
NtRp3580
(dp3581
g67
(dp3582
g94
g95
ssg76
g3571
sg69
(lp3583
S':'
asbag62
(g83
g64
NtRp3584
(dp3585
g67
(dp3586
sg76
g3571
sg69
(lp3587
g62
(g63
g64
NtRp3588
(dp3589
g67
(dp3590
g75
I3
ssg76
g3584
sg69
(lp3591
S'user@sys.com'
p3592
asbasbasbag62
(g78
g64
NtRp3593
(dp3594
g67
(dp3595
sg76
g3567
sg69
(lp3596
g62
(g83
g64
NtRp3597
(dp3598
g67
(dp3599
g87
g88
ssg76
g3593
sg69
(lp3600
S'first_name'
p3601
asbag62
(g83
g64
NtRp3602
(dp3603
g67
(dp3604
g94
g95
ssg76
g3593
sg69
(lp3605
S':'
asbag62
(g83
g64
NtRp3606
(dp3607
g67
(dp3608
sg76
g3593
sg69
(lp3609
g62
(g63
g64
NtRp3610
(dp3611
g67
(dp3612
g75
I3
ssg76
g3606
sg69
(lp3613
S'user'
p3614
asbasbasbag62
(g78
g64
NtRp3615
(dp3616
g67
(dp3617
sg76
g3567
sg69
(lp3618
g62
(g83
g64
NtRp3619
(dp3620
g67
(dp3621
g87
g88
ssg76
g3615
sg69
(lp3622
S'id'
p3623
asbag62
(g83
g64
NtRp3624
(dp3625
g67
(dp3626
g94
g95
ssg76
g3615
sg69
(lp3627
S':'
asbag62
(g83
g64
NtRp3628
(dp3629
g67
(dp3630
sg76
g3615
sg69
(lp3631
g62
(g63
g64
NtRp3632
(dp3633
g67
(dp3634
g75
I3
ssg76
g3628
sg69
(lp3635
S'7'
asbasbasbag62
(g78
g64
NtRp3636
(dp3637
g67
(dp3638
sg76
g3567
sg69
(lp3639
g62
(g83
g64
NtRp3640
(dp3641
g67
(dp3642
g87
g88
ssg76
g3636
sg69
(lp3643
S'last_name'
p3644
asbag62
(g83
g64
NtRp3645
(dp3646
g67
(dp3647
g94
g95
ssg76
g3636
sg69
(lp3648
S':'
asbag62
(g83
g64
NtRp3649
(dp3650
g67
(dp3651
sg76
g3636
sg69
(lp3652
g62
(g63
g64
NtRp3653
(dp3654
g67
(dp3655
g75
I3
ssg76
g3649
sg69
(lp3656
S'user'
p3657
asbasbasbag62
(g78
g64
NtRp3658
(dp3659
g67
(dp3660
sg76
g3567
sg69
(lp3661
g62
(g83
g64
NtRp3662
(dp3663
g67
(dp3664
g87
g88
ssg76
g3658
sg69
(lp3665
S'registration_id'
p3666
asbag62
(g83
g64
NtRp3667
(dp3668
g67
(dp3669
g94
g95
ssg76
g3658
sg69
(lp3670
S':'
asbag62
(g83
g64
NtRp3671
(dp3672
g67
(dp3673
sg76
g3658
sg69
(lp3674
g62
(g63
g64
NtRp3675
(dp3676
g67
(dp3677
g75
I3
ssg76
g3671
sg69
(lp3678
S''
asbasbasbag62
(g78
g64
NtRp3679
(dp3680
g67
(dp3681
sg76
g3567
sg69
(lp3682
g62
(g83
g64
NtRp3683
(dp3684
g67
(dp3685
g87
g88
ssg76
g3679
sg69
(lp3686
S'registration_key'
p3687
asbag62
(g83
g64
NtRp3688
(dp3689
g67
(dp3690
g94
g95
ssg76
g3679
sg69
(lp3691
S':'
asbag62
(g83
g64
NtRp3692
(dp3693
g67
(dp3694
sg76
g3679
sg69
(lp3695
g62
(g63
g64
NtRp3696
(dp3697
g67
(dp3698
g75
I3
ssg76
g3692
sg69
(lp3699
S''
asbasbasbag62
(g78
g64
NtRp3700
(dp3701
g67
(dp3702
sg76
g3567
sg69
(lp3703
g62
(g83
g64
NtRp3704
(dp3705
g67
(dp3706
g87
g88
ssg76
g3700
sg69
(lp3707
S'reset_password_key'
p3708
asbag62
(g83
g64
NtRp3709
(dp3710
g67
(dp3711
g94
g95
ssg76
g3700
sg69
(lp3712
S':'
asbag62
(g83
g64
NtRp3713
(dp3714
g67
(dp3715
sg76
g3700
sg69
(lp3716
g62
(g63
g64
NtRp3717
(dp3718
g67
(dp3719
g75
I3
ssg76
g3713
sg69
(lp3720
S''
asbasbasbasbasbasbasbag62
(g78
g64
NtRp3721
(dp3722
g67
(dp3723
sg76
g3455
sg69
(lp3724
g62
(g83
g64
NtRp3725
(dp3726
g67
(dp3727
g87
g88
ssg76
g3721
sg69
(lp3728
S'user_groups'
p3729
asbag62
(g83
g64
NtRp3730
(dp3731
g67
(dp3732
g94
g95
ssg76
g3721
sg69
(lp3733
S':'
asbag62
(g83
g64
NtRp3734
(dp3735
g67
(dp3736
sg76
g3721
sg69
(lp3737
g62
(g63
g64
NtRp3738
(dp3739
g67
(dp3740
g75
I4
ssg76
g3734
sg69
(lp3741
g62
(g71
g64
NtRp3742
(dp3743
g67
(dp3744
g75
I3
ssg76
Nsg69
(lp3745
sbasbasbasbasbasbasbasbag62
(g78
g64
NtRp3746
(dp3747
g67
(dp3748
sg76
g3430
sg69
(lp3749
g62
(g83
g64
NtRp3750
(dp3751
g67
(dp3752
g87
g88
ssg76
g3746
sg69
(lp3753
S'flash'
p3754
asbag62
(g83
g64
NtRp3755
(dp3756
g67
(dp3757
g94
g95
ssg76
g3746
sg69
(lp3758
S':'
asbag62
(g83
g64
NtRp3759
(dp3760
g67
(dp3761
sg76
g3746
sg69
(lp3762
g62
(g63
g64
NtRp3763
(dp3764
g67
(dp3765
g75
I5
ssg76
g3759
sg69
(lp3766
S'None'
p3767
asbasbasbag62
(g78
g64
NtRp3768
(dp3769
g67
(dp3770
sg76
g3430
sg69
(lp3771
g62
(g83
g64
NtRp3772
(dp3773
g67
(dp3774
g87
g88
ssg76
g3768
sg69
(lp3775
S'ide'
p3776
asbag62
(g83
g64
NtRp3777
(dp3778
g67
(dp3779
g94
g95
ssg76
g3768
sg69
(lp3780
S':'
asbag62
(g83
g64
NtRp3781
(dp3782
g67
(dp3783
sg76
g3768
sg69
(lp3784
g62
(g63
g64
NtRp3785
(dp3786
g67
(dp3787
g75
I5
ssg76
g3781
sg69
(lp3788
S'10'
p3789
asbasbasbag62
(g78
g64
NtRp3790
(dp3791
g67
(dp3792
sg76
g3430
sg69
(lp3793
g62
(g83
g64
NtRp3794
(dp3795
g67
(dp3796
g87
g88
ssg76
g3790
sg69
(lp3797
S'last_orderby'
p3798
asbag62
(g83
g64
NtRp3799
(dp3800
g67
(dp3801
g94
g95
ssg76
g3790
sg69
(lp3802
S':'
asbag62
(g83
g64
NtRp3803
(dp3804
g67
(dp3805
sg76
g3790
sg69
(lp3806
g62
(g63
g64
NtRp3807
(dp3808
g67
(dp3809
g75
I5
ssg76
g3803
sg69
(lp3810
S'None'
p3811
asbasbasbag62
(g78
g64
NtRp3812
(dp3813
g67
(dp3814
sg76
g3430
sg69
(lp3815
g62
(g83
g64
NtRp3816
(dp3817
g67
(dp3818
g87
g88
ssg76
g3812
sg69
(lp3819
S'last_query'
p3820
asbag62
(g83
g64
NtRp3821
(dp3822
g67
(dp3823
g94
g95
ssg76
g3812
sg69
(lp3824
S':'
asbag62
(g83
g64
NtRp3825
(dp3826
g67
(dp3827
sg76
g3812
sg69
(lp3828
g62
(g63
g64
NtRp3829
(dp3830
g67
(dp3831
g75
I5
ssg76
g3825
sg69
(lp3832
S'db.rules.id>0'
p3833
asbasbasbag62
(g78
g64
NtRp3834
(dp3835
g67
(dp3836
sg76
g3430
sg69
(lp3837
g62
(g83
g64
NtRp3838
(dp3839
g67
(dp3840
g87
g88
ssg76
g3834
sg69
(lp3841
S'sid'
p3842
asbag62
(g83
g64
NtRp3843
(dp3844
g67
(dp3845
g94
g95
ssg76
g3834
sg69
(lp3846
S':'
asbag62
(g83
g64
NtRp3847
(dp3848
g67
(dp3849
sg76
g3834
sg69
(lp3850
g62
(g63
g64
NtRp3851
(dp3852
g67
(dp3853
g75
I5
ssg76
g3847
sg69
(lp3854
S'11'
p3855
asbasbasbag62
(g78
g64
NtRp3856
(dp3857
g67
(dp3858
sg76
g3430
sg69
(lp3859
g62
(g83
g64
NtRp3860
(dp3861
g67
(dp3862
g87
g88
ssg76
g3856
sg69
(lp3863
S'word'
p3864
asbag62
(g83
g64
NtRp3865
(dp3866
g67
(dp3867
g94
g95
ssg76
g3856
sg69
(lp3868
S':'
asbag62
(g83
g64
NtRp3869
(dp3870
g67
(dp3871
sg76
g3856
sg69
(lp3872
g62
(g63
g64
NtRp3873
(dp3874
g67
(dp3875
g75
I5
ssg76
g3869
sg69
(lp3876
S'product'
p3877
asbasbasbasbasbsS'etype'
p3878
S"<type 'exceptions.IOError'>"
p3879
sS'date'
p3880
S'Sat Nov  9 16:55:50 2013'
p3881
sS'response'
p3882
g62
(g63
g64
NtRp3883
(dp3884
g67
(dp3885
sg69
(lp3886
g62
(g71
g64
NtRp3887
(dp3888
g67
(dp3889
g75
I5
ssg76
Nsg69
(lp3890
g62
(g78
g64
NtRp3891
(dp3892
g67
(dp3893
sg76
g3887
sg69
(lp3894
g62
(g83
g64
NtRp3895
(dp3896
g67
(dp3897
g87
g88
ssg76
g3891
sg69
(lp3898
g160
asbag62
(g83
g64
NtRp3899
(dp3900
g67
(dp3901
g94
g95
ssg76
g3891
sg69
(lp3902
S':'
asbag62
(g83
g64
NtRp3903
(dp3904
g67
(dp3905
sg76
g3891
sg69
(lp3906
g62
(g63
g64
NtRp3907
(dp3908
g67
(dp3909
g75
I5
ssg76
g3903
sg69
(lp3910
S'<cStringIO.StringO object at 0xadc4520>'
p3911
asbasbasbag62
(g78
g64
NtRp3912
(dp3913
g67
(dp3914
sg76
g3887
sg69
(lp3915
g62
(g83
g64
NtRp3916
(dp3917
g67
(dp3918
g87
g88
ssg76
g3912
sg69
(lp3919
g248
asbag62
(g83
g64
NtRp3920
(dp3921
g67
(dp3922
g94
g95
ssg76
g3912
sg69
(lp3923
S':'
asbag62
(g83
g64
NtRp3924
(dp3925
g67
(dp3926
sg76
g3912
sg69
(lp3927
g62
(g63
g64
NtRp3928
(dp3929
g67
(dp3930
g75
I5
ssg76
g3924
sg69
(lp3931
g62
(g71
g64
NtRp3932
(dp3933
g67
(dp3934
g75
I4
ssg76
Nsg69
(lp3935
g62
(g78
g64
NtRp3936
(dp3937
g67
(dp3938
sg76
g3932
sg69
(lp3939
g62
(g83
g64
NtRp3940
(dp3941
g67
(dp3942
g87
g88
ssg76
g3936
sg69
(lp3943
S'session_id_wsd_tool'
p3944
asbag62
(g83
g64
NtRp3945
(dp3946
g67
(dp3947
g94
g95
ssg76
g3936
sg69
(lp3948
S':'
asbag62
(g83
g64
NtRp3949
(dp3950
g67
(dp3951
sg76
g3936
sg69
(lp3952
g62
(g63
g64
NtRp3953
(dp3954
g67
(dp3955
g75
I4
ssg76
g3949
sg69
(lp3956
g852
ag62
(g71
g64
NtRp3957
(dp3958
g67
(dp3959
g75
I3
ssg76
Nsg69
(lp3960
g62
(g78
g64
NtRp3961
(dp3962
g67
(dp3963
sg76
g3957
sg69
(lp3964
g62
(g83
g64
NtRp3965
(dp3966
g67
(dp3967
g87
g88
ssg76
g3961
sg69
(lp3968
g299
asbag62
(g83
g64
NtRp3969
(dp3970
g67
(dp3971
g94
g95
ssg76
g3961
sg69
(lp3972
S':'
asbag62
(g83
g64
NtRp3973
(dp3974
g67
(dp3975
sg76
g3961
sg69
(lp3976
g62
(g63
g64
NtRp3977
(dp3978
g67
(dp3979
g75
I3
ssg76
g3973
sg69
(lp3980
S''
asbasbasbag62
(g78
g64
NtRp3981
(dp3982
g67
(dp3983
sg76
g3957
sg69
(lp3984
g62
(g83
g64
NtRp3985
(dp3986
g67
(dp3987
g87
g88
ssg76
g3981
sg69
(lp3988
g320
asbag62
(g83
g64
NtRp3989
(dp3990
g67
(dp3991
g94
g95
ssg76
g3981
sg69
(lp3992
S':'
asbag62
(g83
g64
NtRp3993
(dp3994
g67
(dp3995
sg76
g3981
sg69
(lp3996
g62
(g63
g64
NtRp3997
(dp3998
g67
(dp3999
g75
I3
ssg76
g3993
sg69
(lp4000
S''
asbasbasbag62
(g78
g64
NtRp4001
(dp4002
g67
(dp4003
sg76
g3957
sg69
(lp4004
g62
(g83
g64
NtRp4005
(dp4006
g67
(dp4007
g87
g88
ssg76
g4001
sg69
(lp4008
g341
asbag62
(g83
g64
NtRp4009
(dp4010
g67
(dp4011
g94
g95
ssg76
g4001
sg69
(lp4012
S':'
asbag62
(g83
g64
NtRp4013
(dp4014
g67
(dp4015
sg76
g4001
sg69
(lp4016
g62
(g63
g64
NtRp4017
(dp4018
g67
(dp4019
g75
I3
ssg76
g4013
sg69
(lp4020
S''
asbasbasbag62
(g78
g64
NtRp4021
(dp4022
g67
(dp4023
sg76
g3957
sg69
(lp4024
g62
(g83
g64
NtRp4025
(dp4026
g67
(dp4027
g87
g88
ssg76
g4021
sg69
(lp4028
g362
asbag62
(g83
g64
NtRp4029
(dp4030
g67
(dp4031
g94
g95
ssg76
g4021
sg69
(lp4032
S':'
asbag62
(g83
g64
NtRp4033
(dp4034
g67
(dp4035
sg76
g4021
sg69
(lp4036
g62
(g63
g64
NtRp4037
(dp4038
g67
(dp4039
g75
I3
ssg76
g4033
sg69
(lp4040
S''
asbasbasbag62
(g78
g64
NtRp4041
(dp4042
g67
(dp4043
sg76
g3957
sg69
(lp4044
g62
(g83
g64
NtRp4045
(dp4046
g67
(dp4047
g87
g88
ssg76
g4041
sg69
(lp4048
g383
asbag62
(g83
g64
NtRp4049
(dp4050
g67
(dp4051
g94
g95
ssg76
g4041
sg69
(lp4052
S':'
asbag62
(g83
g64
NtRp4053
(dp4054
g67
(dp4055
sg76
g4041
sg69
(lp4056
g62
(g63
g64
NtRp4057
(dp4058
g67
(dp4059
g75
I3
ssg76
g4053
sg69
(lp4060
S''
asbasbasbag62
(g78
g64
NtRp4061
(dp4062
g67
(dp4063
sg76
g3957
sg69
(lp4064
g62
(g83
g64
NtRp4065
(dp4066
g67
(dp4067
g87
g88
ssg76
g4061
sg69
(lp4068
g404
asbag62
(g83
g64
NtRp4069
(dp4070
g67
(dp4071
g94
g95
ssg76
g4061
sg69
(lp4072
S':'
asbag62
(g83
g64
NtRp4073
(dp4074
g67
(dp4075
sg76
g4061
sg69
(lp4076
g62
(g63
g64
NtRp4077
(dp4078
g67
(dp4079
g75
I3
ssg76
g4073
sg69
(lp4080
S'/'
asbasbasbag62
(g78
g64
NtRp4081
(dp4082
g67
(dp4083
sg76
g3957
sg69
(lp4084
g62
(g83
g64
NtRp4085
(dp4086
g67
(dp4087
g87
g88
ssg76
g4081
sg69
(lp4088
g425
asbag62
(g83
g64
NtRp4089
(dp4090
g67
(dp4091
g94
g95
ssg76
g4081
sg69
(lp4092
S':'
asbag62
(g83
g64
NtRp4093
(dp4094
g67
(dp4095
sg76
g4081
sg69
(lp4096
g62
(g63
g64
NtRp4097
(dp4098
g67
(dp4099
g75
I3
ssg76
g4093
sg69
(lp4100
S''
asbasbasbag62
(g78
g64
NtRp4101
(dp4102
g67
(dp4103
sg76
g3957
sg69
(lp4104
g62
(g83
g64
NtRp4105
(dp4106
g67
(dp4107
g87
g88
ssg76
g4101
sg69
(lp4108
g446
asbag62
(g83
g64
NtRp4109
(dp4110
g67
(dp4111
g94
g95
ssg76
g4101
sg69
(lp4112
S':'
asbag62
(g83
g64
NtRp4113
(dp4114
g67
(dp4115
sg76
g4101
sg69
(lp4116
g62
(g63
g64
NtRp4117
(dp4118
g67
(dp4119
g75
I3
ssg76
g4113
sg69
(lp4120
S''
asbasbasbasbasbasbasbasbasbasbasbag62
(g78
g64
NtRp4121
(dp4122
g67
(dp4123
sg76
g3887
sg69
(lp4124
g62
(g83
g64
NtRp4125
(dp4126
g67
(dp4127
g87
g88
ssg76
g4121
sg69
(lp4128
S'delimiters'
p4129
asbag62
(g83
g64
NtRp4130
(dp4131
g67
(dp4132
g94
g95
ssg76
g4121
sg69
(lp4133
S':'
asbag62
(g83
g64
NtRp4134
(dp4135
g67
(dp4136
sg76
g4121
sg69
(lp4137
g62
(g63
g64
NtRp4138
(dp4139
g67
(dp4140
g75
I5
ssg76
g4134
sg69
(lp4141
g62
(g71
g64
NtRp4142
(dp4143
g67
(dp4144
g75
I4
ssg76
Nsg69
(lp4145
g62
(g78
g64
NtRp4146
(dp4147
g67
(dp4148
sg76
g4142
sg69
(lp4149
g62
(g83
g64
NtRp4150
(dp4151
g67
(dp4152
sg76
g4146
sg69
(lp4153
g62
(g63
g64
NtRp4154
(dp4155
g67
(dp4156
g75
I4
ssg76
g4150
sg69
(lp4157
S'{{'
p4158
asbasbasbag62
(g78
g64
NtRp4159
(dp4160
g67
(dp4161
sg76
g4142
sg69
(lp4162
g62
(g83
g64
NtRp4163
(dp4164
g67
(dp4165
sg76
g4159
sg69
(lp4166
g62
(g63
g64
NtRp4167
(dp4168
g67
(dp4169
g75
I4
ssg76
g4163
sg69
(lp4170
S'}}'
p4171
asbasbasbasbasbasbasbag62
(g78
g64
NtRp4172
(dp4173
g67
(dp4174
sg76
g3887
sg69
(lp4175
g62
(g83
g64
NtRp4176
(dp4177
g67
(dp4178
g87
g88
ssg76
g4172
sg69
(lp4179
S'files'
p4180
asbag62
(g83
g64
NtRp4181
(dp4182
g67
(dp4183
g94
g95
ssg76
g4172
sg69
(lp4184
S':'
asbag62
(g83
g64
NtRp4185
(dp4186
g67
(dp4187
sg76
g4172
sg69
(lp4188
g62
(g63
g64
NtRp4189
(dp4190
g67
(dp4191
g75
I5
ssg76
g4185
sg69
(lp4192
g62
(g71
g64
NtRp4193
(dp4194
g67
(dp4195
g75
I4
ssg76
Nsg69
(lp4196
sbasbasbasbag62
(g78
g64
NtRp4197
(dp4198
g67
(dp4199
sg76
g3887
sg69
(lp4200
g62
(g83
g64
NtRp4201
(dp4202
g67
(dp4203
g87
g88
ssg76
g4197
sg69
(lp4204
S'flash'
p4205
asbag62
(g83
g64
NtRp4206
(dp4207
g67
(dp4208
g94
g95
ssg76
g4197
sg69
(lp4209
S':'
asbag62
(g83
g64
NtRp4210
(dp4211
g67
(dp4212
sg76
g4197
sg69
(lp4213
g62
(g63
g64
NtRp4214
(dp4215
g67
(dp4216
g75
I5
ssg76
g4210
sg69
(lp4217
S''
asbasbasbag62
(g78
g64
NtRp4218
(dp4219
g67
(dp4220
sg76
g3887
sg69
(lp4221
g62
(g83
g64
NtRp4222
(dp4223
g67
(dp4224
g87
g88
ssg76
g4218
sg69
(lp4225
S'generic_patterns'
p4226
asbag62
(g83
g64
NtRp4227
(dp4228
g67
(dp4229
g94
g95
ssg76
g4218
sg69
(lp4230
S':'
asbag62
(g83
g64
NtRp4231
(dp4232
g67
(dp4233
sg76
g4218
sg69
(lp4234
g62
(g63
g64
NtRp4235
(dp4236
g67
(dp4237
g75
I5
ssg76
g4231
sg69
(lp4238
g62
(g71
g64
NtRp4239
(dp4240
g67
(dp4241
g75
I4
ssg76
Nsg69
(lp4242
g62
(g78
g64
NtRp4243
(dp4244
g67
(dp4245
sg76
g4239
sg69
(lp4246
g62
(g83
g64
NtRp4247
(dp4248
g67
(dp4249
sg76
g4243
sg69
(lp4250
g62
(g63
g64
NtRp4251
(dp4252
g67
(dp4253
g75
I4
ssg76
g4247
sg69
(lp4254
S'*'
asbasbasbasbasbasbasbag62
(g78
g64
NtRp4255
(dp4256
g67
(dp4257
sg76
g3887
sg69
(lp4258
g62
(g83
g64
NtRp4259
(dp4260
g67
(dp4261
g87
g88
ssg76
g4255
sg69
(lp4262
S'google_analytics_id'
p4263
asbag62
(g83
g64
NtRp4264
(dp4265
g67
(dp4266
g94
g95
ssg76
g4255
sg69
(lp4267
S':'
asbag62
(g83
g64
NtRp4268
(dp4269
g67
(dp4270
sg76
g4255
sg69
(lp4271
g62
(g63
g64
NtRp4272
(dp4273
g67
(dp4274
g75
I5
ssg76
g4268
sg69
(lp4275
S'None'
p4276
asbasbasbag62
(g78
g64
NtRp4277
(dp4278
g67
(dp4279
sg76
g3887
sg69
(lp4280
g62
(g83
g64
NtRp4281
(dp4282
g67
(dp4283
g87
g88
ssg76
g4277
sg69
(lp4284
S'headers'
p4285
asbag62
(g83
g64
NtRp4286
(dp4287
g67
(dp4288
g94
g95
ssg76
g4277
sg69
(lp4289
S':'
asbag62
(g83
g64
NtRp4290
(dp4291
g67
(dp4292
sg76
g4277
sg69
(lp4293
g62
(g63
g64
NtRp4294
(dp4295
g67
(dp4296
g75
I5
ssg76
g4290
sg69
(lp4297
g62
(g71
g64
NtRp4298
(dp4299
g67
(dp4300
g75
I4
ssg76
Nsg69
(lp4301
g62
(g78
g64
NtRp4302
(dp4303
g67
(dp4304
sg76
g4298
sg69
(lp4305
g62
(g83
g64
NtRp4306
(dp4307
g67
(dp4308
g87
g88
ssg76
g4302
sg69
(lp4309
S'X-Powered-By'
p4310
asbag62
(g83
g64
NtRp4311
(dp4312
g67
(dp4313
g94
g95
ssg76
g4302
sg69
(lp4314
S':'
asbag62
(g83
g64
NtRp4315
(dp4316
g67
(dp4317
sg76
g4302
sg69
(lp4318
g62
(g63
g64
NtRp4319
(dp4320
g67
(dp4321
g75
I4
ssg76
g4315
sg69
(lp4322
S'web2py'
p4323
asbasbasbasbasbasbasbag62
(g78
g64
NtRp4324
(dp4325
g67
(dp4326
sg76
g3887
sg69
(lp4327
g62
(g83
g64
NtRp4328
(dp4329
g67
(dp4330
g87
g88
ssg76
g4324
sg69
(lp4331
S'menu'
p4332
asbag62
(g83
g64
NtRp4333
(dp4334
g67
(dp4335
g94
g95
ssg76
g4324
sg69
(lp4336
S':'
asbag62
(g83
g64
NtRp4337
(dp4338
g67
(dp4339
sg76
g4324
sg69
(lp4340
g62
(g63
g64
NtRp4341
(dp4342
g67
(dp4343
g75
I5
ssg76
g4337
sg69
(lp4344
g62
(g71
g64
NtRp4345
(dp4346
g67
(dp4347
g75
I4
ssg76
Nsg69
(lp4348
g62
(g78
g64
NtRp4349
(dp4350
g67
(dp4351
sg76
g4345
sg69
(lp4352
g62
(g83
g64
NtRp4353
(dp4354
g67
(dp4355
sg76
g4349
sg69
(lp4356
g62
(g63
g64
NtRp4357
(dp4358
g67
(dp4359
g75
I4
ssg76
g4353
sg69
(lp4360
g62
(g71
g64
NtRp4361
(dp4362
g67
(dp4363
g75
I3
ssg76
Nsg69
(lp4364
g62
(g78
g64
NtRp4365
(dp4366
g67
(dp4367
sg76
g4361
sg69
(lp4368
g62
(g83
g64
NtRp4369
(dp4370
g67
(dp4371
sg76
g4365
sg69
(lp4372
g62
(g63
g64
NtRp4373
(dp4374
g67
(dp4375
g75
I3
ssg76
g4369
sg69
(lp4376
cgluon.languages
lazyT_unpickle
p4377
(S't\x04\x00\x00\x00Home'
tRp4378
asbasbasbag62
(g78
g64
NtRp4379
(dp4380
g67
(dp4381
sg76
g4361
sg69
(lp4382
g62
(g83
g64
NtRp4383
(dp4384
g67
(dp4385
sg76
g4379
sg69
(lp4386
g62
(g63
g64
NtRp4387
(dp4388
g67
(dp4389
g75
I3
ssg76
g4383
sg69
(lp4390
g105
asbasbasbag62
(g78
g64
NtRp4391
(dp4392
g67
(dp4393
sg76
g4361
sg69
(lp4394
g62
(g83
g64
NtRp4395
(dp4396
g67
(dp4397
sg76
g4391
sg69
(lp4398
g62
(g63
g64
NtRp4399
(dp4400
g67
(dp4401
g75
I3
ssg76
g4395
sg69
(lp4402
S'/WSD_Tool/default/index'
p4403
asbasbasbag62
(g78
g64
NtRp4404
(dp4405
g67
(dp4406
sg76
g4361
sg69
(lp4407
g62
(g83
g64
NtRp4408
(dp4409
g67
(dp4410
sg76
g4404
sg69
(lp4411
g62
(g63
g64
NtRp4412
(dp4413
g67
(dp4414
g75
I3
ssg76
g4408
sg69
(lp4415
g62
(g71
g64
NtRp4416
(dp4417
g67
(dp4418
g75
I2
ssg76
Nsg69
(lp4419
sbasbasbasbasbasbasbasbag62
(g78
g64
NtRp4420
(dp4421
g67
(dp4422
sg76
g4345
sg69
(lp4423
g62
(g83
g64
NtRp4424
(dp4425
g67
(dp4426
sg76
g4420
sg69
(lp4427
g62
(g63
g64
NtRp4428
(dp4429
g67
(dp4430
g75
I4
ssg76
g4424
sg69
(lp4431
g62
(g71
g64
NtRp4432
(dp4433
g67
(dp4434
g75
I3
ssg76
Nsg69
(lp4435
g62
(g78
g64
NtRp4436
(dp4437
g67
(dp4438
sg76
g4432
sg69
(lp4439
g62
(g83
g64
NtRp4440
(dp4441
g67
(dp4442
sg76
g4436
sg69
(lp4443
g62
(g63
g64
NtRp4444
(dp4445
g67
(dp4446
g75
I3
ssg76
g4440
sg69
(lp4447
g62
(cgluon.html
SPAN
p4448
g64
NtRp4449
(dp4450
g67
(dp4451
g87
S'color:yellow'
p4452
ssg76
Nsg69
(lp4453
g4323
asbasbasbasbag62
(g78
g64
NtRp4454
(dp4455
g67
(dp4456
sg76
g4432
sg69
(lp4457
g62
(g83
g64
NtRp4458
(dp4459
g67
(dp4460
sg76
g4454
sg69
(lp4461
g62
(g63
g64
NtRp4462
(dp4463
g67
(dp4464
g75
I3
ssg76
g4458
sg69
(lp4465
g105
asbasbasbag62
(g78
g64
NtRp4466
(dp4467
g67
(dp4468
sg76
g4432
sg69
(lp4469
g62
(g83
g64
NtRp4470
(dp4471
g67
(dp4472
sg76
g4466
sg69
(lp4473
g62
(g63
g64
NtRp4474
(dp4475
g67
(dp4476
g75
I3
ssg76
g4470
sg69
(lp4477
S'None'
p4478
asbasbasbag62
(g78
g64
NtRp4479
(dp4480
g67
(dp4481
sg76
g4432
sg69
(lp4482
g62
(g83
g64
NtRp4483
(dp4484
g67
(dp4485
sg76
g4479
sg69
(lp4486
g62
(g63
g64
NtRp4487
(dp4488
g67
(dp4489
g75
I3
ssg76
g4483
sg69
(lp4490
g62
(g71
g64
NtRp4491
(dp4492
g67
(dp4493
g75
I2
ssg76
Nsg69
(lp4494
g62
(g78
g64
NtRp4495
(dp4496
g67
(dp4497
sg76
g4491
sg69
(lp4498
g62
(g83
g64
NtRp4499
(dp4500
g67
(dp4501
sg76
g4495
sg69
(lp4502
g62
(g63
g64
NtRp4503
(dp4504
g67
(dp4505
g75
I2
ssg76
g4499
sg69
(lp4506
g62
(g71
g64
NtRp4507
(dp4508
g67
(dp4509
g75
I1
ssg76
Nsg69
(lp4510
g62
(g78
g64
NtRp4511
(dp4512
g67
(dp4513
sg76
g4507
sg69
(lp4514
g62
(g83
g64
NtRp4515
(dp4516
g67
(dp4517
sg76
g4511
sg69
(lp4518
g62
(g63
g64
NtRp4519
(dp4520
g67
(dp4521
g75
I1
ssg76
g4515
sg69
(lp4522
g4377
(S's\x08\x00\x00\x00My Sites'
tRp4523
asbasbasbag62
(g78
g64
NtRp4524
(dp4525
g67
(dp4526
sg76
g4507
sg69
(lp4527
g62
(g83
g64
NtRp4528
(dp4529
g67
(dp4530
sg76
g4524
sg69
(lp4531
g62
(g63
g64
NtRp4532
(dp4533
g67
(dp4534
g75
I1
ssg76
g4528
sg69
(lp4535
I00
asbasbasbag62
(g78
g64
NtRp4536
(dp4537
g67
(dp4538
sg76
g4507
sg69
(lp4539
g62
(g83
g64
NtRp4540
(dp4541
g67
(dp4542
sg76
g4536
sg69
(lp4543
g62
(g63
g64
NtRp4544
(dp4545
g67
(dp4546
g75
I1
ssg76
g4540
sg69
(lp4547
S'/admin/default/site'
p4548
asbasbasbasbasbasbasbag62
(g78
g64
NtRp4549
(dp4550
g67
(dp4551
sg76
g4491
sg69
(lp4552
g62
(g83
g64
NtRp4553
(dp4554
g67
(dp4555
sg76
g4549
sg69
(lp4556
g62
(g63
g64
NtRp4557
(dp4558
g67
(dp4559
g75
I2
ssg76
g4553
sg69
(lp4560
g62
(g71
g64
NtRp4561
(dp4562
g67
(dp4563
g75
I1
ssg76
Nsg69
(lp4564
g62
(g78
g64
NtRp4565
(dp4566
g67
(dp4567
sg76
g4561
sg69
(lp4568
g62
(g83
g64
NtRp4569
(dp4570
g67
(dp4571
sg76
g4565
sg69
(lp4572
g62
(g63
g64
NtRp4573
(dp4574
g67
(dp4575
g75
I1
ssg76
g4569
sg69
(lp4576
g4377
(S's\x08\x00\x00\x00This App'
tRp4577
asbasbasbag62
(g78
g64
NtRp4578
(dp4579
g67
(dp4580
sg76
g4561
sg69
(lp4581
g62
(g83
g64
NtRp4582
(dp4583
g67
(dp4584
sg76
g4578
sg69
(lp4585
g62
(g63
g64
NtRp4586
(dp4587
g67
(dp4588
g75
I1
ssg76
g4582
sg69
(lp4589
I00
asbasbasbag62
(g78
g64
NtRp4590
(dp4591
g67
(dp4592
sg76
g4561
sg69
(lp4593
g62
(g83
g64
NtRp4594
(dp4595
g67
(dp4596
sg76
g4590
sg69
(lp4597
g62
(g63
g64
NtRp4598
(dp4599
g67
(dp4600
g75
I1
ssg76
g4594
sg69
(lp4601
S'/admin/default/design/WSD_Tool'
p4602
asbasbasbag62
(g78
g64
NtRp4603
(dp4604
g67
(dp4605
sg76
g4561
sg69
(lp4606
g62
(g83
g64
NtRp4607
(dp4608
g67
(dp4609
sg76
g4603
sg69
(lp4610
g62
(g63
g64
NtRp4611
(dp4612
g67
(dp4613
g75
I1
ssg76
g4607
sg69
(lp4614
(lp4615
(g4377
(S't\n\x00\x00\x00Controller'
tRp4616
I00
S'/admin/default/edit/WSD_Tool/controllers/default.py'
tp4617
a(g4377
(S't\x04\x00\x00\x00View'
tRp4618
I00
S'/admin/default/edit/WSD_Tool/views/default/rel.html'
tp4619
a(g4377
(S't\x06\x00\x00\x00Layout'
tRp4620
I00
S'/admin/default/edit/WSD_Tool/views/layout.html'
tp4621
a(g4377
(S't\n\x00\x00\x00Stylesheet'
tRp4622
I00
S'/admin/default/edit/WSD_Tool/static/css/web2py.css'
tp4623
a(g4377
(S's\x08\x00\x00\x00DB Model'
tRp4624
I00
S'/admin/default/edit/WSD_Tool/models/db.py'
tp4625
a(g4377
(S's\n\x00\x00\x00Menu Model'
tRp4626
I00
S'/admin/default/edit/WSD_Tool/models/menu.py'
tp4627
a(g4377
(S't\x08\x00\x00\x00Database'
tRp4628
I00
S'/WSD_Tool/appadmin/index'
tp4629
a(g4377
(S't\x06\x00\x00\x00Errors'
tRp4630
I00
S'/admin/default/errors/WSD_Tool'
tp4631
a(g4377
(S't\x05\x00\x00\x00About'
tRp4632
I00
S'/admin/default/about/WSD_Tool'
tp4633
aasbasbasbasbasbasbasbag62
(g78
g64
NtRp4634
(dp4635
g67
(dp4636
sg76
g4491
sg69
(lp4637
g62
(g83
g64
NtRp4638
(dp4639
g67
(dp4640
sg76
g4634
sg69
(lp4641
g62
(g63
g64
NtRp4642
(dp4643
g67
(dp4644
g75
I2
ssg76
g4638
sg69
(lp4645
g62
(g71
g64
NtRp4646
(dp4647
g67
(dp4648
g75
I1
ssg76
Nsg69
(lp4649
g62
(g78
g64
NtRp4650
(dp4651
g67
(dp4652
sg76
g4646
sg69
(lp4653
g62
(g83
g64
NtRp4654
(dp4655
g67
(dp4656
sg76
g4650
sg69
(lp4657
g62
(g63
g64
NtRp4658
(dp4659
g67
(dp4660
g75
I1
ssg76
g4654
sg69
(lp4661
S'web2py.com'
p4662
asbasbasbag62
(g78
g64
NtRp4663
(dp4664
g67
(dp4665
sg76
g4646
sg69
(lp4666
g62
(g83
g64
NtRp4667
(dp4668
g67
(dp4669
sg76
g4663
sg69
(lp4670
g62
(g63
g64
NtRp4671
(dp4672
g67
(dp4673
g75
I1
ssg76
g4667
sg69
(lp4674
I00
asbasbasbag62
(g78
g64
NtRp4675
(dp4676
g67
(dp4677
sg76
g4646
sg69
(lp4678
g62
(g83
g64
NtRp4679
(dp4680
g67
(dp4681
sg76
g4675
sg69
(lp4682
g62
(g63
g64
NtRp4683
(dp4684
g67
(dp4685
g75
I1
ssg76
g4679
sg69
(lp4686
S'http://www.web2py.com'
p4687
asbasbasbag62
(g78
g64
NtRp4688
(dp4689
g67
(dp4690
sg76
g4646
sg69
(lp4691
g62
(g83
g64
NtRp4692
(dp4693
g67
(dp4694
sg76
g4688
sg69
(lp4695
g62
(g63
g64
NtRp4696
(dp4697
g67
(dp4698
g75
I1
ssg76
g4692
sg69
(lp4699
(lp4700
(g4377
(S't\x08\x00\x00\x00Download'
tRp4701
I00
S'http://www.web2py.com/examples/default/download'
p4702
tp4703
a(g4377
(S't\x07\x00\x00\x00Support'
tRp4704
I00
S'http://www.web2py.com/examples/default/support'
p4705
tp4706
a(g4377
(S't\x04\x00\x00\x00Demo'
tRp4707
I00
S'http://web2py.com/demo_admin'
p4708
tp4709
a(g4377
(S's\x0e\x00\x00\x00Quick Examples'
tRp4710
I00
S'http://web2py.com/examples/default/examples'
p4711
tp4712
a(g4377
(S't\x03\x00\x00\x00FAQ'
tRp4713
I00
S'http://web2py.com/AlterEgo'
p4714
tp4715
a(g4377
(S't\x06\x00\x00\x00Videos'
tRp4716
I00
S'http://www.web2py.com/examples/default/videos/'
p4717
tp4718
a(g4377
(S's\x11\x00\x00\x00Free Applications'
tRp4719
I00
S'http://web2py.com/appliances'
p4720
tp4721
a(g4377
(S't\x07\x00\x00\x00Plugins'
tRp4722
I00
S'http://web2py.com/plugins'
p4723
tp4724
a(g4377
(S't\x07\x00\x00\x00Layouts'
tRp4725
I00
S'http://web2py.com/layouts'
p4726
tp4727
a(g4377
(S't\x07\x00\x00\x00Recipes'
tRp4728
I00
S'http://web2pyslices.com/'
p4729
tp4730
a(g4377
(S't\x08\x00\x00\x00Semantic'
tRp4731
I00
S'http://web2py.com/semantic'
p4732
tp4733
aasbasbasbasbasbasbasbag62
(g78
g64
NtRp4734
(dp4735
g67
(dp4736
sg76
g4491
sg69
(lp4737
g62
(g83
g64
NtRp4738
(dp4739
g67
(dp4740
sg76
g4734
sg69
(lp4741
g62
(g63
g64
NtRp4742
(dp4743
g67
(dp4744
g75
I2
ssg76
g4738
sg69
(lp4745
g62
(g71
g64
NtRp4746
(dp4747
g67
(dp4748
g75
I1
ssg76
Nsg69
(lp4749
g62
(g78
g64
NtRp4750
(dp4751
g67
(dp4752
sg76
g4746
sg69
(lp4753
g62
(g83
g64
NtRp4754
(dp4755
g67
(dp4756
sg76
g4750
sg69
(lp4757
g62
(g63
g64
NtRp4758
(dp4759
g67
(dp4760
g75
I1
ssg76
g4754
sg69
(lp4761
g4377
(S't\r\x00\x00\x00Documentation'
tRp4762
asbasbasbag62
(g78
g64
NtRp4763
(dp4764
g67
(dp4765
sg76
g4746
sg69
(lp4766
g62
(g83
g64
NtRp4767
(dp4768
g67
(dp4769
sg76
g4763
sg69
(lp4770
g62
(g63
g64
NtRp4771
(dp4772
g67
(dp4773
g75
I1
ssg76
g4767
sg69
(lp4774
I00
asbasbasbag62
(g78
g64
NtRp4775
(dp4776
g67
(dp4777
sg76
g4746
sg69
(lp4778
g62
(g83
g64
NtRp4779
(dp4780
g67
(dp4781
sg76
g4775
sg69
(lp4782
g62
(g63
g64
NtRp4783
(dp4784
g67
(dp4785
g75
I1
ssg76
g4779
sg69
(lp4786
S'http://www.web2py.com/book'
p4787
asbasbasbag62
(g78
g64
NtRp4788
(dp4789
g67
(dp4790
sg76
g4746
sg69
(lp4791
g62
(g83
g64
NtRp4792
(dp4793
g67
(dp4794
sg76
g4788
sg69
(lp4795
g62
(g63
g64
NtRp4796
(dp4797
g67
(dp4798
g75
I1
ssg76
g4792
sg69
(lp4799
(lp4800
(g4377
(S't\x07\x00\x00\x00Preface'
tRp4801
I00
S'http://www.web2py.com/book/default/chapter/00'
p4802
tp4803
a(g4377
(S't\x0c\x00\x00\x00Introduction'
tRp4804
I00
S'http://www.web2py.com/book/default/chapter/01'
p4805
tp4806
a(g4377
(S't\x06\x00\x00\x00Python'
tRp4807
I00
S'http://www.web2py.com/book/default/chapter/02'
p4808
tp4809
a(g4377
(S't\x08\x00\x00\x00Overview'
tRp4810
I00
S'http://www.web2py.com/book/default/chapter/03'
p4811
tp4812
a(g4377
(S's\x08\x00\x00\x00The Core'
tRp4813
I00
S'http://www.web2py.com/book/default/chapter/04'
p4814
tp4815
a(g4377
(S's\t\x00\x00\x00The Views'
tRp4816
I00
S'http://www.web2py.com/book/default/chapter/05'
p4817
tp4818
a(g4377
(S't\x08\x00\x00\x00Database'
tRp4819
I00
S'http://www.web2py.com/book/default/chapter/06'
p4820
tp4821
a(g4377
(S's\x14\x00\x00\x00Forms and Validators'
tRp4822
I00
S'http://www.web2py.com/book/default/chapter/07'
p4823
tp4824
a(g4377
(S's\r\x00\x00\x00Email and SMS'
tRp4825
I00
S'http://www.web2py.com/book/default/chapter/08'
p4826
tp4827
a(g4377
(S's\x0e\x00\x00\x00Access Control'
tRp4828
I00
S'http://www.web2py.com/book/default/chapter/09'
p4829
tp4830
a(g4377
(S't\x08\x00\x00\x00Services'
tRp4831
I00
S'http://www.web2py.com/book/default/chapter/10'
p4832
tp4833
a(g4377
(S's\x0c\x00\x00\x00Ajax Recipes'
tRp4834
I00
S'http://www.web2py.com/book/default/chapter/11'
p4835
tp4836
a(g4377
(S's\x16\x00\x00\x00Components and Plugins'
tRp4837
I00
S'http://www.web2py.com/book/default/chapter/12'
p4838
tp4839
a(g4377
(S's\x12\x00\x00\x00Deployment Recipes'
tRp4840
I00
S'http://www.web2py.com/book/default/chapter/13'
p4841
tp4842
a(g4377
(S's\r\x00\x00\x00Other Recipes'
tRp4843
I00
S'http://www.web2py.com/book/default/chapter/14'
p4844
tp4845
a(g4377
(S's\r\x00\x00\x00Buy this book'
tRp4846
I00
S'http://stores.lulu.com/web2py'
p4847
tp4848
aasbasbasbasbasbasbasbag62
(g78
g64
NtRp4849
(dp4850
g67
(dp4851
sg76
g4491
sg69
(lp4852
g62
(g83
g64
NtRp4853
(dp4854
g67
(dp4855
sg76
g4849
sg69
(lp4856
g62
(g63
g64
NtRp4857
(dp4858
g67
(dp4859
g75
I2
ssg76
g4853
sg69
(lp4860
g62
(g71
g64
NtRp4861
(dp4862
g67
(dp4863
g75
I1
ssg76
Nsg69
(lp4864
g62
(g78
g64
NtRp4865
(dp4866
g67
(dp4867
sg76
g4861
sg69
(lp4868
g62
(g83
g64
NtRp4869
(dp4870
g67
(dp4871
sg76
g4865
sg69
(lp4872
g62
(g63
g64
NtRp4873
(dp4874
g67
(dp4875
g75
I1
ssg76
g4869
sg69
(lp4876
g4377
(S't\t\x00\x00\x00Community'
tRp4877
asbasbasbag62
(g78
g64
NtRp4878
(dp4879
g67
(dp4880
sg76
g4861
sg69
(lp4881
g62
(g83
g64
NtRp4882
(dp4883
g67
(dp4884
sg76
g4878
sg69
(lp4885
g62
(g63
g64
NtRp4886
(dp4887
g67
(dp4888
g75
I1
ssg76
g4882
sg69
(lp4889
I00
asbasbasbag62
(g78
g64
NtRp4890
(dp4891
g67
(dp4892
sg76
g4861
sg69
(lp4893
g62
(g83
g64
NtRp4894
(dp4895
g67
(dp4896
sg76
g4890
sg69
(lp4897
g62
(g63
g64
NtRp4898
(dp4899
g67
(dp4900
g75
I1
ssg76
g4894
sg69
(lp4901
Nasbasbasbag62
(g78
g64
NtRp4902
(dp4903
g67
(dp4904
sg76
g4861
sg69
(lp4905
g62
(g83
g64
NtRp4906
(dp4907
g67
(dp4908
sg76
g4902
sg69
(lp4909
g62
(g63
g64
NtRp4910
(dp4911
g67
(dp4912
g75
I1
ssg76
g4906
sg69
(lp4913
(lp4914
(g4377
(S't\x06\x00\x00\x00Groups'
tRp4915
I00
S'http://www.web2py.com/examples/default/usergroups'
p4916
tp4917
a(g4377
(S't\x07\x00\x00\x00Twitter'
tRp4918
I00
S'http://twitter.com/web2py'
p4919
tp4920
a(g4377
(S's\t\x00\x00\x00Live Chat'
tRp4921
I00
S'http://webchat.freenode.net/?channels=web2py'
p4922
tp4923
aasbasbasbasbasbasbasbag62
(g78
g64
NtRp4924
(dp4925
g67
(dp4926
sg76
g4491
sg69
(lp4927
g62
(g83
g64
NtRp4928
(dp4929
g67
(dp4930
sg76
g4924
sg69
(lp4931
g62
(g63
g64
NtRp4932
(dp4933
g67
(dp4934
g75
I2
ssg76
g4928
sg69
(lp4935
g62
(g71
g64
NtRp4936
(dp4937
g67
(dp4938
g75
I1
ssg76
Nsg69
(lp4939
g62
(g78
g64
NtRp4940
(dp4941
g67
(dp4942
sg76
g4936
sg69
(lp4943
g62
(g83
g64
NtRp4944
(dp4945
g67
(dp4946
sg76
g4940
sg69
(lp4947
g62
(g63
g64
NtRp4948
(dp4949
g67
(dp4950
g75
I1
ssg76
g4944
sg69
(lp4951
g4377
(S't\x07\x00\x00\x00Plugins'
tRp4952
asbasbasbag62
(g78
g64
NtRp4953
(dp4954
g67
(dp4955
sg76
g4936
sg69
(lp4956
g62
(g83
g64
NtRp4957
(dp4958
g67
(dp4959
sg76
g4953
sg69
(lp4960
g62
(g63
g64
NtRp4961
(dp4962
g67
(dp4963
g75
I1
ssg76
g4957
sg69
(lp4964
I00
asbasbasbag62
(g78
g64
NtRp4965
(dp4966
g67
(dp4967
sg76
g4936
sg69
(lp4968
g62
(g83
g64
NtRp4969
(dp4970
g67
(dp4971
sg76
g4965
sg69
(lp4972
g62
(g63
g64
NtRp4973
(dp4974
g67
(dp4975
g75
I1
ssg76
g4969
sg69
(lp4976
Nasbasbasbag62
(g78
g64
NtRp4977
(dp4978
g67
(dp4979
sg76
g4936
sg69
(lp4980
g62
(g83
g64
NtRp4981
(dp4982
g67
(dp4983
sg76
g4977
sg69
(lp4984
g62
(g63
g64
NtRp4985
(dp4986
g67
(dp4987
g75
I1
ssg76
g4981
sg69
(lp4988
(lp4989
(S'plugin_wiki'
p4990
I00
S'http://web2py.com/examples/default/download'
p4991
tp4992
a(g4377
(S's\r\x00\x00\x00Other Plugins'
tRp4993
I00
g4723
tp4994
a(g4377
(S's\x0e\x00\x00\x00Layout Plugins'
tRp4995
I00
g4726
tp4996
aasbasbasbasbasbasbasbasbasbasbasbasbasbasbasbasbasbasbasbag62
(g78
g64
NtRp4997
(dp4998
g67
(dp4999
sg76
g3887
sg69
(lp5000
g62
(g83
g64
NtRp5001
(dp5002
g67
(dp5003
g87
g88
ssg76
g4997
sg69
(lp5004
S'meta'
p5005
asbag62
(g83
g64
NtRp5006
(dp5007
g67
(dp5008
g94
g95
ssg76
g4997
sg69
(lp5009
S':'
asbag62
(g83
g64
NtRp5010
(dp5011
g67
(dp5012
sg76
g4997
sg69
(lp5013
g62
(g63
g64
NtRp5014
(dp5015
g67
(dp5016
g75
I5
ssg76
g5010
sg69
(lp5017
g62
(g71
g64
NtRp5018
(dp5019
g67
(dp5020
g75
I4
ssg76
Nsg69
(lp5021
g62
(g78
g64
NtRp5022
(dp5023
g67
(dp5024
sg76
g5018
sg69
(lp5025
g62
(g83
g64
NtRp5026
(dp5027
g67
(dp5028
g87
g88
ssg76
g5022
sg69
(lp5029
S'author'
p5030
asbag62
(g83
g64
NtRp5031
(dp5032
g67
(dp5033
g94
g95
ssg76
g5022
sg69
(lp5034
S':'
asbag62
(g83
g64
NtRp5035
(dp5036
g67
(dp5037
sg76
g5022
sg69
(lp5038
g62
(g63
g64
NtRp5039
(dp5040
g67
(dp5041
g75
I4
ssg76
g5035
sg69
(lp5042
S'Your Name <you@example.com>'
p5043
asbasbasbag62
(g78
g64
NtRp5044
(dp5045
g67
(dp5046
sg76
g5018
sg69
(lp5047
g62
(g83
g64
NtRp5048
(dp5049
g67
(dp5050
g87
g88
ssg76
g5044
sg69
(lp5051
S'copyright'
p5052
asbag62
(g83
g64
NtRp5053
(dp5054
g67
(dp5055
g94
g95
ssg76
g5044
sg69
(lp5056
S':'
asbag62
(g83
g64
NtRp5057
(dp5058
g67
(dp5059
sg76
g5044
sg69
(lp5060
g62
(g63
g64
NtRp5061
(dp5062
g67
(dp5063
g75
I4
ssg76
g5057
sg69
(lp5064
S'Copyright 2011'
p5065
asbasbasbag62
(g78
g64
NtRp5066
(dp5067
g67
(dp5068
sg76
g5018
sg69
(lp5069
g62
(g83
g64
NtRp5070
(dp5071
g67
(dp5072
g87
g88
ssg76
g5066
sg69
(lp5073
S'description'
p5074
asbag62
(g83
g64
NtRp5075
(dp5076
g67
(dp5077
g94
g95
ssg76
g5066
sg69
(lp5078
S':'
asbag62
(g83
g64
NtRp5079
(dp5080
g67
(dp5081
sg76
g5066
sg69
(lp5082
g62
(g63
g64
NtRp5083
(dp5084
g67
(dp5085
g75
I4
ssg76
g5079
sg69
(lp5086
S'a cool new app'
p5087
asbasbasbag62
(g78
g64
NtRp5088
(dp5089
g67
(dp5090
sg76
g5018
sg69
(lp5091
g62
(g83
g64
NtRp5092
(dp5093
g67
(dp5094
g87
g88
ssg76
g5088
sg69
(lp5095
S'generator'
p5096
asbag62
(g83
g64
NtRp5097
(dp5098
g67
(dp5099
g94
g95
ssg76
g5088
sg69
(lp5100
S':'
asbag62
(g83
g64
NtRp5101
(dp5102
g67
(dp5103
sg76
g5088
sg69
(lp5104
g62
(g63
g64
NtRp5105
(dp5106
g67
(dp5107
g75
I4
ssg76
g5101
sg69
(lp5108
S'Web2py Web Framework'
p5109
asbasbasbag62
(g78
g64
NtRp5110
(dp5111
g67
(dp5112
sg76
g5018
sg69
(lp5113
g62
(g83
g64
NtRp5114
(dp5115
g67
(dp5116
g87
g88
ssg76
g5110
sg69
(lp5117
S'keywords'
p5118
asbag62
(g83
g64
NtRp5119
(dp5120
g67
(dp5121
g94
g95
ssg76
g5110
sg69
(lp5122
S':'
asbag62
(g83
g64
NtRp5123
(dp5124
g67
(dp5125
sg76
g5110
sg69
(lp5126
g62
(g63
g64
NtRp5127
(dp5128
g67
(dp5129
g75
I4
ssg76
g5123
sg69
(lp5130
S'web2py, python, framework'
p5131
asbasbasbasbasbasbasbag62
(g78
g64
NtRp5132
(dp5133
g67
(dp5134
sg76
g3887
sg69
(lp5135
g62
(g83
g64
NtRp5136
(dp5137
g67
(dp5138
g87
g88
ssg76
g5132
sg69
(lp5139
S'models_to_run'
p5140
asbag62
(g83
g64
NtRp5141
(dp5142
g67
(dp5143
g94
g95
ssg76
g5132
sg69
(lp5144
S':'
asbag62
(g83
g64
NtRp5145
(dp5146
g67
(dp5147
sg76
g5132
sg69
(lp5148
g62
(g63
g64
NtRp5149
(dp5150
g67
(dp5151
g75
I5
ssg76
g5145
sg69
(lp5152
g62
(g71
g64
NtRp5153
(dp5154
g67
(dp5155
g75
I4
ssg76
Nsg69
(lp5156
g62
(g78
g64
NtRp5157
(dp5158
g67
(dp5159
sg76
g5153
sg69
(lp5160
g62
(g83
g64
NtRp5161
(dp5162
g67
(dp5163
sg76
g5157
sg69
(lp5164
g62
(g63
g64
NtRp5165
(dp5166
g67
(dp5167
g75
I4
ssg76
g5161
sg69
(lp5168
S'^\\w+\\.py$'
p5169
asbasbasbag62
(g78
g64
NtRp5170
(dp5171
g67
(dp5172
sg76
g5153
sg69
(lp5173
g62
(g83
g64
NtRp5174
(dp5175
g67
(dp5176
sg76
g5170
sg69
(lp5177
g62
(g63
g64
NtRp5178
(dp5179
g67
(dp5180
g75
I4
ssg76
g5174
sg69
(lp5181
S'^default/\\w+\\.py$'
p5182
asbasbasbag62
(g78
g64
NtRp5183
(dp5184
g67
(dp5185
sg76
g5153
sg69
(lp5186
g62
(g83
g64
NtRp5187
(dp5188
g67
(dp5189
sg76
g5183
sg69
(lp5190
g62
(g63
g64
NtRp5191
(dp5192
g67
(dp5193
g75
I4
ssg76
g5187
sg69
(lp5194
S'^default/rel/\\w+\\.py$'
p5195
asbasbasbasbasbasbasbag62
(g78
g64
NtRp5196
(dp5197
g67
(dp5198
sg76
g3887
sg69
(lp5199
g62
(g83
g64
NtRp5200
(dp5201
g67
(dp5202
g87
g88
ssg76
g5196
sg69
(lp5203
S'postprocessing'
p5204
asbag62
(g83
g64
NtRp5205
(dp5206
g67
(dp5207
g94
g95
ssg76
g5196
sg69
(lp5208
S':'
asbag62
(g83
g64
NtRp5209
(dp5210
g67
(dp5211
sg76
g5196
sg69
(lp5212
g62
(g63
g64
NtRp5213
(dp5214
g67
(dp5215
g75
I5
ssg76
g5209
sg69
(lp5216
g62
(g71
g64
NtRp5217
(dp5218
g67
(dp5219
g75
I4
ssg76
Nsg69
(lp5220
sbasbasbasbag62
(g78
g64
NtRp5221
(dp5222
g67
(dp5223
sg76
g3887
sg69
(lp5224
g62
(g83
g64
NtRp5225
(dp5226
g67
(dp5227
g87
g88
ssg76
g5221
sg69
(lp5228
S'session_cookie_expires'
p5229
asbag62
(g83
g64
NtRp5230
(dp5231
g67
(dp5232
g94
g95
ssg76
g5221
sg69
(lp5233
S':'
asbag62
(g83
g64
NtRp5234
(dp5235
g67
(dp5236
sg76
g5221
sg69
(lp5237
g62
(g63
g64
NtRp5238
(dp5239
g67
(dp5240
g75
I5
ssg76
g5234
sg69
(lp5241
S'None'
p5242
asbasbasbag62
(g78
g64
NtRp5243
(dp5244
g67
(dp5245
sg76
g3887
sg69
(lp5246
g62
(g83
g64
NtRp5247
(dp5248
g67
(dp5249
g87
g88
ssg76
g5243
sg69
(lp5250
S'session_data_name'
p5251
asbag62
(g83
g64
NtRp5252
(dp5253
g67
(dp5254
g94
g95
ssg76
g5243
sg69
(lp5255
S':'
asbag62
(g83
g64
NtRp5256
(dp5257
g67
(dp5258
sg76
g5243
sg69
(lp5259
g62
(g63
g64
NtRp5260
(dp5261
g67
(dp5262
g75
I5
ssg76
g5256
sg69
(lp5263
S'session_data_wsd_tool'
p5264
asbasbasbag62
(g78
g64
NtRp5265
(dp5266
g67
(dp5267
sg76
g3887
sg69
(lp5268
g62
(g83
g64
NtRp5269
(dp5270
g67
(dp5271
g87
g88
ssg76
g5265
sg69
(lp5272
S'session_file'
p5273
asbag62
(g83
g64
NtRp5274
(dp5275
g67
(dp5276
g94
g95
ssg76
g5265
sg69
(lp5277
S':'
asbag62
(g83
g64
NtRp5278
(dp5279
g67
(dp5280
sg76
g5265
sg69
(lp5281
g62
(g63
g64
NtRp5282
(dp5283
g67
(dp5284
g75
I5
ssg76
g5278
sg69
(lp5285
S"<open file '/home/nazrul/web2py/applications/WSD_Tool/sessions/127.0.0.1-1b9513ff-7a4a-46e3-9d60-f0b6086e5c03', mode 'rb+' at 0xadca288>"
p5286
asbasbasbag62
(g78
g64
NtRp5287
(dp5288
g67
(dp5289
sg76
g3887
sg69
(lp5290
g62
(g83
g64
NtRp5291
(dp5292
g67
(dp5293
g87
g88
ssg76
g5287
sg69
(lp5294
S'session_filename'
p5295
asbag62
(g83
g64
NtRp5296
(dp5297
g67
(dp5298
g94
g95
ssg76
g5287
sg69
(lp5299
S':'
asbag62
(g83
g64
NtRp5300
(dp5301
g67
(dp5302
sg76
g5287
sg69
(lp5303
g62
(g63
g64
NtRp5304
(dp5305
g67
(dp5306
g75
I5
ssg76
g5300
sg69
(lp5307
S'/home/nazrul/web2py/applications/WSD_Tool/sessions/127.0.0.1-1b9513ff-7a4a-46e3-9d60-f0b6086e5c03'
p5308
asbasbasbag62
(g78
g64
NtRp5309
(dp5310
g67
(dp5311
sg76
g3887
sg69
(lp5312
g62
(g83
g64
NtRp5313
(dp5314
g67
(dp5315
g87
g88
ssg76
g5309
sg69
(lp5316
S'session_id'
p5317
asbag62
(g83
g64
NtRp5318
(dp5319
g67
(dp5320
g94
g95
ssg76
g5309
sg69
(lp5321
S':'
asbag62
(g83
g64
NtRp5322
(dp5323
g67
(dp5324
sg76
g5309
sg69
(lp5325
g62
(g63
g64
NtRp5326
(dp5327
g67
(dp5328
g75
I5
ssg76
g5322
sg69
(lp5329
g852
asbasbasbag62
(g78
g64
NtRp5330
(dp5331
g67
(dp5332
sg76
g3887
sg69
(lp5333
g62
(g83
g64
NtRp5334
(dp5335
g67
(dp5336
g87
g88
ssg76
g5330
sg69
(lp5337
S'session_id_name'
p5338
asbag62
(g83
g64
NtRp5339
(dp5340
g67
(dp5341
g94
g95
ssg76
g5330
sg69
(lp5342
S':'
asbag62
(g83
g64
NtRp5343
(dp5344
g67
(dp5345
sg76
g5330
sg69
(lp5346
g62
(g63
g64
NtRp5347
(dp5348
g67
(dp5349
g75
I5
ssg76
g5343
sg69
(lp5350
g3944
asbasbasbag62
(g78
g64
NtRp5351
(dp5352
g67
(dp5353
sg76
g3887
sg69
(lp5354
g62
(g83
g64
NtRp5355
(dp5356
g67
(dp5357
g87
g88
ssg76
g5351
sg69
(lp5358
S'session_locked'
p5359
asbag62
(g83
g64
NtRp5360
(dp5361
g67
(dp5362
g94
g95
ssg76
g5351
sg69
(lp5363
S':'
asbag62
(g83
g64
NtRp5364
(dp5365
g67
(dp5366
sg76
g5351
sg69
(lp5367
g62
(g63
g64
NtRp5368
(dp5369
g67
(dp5370
g75
I5
ssg76
g5364
sg69
(lp5371
g1938
asbasbasbag62
(g78
g64
NtRp5372
(dp5373
g67
(dp5374
sg76
g3887
sg69
(lp5375
g62
(g83
g64
NtRp5376
(dp5377
g67
(dp5378
g87
g88
ssg76
g5372
sg69
(lp5379
S'session_new'
p5380
asbag62
(g83
g64
NtRp5381
(dp5382
g67
(dp5383
g94
g95
ssg76
g5372
sg69
(lp5384
S':'
asbag62
(g83
g64
NtRp5385
(dp5386
g67
(dp5387
sg76
g5372
sg69
(lp5388
g62
(g63
g64
NtRp5389
(dp5390
g67
(dp5391
g75
I5
ssg76
g5385
sg69
(lp5392
g105
asbasbasbag62
(g78
g64
NtRp5393
(dp5394
g67
(dp5395
sg76
g3887
sg69
(lp5396
g62
(g83
g64
NtRp5397
(dp5398
g67
(dp5399
g87
g88
ssg76
g5393
sg69
(lp5400
S'session_storage_type'
p5401
asbag62
(g83
g64
NtRp5402
(dp5403
g67
(dp5404
g94
g95
ssg76
g5393
sg69
(lp5405
S':'
asbag62
(g83
g64
NtRp5406
(dp5407
g67
(dp5408
sg76
g5393
sg69
(lp5409
g62
(g63
g64
NtRp5410
(dp5411
g67
(dp5412
g75
I5
ssg76
g5406
sg69
(lp5413
g3348
asbasbasbag62
(g78
g64
NtRp5414
(dp5415
g67
(dp5416
sg76
g3887
sg69
(lp5417
g62
(g83
g64
NtRp5418
(dp5419
g67
(dp5420
g87
g88
ssg76
g5414
sg69
(lp5421
S'status'
p5422
asbag62
(g83
g64
NtRp5423
(dp5424
g67
(dp5425
g94
g95
ssg76
g5414
sg69
(lp5426
S':'
asbag62
(g83
g64
NtRp5427
(dp5428
g67
(dp5429
sg76
g5414
sg69
(lp5430
g62
(g63
g64
NtRp5431
(dp5432
g67
(dp5433
g75
I5
ssg76
g5427
sg69
(lp5434
S'200'
p5435
asbasbasbag62
(g78
g64
NtRp5436
(dp5437
g67
(dp5438
sg76
g3887
sg69
(lp5439
g62
(g83
g64
NtRp5440
(dp5441
g67
(dp5442
g87
g88
ssg76
g5436
sg69
(lp5443
S'subtitle'
p5444
asbag62
(g83
g64
NtRp5445
(dp5446
g67
(dp5447
g94
g95
ssg76
g5436
sg69
(lp5448
S':'
asbag62
(g83
g64
NtRp5449
(dp5450
g67
(dp5451
sg76
g5436
sg69
(lp5452
g62
(g63
g64
NtRp5453
(dp5454
g67
(dp5455
g75
I5
ssg76
g5449
sg69
(lp5456
g4377
(S's\r\x00\x00\x00customize me!'
tRp5457
asbasbasbag62
(g78
g64
NtRp5458
(dp5459
g67
(dp5460
sg76
g3887
sg69
(lp5461
g62
(g83
g64
NtRp5462
(dp5463
g67
(dp5464
g87
g88
ssg76
g5458
sg69
(lp5465
S'title'
p5466
asbag62
(g83
g64
NtRp5467
(dp5468
g67
(dp5469
g94
g95
ssg76
g5458
sg69
(lp5470
S':'
asbag62
(g83
g64
NtRp5471
(dp5472
g67
(dp5473
sg76
g5458
sg69
(lp5474
g62
(g63
g64
NtRp5475
(dp5476
g67
(dp5477
g75
I5
ssg76
g5471
sg69
(lp5478
S'Wsd Tool'
p5479
asbasbasbag62
(g78
g64
NtRp5480
(dp5481
g67
(dp5482
sg76
g3887
sg69
(lp5483
g62
(g83
g64
NtRp5484
(dp5485
g67
(dp5486
g87
g88
ssg76
g5480
sg69
(lp5487
S'view'
p5488
asbag62
(g83
g64
NtRp5489
(dp5490
g67
(dp5491
g94
g95
ssg76
g5480
sg69
(lp5492
S':'
asbag62
(g83
g64
NtRp5493
(dp5494
g67
(dp5495
sg76
g5480
sg69
(lp5496
g62
(g63
g64
NtRp5497
(dp5498
g67
(dp5499
g75
I5
ssg76
g5493
sg69
(lp5500
S'default/rel.html'
p5501
asbasbasbasbasbsS'locals'
p5502
(dp5503
S's'
S"'There is no asbestos in our products now'"
p5504
sssS'traceback'
p5505
S'Traceback (most recent call last):\n  File "/home/nazrul/web2py/gluon/restricted.py", line 212, in restricted\n    exec ccode in environment\n  File "/home/nazrul/web2py/applications/WSD_Tool/controllers/default.py", line 260, in <module>\n  File "/home/nazrul/web2py/gluon/globals.py", line 193, in <lambda>\n    self._caller = lambda f: f()\n  File "/home/nazrul/web2py/applications/WSD_Tool/controllers/default.py", line 251, in rel\n    f=open(\'$HOME_anu_tmp/tmp/sample_tmp/2.1/word.dat\',\'r\')\nIOError: [Errno 2] No such file or directory: \'$HOME_anu_tmp/tmp/sample_tmp/2.1/word.dat\'\n'
p5506
s.