(dp1
S'output'
p2
S"<type 'exceptions.IOError'> [Errno 2] No such file or directory: '/home/nazrul/Dropbox/iiit/sem3/ssad/project/tmp_anu_dir/tmp/sample_tmp/2.1/word.dat'"
p3
sS'layer'
p4
S'/home/nazrul/web2py/applications/WSD/controllers/default.py'
p5
sS'code'
p6
S'# -*- coding: utf-8 -*-\n# this file is released under public domain and you can use without limitations\n\n#########################################################################\n## This is a samples controller\n## - index is the default action of any application\n## - user is required for authentication and authorization\n## - download is for downloading files uploaded in the db (does streaming)word_select?check=1\n## - call exposes all registered services (none by default)\n#########################################################################\nimport os,subprocess\ndef index():\n    redirect(URL(\'home\'))\n    """\n    example action using the internationalization operator T and flash\n    rendered by views/default/index.html or views/generic.html\n    """\n    response.flash = "Welcome to web2py!"\n    return dict(message=T(\'Hello World\'))\n\ndef user():\n    """\n    exposes:\n    http://..../[app]/default/user/login\n    http://..../[app]/default/user/logout\n    http://..../[app]/default/user/register\n    http://..../[app]/default/user/profile\n    http://..../[app]/default/user/retrieve_password\n    http://..../[app]/default/user/change_password\n    use @auth.requires_login()\n        @auth.requires_membership(\'group name\')\n        @auth.requires_permission(\'read\',\'table name\',record_id)\n    to decorate functions that need access control\n    """\n    return dict(form=auth())\n\n\ndef download():\n    """\n    allows downloading of uploaded files\n    http://..../[app]/default/download/[filename]\n    """\n    return response.download(request,db)\n\n\ndef call():\n    """\n    exposes services. for example:\n    http://..../[app]/default/call/jsonrpc\n    decorate with @services.jsonrpc the functions to expose\n    supports xml, json, xmlrpc, jsonrpc, amfrpc, rss, csv\n    """\n    return service()\n\n\n@auth.requires_signature()\ndef data():\n    """\n    http://..../[app]/default/data/tables\n    http://..../[app]/default/data/create/[table]\n    http://..../[app]/default/data/read/[table]/[id]\n    http://..../[app]/default/data/update/[table]/[id]\n    http://..../[app]/default/data/delete/[table]/[id]\n    http://..../[app]/default/data/select/[table]\n    http://..../[app]/default/data/search/[table]\n    but URLs must be signed, i.e. linked with\n      A(\'table\',_href=URL(\'data/tables\',user_signature=True))\n    or with the signed load operator\n      LOAD(\'default\',\'data.load\',args=\'tables\',ajax=True,user_signature=True)\n    """\n    return dict(form=crud())\n\n\n\n\n@auth.requires_login()\ndef home():\n    t = auth.user.id\n    h = db(db.rules.userid==t).select()\n    g = []\n    for i in h:\n        g.append(db(db.words.id==i.wid).select(db.words.word))\n    h=[]\n    for i in g:\n        for j in i:\n            h.append(j.word) \n    h=list(set(h))\n    return dict(t=t,h=h)\n\n@auth.requires_login()\ndef word_select():\n    if not request.vars.check:\n        redirect(\'home\')\n    else:\n        check=0\n    if request.vars.submit:\n        session.level = request.vars.level\n        w = request.vars.word\n        t = db(db.words).select()\n        for i in t:\n            if i.word==w:\n                session.word = w\n                session.ide = i.id\n                break\n        redirect(\'sentence_select\')\n    return dict()\n\n@auth.requires_login()\n@auth.requires_membership(\'admin\')\ndef changelevel():\n    if request.vars.submit:\n        if request.vars.new_email:\n            db(db.user_level).insert(email=request.vars.new_email,level=request.vars.level)\n        else:\n            db(db.user_level.email==request.vars.emailq).update(level=request.vars.level)\n        redirect(\'home\')\n    return dict()\n\n\n@auth.requires_login()\ndef word_selectc():\n    if not request.vars.check:\n        redirect(\'home\')\n    else:\n        check=0\n    if request.vars.submit:\n        session.level = request.vars.level\n        w = request.vars.word\n        t = db(db.words).select()\n        for i in t:\n            if i.word==w:\n                session.word = w\n                session.ide = i.id\n                break\n        redirect(URL(\'sentence_selectc\',vars=dict(second=request.vars.second)))\n    return dict()\n    \n#@auth.requires_login()\n#def reason():\n#    t=session.senid\n#    pre=db((db.rules.wid==session.ide)&(db.rules.sid==session.sid)).select()\n#    c=0\n#    for i in pre:\n#        c+=1\n#    if request.vars.hindit:\n#        db.rules.insert(name=session.word+str(c),userid=auth.user.id,wid=session.ide,sid=session.sid,translation=hindit)\n#        redirect(URL(\'rel\'))\n#    return dict()\n    \n    \n@auth.requires_login()\ndef sentence_select():\n    print \'*\'\n    f = \'\'\n    x = 0\n    if request.vars.submit and (request.vars.hindit):\n        t = request.vars.sentence\n        r = db(db.sentences.esentence==t).select(db.sentences.id)\n        for i in r:\n          session.sid=i.id\n          break\n        pre=db((db.rules.wid==session.ide)&(db.rules.userid==auth.user.id)).select()\n        c=0\n        f=0\n        for i in pre:\n            c+=1\n            if str(session.sid)==i.sid:\n                f=1\n                break\n        if f==0:\n            db.rules.insert(name=session.word+str(c),userid=auth.user.id,wid=session.ide,sid=session.sid,translation=request.vars.hindit)\n            session.f=0\n        redirect(URL(\'typ\'))\n    return dict(w=session.word,d=session.ide,f=f,level_set=session.level)\n\n\n@auth.requires_login()\ndef sentence_selectc():\n    print \'*\'\n    f = \'\'\n    x = 0\n    if request.vars.submit:\n        t = request.vars.sentence\n        r = db(db.sentences.esentence==t).select(db.sentences.id)\n        for i in r:\n          hindit=i.id\n          session.sid=i.id\n          break\n        redirect(URL(\'reasonc\',vars=dict(hindit=hindit)))\n    return dict(w=session.word,d=session.ide,f=f,level_set=session.level)\n\n\n@auth.requires_login()\ndef reasonc():\n    t=session.sid\n    r = db(db.sentences.id==t).select(db.sentences.hsentence)\n    if request.vars.advanced or request.vars.novice:\n        pre=db((db.rules.wid==session.ide)&(db.rules.userid==auth.user.id)).select()\n        c=0\n        f=0\n        for i in pre:\n            c+=1\n            if i.sid==str(session.sid):\n                f=1\n                break\n        if f==0:\n            db.rules.insert(name=session.word+str(c),userid=auth.user.id,wid=session.ide,sid=session.sid)\n        session.f=0\n\tif request.vars.advanced:\n\t  redirect(URL(\'typ\'))\n\telse:\n\t  redirect(URL(\'novi\'))\n    return dict(r=r)\n\n@auth.requires_login()\ndef novi():\n  t=session.sid\n  r=db(db.sentences.id==t).select(db.sentences.esentence)\n  r=r[0].esentence\n  l=r.split()\n  w=session.word\n  return dict(l=l,w=w)\n@auth.requires_login()\ndef novi_insert():\n    print request.vars.property,request.vars.word\n    a=db((db.novice.userid==auth.user.id)&(db.novice.wid==session.ide)&(db.novice.sid==session.sid)&(db.novice.word==request.vars.word)).select()\n    if a:\n        if request.vars.property==\'1\':\n            print \'haha\'\n            db((db.novice.userid==auth.user.id)&(db.novice.wid==session.ide)&(db.novice.sid==session.sid)&(db.novice.word==request.vars.word)).update(relation=1,property=0,both=0)\n        elif request.vars.property==\'2\':\n            db((db.novice.userid==auth.user.id)&(db.novice.wid==session.ide)&(db.novice.sid==session.sid)&(db.novice.word==request.vars.word)).update(relation=0,property=1,both=0)\n        elif request.vars.property==\'3\':   \n            db((db.novice.userid==auth.user.id)&(db.novice.wid==session.ide)&(db.novice.sid==session.sid)&(db.novice.word==request.vars.word)).update(relation=0,property=0,both=1)                     \n    else:\n        if request.vars.property==\'1\':\n            db.novice.insert(userid=auth.user.id,sid=session.sid,wid=session.ide,word=request.vars.word,relation=1,property=0,both=0)\n        elif request.vars.property==\'2\':\n            db.novice.insert(userid=auth.user.id,sid=session.sid,wid=session.ide,word=request.vars.word,relation=0,property=1,both=0)\n        elif request.vars.property==\'3\':\n            db.novice.insert(userid=auth.user.id,sid=session.sid,wid=session.ide,word=request.vars.word,relation=0,property=0,both=1)\n    return None\n@auth.requires_login()\n@auth.requires_membership(\'admin\')\ndef delaccount():\n    if request.vars.submit:\n        db(db.auth_user.email==request.vars.email).delete()\n        redirect("home")\n    return dict()\n\n@auth.requires_login()\n@auth.requires_membership(\'admin\')\ndef addword():\n    if request.vars.submit:\n       db.words.insert(word=request.vars.word)\n       word=request.vars.word\n       db.sentences.insert(level=request.vars.level,esentence=request.vars.esentence,hsentence=request.vars.hsentence)\n       w = db(db.words.word==request.vars.word).select(db.words.id)\n       s = db(db.sentences.esentence==request.vars.esentence).select(db.sentences.id)\n       #s=db(db.sentences.id==session.sid).select(db.sentences.esentence)\n       #s=s[0].esentence\n       sen=request.vars.esentence\n       print sen,word\n       f=open(\'sample\',\'w\')\n       st="\\n<TITLE> test. </TITLE>\\n<p>\\n" + sen + "\\n</p>\\n"\n       f.write(st)\n       f.close()\n       os.system("/bin/bash Anusaaraka_stanford.sh sample 0 True")\n       f=open(os.environ[\'HOME_anu_tmp\']+\'/tmp/sample_tmp/2.1/word.dat\',\'r\')\n       for line in f:\n           ind=line.rfind(\' \'+word)\n           print word+\'*\'+line\n           print "index"+str(ind)\n           if ind != -1 :\n               print \'*\'\n               anu_id=line[ind-2]\n               break\n       f.close() \n       print "anu_id= " + anu_id\n       f=open(os.environ[\'HOME_anu_tmp\']+\'/tmp/sample_tmp/2.1/cat_consistency_check.dat\',\'r\')\n       for line in f:\n           ind=line.find(\'id-cat_coarse \'+anu_id)\n           if ind != -1 :\n               line=line[::-1]\n               end=line.find(\' \')\n               psp=line[2:end][::-1]\n               break\n       f.close()\n       for i in w:\n           for j in s:\n               db.links.insert(wid=i.id,sid=j.id,typ=psp)\n               break\n           break\n       f=open(os.environ[\'HOME_anu_tmp\']+\'/tmp/sample_tmp/2.1/word.dat\',\'r\')\n       d={}\n       for i in f:\n           i=i.strip()\n           if i.find(\'id-word\')!=-1:\n               d[i[9]]=i[12:-1]\n       f.close()\n       f=open(os.environ[\'HOME_anu_tmp\']+\'/tmp/sample_tmp/2.1/relations.dat\',\'r\')\n       l,l1,l2=[],[],[]\n       for i in f:\n           i=i.strip()\n           if i[-4]==str(anu_id):\n               l1.append(i[:-4].strip()+\')\'+\' \'+\' \'+str(anu_id)+\',\'+\'\\"\'+str(word)+\'\\"\'+\' \'+i[-2]+\',\'+\'\\"\'+d[i[-2]]+\'\\"\')\n           elif i[-2]==str(anu_id):\n               l2.append(i[:-4].strip()+\')\'+\' \'+\' \'+i[-2]+\',\'+\'\\"\'+d[i[-4]]+\'\\"\'+\' \'+str(anu_id)+\',\'+\'\\"\'+str(word)+\'\\"\')\n       l=l1+l2\n       f.close()\n       for r in l:\n           db.rel_all.insert(wid=w[0].id,sid=s[0].id,relation=r)\n       session.flash="Word Added"\n       redirect(\'home\')\n    return dict()\n\n@auth.requires_login()\n@auth.requires_membership(\'admin\')\ndef delword():\n    if request.vars.submit:\n        g = db(db.words.word==request.vars.word).select(db.words.id)\n        for i in g:\n            db(db.words.id==i.id).delete()\n            db(db.rules.wid==i.id).delete()\n            y = db(db.links.wid==i.id).select(db.links.sid)\n            db(db.links.wid==i.id).delete()\n            for j in y:\n                db(db.sentences.id==j.sid).delete()\n                break\n            break\n            session.flash="Word Deleted "\n        redirect(\'home\')\n    return dict()\n\ndef typ():\n  psp=db((db.links.sid==session.sid)&(db.links.wid==session.ide)).select(db.links.typ)\n  psp=psp[0].typ\n  session.psp=psp\n  if request.vars.submit and request.vars.typ:\n    db((db.rules.userid==auth.user.id)&(db.rules.wid==session.ide)&(db.rules.sid==session.sid)).update(typ=psp)\n    if request.vars.typ==\'yes\':\n      redirect(URL(\'index\'))\n    else:\n      redirect(URL(\'rel\'))\n  return dict(psp=psp) \n\ndef rel():\n    s=db((db.rel_all.wid==session.ide)&(db.rel_all.sid==session.sid)).select(db.rel_all.relation)\n    l=[]\n    for i in s:\n        l+=[i.relation]\n    fields=[]   \n    fields.append(Field(\'Relations\',widget=SQLFORM.widgets.multiple.widget,requires=IS_IN_SET(l,multiple=True)))\n    if session.psp!=\'adverb\':\n        fields.append(Field(\'ans\',label=\'Is the relation sufficient for forming the rule ?\',widget=SQLFORM.widgets.radio.widget,requires=IS_IN_SET([\'yes\',\'no\'])))\n    form=SQLFORM.factory(*fields)\n    if form.accepts(request.vars,session):\n        for i in form.vars.Relations:\n            print "i="+str(i)\n            db.rel_rule.insert(wid=session.ide,sid=session.sid,relation=i)\n        if session.psp==\'adverb\':\n            redirect(\'index\')\n        elif form.vars.ans==\'yes\':\n            redirect(\'index\')\n        else :\n            redirect(URL(\'nature_\'+str(session.psp)))\n    return dict(form=form)\n\ndef nature_noun():\n    form=SQLFORM.factory(\n        Field(\'Nature\',requires=IS_IN_SET([\'Animate\',\'Inanimate\',\'Human\',\'Place\',\'Time\']),label=\'Semantic Property\'))\n    if form.accepts(request.vars,session):\n        db((db.rules.userid==auth.user.id)&(db.rules.wid==session.ide)&(db.rules.sid==session.sid)).update(property=form.vars.Nature)\n        redirect(URL(\'index\'))\n    return dict(form=form)\n\ndef nature_verb():\n    form=SQLFORM.factory(\n        Field(\'Nature\',requires=IS_IN_SET([\'transitive\',\'intransitive\'])))\n    if form.accepts(request.vars,session):\n        db((db.rules.userid==auth.user.id)&(db.rules.wid==session.ide)&(db.rules.sid==session.sid)).update(property=form.vars.Nature)\n        redirect(URL(\'index\'))\n    return dict(form=form)\n\ndef nature_adjective():\n    form=SQLFORM.factory(\n        Field(\'Nature\',requires=IS_IN_SET([\'Animate\',\'Inanimate\',\'Human\',\'Place\',\'Time\']),label=\'Semantic Property of noun whom it modifies\'))\n    if form.accepts(request.vars,session):\n        db((db.rules.userid==auth.user.id)&(db.rules.wid==session.ide)&(db.rules.sid==session.sid)).update(property=form.vars.Nature)\n        redirect(URL(\'index\'))\n    return dict(form=form)\ndef testt():\n    v=db(db.auth_user).select()\n    return dict(v=v)\ndef sel_novice():\n    a=db(db.novice.userid==db.auth_user.id).select(db.auth_user.email,db.auth_user.id)\n    l,d=[],{}\n    for i in a:\n        l+=[i.email]\n        d[i.email]=i.id\n    l=list(set(l))\n    form=SQLFORM.factory(Field(\'user\',requires=IS_IN_SET(l)))\n    if form.accepts(request.vars,session):\n            redirect(URL(\'disp_novice\',vars=dict(uid=d[form.vars.user])))\n    return dict(form=form)\ndef disp_novice():\n    u=request.vars.uid\n    email=db(db.auth_user.id==u).select(db.auth_user.email)\n    email=email[0].email\n    l=db(db.novice.userid==u).select()\n    return dict(l=l,email=email)\ndef sel_adv():\n    a=db(db.rules.userid==db.auth_user.id).select(db.auth_user.email,db.auth_user.id)\n    l,d=[],{}\n    for i in a:\n        l+=[i.email]\n        d[i.email]=i.id\n    l=list(set(l))\n    form=SQLFORM.factory(Field(\'user\',requires=IS_IN_SET(l)))\n    if form.accepts(request.vars,session):\n            redirect(URL(\'disp_adv\',vars=dict(uid=d[form.vars.user])))\n    return dict(form=form)\ndef disp_adv():\n    u=request.vars.uid\n    email=db(db.auth_user.id==u).select(db.auth_user.email)\n    email=email[0].email\n    l=db(db.rules.userid==u).select()\n    return dict(l=l,email=email)\n\nresponse._vars=response._caller(addword)\n'
p7
sS'snapshot'
p8
(dp9
S'exception'
p10
(dp11
S'__getslice__'
p12
S"<method-wrapper '__getslice__' of exceptions.IOError object>"
p13
sS'__str__'
p14
S"<method-wrapper '__str__' of exceptions.IOError object>"
p15
sS'__reduce__'
p16
S'<built-in method __reduce__ of exceptions.IOError object>'
p17
sS'__dict__'
p18
S'{}'
p19
sS'__sizeof__'
p20
S'<built-in method __sizeof__ of exceptions.IOError object>'
p21
sS'__init__'
p22
S"<method-wrapper '__init__' of exceptions.IOError object>"
p23
sS'__setattr__'
p24
S"<method-wrapper '__setattr__' of exceptions.IOError object>"
p25
sS'__reduce_ex__'
p26
S'<built-in method __reduce_ex__ of exceptions.IOError object>'
p27
sS'__new__'
p28
S'<built-in method __new__ of type object>'
p29
sS'errno'
p30
S'2'
sS'__format__'
p31
S'<built-in method __format__ of exceptions.IOError object>'
p32
sS'__class__'
p33
S"<type 'exceptions.IOError'>"
p34
sS'filename'
p35
S"'/home/nazrul/Dropbox/iiit/sem3/ssad/project/tmp_anu_dir/tmp/sample_tmp/2.1/word.dat'"
p36
sS'__doc__'
p37
S"'I/O operation failed.'"
p38
sS'__getitem__'
p39
S"<method-wrapper '__getitem__' of exceptions.IOError object>"
p40
sS'__setstate__'
p41
S'<built-in method __setstate__ of exceptions.IOError object>'
p42
sS'__getattribute__'
p43
S"<method-wrapper '__getattribute__' of exceptions.IOError object>"
p44
sS'args'
p45
S"(2, 'No such file or directory')"
p46
sS'__subclasshook__'
p47
S'<built-in method __subclasshook__ of type object>'
p48
sS'__unicode__'
p49
S'<built-in method __unicode__ of exceptions.IOError object>'
p50
sS'strerror'
p51
S"'No such file or directory'"
p52
sS'__delattr__'
p53
S"<method-wrapper '__delattr__' of exceptions.IOError object>"
p54
sS'__repr__'
p55
S"<method-wrapper '__repr__' of exceptions.IOError object>"
p56
sS'__hash__'
p57
S"<method-wrapper '__hash__' of exceptions.IOError object>"
p58
ssS'evalue'
p59
S"[Errno 2] No such file or directory: '/home/nazrul/Dropbox/iiit/sem3/ssad/project/tmp_anu_dir/tmp/sample_tmp/2.1/word.dat'"
p60
sS'request'
p61
ccopy_reg
_reconstructor
p62
(cgluon.html
BEAUTIFY
p63
c__builtin__
object
p64
NtRp65
(dp66
S'attributes'
p67
(dp68
sS'components'
p69
(lp70
g62
(cgluon.html
TABLE
p71
g64
NtRp72
(dp73
g67
(dp74
S'level'
p75
I5
ssS'parent'
p76
Nsg69
(lp77
g62
(cgluon.html
TR
p78
g64
NtRp79
(dp80
g67
(dp81
sg76
g72
sg69
(lp82
g62
(cgluon.html
TD
p83
g64
NtRp84
(dp85
g67
(dp86
S'_style'
p87
S'font-weight:bold;vertical-align:top'
p88
ssg76
g79
sg69
(lp89
S'ajax'
p90
asbag62
(g83
g64
NtRp91
(dp92
g67
(dp93
S'_valign'
p94
S'top'
p95
ssg76
g79
sg69
(lp96
S':'
asbag62
(g83
g64
NtRp97
(dp98
g67
(dp99
sg76
g79
sg69
(lp100
g62
(g63
g64
NtRp101
(dp102
g67
(dp103
g75
I5
ssg76
g97
sg69
(lp104
S'False'
p105
asbasbasbag62
(g78
g64
NtRp106
(dp107
g67
(dp108
sg76
g72
sg69
(lp109
g62
(g83
g64
NtRp110
(dp111
g67
(dp112
g87
g88
ssg76
g106
sg69
(lp113
S'application'
p114
asbag62
(g83
g64
NtRp115
(dp116
g67
(dp117
g94
g95
ssg76
g106
sg69
(lp118
S':'
asbag62
(g83
g64
NtRp119
(dp120
g67
(dp121
sg76
g106
sg69
(lp122
g62
(g63
g64
NtRp123
(dp124
g67
(dp125
g75
I5
ssg76
g119
sg69
(lp126
S'WSD'
p127
asbasbasbag62
(g78
g64
NtRp128
(dp129
g67
(dp130
sg76
g72
sg69
(lp131
g62
(g83
g64
NtRp132
(dp133
g67
(dp134
g87
g88
ssg76
g128
sg69
(lp135
g45
asbag62
(g83
g64
NtRp136
(dp137
g67
(dp138
g94
g95
ssg76
g128
sg69
(lp139
S':'
asbag62
(g83
g64
NtRp140
(dp141
g67
(dp142
sg76
g128
sg69
(lp143
g62
(g63
g64
NtRp144
(dp145
g67
(dp146
g75
I5
ssg76
g140
sg69
(lp147
g62
(g71
g64
NtRp148
(dp149
g67
(dp150
g75
I4
ssg76
Nsg69
(lp151
sbasbasbasbag62
(g78
g64
NtRp152
(dp153
g67
(dp154
sg76
g72
sg69
(lp155
g62
(g83
g64
NtRp156
(dp157
g67
(dp158
g87
g88
ssg76
g152
sg69
(lp159
S'body'
p160
asbag62
(g83
g64
NtRp161
(dp162
g67
(dp163
g94
g95
ssg76
g152
sg69
(lp164
S':'
asbag62
(g83
g64
NtRp165
(dp166
g67
(dp167
sg76
g152
sg69
(lp168
g62
(g63
g64
NtRp169
(dp170
g67
(dp171
g75
I5
ssg76
g165
sg69
(lp172
S"<open file '<fdopen>', mode 'w+b' at 0xadba0c80>"
p173
asbasbasbag62
(g78
g64
NtRp174
(dp175
g67
(dp176
sg76
g72
sg69
(lp177
g62
(g83
g64
NtRp178
(dp179
g67
(dp180
g87
g88
ssg76
g174
sg69
(lp181
S'cid'
p182
asbag62
(g83
g64
NtRp183
(dp184
g67
(dp185
g94
g95
ssg76
g174
sg69
(lp186
S':'
asbag62
(g83
g64
NtRp187
(dp188
g67
(dp189
sg76
g174
sg69
(lp190
g62
(g63
g64
NtRp191
(dp192
g67
(dp193
g75
I5
ssg76
g187
sg69
(lp194
S'None'
p195
asbasbasbag62
(g78
g64
NtRp196
(dp197
g67
(dp198
sg76
g72
sg69
(lp199
g62
(g83
g64
NtRp200
(dp201
g67
(dp202
g87
g88
ssg76
g196
sg69
(lp203
S'client'
p204
asbag62
(g83
g64
NtRp205
(dp206
g67
(dp207
g94
g95
ssg76
g196
sg69
(lp208
S':'
asbag62
(g83
g64
NtRp209
(dp210
g67
(dp211
sg76
g196
sg69
(lp212
g62
(g63
g64
NtRp213
(dp214
g67
(dp215
g75
I5
ssg76
g209
sg69
(lp216
S'127.0.0.1'
p217
asbasbasbag62
(g78
g64
NtRp218
(dp219
g67
(dp220
sg76
g72
sg69
(lp221
g62
(g83
g64
NtRp222
(dp223
g67
(dp224
g87
g88
ssg76
g218
sg69
(lp225
S'controller'
p226
asbag62
(g83
g64
NtRp227
(dp228
g67
(dp229
g94
g95
ssg76
g218
sg69
(lp230
S':'
asbag62
(g83
g64
NtRp231
(dp232
g67
(dp233
sg76
g218
sg69
(lp234
g62
(g63
g64
NtRp235
(dp236
g67
(dp237
g75
I5
ssg76
g231
sg69
(lp238
S'default'
p239
asbasbasbag62
(g78
g64
NtRp240
(dp241
g67
(dp242
sg76
g72
sg69
(lp243
g62
(g83
g64
NtRp244
(dp245
g67
(dp246
g87
g88
ssg76
g240
sg69
(lp247
S'cookies'
p248
asbag62
(g83
g64
NtRp249
(dp250
g67
(dp251
g94
g95
ssg76
g240
sg69
(lp252
S':'
asbag62
(g83
g64
NtRp253
(dp254
g67
(dp255
sg76
g240
sg69
(lp256
g62
(g63
g64
NtRp257
(dp258
g67
(dp259
g75
I5
ssg76
g253
sg69
(lp260
g62
(g71
g64
NtRp261
(dp262
g67
(dp263
g75
I4
ssg76
Nsg69
(lp264
g62
(g78
g64
NtRp265
(dp266
g67
(dp267
sg76
g261
sg69
(lp268
g62
(g83
g64
NtRp269
(dp270
g67
(dp271
g87
g88
ssg76
g265
sg69
(lp272
S'KBD'
p273
asbag62
(g83
g64
NtRp274
(dp275
g67
(dp276
g94
g95
ssg76
g265
sg69
(lp277
S':'
asbag62
(g83
g64
NtRp278
(dp279
g67
(dp280
sg76
g265
sg69
(lp281
g62
(g63
g64
NtRp282
(dp283
g67
(dp284
g75
I4
ssg76
g278
sg69
(lp285
S'0hi-0'
p286
ag62
(g71
g64
NtRp287
(dp288
g67
(dp289
g75
I3
ssg76
Nsg69
(lp290
g62
(g78
g64
NtRp291
(dp292
g67
(dp293
sg76
g287
sg69
(lp294
g62
(g83
g64
NtRp295
(dp296
g67
(dp297
g87
g88
ssg76
g291
sg69
(lp298
S'comment'
p299
asbag62
(g83
g64
NtRp300
(dp301
g67
(dp302
g94
g95
ssg76
g291
sg69
(lp303
S':'
asbag62
(g83
g64
NtRp304
(dp305
g67
(dp306
sg76
g291
sg69
(lp307
g62
(g63
g64
NtRp308
(dp309
g67
(dp310
g75
I3
ssg76
g304
sg69
(lp311
S''
asbasbasbag62
(g78
g64
NtRp312
(dp313
g67
(dp314
sg76
g287
sg69
(lp315
g62
(g83
g64
NtRp316
(dp317
g67
(dp318
g87
g88
ssg76
g312
sg69
(lp319
S'domain'
p320
asbag62
(g83
g64
NtRp321
(dp322
g67
(dp323
g94
g95
ssg76
g312
sg69
(lp324
S':'
asbag62
(g83
g64
NtRp325
(dp326
g67
(dp327
sg76
g312
sg69
(lp328
g62
(g63
g64
NtRp329
(dp330
g67
(dp331
g75
I3
ssg76
g325
sg69
(lp332
S''
asbasbasbag62
(g78
g64
NtRp333
(dp334
g67
(dp335
sg76
g287
sg69
(lp336
g62
(g83
g64
NtRp337
(dp338
g67
(dp339
g87
g88
ssg76
g333
sg69
(lp340
S'expires'
p341
asbag62
(g83
g64
NtRp342
(dp343
g67
(dp344
g94
g95
ssg76
g333
sg69
(lp345
S':'
asbag62
(g83
g64
NtRp346
(dp347
g67
(dp348
sg76
g333
sg69
(lp349
g62
(g63
g64
NtRp350
(dp351
g67
(dp352
g75
I3
ssg76
g346
sg69
(lp353
S''
asbasbasbag62
(g78
g64
NtRp354
(dp355
g67
(dp356
sg76
g287
sg69
(lp357
g62
(g83
g64
NtRp358
(dp359
g67
(dp360
g87
g88
ssg76
g354
sg69
(lp361
S'httponly'
p362
asbag62
(g83
g64
NtRp363
(dp364
g67
(dp365
g94
g95
ssg76
g354
sg69
(lp366
S':'
asbag62
(g83
g64
NtRp367
(dp368
g67
(dp369
sg76
g354
sg69
(lp370
g62
(g63
g64
NtRp371
(dp372
g67
(dp373
g75
I3
ssg76
g367
sg69
(lp374
S''
asbasbasbag62
(g78
g64
NtRp375
(dp376
g67
(dp377
sg76
g287
sg69
(lp378
g62
(g83
g64
NtRp379
(dp380
g67
(dp381
g87
g88
ssg76
g375
sg69
(lp382
S'max-age'
p383
asbag62
(g83
g64
NtRp384
(dp385
g67
(dp386
g94
g95
ssg76
g375
sg69
(lp387
S':'
asbag62
(g83
g64
NtRp388
(dp389
g67
(dp390
sg76
g375
sg69
(lp391
g62
(g63
g64
NtRp392
(dp393
g67
(dp394
g75
I3
ssg76
g388
sg69
(lp395
S''
asbasbasbag62
(g78
g64
NtRp396
(dp397
g67
(dp398
sg76
g287
sg69
(lp399
g62
(g83
g64
NtRp400
(dp401
g67
(dp402
g87
g88
ssg76
g396
sg69
(lp403
S'path'
p404
asbag62
(g83
g64
NtRp405
(dp406
g67
(dp407
g94
g95
ssg76
g396
sg69
(lp408
S':'
asbag62
(g83
g64
NtRp409
(dp410
g67
(dp411
sg76
g396
sg69
(lp412
g62
(g63
g64
NtRp413
(dp414
g67
(dp415
g75
I3
ssg76
g409
sg69
(lp416
S''
asbasbasbag62
(g78
g64
NtRp417
(dp418
g67
(dp419
sg76
g287
sg69
(lp420
g62
(g83
g64
NtRp421
(dp422
g67
(dp423
g87
g88
ssg76
g417
sg69
(lp424
S'secure'
p425
asbag62
(g83
g64
NtRp426
(dp427
g67
(dp428
g94
g95
ssg76
g417
sg69
(lp429
S':'
asbag62
(g83
g64
NtRp430
(dp431
g67
(dp432
sg76
g417
sg69
(lp433
g62
(g63
g64
NtRp434
(dp435
g67
(dp436
g75
I3
ssg76
g430
sg69
(lp437
S''
asbasbasbag62
(g78
g64
NtRp438
(dp439
g67
(dp440
sg76
g287
sg69
(lp441
g62
(g83
g64
NtRp442
(dp443
g67
(dp444
g87
g88
ssg76
g438
sg69
(lp445
S'version'
p446
asbag62
(g83
g64
NtRp447
(dp448
g67
(dp449
g94
g95
ssg76
g438
sg69
(lp450
S':'
asbag62
(g83
g64
NtRp451
(dp452
g67
(dp453
sg76
g438
sg69
(lp454
g62
(g63
g64
NtRp455
(dp456
g67
(dp457
g75
I3
ssg76
g451
sg69
(lp458
S''
asbasbasbasbasbasbasbag62
(g78
g64
NtRp459
(dp460
g67
(dp461
sg76
g261
sg69
(lp462
g62
(g83
g64
NtRp463
(dp464
g67
(dp465
g87
g88
ssg76
g459
sg69
(lp466
S'session_id_admin'
p467
asbag62
(g83
g64
NtRp468
(dp469
g67
(dp470
g94
g95
ssg76
g459
sg69
(lp471
S':'
asbag62
(g83
g64
NtRp472
(dp473
g67
(dp474
sg76
g459
sg69
(lp475
g62
(g63
g64
NtRp476
(dp477
g67
(dp478
g75
I4
ssg76
g472
sg69
(lp479
S'127.0.0.1-9efa9df6-ccc0-4219-862b-8c2ecb116d92'
p480
ag62
(g71
g64
NtRp481
(dp482
g67
(dp483
g75
I3
ssg76
Nsg69
(lp484
g62
(g78
g64
NtRp485
(dp486
g67
(dp487
sg76
g481
sg69
(lp488
g62
(g83
g64
NtRp489
(dp490
g67
(dp491
g87
g88
ssg76
g485
sg69
(lp492
g299
asbag62
(g83
g64
NtRp493
(dp494
g67
(dp495
g94
g95
ssg76
g485
sg69
(lp496
S':'
asbag62
(g83
g64
NtRp497
(dp498
g67
(dp499
sg76
g485
sg69
(lp500
g62
(g63
g64
NtRp501
(dp502
g67
(dp503
g75
I3
ssg76
g497
sg69
(lp504
S''
asbasbasbag62
(g78
g64
NtRp505
(dp506
g67
(dp507
sg76
g481
sg69
(lp508
g62
(g83
g64
NtRp509
(dp510
g67
(dp511
g87
g88
ssg76
g505
sg69
(lp512
g320
asbag62
(g83
g64
NtRp513
(dp514
g67
(dp515
g94
g95
ssg76
g505
sg69
(lp516
S':'
asbag62
(g83
g64
NtRp517
(dp518
g67
(dp519
sg76
g505
sg69
(lp520
g62
(g63
g64
NtRp521
(dp522
g67
(dp523
g75
I3
ssg76
g517
sg69
(lp524
S''
asbasbasbag62
(g78
g64
NtRp525
(dp526
g67
(dp527
sg76
g481
sg69
(lp528
g62
(g83
g64
NtRp529
(dp530
g67
(dp531
g87
g88
ssg76
g525
sg69
(lp532
g341
asbag62
(g83
g64
NtRp533
(dp534
g67
(dp535
g94
g95
ssg76
g525
sg69
(lp536
S':'
asbag62
(g83
g64
NtRp537
(dp538
g67
(dp539
sg76
g525
sg69
(lp540
g62
(g63
g64
NtRp541
(dp542
g67
(dp543
g75
I3
ssg76
g537
sg69
(lp544
S''
asbasbasbag62
(g78
g64
NtRp545
(dp546
g67
(dp547
sg76
g481
sg69
(lp548
g62
(g83
g64
NtRp549
(dp550
g67
(dp551
g87
g88
ssg76
g545
sg69
(lp552
g362
asbag62
(g83
g64
NtRp553
(dp554
g67
(dp555
g94
g95
ssg76
g545
sg69
(lp556
S':'
asbag62
(g83
g64
NtRp557
(dp558
g67
(dp559
sg76
g545
sg69
(lp560
g62
(g63
g64
NtRp561
(dp562
g67
(dp563
g75
I3
ssg76
g557
sg69
(lp564
S''
asbasbasbag62
(g78
g64
NtRp565
(dp566
g67
(dp567
sg76
g481
sg69
(lp568
g62
(g83
g64
NtRp569
(dp570
g67
(dp571
g87
g88
ssg76
g565
sg69
(lp572
g383
asbag62
(g83
g64
NtRp573
(dp574
g67
(dp575
g94
g95
ssg76
g565
sg69
(lp576
S':'
asbag62
(g83
g64
NtRp577
(dp578
g67
(dp579
sg76
g565
sg69
(lp580
g62
(g63
g64
NtRp581
(dp582
g67
(dp583
g75
I3
ssg76
g577
sg69
(lp584
S''
asbasbasbag62
(g78
g64
NtRp585
(dp586
g67
(dp587
sg76
g481
sg69
(lp588
g62
(g83
g64
NtRp589
(dp590
g67
(dp591
g87
g88
ssg76
g585
sg69
(lp592
g404
asbag62
(g83
g64
NtRp593
(dp594
g67
(dp595
g94
g95
ssg76
g585
sg69
(lp596
S':'
asbag62
(g83
g64
NtRp597
(dp598
g67
(dp599
sg76
g585
sg69
(lp600
g62
(g63
g64
NtRp601
(dp602
g67
(dp603
g75
I3
ssg76
g597
sg69
(lp604
S''
asbasbasbag62
(g78
g64
NtRp605
(dp606
g67
(dp607
sg76
g481
sg69
(lp608
g62
(g83
g64
NtRp609
(dp610
g67
(dp611
g87
g88
ssg76
g605
sg69
(lp612
g425
asbag62
(g83
g64
NtRp613
(dp614
g67
(dp615
g94
g95
ssg76
g605
sg69
(lp616
S':'
asbag62
(g83
g64
NtRp617
(dp618
g67
(dp619
sg76
g605
sg69
(lp620
g62
(g63
g64
NtRp621
(dp622
g67
(dp623
g75
I3
ssg76
g617
sg69
(lp624
S''
asbasbasbag62
(g78
g64
NtRp625
(dp626
g67
(dp627
sg76
g481
sg69
(lp628
g62
(g83
g64
NtRp629
(dp630
g67
(dp631
g87
g88
ssg76
g625
sg69
(lp632
g446
asbag62
(g83
g64
NtRp633
(dp634
g67
(dp635
g94
g95
ssg76
g625
sg69
(lp636
S':'
asbag62
(g83
g64
NtRp637
(dp638
g67
(dp639
sg76
g625
sg69
(lp640
g62
(g63
g64
NtRp641
(dp642
g67
(dp643
g75
I3
ssg76
g637
sg69
(lp644
S''
asbasbasbasbasbasbasbag62
(g78
g64
NtRp645
(dp646
g67
(dp647
sg76
g261
sg69
(lp648
g62
(g83
g64
NtRp649
(dp650
g67
(dp651
g87
g88
ssg76
g645
sg69
(lp652
S'session_id_welcome'
p653
asbag62
(g83
g64
NtRp654
(dp655
g67
(dp656
g94
g95
ssg76
g645
sg69
(lp657
S':'
asbag62
(g83
g64
NtRp658
(dp659
g67
(dp660
sg76
g645
sg69
(lp661
g62
(g63
g64
NtRp662
(dp663
g67
(dp664
g75
I4
ssg76
g658
sg69
(lp665
S'127.0.0.1-176142f9-034d-418e-a19e-2ce62b7ee2c0'
p666
ag62
(g71
g64
NtRp667
(dp668
g67
(dp669
g75
I3
ssg76
Nsg69
(lp670
g62
(g78
g64
NtRp671
(dp672
g67
(dp673
sg76
g667
sg69
(lp674
g62
(g83
g64
NtRp675
(dp676
g67
(dp677
g87
g88
ssg76
g671
sg69
(lp678
g299
asbag62
(g83
g64
NtRp679
(dp680
g67
(dp681
g94
g95
ssg76
g671
sg69
(lp682
S':'
asbag62
(g83
g64
NtRp683
(dp684
g67
(dp685
sg76
g671
sg69
(lp686
g62
(g63
g64
NtRp687
(dp688
g67
(dp689
g75
I3
ssg76
g683
sg69
(lp690
S''
asbasbasbag62
(g78
g64
NtRp691
(dp692
g67
(dp693
sg76
g667
sg69
(lp694
g62
(g83
g64
NtRp695
(dp696
g67
(dp697
g87
g88
ssg76
g691
sg69
(lp698
g320
asbag62
(g83
g64
NtRp699
(dp700
g67
(dp701
g94
g95
ssg76
g691
sg69
(lp702
S':'
asbag62
(g83
g64
NtRp703
(dp704
g67
(dp705
sg76
g691
sg69
(lp706
g62
(g63
g64
NtRp707
(dp708
g67
(dp709
g75
I3
ssg76
g703
sg69
(lp710
S''
asbasbasbag62
(g78
g64
NtRp711
(dp712
g67
(dp713
sg76
g667
sg69
(lp714
g62
(g83
g64
NtRp715
(dp716
g67
(dp717
g87
g88
ssg76
g711
sg69
(lp718
g341
asbag62
(g83
g64
NtRp719
(dp720
g67
(dp721
g94
g95
ssg76
g711
sg69
(lp722
S':'
asbag62
(g83
g64
NtRp723
(dp724
g67
(dp725
sg76
g711
sg69
(lp726
g62
(g63
g64
NtRp727
(dp728
g67
(dp729
g75
I3
ssg76
g723
sg69
(lp730
S''
asbasbasbag62
(g78
g64
NtRp731
(dp732
g67
(dp733
sg76
g667
sg69
(lp734
g62
(g83
g64
NtRp735
(dp736
g67
(dp737
g87
g88
ssg76
g731
sg69
(lp738
g362
asbag62
(g83
g64
NtRp739
(dp740
g67
(dp741
g94
g95
ssg76
g731
sg69
(lp742
S':'
asbag62
(g83
g64
NtRp743
(dp744
g67
(dp745
sg76
g731
sg69
(lp746
g62
(g63
g64
NtRp747
(dp748
g67
(dp749
g75
I3
ssg76
g743
sg69
(lp750
S''
asbasbasbag62
(g78
g64
NtRp751
(dp752
g67
(dp753
sg76
g667
sg69
(lp754
g62
(g83
g64
NtRp755
(dp756
g67
(dp757
g87
g88
ssg76
g751
sg69
(lp758
g383
asbag62
(g83
g64
NtRp759
(dp760
g67
(dp761
g94
g95
ssg76
g751
sg69
(lp762
S':'
asbag62
(g83
g64
NtRp763
(dp764
g67
(dp765
sg76
g751
sg69
(lp766
g62
(g63
g64
NtRp767
(dp768
g67
(dp769
g75
I3
ssg76
g763
sg69
(lp770
S''
asbasbasbag62
(g78
g64
NtRp771
(dp772
g67
(dp773
sg76
g667
sg69
(lp774
g62
(g83
g64
NtRp775
(dp776
g67
(dp777
g87
g88
ssg76
g771
sg69
(lp778
g404
asbag62
(g83
g64
NtRp779
(dp780
g67
(dp781
g94
g95
ssg76
g771
sg69
(lp782
S':'
asbag62
(g83
g64
NtRp783
(dp784
g67
(dp785
sg76
g771
sg69
(lp786
g62
(g63
g64
NtRp787
(dp788
g67
(dp789
g75
I3
ssg76
g783
sg69
(lp790
S''
asbasbasbag62
(g78
g64
NtRp791
(dp792
g67
(dp793
sg76
g667
sg69
(lp794
g62
(g83
g64
NtRp795
(dp796
g67
(dp797
g87
g88
ssg76
g791
sg69
(lp798
g425
asbag62
(g83
g64
NtRp799
(dp800
g67
(dp801
g94
g95
ssg76
g791
sg69
(lp802
S':'
asbag62
(g83
g64
NtRp803
(dp804
g67
(dp805
sg76
g791
sg69
(lp806
g62
(g63
g64
NtRp807
(dp808
g67
(dp809
g75
I3
ssg76
g803
sg69
(lp810
S''
asbasbasbag62
(g78
g64
NtRp811
(dp812
g67
(dp813
sg76
g667
sg69
(lp814
g62
(g83
g64
NtRp815
(dp816
g67
(dp817
g87
g88
ssg76
g811
sg69
(lp818
g446
asbag62
(g83
g64
NtRp819
(dp820
g67
(dp821
g94
g95
ssg76
g811
sg69
(lp822
S':'
asbag62
(g83
g64
NtRp823
(dp824
g67
(dp825
sg76
g811
sg69
(lp826
g62
(g63
g64
NtRp827
(dp828
g67
(dp829
g75
I3
ssg76
g823
sg69
(lp830
S''
asbasbasbasbasbasbasbag62
(g78
g64
NtRp831
(dp832
g67
(dp833
sg76
g261
sg69
(lp834
g62
(g83
g64
NtRp835
(dp836
g67
(dp837
g87
g88
ssg76
g831
sg69
(lp838
S'session_id_wsd'
p839
asbag62
(g83
g64
NtRp840
(dp841
g67
(dp842
g94
g95
ssg76
g831
sg69
(lp843
S':'
asbag62
(g83
g64
NtRp844
(dp845
g67
(dp846
sg76
g831
sg69
(lp847
g62
(g63
g64
NtRp848
(dp849
g67
(dp850
g75
I4
ssg76
g844
sg69
(lp851
S'127.0.0.1-03e21421-54ec-40b0-8e35-83cdb5ef6b10'
p852
ag62
(g71
g64
NtRp853
(dp854
g67
(dp855
g75
I3
ssg76
Nsg69
(lp856
g62
(g78
g64
NtRp857
(dp858
g67
(dp859
sg76
g853
sg69
(lp860
g62
(g83
g64
NtRp861
(dp862
g67
(dp863
g87
g88
ssg76
g857
sg69
(lp864
g299
asbag62
(g83
g64
NtRp865
(dp866
g67
(dp867
g94
g95
ssg76
g857
sg69
(lp868
S':'
asbag62
(g83
g64
NtRp869
(dp870
g67
(dp871
sg76
g857
sg69
(lp872
g62
(g63
g64
NtRp873
(dp874
g67
(dp875
g75
I3
ssg76
g869
sg69
(lp876
S''
asbasbasbag62
(g78
g64
NtRp877
(dp878
g67
(dp879
sg76
g853
sg69
(lp880
g62
(g83
g64
NtRp881
(dp882
g67
(dp883
g87
g88
ssg76
g877
sg69
(lp884
g320
asbag62
(g83
g64
NtRp885
(dp886
g67
(dp887
g94
g95
ssg76
g877
sg69
(lp888
S':'
asbag62
(g83
g64
NtRp889
(dp890
g67
(dp891
sg76
g877
sg69
(lp892
g62
(g63
g64
NtRp893
(dp894
g67
(dp895
g75
I3
ssg76
g889
sg69
(lp896
S''
asbasbasbag62
(g78
g64
NtRp897
(dp898
g67
(dp899
sg76
g853
sg69
(lp900
g62
(g83
g64
NtRp901
(dp902
g67
(dp903
g87
g88
ssg76
g897
sg69
(lp904
g341
asbag62
(g83
g64
NtRp905
(dp906
g67
(dp907
g94
g95
ssg76
g897
sg69
(lp908
S':'
asbag62
(g83
g64
NtRp909
(dp910
g67
(dp911
sg76
g897
sg69
(lp912
g62
(g63
g64
NtRp913
(dp914
g67
(dp915
g75
I3
ssg76
g909
sg69
(lp916
S''
asbasbasbag62
(g78
g64
NtRp917
(dp918
g67
(dp919
sg76
g853
sg69
(lp920
g62
(g83
g64
NtRp921
(dp922
g67
(dp923
g87
g88
ssg76
g917
sg69
(lp924
g362
asbag62
(g83
g64
NtRp925
(dp926
g67
(dp927
g94
g95
ssg76
g917
sg69
(lp928
S':'
asbag62
(g83
g64
NtRp929
(dp930
g67
(dp931
sg76
g917
sg69
(lp932
g62
(g63
g64
NtRp933
(dp934
g67
(dp935
g75
I3
ssg76
g929
sg69
(lp936
S''
asbasbasbag62
(g78
g64
NtRp937
(dp938
g67
(dp939
sg76
g853
sg69
(lp940
g62
(g83
g64
NtRp941
(dp942
g67
(dp943
g87
g88
ssg76
g937
sg69
(lp944
g383
asbag62
(g83
g64
NtRp945
(dp946
g67
(dp947
g94
g95
ssg76
g937
sg69
(lp948
S':'
asbag62
(g83
g64
NtRp949
(dp950
g67
(dp951
sg76
g937
sg69
(lp952
g62
(g63
g64
NtRp953
(dp954
g67
(dp955
g75
I3
ssg76
g949
sg69
(lp956
S''
asbasbasbag62
(g78
g64
NtRp957
(dp958
g67
(dp959
sg76
g853
sg69
(lp960
g62
(g83
g64
NtRp961
(dp962
g67
(dp963
g87
g88
ssg76
g957
sg69
(lp964
g404
asbag62
(g83
g64
NtRp965
(dp966
g67
(dp967
g94
g95
ssg76
g957
sg69
(lp968
S':'
asbag62
(g83
g64
NtRp969
(dp970
g67
(dp971
sg76
g957
sg69
(lp972
g62
(g63
g64
NtRp973
(dp974
g67
(dp975
g75
I3
ssg76
g969
sg69
(lp976
S''
asbasbasbag62
(g78
g64
NtRp977
(dp978
g67
(dp979
sg76
g853
sg69
(lp980
g62
(g83
g64
NtRp981
(dp982
g67
(dp983
g87
g88
ssg76
g977
sg69
(lp984
g425
asbag62
(g83
g64
NtRp985
(dp986
g67
(dp987
g94
g95
ssg76
g977
sg69
(lp988
S':'
asbag62
(g83
g64
NtRp989
(dp990
g67
(dp991
sg76
g977
sg69
(lp992
g62
(g63
g64
NtRp993
(dp994
g67
(dp995
g75
I3
ssg76
g989
sg69
(lp996
S''
asbasbasbag62
(g78
g64
NtRp997
(dp998
g67
(dp999
sg76
g853
sg69
(lp1000
g62
(g83
g64
NtRp1001
(dp1002
g67
(dp1003
g87
g88
ssg76
g997
sg69
(lp1004
g446
asbag62
(g83
g64
NtRp1005
(dp1006
g67
(dp1007
g94
g95
ssg76
g997
sg69
(lp1008
S':'
asbag62
(g83
g64
NtRp1009
(dp1010
g67
(dp1011
sg76
g997
sg69
(lp1012
g62
(g63
g64
NtRp1013
(dp1014
g67
(dp1015
g75
I3
ssg76
g1009
sg69
(lp1016
S''
asbasbasbasbasbasbasbag62
(g78
g64
NtRp1017
(dp1018
g67
(dp1019
sg76
g261
sg69
(lp1020
g62
(g83
g64
NtRp1021
(dp1022
g67
(dp1023
g87
g88
ssg76
g1017
sg69
(lp1024
S'session_id_wsd_tool'
p1025
asbag62
(g83
g64
NtRp1026
(dp1027
g67
(dp1028
g94
g95
ssg76
g1017
sg69
(lp1029
S':'
asbag62
(g83
g64
NtRp1030
(dp1031
g67
(dp1032
sg76
g1017
sg69
(lp1033
g62
(g63
g64
NtRp1034
(dp1035
g67
(dp1036
g75
I4
ssg76
g1030
sg69
(lp1037
S'127.0.0.1-29960464-d1d7-43ef-afd8-b4b6cb06873b'
p1038
ag62
(g71
g64
NtRp1039
(dp1040
g67
(dp1041
g75
I3
ssg76
Nsg69
(lp1042
g62
(g78
g64
NtRp1043
(dp1044
g67
(dp1045
sg76
g1039
sg69
(lp1046
g62
(g83
g64
NtRp1047
(dp1048
g67
(dp1049
g87
g88
ssg76
g1043
sg69
(lp1050
g299
asbag62
(g83
g64
NtRp1051
(dp1052
g67
(dp1053
g94
g95
ssg76
g1043
sg69
(lp1054
S':'
asbag62
(g83
g64
NtRp1055
(dp1056
g67
(dp1057
sg76
g1043
sg69
(lp1058
g62
(g63
g64
NtRp1059
(dp1060
g67
(dp1061
g75
I3
ssg76
g1055
sg69
(lp1062
S''
asbasbasbag62
(g78
g64
NtRp1063
(dp1064
g67
(dp1065
sg76
g1039
sg69
(lp1066
g62
(g83
g64
NtRp1067
(dp1068
g67
(dp1069
g87
g88
ssg76
g1063
sg69
(lp1070
g320
asbag62
(g83
g64
NtRp1071
(dp1072
g67
(dp1073
g94
g95
ssg76
g1063
sg69
(lp1074
S':'
asbag62
(g83
g64
NtRp1075
(dp1076
g67
(dp1077
sg76
g1063
sg69
(lp1078
g62
(g63
g64
NtRp1079
(dp1080
g67
(dp1081
g75
I3
ssg76
g1075
sg69
(lp1082
S''
asbasbasbag62
(g78
g64
NtRp1083
(dp1084
g67
(dp1085
sg76
g1039
sg69
(lp1086
g62
(g83
g64
NtRp1087
(dp1088
g67
(dp1089
g87
g88
ssg76
g1083
sg69
(lp1090
g341
asbag62
(g83
g64
NtRp1091
(dp1092
g67
(dp1093
g94
g95
ssg76
g1083
sg69
(lp1094
S':'
asbag62
(g83
g64
NtRp1095
(dp1096
g67
(dp1097
sg76
g1083
sg69
(lp1098
g62
(g63
g64
NtRp1099
(dp1100
g67
(dp1101
g75
I3
ssg76
g1095
sg69
(lp1102
S''
asbasbasbag62
(g78
g64
NtRp1103
(dp1104
g67
(dp1105
sg76
g1039
sg69
(lp1106
g62
(g83
g64
NtRp1107
(dp1108
g67
(dp1109
g87
g88
ssg76
g1103
sg69
(lp1110
g362
asbag62
(g83
g64
NtRp1111
(dp1112
g67
(dp1113
g94
g95
ssg76
g1103
sg69
(lp1114
S':'
asbag62
(g83
g64
NtRp1115
(dp1116
g67
(dp1117
sg76
g1103
sg69
(lp1118
g62
(g63
g64
NtRp1119
(dp1120
g67
(dp1121
g75
I3
ssg76
g1115
sg69
(lp1122
S''
asbasbasbag62
(g78
g64
NtRp1123
(dp1124
g67
(dp1125
sg76
g1039
sg69
(lp1126
g62
(g83
g64
NtRp1127
(dp1128
g67
(dp1129
g87
g88
ssg76
g1123
sg69
(lp1130
g383
asbag62
(g83
g64
NtRp1131
(dp1132
g67
(dp1133
g94
g95
ssg76
g1123
sg69
(lp1134
S':'
asbag62
(g83
g64
NtRp1135
(dp1136
g67
(dp1137
sg76
g1123
sg69
(lp1138
g62
(g63
g64
NtRp1139
(dp1140
g67
(dp1141
g75
I3
ssg76
g1135
sg69
(lp1142
S''
asbasbasbag62
(g78
g64
NtRp1143
(dp1144
g67
(dp1145
sg76
g1039
sg69
(lp1146
g62
(g83
g64
NtRp1147
(dp1148
g67
(dp1149
g87
g88
ssg76
g1143
sg69
(lp1150
g404
asbag62
(g83
g64
NtRp1151
(dp1152
g67
(dp1153
g94
g95
ssg76
g1143
sg69
(lp1154
S':'
asbag62
(g83
g64
NtRp1155
(dp1156
g67
(dp1157
sg76
g1143
sg69
(lp1158
g62
(g63
g64
NtRp1159
(dp1160
g67
(dp1161
g75
I3
ssg76
g1155
sg69
(lp1162
S''
asbasbasbag62
(g78
g64
NtRp1163
(dp1164
g67
(dp1165
sg76
g1039
sg69
(lp1166
g62
(g83
g64
NtRp1167
(dp1168
g67
(dp1169
g87
g88
ssg76
g1163
sg69
(lp1170
g425
asbag62
(g83
g64
NtRp1171
(dp1172
g67
(dp1173
g94
g95
ssg76
g1163
sg69
(lp1174
S':'
asbag62
(g83
g64
NtRp1175
(dp1176
g67
(dp1177
sg76
g1163
sg69
(lp1178
g62
(g63
g64
NtRp1179
(dp1180
g67
(dp1181
g75
I3
ssg76
g1175
sg69
(lp1182
S''
asbasbasbag62
(g78
g64
NtRp1183
(dp1184
g67
(dp1185
sg76
g1039
sg69
(lp1186
g62
(g83
g64
NtRp1187
(dp1188
g67
(dp1189
g87
g88
ssg76
g1183
sg69
(lp1190
g446
asbag62
(g83
g64
NtRp1191
(dp1192
g67
(dp1193
g94
g95
ssg76
g1183
sg69
(lp1194
S':'
asbag62
(g83
g64
NtRp1195
(dp1196
g67
(dp1197
sg76
g1183
sg69
(lp1198
g62
(g63
g64
NtRp1199
(dp1200
g67
(dp1201
g75
I3
ssg76
g1195
sg69
(lp1202
S''
asbasbasbasbasbasbasbasbasbasbasbag62
(g78
g64
NtRp1203
(dp1204
g67
(dp1205
sg76
g72
sg69
(lp1206
g62
(g83
g64
NtRp1207
(dp1208
g67
(dp1209
g87
g88
ssg76
g1203
sg69
(lp1210
S'env'
p1211
asbag62
(g83
g64
NtRp1212
(dp1213
g67
(dp1214
g94
g95
ssg76
g1203
sg69
(lp1215
S':'
asbag62
(g83
g64
NtRp1216
(dp1217
g67
(dp1218
sg76
g1203
sg69
(lp1219
g62
(g63
g64
NtRp1220
(dp1221
g67
(dp1222
g75
I5
ssg76
g1216
sg69
(lp1223
g62
(g71
g64
NtRp1224
(dp1225
g67
(dp1226
g75
I4
ssg76
Nsg69
(lp1227
g62
(g78
g64
NtRp1228
(dp1229
g67
(dp1230
sg76
g1224
sg69
(lp1231
g62
(g83
g64
NtRp1232
(dp1233
g67
(dp1234
g87
g88
ssg76
g1228
sg69
(lp1235
S'app_folders'
p1236
asbag62
(g83
g64
NtRp1237
(dp1238
g67
(dp1239
g94
g95
ssg76
g1228
sg69
(lp1240
S':'
asbag62
(g83
g64
NtRp1241
(dp1242
g67
(dp1243
sg76
g1228
sg69
(lp1244
g62
(g63
g64
NtRp1245
(dp1246
g67
(dp1247
g75
I4
ssg76
g1241
sg69
(lp1248
S"set(['/home/nazrul/web2py/applications/WSD/', '/home/nazrul/web2py/applications/welcome/', '/home/nazrul/web2py/applications/WSD_Tool/', '/home/nazrul/web2py/applications/admin/'])"
p1249
asbasbasbag62
(g78
g64
NtRp1250
(dp1251
g67
(dp1252
sg76
g1224
sg69
(lp1253
g62
(g83
g64
NtRp1254
(dp1255
g67
(dp1256
g87
g88
ssg76
g1250
sg69
(lp1257
S'applications_parent'
p1258
asbag62
(g83
g64
NtRp1259
(dp1260
g67
(dp1261
g94
g95
ssg76
g1250
sg69
(lp1262
S':'
asbag62
(g83
g64
NtRp1263
(dp1264
g67
(dp1265
sg76
g1250
sg69
(lp1266
g62
(g63
g64
NtRp1267
(dp1268
g67
(dp1269
g75
I4
ssg76
g1263
sg69
(lp1270
S'/home/nazrul/web2py'
p1271
asbasbasbag62
(g78
g64
NtRp1272
(dp1273
g67
(dp1274
sg76
g1224
sg69
(lp1275
g62
(g83
g64
NtRp1276
(dp1277
g67
(dp1278
g87
g88
ssg76
g1272
sg69
(lp1279
S'cmd_args'
p1280
asbag62
(g83
g64
NtRp1281
(dp1282
g67
(dp1283
g94
g95
ssg76
g1272
sg69
(lp1284
S':'
asbag62
(g83
g64
NtRp1285
(dp1286
g67
(dp1287
sg76
g1272
sg69
(lp1288
g62
(g63
g64
NtRp1289
(dp1290
g67
(dp1291
g75
I4
ssg76
g1285
sg69
(lp1292
g62
(g71
g64
NtRp1293
(dp1294
g67
(dp1295
g75
I3
ssg76
Nsg69
(lp1296
sbasbasbasbag62
(g78
g64
NtRp1297
(dp1298
g67
(dp1299
sg76
g1224
sg69
(lp1300
g62
(g83
g64
NtRp1301
(dp1302
g67
(dp1303
g87
g88
ssg76
g1297
sg69
(lp1304
S'cmd_options'
p1305
asbag62
(g83
g64
NtRp1306
(dp1307
g67
(dp1308
g94
g95
ssg76
g1297
sg69
(lp1309
S':'
asbag62
(g83
g64
NtRp1310
(dp1311
g67
(dp1312
sg76
g1297
sg69
(lp1313
g62
(g63
g64
NtRp1314
(dp1315
g67
(dp1316
g75
I4
ssg76
g1310
sg69
(lp1317
S"<Values at 0x92a59cc: {'verbose': False, 'ip': '127.0.0.1', 'with_scheduler': False, 'ips': [], 'shutdown_timeout': 5, 'taskbar': False, 'port': 8000, 'maxthreads': None, 'softcron': False, 'server_name': 'nazrul-Compaq-Presario-CQ40-Notebook-PC', 'bpython': False, 'nogui': False, 'pid_filename': 'httpserver.pid', 'extcron': False, 'runcron': False, 'run_system_tests': False, 'test': None, 'folder': '/home/nazrul/web2py', 'config': '', 'import_models': False, 'winservice': '', 'shell': None, 'run': '', 'log_filename': 'httpserver.log', 'debuglevel': 30, 'args': [''], 'socket_timeout': 5, 'ssl_ca_certificate': None, 'scheduler': None, 'profiler_filename': None, 'ssl_private_key': '', 'scheduler_groups': None, 'password': '<ask>', 'request_queue_size': 5, 'ssl_certificate': '', 'cronjob': False, 'numthreads': None, 'quiet': False, 'interfaces': None, 'minthreads': None, 'timeout': 10, 'plain': False, 'nobanner': False}>"
p1318
asbasbasbag62
(g78
g64
NtRp1319
(dp1320
g67
(dp1321
sg76
g1224
sg69
(lp1322
g62
(g83
g64
NtRp1323
(dp1324
g67
(dp1325
g87
g88
ssg76
g1319
sg69
(lp1326
S'content_length'
p1327
asbag62
(g83
g64
NtRp1328
(dp1329
g67
(dp1330
g94
g95
ssg76
g1319
sg69
(lp1331
S':'
asbag62
(g83
g64
NtRp1332
(dp1333
g67
(dp1334
sg76
g1319
sg69
(lp1335
g62
(g63
g64
NtRp1336
(dp1337
g67
(dp1338
g75
I4
ssg76
g1332
sg69
(lp1339
S'82'
p1340
asbasbasbag62
(g78
g64
NtRp1341
(dp1342
g67
(dp1343
sg76
g1224
sg69
(lp1344
g62
(g83
g64
NtRp1345
(dp1346
g67
(dp1347
g87
g88
ssg76
g1341
sg69
(lp1348
S'content_type'
p1349
asbag62
(g83
g64
NtRp1350
(dp1351
g67
(dp1352
g94
g95
ssg76
g1341
sg69
(lp1353
S':'
asbag62
(g83
g64
NtRp1354
(dp1355
g67
(dp1356
sg76
g1341
sg69
(lp1357
g62
(g63
g64
NtRp1358
(dp1359
g67
(dp1360
g75
I4
ssg76
g1354
sg69
(lp1361
S'application/x-www-form-urlencoded'
p1362
asbasbasbag62
(g78
g64
NtRp1363
(dp1364
g67
(dp1365
sg76
g1224
sg69
(lp1366
g62
(g83
g64
NtRp1367
(dp1368
g67
(dp1369
g87
g88
ssg76
g1363
sg69
(lp1370
S'db_sessions'
p1371
asbag62
(g83
g64
NtRp1372
(dp1373
g67
(dp1374
g94
g95
ssg76
g1363
sg69
(lp1375
S':'
asbag62
(g83
g64
NtRp1376
(dp1377
g67
(dp1378
sg76
g1363
sg69
(lp1379
g62
(g63
g64
NtRp1380
(dp1381
g67
(dp1382
g75
I4
ssg76
g1376
sg69
(lp1383
S'set([])'
p1384
asbasbasbag62
(g78
g64
NtRp1385
(dp1386
g67
(dp1387
sg76
g1224
sg69
(lp1388
g62
(g83
g64
NtRp1389
(dp1390
g67
(dp1391
g87
g88
ssg76
g1385
sg69
(lp1392
S'debugging'
p1393
asbag62
(g83
g64
NtRp1394
(dp1395
g67
(dp1396
g94
g95
ssg76
g1385
sg69
(lp1397
S':'
asbag62
(g83
g64
NtRp1398
(dp1399
g67
(dp1400
sg76
g1385
sg69
(lp1401
g62
(g63
g64
NtRp1402
(dp1403
g67
(dp1404
g75
I4
ssg76
g1398
sg69
(lp1405
g105
asbasbasbag62
(g78
g64
NtRp1406
(dp1407
g67
(dp1408
sg76
g1224
sg69
(lp1409
g62
(g83
g64
NtRp1410
(dp1411
g67
(dp1412
g87
g88
ssg76
g1406
sg69
(lp1413
S'gluon_parent'
p1414
asbag62
(g83
g64
NtRp1415
(dp1416
g67
(dp1417
g94
g95
ssg76
g1406
sg69
(lp1418
S':'
asbag62
(g83
g64
NtRp1419
(dp1420
g67
(dp1421
sg76
g1406
sg69
(lp1422
g62
(g63
g64
NtRp1423
(dp1424
g67
(dp1425
g75
I4
ssg76
g1419
sg69
(lp1426
S'/home/nazrul/web2py'
p1427
asbasbasbag62
(g78
g64
NtRp1428
(dp1429
g67
(dp1430
sg76
g1224
sg69
(lp1431
g62
(g83
g64
NtRp1432
(dp1433
g67
(dp1434
g87
g88
ssg76
g1428
sg69
(lp1435
S'http_accept'
p1436
asbag62
(g83
g64
NtRp1437
(dp1438
g67
(dp1439
g94
g95
ssg76
g1428
sg69
(lp1440
S':'
asbag62
(g83
g64
NtRp1441
(dp1442
g67
(dp1443
sg76
g1428
sg69
(lp1444
g62
(g63
g64
NtRp1445
(dp1446
g67
(dp1447
g75
I4
ssg76
g1441
sg69
(lp1448
S'text/html,application/xhtml+xml,application/xml;q=0.9,*/*;q=0.8'
p1449
asbasbasbag62
(g78
g64
NtRp1450
(dp1451
g67
(dp1452
sg76
g1224
sg69
(lp1453
g62
(g83
g64
NtRp1454
(dp1455
g67
(dp1456
g87
g88
ssg76
g1450
sg69
(lp1457
S'http_accept_encoding'
p1458
asbag62
(g83
g64
NtRp1459
(dp1460
g67
(dp1461
g94
g95
ssg76
g1450
sg69
(lp1462
S':'
asbag62
(g83
g64
NtRp1463
(dp1464
g67
(dp1465
sg76
g1450
sg69
(lp1466
g62
(g63
g64
NtRp1467
(dp1468
g67
(dp1469
g75
I4
ssg76
g1463
sg69
(lp1470
S'gzip, deflate'
p1471
asbasbasbag62
(g78
g64
NtRp1472
(dp1473
g67
(dp1474
sg76
g1224
sg69
(lp1475
g62
(g83
g64
NtRp1476
(dp1477
g67
(dp1478
g87
g88
ssg76
g1472
sg69
(lp1479
S'http_accept_language'
p1480
asbag62
(g83
g64
NtRp1481
(dp1482
g67
(dp1483
g94
g95
ssg76
g1472
sg69
(lp1484
S':'
asbag62
(g83
g64
NtRp1485
(dp1486
g67
(dp1487
sg76
g1472
sg69
(lp1488
g62
(g63
g64
NtRp1489
(dp1490
g67
(dp1491
g75
I4
ssg76
g1485
sg69
(lp1492
S'en-US,en;q=0.5'
p1493
asbasbasbag62
(g78
g64
NtRp1494
(dp1495
g67
(dp1496
sg76
g1224
sg69
(lp1497
g62
(g83
g64
NtRp1498
(dp1499
g67
(dp1500
g87
g88
ssg76
g1494
sg69
(lp1501
S'http_connection'
p1502
asbag62
(g83
g64
NtRp1503
(dp1504
g67
(dp1505
g94
g95
ssg76
g1494
sg69
(lp1506
S':'
asbag62
(g83
g64
NtRp1507
(dp1508
g67
(dp1509
sg76
g1494
sg69
(lp1510
g62
(g63
g64
NtRp1511
(dp1512
g67
(dp1513
g75
I4
ssg76
g1507
sg69
(lp1514
S'keep-alive'
p1515
asbasbasbag62
(g78
g64
NtRp1516
(dp1517
g67
(dp1518
sg76
g1224
sg69
(lp1519
g62
(g83
g64
NtRp1520
(dp1521
g67
(dp1522
g87
g88
ssg76
g1516
sg69
(lp1523
S'http_content_length'
p1524
asbag62
(g83
g64
NtRp1525
(dp1526
g67
(dp1527
g94
g95
ssg76
g1516
sg69
(lp1528
S':'
asbag62
(g83
g64
NtRp1529
(dp1530
g67
(dp1531
sg76
g1516
sg69
(lp1532
g62
(g63
g64
NtRp1533
(dp1534
g67
(dp1535
g75
I4
ssg76
g1529
sg69
(lp1536
g1340
asbasbasbag62
(g78
g64
NtRp1537
(dp1538
g67
(dp1539
sg76
g1224
sg69
(lp1540
g62
(g83
g64
NtRp1541
(dp1542
g67
(dp1543
g87
g88
ssg76
g1537
sg69
(lp1544
S'http_content_type'
p1545
asbag62
(g83
g64
NtRp1546
(dp1547
g67
(dp1548
g94
g95
ssg76
g1537
sg69
(lp1549
S':'
asbag62
(g83
g64
NtRp1550
(dp1551
g67
(dp1552
sg76
g1537
sg69
(lp1553
g62
(g63
g64
NtRp1554
(dp1555
g67
(dp1556
g75
I4
ssg76
g1550
sg69
(lp1557
g1362
asbasbasbag62
(g78
g64
NtRp1558
(dp1559
g67
(dp1560
sg76
g1224
sg69
(lp1561
g62
(g83
g64
NtRp1562
(dp1563
g67
(dp1564
g87
g88
ssg76
g1558
sg69
(lp1565
S'http_cookie'
p1566
asbag62
(g83
g64
NtRp1567
(dp1568
g67
(dp1569
g94
g95
ssg76
g1558
sg69
(lp1570
S':'
asbag62
(g83
g64
NtRp1571
(dp1572
g67
(dp1573
sg76
g1558
sg69
(lp1574
g62
(g63
g64
NtRp1575
(dp1576
g67
(dp1577
g75
I4
ssg76
g1571
sg69
(lp1578
S'KBD=0hi-0; session_id_welcome=127.0.0.1-176142f9-034d-418e-a19e-2ce62b7ee2c0; session_id_admin=127.0.0.1-9efa9df6-ccc0-4219-862b-8c2ecb116d92; session_id_wsd=127.0.0.1-03e21421-54ec-40b0-8e35-83cdb5ef6b10; session_id_wsd_tool=127.0.0.1-29960464-d1d7-43ef-afd8-b4b6cb06873b'
p1579
asbasbasbag62
(g78
g64
NtRp1580
(dp1581
g67
(dp1582
sg76
g1224
sg69
(lp1583
g62
(g83
g64
NtRp1584
(dp1585
g67
(dp1586
g87
g88
ssg76
g1580
sg69
(lp1587
S'http_host'
p1588
asbag62
(g83
g64
NtRp1589
(dp1590
g67
(dp1591
g94
g95
ssg76
g1580
sg69
(lp1592
S':'
asbag62
(g83
g64
NtRp1593
(dp1594
g67
(dp1595
sg76
g1580
sg69
(lp1596
g62
(g63
g64
NtRp1597
(dp1598
g67
(dp1599
g75
I4
ssg76
g1593
sg69
(lp1600
S'127.0.0.1:8000'
p1601
asbasbasbag62
(g78
g64
NtRp1602
(dp1603
g67
(dp1604
sg76
g1224
sg69
(lp1605
g62
(g83
g64
NtRp1606
(dp1607
g67
(dp1608
g87
g88
ssg76
g1602
sg69
(lp1609
S'http_referer'
p1610
asbag62
(g83
g64
NtRp1611
(dp1612
g67
(dp1613
g94
g95
ssg76
g1602
sg69
(lp1614
S':'
asbag62
(g83
g64
NtRp1615
(dp1616
g67
(dp1617
sg76
g1602
sg69
(lp1618
g62
(g63
g64
NtRp1619
(dp1620
g67
(dp1621
g75
I4
ssg76
g1615
sg69
(lp1622
S'http://127.0.0.1:8000/WSD/default/addword'
p1623
asbasbasbag62
(g78
g64
NtRp1624
(dp1625
g67
(dp1626
sg76
g1224
sg69
(lp1627
g62
(g83
g64
NtRp1628
(dp1629
g67
(dp1630
g87
g88
ssg76
g1624
sg69
(lp1631
S'http_user_agent'
p1632
asbag62
(g83
g64
NtRp1633
(dp1634
g67
(dp1635
g94
g95
ssg76
g1624
sg69
(lp1636
S':'
asbag62
(g83
g64
NtRp1637
(dp1638
g67
(dp1639
sg76
g1624
sg69
(lp1640
g62
(g63
g64
NtRp1641
(dp1642
g67
(dp1643
g75
I4
ssg76
g1637
sg69
(lp1644
S'Mozilla/5.0 (X11; Ubuntu; Linux i686; rv:18.0) Gecko/20100101 Firefox/18.0'
p1645
asbasbasbag62
(g78
g64
NtRp1646
(dp1647
g67
(dp1648
sg76
g1224
sg69
(lp1649
g62
(g83
g64
NtRp1650
(dp1651
g67
(dp1652
g87
g88
ssg76
g1646
sg69
(lp1653
S'is_jython'
p1654
asbag62
(g83
g64
NtRp1655
(dp1656
g67
(dp1657
g94
g95
ssg76
g1646
sg69
(lp1658
S':'
asbag62
(g83
g64
NtRp1659
(dp1660
g67
(dp1661
sg76
g1646
sg69
(lp1662
g62
(g63
g64
NtRp1663
(dp1664
g67
(dp1665
g75
I4
ssg76
g1659
sg69
(lp1666
g105
asbasbasbag62
(g78
g64
NtRp1667
(dp1668
g67
(dp1669
sg76
g1224
sg69
(lp1670
g62
(g83
g64
NtRp1671
(dp1672
g67
(dp1673
g87
g88
ssg76
g1667
sg69
(lp1674
S'is_pypy'
p1675
asbag62
(g83
g64
NtRp1676
(dp1677
g67
(dp1678
g94
g95
ssg76
g1667
sg69
(lp1679
S':'
asbag62
(g83
g64
NtRp1680
(dp1681
g67
(dp1682
sg76
g1667
sg69
(lp1683
g62
(g63
g64
NtRp1684
(dp1685
g67
(dp1686
g75
I4
ssg76
g1680
sg69
(lp1687
g105
asbasbasbag62
(g78
g64
NtRp1688
(dp1689
g67
(dp1690
sg76
g1224
sg69
(lp1691
g62
(g83
g64
NtRp1692
(dp1693
g67
(dp1694
g87
g88
ssg76
g1688
sg69
(lp1695
S'local_hosts'
p1696
asbag62
(g83
g64
NtRp1697
(dp1698
g67
(dp1699
g94
g95
ssg76
g1688
sg69
(lp1700
S':'
asbag62
(g83
g64
NtRp1701
(dp1702
g67
(dp1703
sg76
g1688
sg69
(lp1704
g62
(g63
g64
NtRp1705
(dp1706
g67
(dp1707
g75
I4
ssg76
g1701
sg69
(lp1708
g62
(g71
g64
NtRp1709
(dp1710
g67
(dp1711
g75
I3
ssg76
Nsg69
(lp1712
g62
(g78
g64
NtRp1713
(dp1714
g67
(dp1715
sg76
g1709
sg69
(lp1716
g62
(g83
g64
NtRp1717
(dp1718
g67
(dp1719
sg76
g1713
sg69
(lp1720
g62
(g63
g64
NtRp1721
(dp1722
g67
(dp1723
g75
I3
ssg76
g1717
sg69
(lp1724
S'::1'
p1725
asbasbasbag62
(g78
g64
NtRp1726
(dp1727
g67
(dp1728
sg76
g1709
sg69
(lp1729
g62
(g83
g64
NtRp1730
(dp1731
g67
(dp1732
sg76
g1726
sg69
(lp1733
g62
(g63
g64
NtRp1734
(dp1735
g67
(dp1736
g75
I3
ssg76
g1730
sg69
(lp1737
S'127.0.1.1'
p1738
asbasbasbag62
(g78
g64
NtRp1739
(dp1740
g67
(dp1741
sg76
g1709
sg69
(lp1742
g62
(g83
g64
NtRp1743
(dp1744
g67
(dp1745
sg76
g1739
sg69
(lp1746
g62
(g63
g64
NtRp1747
(dp1748
g67
(dp1749
g75
I3
ssg76
g1743
sg69
(lp1750
S'::ffff:127.0.0.1'
p1751
asbasbasbag62
(g78
g64
NtRp1752
(dp1753
g67
(dp1754
sg76
g1709
sg69
(lp1755
g62
(g83
g64
NtRp1756
(dp1757
g67
(dp1758
sg76
g1752
sg69
(lp1759
g62
(g63
g64
NtRp1760
(dp1761
g67
(dp1762
g75
I3
ssg76
g1756
sg69
(lp1763
S'127.0.0.1'
p1764
asbasbasbag62
(g78
g64
NtRp1765
(dp1766
g67
(dp1767
sg76
g1709
sg69
(lp1768
g62
(g83
g64
NtRp1769
(dp1770
g67
(dp1771
sg76
g1765
sg69
(lp1772
g62
(g63
g64
NtRp1773
(dp1774
g67
(dp1775
g75
I3
ssg76
g1769
sg69
(lp1776
S'nazrul-Compaq-Presario-CQ40-Notebook-PC'
p1777
asbasbasbasbasbasbasbag62
(g78
g64
NtRp1778
(dp1779
g67
(dp1780
sg76
g1224
sg69
(lp1781
g62
(g83
g64
NtRp1782
(dp1783
g67
(dp1784
g87
g88
ssg76
g1778
sg69
(lp1785
S'path_info'
p1786
asbag62
(g83
g64
NtRp1787
(dp1788
g67
(dp1789
g94
g95
ssg76
g1778
sg69
(lp1790
S':'
asbag62
(g83
g64
NtRp1791
(dp1792
g67
(dp1793
sg76
g1778
sg69
(lp1794
g62
(g63
g64
NtRp1795
(dp1796
g67
(dp1797
g75
I4
ssg76
g1791
sg69
(lp1798
S'/WSD/default/addword'
p1799
asbasbasbag62
(g78
g64
NtRp1800
(dp1801
g67
(dp1802
sg76
g1224
sg69
(lp1803
g62
(g83
g64
NtRp1804
(dp1805
g67
(dp1806
g87
g88
ssg76
g1800
sg69
(lp1807
S'query_string'
p1808
asbag62
(g83
g64
NtRp1809
(dp1810
g67
(dp1811
g94
g95
ssg76
g1800
sg69
(lp1812
S':'
asbag62
(g83
g64
NtRp1813
(dp1814
g67
(dp1815
sg76
g1800
sg69
(lp1816
g62
(g63
g64
NtRp1817
(dp1818
g67
(dp1819
g75
I4
ssg76
g1813
sg69
(lp1820
S''
asbasbasbag62
(g78
g64
NtRp1821
(dp1822
g67
(dp1823
sg76
g1224
sg69
(lp1824
g62
(g83
g64
NtRp1825
(dp1826
g67
(dp1827
g87
g88
ssg76
g1821
sg69
(lp1828
S'remote_addr'
p1829
asbag62
(g83
g64
NtRp1830
(dp1831
g67
(dp1832
g94
g95
ssg76
g1821
sg69
(lp1833
S':'
asbag62
(g83
g64
NtRp1834
(dp1835
g67
(dp1836
sg76
g1821
sg69
(lp1837
g62
(g63
g64
NtRp1838
(dp1839
g67
(dp1840
g75
I4
ssg76
g1834
sg69
(lp1841
g217
asbasbasbag62
(g78
g64
NtRp1842
(dp1843
g67
(dp1844
sg76
g1224
sg69
(lp1845
g62
(g83
g64
NtRp1846
(dp1847
g67
(dp1848
g87
g88
ssg76
g1842
sg69
(lp1849
S'remote_port'
p1850
asbag62
(g83
g64
NtRp1851
(dp1852
g67
(dp1853
g94
g95
ssg76
g1842
sg69
(lp1854
S':'
asbag62
(g83
g64
NtRp1855
(dp1856
g67
(dp1857
sg76
g1842
sg69
(lp1858
g62
(g63
g64
NtRp1859
(dp1860
g67
(dp1861
g75
I4
ssg76
g1855
sg69
(lp1862
S'47347'
p1863
asbasbasbag62
(g78
g64
NtRp1864
(dp1865
g67
(dp1866
sg76
g1224
sg69
(lp1867
g62
(g83
g64
NtRp1868
(dp1869
g67
(dp1870
g87
g88
ssg76
g1864
sg69
(lp1871
S'request_method'
p1872
asbag62
(g83
g64
NtRp1873
(dp1874
g67
(dp1875
g94
g95
ssg76
g1864
sg69
(lp1876
S':'
asbag62
(g83
g64
NtRp1877
(dp1878
g67
(dp1879
sg76
g1864
sg69
(lp1880
g62
(g63
g64
NtRp1881
(dp1882
g67
(dp1883
g75
I4
ssg76
g1877
sg69
(lp1884
S'POST'
p1885
asbasbasbag62
(g78
g64
NtRp1886
(dp1887
g67
(dp1888
sg76
g1224
sg69
(lp1889
g62
(g83
g64
NtRp1890
(dp1891
g67
(dp1892
g87
g88
ssg76
g1886
sg69
(lp1893
S'request_uri'
p1894
asbag62
(g83
g64
NtRp1895
(dp1896
g67
(dp1897
g94
g95
ssg76
g1886
sg69
(lp1898
S':'
asbag62
(g83
g64
NtRp1899
(dp1900
g67
(dp1901
sg76
g1886
sg69
(lp1902
g62
(g63
g64
NtRp1903
(dp1904
g67
(dp1905
g75
I4
ssg76
g1899
sg69
(lp1906
g1799
asbasbasbag62
(g78
g64
NtRp1907
(dp1908
g67
(dp1909
sg76
g1224
sg69
(lp1910
g62
(g83
g64
NtRp1911
(dp1912
g67
(dp1913
g87
g88
ssg76
g1907
sg69
(lp1914
S'script_name'
p1915
asbag62
(g83
g64
NtRp1916
(dp1917
g67
(dp1918
g94
g95
ssg76
g1907
sg69
(lp1919
S':'
asbag62
(g83
g64
NtRp1920
(dp1921
g67
(dp1922
sg76
g1907
sg69
(lp1923
g62
(g63
g64
NtRp1924
(dp1925
g67
(dp1926
g75
I4
ssg76
g1920
sg69
(lp1927
S''
asbasbasbag62
(g78
g64
NtRp1928
(dp1929
g67
(dp1930
sg76
g1224
sg69
(lp1931
g62
(g83
g64
NtRp1932
(dp1933
g67
(dp1934
g87
g88
ssg76
g1928
sg69
(lp1935
S'server_name'
p1936
asbag62
(g83
g64
NtRp1937
(dp1938
g67
(dp1939
g94
g95
ssg76
g1928
sg69
(lp1940
S':'
asbag62
(g83
g64
NtRp1941
(dp1942
g67
(dp1943
sg76
g1928
sg69
(lp1944
g62
(g63
g64
NtRp1945
(dp1946
g67
(dp1947
g75
I4
ssg76
g1941
sg69
(lp1948
S'nazrul-Compaq-Presario-CQ40-Notebook-PC'
p1949
asbasbasbag62
(g78
g64
NtRp1950
(dp1951
g67
(dp1952
sg76
g1224
sg69
(lp1953
g62
(g83
g64
NtRp1954
(dp1955
g67
(dp1956
g87
g88
ssg76
g1950
sg69
(lp1957
S'server_port'
p1958
asbag62
(g83
g64
NtRp1959
(dp1960
g67
(dp1961
g94
g95
ssg76
g1950
sg69
(lp1962
S':'
asbag62
(g83
g64
NtRp1963
(dp1964
g67
(dp1965
sg76
g1950
sg69
(lp1966
g62
(g63
g64
NtRp1967
(dp1968
g67
(dp1969
g75
I4
ssg76
g1963
sg69
(lp1970
S'8000'
p1971
asbasbasbag62
(g78
g64
NtRp1972
(dp1973
g67
(dp1974
sg76
g1224
sg69
(lp1975
g62
(g83
g64
NtRp1976
(dp1977
g67
(dp1978
g87
g88
ssg76
g1972
sg69
(lp1979
S'server_protocol'
p1980
asbag62
(g83
g64
NtRp1981
(dp1982
g67
(dp1983
g94
g95
ssg76
g1972
sg69
(lp1984
S':'
asbag62
(g83
g64
NtRp1985
(dp1986
g67
(dp1987
sg76
g1972
sg69
(lp1988
g62
(g63
g64
NtRp1989
(dp1990
g67
(dp1991
g75
I4
ssg76
g1985
sg69
(lp1992
S'HTTP/1.1'
p1993
asbasbasbag62
(g78
g64
NtRp1994
(dp1995
g67
(dp1996
sg76
g1224
sg69
(lp1997
g62
(g83
g64
NtRp1998
(dp1999
g67
(dp2000
g87
g88
ssg76
g1994
sg69
(lp2001
S'server_software'
p2002
asbag62
(g83
g64
NtRp2003
(dp2004
g67
(dp2005
g94
g95
ssg76
g1994
sg69
(lp2006
S':'
asbag62
(g83
g64
NtRp2007
(dp2008
g67
(dp2009
sg76
g1994
sg69
(lp2010
g62
(g63
g64
NtRp2011
(dp2012
g67
(dp2013
g75
I4
ssg76
g2007
sg69
(lp2014
S'Rocket 1.2.6'
p2015
asbasbasbag62
(g78
g64
NtRp2016
(dp2017
g67
(dp2018
sg76
g1224
sg69
(lp2019
g62
(g83
g64
NtRp2020
(dp2021
g67
(dp2022
g87
g88
ssg76
g2016
sg69
(lp2023
S'web2py_path'
p2024
asbag62
(g83
g64
NtRp2025
(dp2026
g67
(dp2027
g94
g95
ssg76
g2016
sg69
(lp2028
S':'
asbag62
(g83
g64
NtRp2029
(dp2030
g67
(dp2031
sg76
g2016
sg69
(lp2032
g62
(g63
g64
NtRp2033
(dp2034
g67
(dp2035
g75
I4
ssg76
g2029
sg69
(lp2036
g1271
asbasbasbag62
(g78
g64
NtRp2037
(dp2038
g67
(dp2039
sg76
g1224
sg69
(lp2040
g62
(g83
g64
NtRp2041
(dp2042
g67
(dp2043
g87
g88
ssg76
g2037
sg69
(lp2044
S'web2py_version'
p2045
asbag62
(g83
g64
NtRp2046
(dp2047
g67
(dp2048
g94
g95
ssg76
g2037
sg69
(lp2049
S':'
asbag62
(g83
g64
NtRp2050
(dp2051
g67
(dp2052
sg76
g2037
sg69
(lp2053
g62
(g63
g64
NtRp2054
(dp2055
g67
(dp2056
g75
I4
ssg76
g2050
sg69
(lp2057
g62
(g71
g64
NtRp2058
(dp2059
g67
(dp2060
g75
I3
ssg76
Nsg69
(lp2061
g62
(g78
g64
NtRp2062
(dp2063
g67
(dp2064
sg76
g2058
sg69
(lp2065
g62
(g83
g64
NtRp2066
(dp2067
g67
(dp2068
sg76
g2062
sg69
(lp2069
g62
(g63
g64
NtRp2070
(dp2071
g67
(dp2072
g75
I3
ssg76
g2066
sg69
(lp2073
S'2'
asbasbasbag62
(g78
g64
NtRp2074
(dp2075
g67
(dp2076
sg76
g2058
sg69
(lp2077
g62
(g83
g64
NtRp2078
(dp2079
g67
(dp2080
sg76
g2074
sg69
(lp2081
g62
(g63
g64
NtRp2082
(dp2083
g67
(dp2084
g75
I3
ssg76
g2078
sg69
(lp2085
S'3'
asbasbasbag62
(g78
g64
NtRp2086
(dp2087
g67
(dp2088
sg76
g2058
sg69
(lp2089
g62
(g83
g64
NtRp2090
(dp2091
g67
(dp2092
sg76
g2086
sg69
(lp2093
g62
(g63
g64
NtRp2094
(dp2095
g67
(dp2096
g75
I3
ssg76
g2090
sg69
(lp2097
S'2'
asbasbasbag62
(g78
g64
NtRp2098
(dp2099
g67
(dp2100
sg76
g2058
sg69
(lp2101
g62
(g83
g64
NtRp2102
(dp2103
g67
(dp2104
sg76
g2098
sg69
(lp2105
g62
(g63
g64
NtRp2106
(dp2107
g67
(dp2108
g75
I3
ssg76
g2102
sg69
(lp2109
S'datetime.datetime(2012, 12, 17, 15, 3, 30)'
p2110
asbasbasbag62
(g78
g64
NtRp2111
(dp2112
g67
(dp2113
sg76
g2058
sg69
(lp2114
g62
(g83
g64
NtRp2115
(dp2116
g67
(dp2117
sg76
g2111
sg69
(lp2118
g62
(g63
g64
NtRp2119
(dp2120
g67
(dp2121
g75
I3
ssg76
g2115
sg69
(lp2122
S'stable'
p2123
asbasbasbasbasbasbasbag62
(g78
g64
NtRp2124
(dp2125
g67
(dp2126
sg76
g1224
sg69
(lp2127
g62
(g83
g64
NtRp2128
(dp2129
g67
(dp2130
g87
g88
ssg76
g2124
sg69
(lp2131
S'wsgi_errors'
p2132
asbag62
(g83
g64
NtRp2133
(dp2134
g67
(dp2135
g94
g95
ssg76
g2124
sg69
(lp2136
S':'
asbag62
(g83
g64
NtRp2137
(dp2138
g67
(dp2139
sg76
g2124
sg69
(lp2140
g62
(g63
g64
NtRp2141
(dp2142
g67
(dp2143
g75
I4
ssg76
g2137
sg69
(lp2144
S"<open file '<stderr>', mode 'w' at 0xb72a00d0>"
p2145
asbasbasbag62
(g78
g64
NtRp2146
(dp2147
g67
(dp2148
sg76
g1224
sg69
(lp2149
g62
(g83
g64
NtRp2150
(dp2151
g67
(dp2152
g87
g88
ssg76
g2146
sg69
(lp2153
S'wsgi_file_wrapper'
p2154
asbag62
(g83
g64
NtRp2155
(dp2156
g67
(dp2157
g94
g95
ssg76
g2146
sg69
(lp2158
S':'
asbag62
(g83
g64
NtRp2159
(dp2160
g67
(dp2161
sg76
g2146
sg69
(lp2162
g62
(g63
g64
NtRp2163
(dp2164
g67
(dp2165
g75
I4
ssg76
g2159
sg69
(lp2166
S'<class wsgiref.util.FileWrapper at 0x926547c>'
p2167
asbasbasbag62
(g78
g64
NtRp2168
(dp2169
g67
(dp2170
sg76
g1224
sg69
(lp2171
g62
(g83
g64
NtRp2172
(dp2173
g67
(dp2174
g87
g88
ssg76
g2168
sg69
(lp2175
S'wsgi_input'
p2176
asbag62
(g83
g64
NtRp2177
(dp2178
g67
(dp2179
g94
g95
ssg76
g2168
sg69
(lp2180
S':'
asbag62
(g83
g64
NtRp2181
(dp2182
g67
(dp2183
sg76
g2168
sg69
(lp2184
g62
(g63
g64
NtRp2185
(dp2186
g67
(dp2187
g75
I4
ssg76
g2181
sg69
(lp2188
S'<socket._fileobject object at 0x988062c>'
p2189
asbasbasbag62
(g78
g64
NtRp2190
(dp2191
g67
(dp2192
sg76
g1224
sg69
(lp2193
g62
(g83
g64
NtRp2194
(dp2195
g67
(dp2196
g87
g88
ssg76
g2190
sg69
(lp2197
S'wsgi_multiprocess'
p2198
asbag62
(g83
g64
NtRp2199
(dp2200
g67
(dp2201
g94
g95
ssg76
g2190
sg69
(lp2202
S':'
asbag62
(g83
g64
NtRp2203
(dp2204
g67
(dp2205
sg76
g2190
sg69
(lp2206
g62
(g63
g64
NtRp2207
(dp2208
g67
(dp2209
g75
I4
ssg76
g2203
sg69
(lp2210
g105
asbasbasbag62
(g78
g64
NtRp2211
(dp2212
g67
(dp2213
sg76
g1224
sg69
(lp2214
g62
(g83
g64
NtRp2215
(dp2216
g67
(dp2217
g87
g88
ssg76
g2211
sg69
(lp2218
S'wsgi_multithread'
p2219
asbag62
(g83
g64
NtRp2220
(dp2221
g67
(dp2222
g94
g95
ssg76
g2211
sg69
(lp2223
S':'
asbag62
(g83
g64
NtRp2224
(dp2225
g67
(dp2226
sg76
g2211
sg69
(lp2227
g62
(g63
g64
NtRp2228
(dp2229
g67
(dp2230
g75
I4
ssg76
g2224
sg69
(lp2231
S'True'
p2232
asbasbasbag62
(g78
g64
NtRp2233
(dp2234
g67
(dp2235
sg76
g1224
sg69
(lp2236
g62
(g83
g64
NtRp2237
(dp2238
g67
(dp2239
g87
g88
ssg76
g2233
sg69
(lp2240
S'wsgi_run_once'
p2241
asbag62
(g83
g64
NtRp2242
(dp2243
g67
(dp2244
g94
g95
ssg76
g2233
sg69
(lp2245
S':'
asbag62
(g83
g64
NtRp2246
(dp2247
g67
(dp2248
sg76
g2233
sg69
(lp2249
g62
(g63
g64
NtRp2250
(dp2251
g67
(dp2252
g75
I4
ssg76
g2246
sg69
(lp2253
g105
asbasbasbag62
(g78
g64
NtRp2254
(dp2255
g67
(dp2256
sg76
g1224
sg69
(lp2257
g62
(g83
g64
NtRp2258
(dp2259
g67
(dp2260
g87
g88
ssg76
g2254
sg69
(lp2261
S'wsgi_url_scheme'
p2262
asbag62
(g83
g64
NtRp2263
(dp2264
g67
(dp2265
g94
g95
ssg76
g2254
sg69
(lp2266
S':'
asbag62
(g83
g64
NtRp2267
(dp2268
g67
(dp2269
sg76
g2254
sg69
(lp2270
g62
(g63
g64
NtRp2271
(dp2272
g67
(dp2273
g75
I4
ssg76
g2267
sg69
(lp2274
S'http'
p2275
asbasbasbag62
(g78
g64
NtRp2276
(dp2277
g67
(dp2278
sg76
g1224
sg69
(lp2279
g62
(g83
g64
NtRp2280
(dp2281
g67
(dp2282
g87
g88
ssg76
g2276
sg69
(lp2283
S'wsgi_version'
p2284
asbag62
(g83
g64
NtRp2285
(dp2286
g67
(dp2287
g94
g95
ssg76
g2276
sg69
(lp2288
S':'
asbag62
(g83
g64
NtRp2289
(dp2290
g67
(dp2291
sg76
g2276
sg69
(lp2292
g62
(g63
g64
NtRp2293
(dp2294
g67
(dp2295
g75
I4
ssg76
g2289
sg69
(lp2296
g62
(g71
g64
NtRp2297
(dp2298
g67
(dp2299
g75
I3
ssg76
Nsg69
(lp2300
g62
(g78
g64
NtRp2301
(dp2302
g67
(dp2303
sg76
g2297
sg69
(lp2304
g62
(g83
g64
NtRp2305
(dp2306
g67
(dp2307
sg76
g2301
sg69
(lp2308
g62
(g63
g64
NtRp2309
(dp2310
g67
(dp2311
g75
I3
ssg76
g2305
sg69
(lp2312
S'1'
asbasbasbag62
(g78
g64
NtRp2313
(dp2314
g67
(dp2315
sg76
g2297
sg69
(lp2316
g62
(g83
g64
NtRp2317
(dp2318
g67
(dp2319
sg76
g2313
sg69
(lp2320
g62
(g63
g64
NtRp2321
(dp2322
g67
(dp2323
g75
I3
ssg76
g2317
sg69
(lp2324
S'0'
asbasbasbasbasbasbasbasbasbasbasbag62
(g78
g64
NtRp2325
(dp2326
g67
(dp2327
sg76
g72
sg69
(lp2328
g62
(g83
g64
NtRp2329
(dp2330
g67
(dp2331
g87
g88
ssg76
g2325
sg69
(lp2332
S'extension'
p2333
asbag62
(g83
g64
NtRp2334
(dp2335
g67
(dp2336
g94
g95
ssg76
g2325
sg69
(lp2337
S':'
asbag62
(g83
g64
NtRp2338
(dp2339
g67
(dp2340
sg76
g2325
sg69
(lp2341
g62
(g63
g64
NtRp2342
(dp2343
g67
(dp2344
g75
I5
ssg76
g2338
sg69
(lp2345
S'html'
p2346
asbasbasbag62
(g78
g64
NtRp2347
(dp2348
g67
(dp2349
sg76
g72
sg69
(lp2350
g62
(g83
g64
NtRp2351
(dp2352
g67
(dp2353
g87
g88
ssg76
g2347
sg69
(lp2354
S'folder'
p2355
asbag62
(g83
g64
NtRp2356
(dp2357
g67
(dp2358
g94
g95
ssg76
g2347
sg69
(lp2359
S':'
asbag62
(g83
g64
NtRp2360
(dp2361
g67
(dp2362
sg76
g2347
sg69
(lp2363
g62
(g63
g64
NtRp2364
(dp2365
g67
(dp2366
g75
I5
ssg76
g2360
sg69
(lp2367
S'/home/nazrul/web2py/applications/WSD/'
p2368
asbasbasbag62
(g78
g64
NtRp2369
(dp2370
g67
(dp2371
sg76
g72
sg69
(lp2372
g62
(g83
g64
NtRp2373
(dp2374
g67
(dp2375
g87
g88
ssg76
g2369
sg69
(lp2376
S'function'
p2377
asbag62
(g83
g64
NtRp2378
(dp2379
g67
(dp2380
g94
g95
ssg76
g2369
sg69
(lp2381
S':'
asbag62
(g83
g64
NtRp2382
(dp2383
g67
(dp2384
sg76
g2369
sg69
(lp2385
g62
(g63
g64
NtRp2386
(dp2387
g67
(dp2388
g75
I5
ssg76
g2382
sg69
(lp2389
S'addword'
p2390
asbasbasbag62
(g78
g64
NtRp2391
(dp2392
g67
(dp2393
sg76
g72
sg69
(lp2394
g62
(g83
g64
NtRp2395
(dp2396
g67
(dp2397
g87
g88
ssg76
g2391
sg69
(lp2398
S'get_vars'
p2399
asbag62
(g83
g64
NtRp2400
(dp2401
g67
(dp2402
g94
g95
ssg76
g2391
sg69
(lp2403
S':'
asbag62
(g83
g64
NtRp2404
(dp2405
g67
(dp2406
sg76
g2391
sg69
(lp2407
g62
(g63
g64
NtRp2408
(dp2409
g67
(dp2410
g75
I5
ssg76
g2404
sg69
(lp2411
g62
(g71
g64
NtRp2412
(dp2413
g67
(dp2414
g75
I4
ssg76
Nsg69
(lp2415
sbasbasbasbag62
(g78
g64
NtRp2416
(dp2417
g67
(dp2418
sg76
g72
sg69
(lp2419
g62
(g83
g64
NtRp2420
(dp2421
g67
(dp2422
g87
g88
ssg76
g2416
sg69
(lp2423
S'global_settings'
p2424
asbag62
(g83
g64
NtRp2425
(dp2426
g67
(dp2427
g94
g95
ssg76
g2416
sg69
(lp2428
S':'
asbag62
(g83
g64
NtRp2429
(dp2430
g67
(dp2431
sg76
g2416
sg69
(lp2432
g62
(g63
g64
NtRp2433
(dp2434
g67
(dp2435
g75
I5
ssg76
g2429
sg69
(lp2436
g62
(g71
g64
NtRp2437
(dp2438
g67
(dp2439
g75
I4
ssg76
Nsg69
(lp2440
g62
(g78
g64
NtRp2441
(dp2442
g67
(dp2443
sg76
g2437
sg69
(lp2444
g62
(g83
g64
NtRp2445
(dp2446
g67
(dp2447
g87
g88
ssg76
g2441
sg69
(lp2448
g1236
asbag62
(g83
g64
NtRp2449
(dp2450
g67
(dp2451
g94
g95
ssg76
g2441
sg69
(lp2452
S':'
asbag62
(g83
g64
NtRp2453
(dp2454
g67
(dp2455
sg76
g2441
sg69
(lp2456
g62
(g63
g64
NtRp2457
(dp2458
g67
(dp2459
g75
I4
ssg76
g2453
sg69
(lp2460
S"set(['/home/nazrul/web2py/applications/WSD/', '/home/nazrul/web2py/applications/welcome/', '/home/nazrul/web2py/applications/WSD_Tool/', '/home/nazrul/web2py/applications/admin/'])"
p2461
asbasbasbag62
(g78
g64
NtRp2462
(dp2463
g67
(dp2464
sg76
g2437
sg69
(lp2465
g62
(g83
g64
NtRp2466
(dp2467
g67
(dp2468
g87
g88
ssg76
g2462
sg69
(lp2469
g1258
asbag62
(g83
g64
NtRp2470
(dp2471
g67
(dp2472
g94
g95
ssg76
g2462
sg69
(lp2473
S':'
asbag62
(g83
g64
NtRp2474
(dp2475
g67
(dp2476
sg76
g2462
sg69
(lp2477
g62
(g63
g64
NtRp2478
(dp2479
g67
(dp2480
g75
I4
ssg76
g2474
sg69
(lp2481
g1271
asbasbasbag62
(g78
g64
NtRp2482
(dp2483
g67
(dp2484
sg76
g2437
sg69
(lp2485
g62
(g83
g64
NtRp2486
(dp2487
g67
(dp2488
g87
g88
ssg76
g2482
sg69
(lp2489
g1280
asbag62
(g83
g64
NtRp2490
(dp2491
g67
(dp2492
g94
g95
ssg76
g2482
sg69
(lp2493
S':'
asbag62
(g83
g64
NtRp2494
(dp2495
g67
(dp2496
sg76
g2482
sg69
(lp2497
g62
(g63
g64
NtRp2498
(dp2499
g67
(dp2500
g75
I4
ssg76
g2494
sg69
(lp2501
g62
(g71
g64
NtRp2502
(dp2503
g67
(dp2504
g75
I3
ssg76
Nsg69
(lp2505
sbasbasbasbag62
(g78
g64
NtRp2506
(dp2507
g67
(dp2508
sg76
g2437
sg69
(lp2509
g62
(g83
g64
NtRp2510
(dp2511
g67
(dp2512
g87
g88
ssg76
g2506
sg69
(lp2513
g1305
asbag62
(g83
g64
NtRp2514
(dp2515
g67
(dp2516
g94
g95
ssg76
g2506
sg69
(lp2517
S':'
asbag62
(g83
g64
NtRp2518
(dp2519
g67
(dp2520
sg76
g2506
sg69
(lp2521
g62
(g63
g64
NtRp2522
(dp2523
g67
(dp2524
g75
I4
ssg76
g2518
sg69
(lp2525
S"<Values at 0x92a59cc: {'verbose': False, 'ip': '127.0.0.1', 'with_scheduler': False, 'ips': [], 'shutdown_timeout': 5, 'taskbar': False, 'port': 8000, 'maxthreads': None, 'softcron': False, 'server_name': 'nazrul-Compaq-Presario-CQ40-Notebook-PC', 'bpython': False, 'nogui': False, 'pid_filename': 'httpserver.pid', 'extcron': False, 'runcron': False, 'run_system_tests': False, 'test': None, 'folder': '/home/nazrul/web2py', 'config': '', 'import_models': False, 'winservice': '', 'shell': None, 'run': '', 'log_filename': 'httpserver.log', 'debuglevel': 30, 'args': [''], 'socket_timeout': 5, 'ssl_ca_certificate': None, 'scheduler': None, 'profiler_filename': None, 'ssl_private_key': '', 'scheduler_groups': None, 'password': '<ask>', 'request_queue_size': 5, 'ssl_certificate': '', 'cronjob': False, 'numthreads': None, 'quiet': False, 'interfaces': None, 'minthreads': None, 'timeout': 10, 'plain': False, 'nobanner': False}>"
p2526
asbasbasbag62
(g78
g64
NtRp2527
(dp2528
g67
(dp2529
sg76
g2437
sg69
(lp2530
g62
(g83
g64
NtRp2531
(dp2532
g67
(dp2533
g87
g88
ssg76
g2527
sg69
(lp2534
g1371
asbag62
(g83
g64
NtRp2535
(dp2536
g67
(dp2537
g94
g95
ssg76
g2527
sg69
(lp2538
S':'
asbag62
(g83
g64
NtRp2539
(dp2540
g67
(dp2541
sg76
g2527
sg69
(lp2542
g62
(g63
g64
NtRp2543
(dp2544
g67
(dp2545
g75
I4
ssg76
g2539
sg69
(lp2546
S'set([])'
p2547
asbasbasbag62
(g78
g64
NtRp2548
(dp2549
g67
(dp2550
sg76
g2437
sg69
(lp2551
g62
(g83
g64
NtRp2552
(dp2553
g67
(dp2554
g87
g88
ssg76
g2548
sg69
(lp2555
g1393
asbag62
(g83
g64
NtRp2556
(dp2557
g67
(dp2558
g94
g95
ssg76
g2548
sg69
(lp2559
S':'
asbag62
(g83
g64
NtRp2560
(dp2561
g67
(dp2562
sg76
g2548
sg69
(lp2563
g62
(g63
g64
NtRp2564
(dp2565
g67
(dp2566
g75
I4
ssg76
g2560
sg69
(lp2567
g105
asbasbasbag62
(g78
g64
NtRp2568
(dp2569
g67
(dp2570
sg76
g2437
sg69
(lp2571
g62
(g83
g64
NtRp2572
(dp2573
g67
(dp2574
g87
g88
ssg76
g2568
sg69
(lp2575
g1414
asbag62
(g83
g64
NtRp2576
(dp2577
g67
(dp2578
g94
g95
ssg76
g2568
sg69
(lp2579
S':'
asbag62
(g83
g64
NtRp2580
(dp2581
g67
(dp2582
sg76
g2568
sg69
(lp2583
g62
(g63
g64
NtRp2584
(dp2585
g67
(dp2586
g75
I4
ssg76
g2580
sg69
(lp2587
g1427
asbasbasbag62
(g78
g64
NtRp2588
(dp2589
g67
(dp2590
sg76
g2437
sg69
(lp2591
g62
(g83
g64
NtRp2592
(dp2593
g67
(dp2594
g87
g88
ssg76
g2588
sg69
(lp2595
g1654
asbag62
(g83
g64
NtRp2596
(dp2597
g67
(dp2598
g94
g95
ssg76
g2588
sg69
(lp2599
S':'
asbag62
(g83
g64
NtRp2600
(dp2601
g67
(dp2602
sg76
g2588
sg69
(lp2603
g62
(g63
g64
NtRp2604
(dp2605
g67
(dp2606
g75
I4
ssg76
g2600
sg69
(lp2607
g105
asbasbasbag62
(g78
g64
NtRp2608
(dp2609
g67
(dp2610
sg76
g2437
sg69
(lp2611
g62
(g83
g64
NtRp2612
(dp2613
g67
(dp2614
g87
g88
ssg76
g2608
sg69
(lp2615
g1675
asbag62
(g83
g64
NtRp2616
(dp2617
g67
(dp2618
g94
g95
ssg76
g2608
sg69
(lp2619
S':'
asbag62
(g83
g64
NtRp2620
(dp2621
g67
(dp2622
sg76
g2608
sg69
(lp2623
g62
(g63
g64
NtRp2624
(dp2625
g67
(dp2626
g75
I4
ssg76
g2620
sg69
(lp2627
g105
asbasbasbag62
(g78
g64
NtRp2628
(dp2629
g67
(dp2630
sg76
g2437
sg69
(lp2631
g62
(g83
g64
NtRp2632
(dp2633
g67
(dp2634
g87
g88
ssg76
g2628
sg69
(lp2635
g1696
asbag62
(g83
g64
NtRp2636
(dp2637
g67
(dp2638
g94
g95
ssg76
g2628
sg69
(lp2639
S':'
asbag62
(g83
g64
NtRp2640
(dp2641
g67
(dp2642
sg76
g2628
sg69
(lp2643
g62
(g63
g64
NtRp2644
(dp2645
g67
(dp2646
g75
I4
ssg76
g2640
sg69
(lp2647
g62
(g71
g64
NtRp2648
(dp2649
g67
(dp2650
g75
I3
ssg76
Nsg69
(lp2651
g62
(g78
g64
NtRp2652
(dp2653
g67
(dp2654
sg76
g2648
sg69
(lp2655
g62
(g83
g64
NtRp2656
(dp2657
g67
(dp2658
sg76
g2652
sg69
(lp2659
g62
(g63
g64
NtRp2660
(dp2661
g67
(dp2662
g75
I3
ssg76
g2656
sg69
(lp2663
g1725
asbasbasbag62
(g78
g64
NtRp2664
(dp2665
g67
(dp2666
sg76
g2648
sg69
(lp2667
g62
(g83
g64
NtRp2668
(dp2669
g67
(dp2670
sg76
g2664
sg69
(lp2671
g62
(g63
g64
NtRp2672
(dp2673
g67
(dp2674
g75
I3
ssg76
g2668
sg69
(lp2675
g1738
asbasbasbag62
(g78
g64
NtRp2676
(dp2677
g67
(dp2678
sg76
g2648
sg69
(lp2679
g62
(g83
g64
NtRp2680
(dp2681
g67
(dp2682
sg76
g2676
sg69
(lp2683
g62
(g63
g64
NtRp2684
(dp2685
g67
(dp2686
g75
I3
ssg76
g2680
sg69
(lp2687
g1751
asbasbasbag62
(g78
g64
NtRp2688
(dp2689
g67
(dp2690
sg76
g2648
sg69
(lp2691
g62
(g83
g64
NtRp2692
(dp2693
g67
(dp2694
sg76
g2688
sg69
(lp2695
g62
(g63
g64
NtRp2696
(dp2697
g67
(dp2698
g75
I3
ssg76
g2692
sg69
(lp2699
g1764
asbasbasbag62
(g78
g64
NtRp2700
(dp2701
g67
(dp2702
sg76
g2648
sg69
(lp2703
g62
(g83
g64
NtRp2704
(dp2705
g67
(dp2706
sg76
g2700
sg69
(lp2707
g62
(g63
g64
NtRp2708
(dp2709
g67
(dp2710
g75
I3
ssg76
g2704
sg69
(lp2711
g1777
asbasbasbasbasbasbasbag62
(g78
g64
NtRp2712
(dp2713
g67
(dp2714
sg76
g2437
sg69
(lp2715
g62
(g83
g64
NtRp2716
(dp2717
g67
(dp2718
g87
g88
ssg76
g2712
sg69
(lp2719
g2045
asbag62
(g83
g64
NtRp2720
(dp2721
g67
(dp2722
g94
g95
ssg76
g2712
sg69
(lp2723
S':'
asbag62
(g83
g64
NtRp2724
(dp2725
g67
(dp2726
sg76
g2712
sg69
(lp2727
g62
(g63
g64
NtRp2728
(dp2729
g67
(dp2730
g75
I4
ssg76
g2724
sg69
(lp2731
g62
(g71
g64
NtRp2732
(dp2733
g67
(dp2734
g75
I3
ssg76
Nsg69
(lp2735
g62
(g78
g64
NtRp2736
(dp2737
g67
(dp2738
sg76
g2732
sg69
(lp2739
g62
(g83
g64
NtRp2740
(dp2741
g67
(dp2742
sg76
g2736
sg69
(lp2743
g62
(g63
g64
NtRp2744
(dp2745
g67
(dp2746
g75
I3
ssg76
g2740
sg69
(lp2747
S'2'
asbasbasbag62
(g78
g64
NtRp2748
(dp2749
g67
(dp2750
sg76
g2732
sg69
(lp2751
g62
(g83
g64
NtRp2752
(dp2753
g67
(dp2754
sg76
g2748
sg69
(lp2755
g62
(g63
g64
NtRp2756
(dp2757
g67
(dp2758
g75
I3
ssg76
g2752
sg69
(lp2759
S'3'
asbasbasbag62
(g78
g64
NtRp2760
(dp2761
g67
(dp2762
sg76
g2732
sg69
(lp2763
g62
(g83
g64
NtRp2764
(dp2765
g67
(dp2766
sg76
g2760
sg69
(lp2767
g62
(g63
g64
NtRp2768
(dp2769
g67
(dp2770
g75
I3
ssg76
g2764
sg69
(lp2771
S'2'
asbasbasbag62
(g78
g64
NtRp2772
(dp2773
g67
(dp2774
sg76
g2732
sg69
(lp2775
g62
(g83
g64
NtRp2776
(dp2777
g67
(dp2778
sg76
g2772
sg69
(lp2779
g62
(g63
g64
NtRp2780
(dp2781
g67
(dp2782
g75
I3
ssg76
g2776
sg69
(lp2783
S'datetime.datetime(2012, 12, 17, 15, 3, 30)'
p2784
asbasbasbag62
(g78
g64
NtRp2785
(dp2786
g67
(dp2787
sg76
g2732
sg69
(lp2788
g62
(g83
g64
NtRp2789
(dp2790
g67
(dp2791
sg76
g2785
sg69
(lp2792
g62
(g63
g64
NtRp2793
(dp2794
g67
(dp2795
g75
I3
ssg76
g2789
sg69
(lp2796
g2123
asbasbasbasbasbasbasbasbasbasbasbag62
(g78
g64
NtRp2797
(dp2798
g67
(dp2799
sg76
g72
sg69
(lp2800
g62
(g83
g64
NtRp2801
(dp2802
g67
(dp2803
g87
g88
ssg76
g2797
sg69
(lp2804
S'is_https'
p2805
asbag62
(g83
g64
NtRp2806
(dp2807
g67
(dp2808
g94
g95
ssg76
g2797
sg69
(lp2809
S':'
asbag62
(g83
g64
NtRp2810
(dp2811
g67
(dp2812
sg76
g2797
sg69
(lp2813
g62
(g63
g64
NtRp2814
(dp2815
g67
(dp2816
g75
I5
ssg76
g2810
sg69
(lp2817
g105
asbasbasbag62
(g78
g64
NtRp2818
(dp2819
g67
(dp2820
sg76
g72
sg69
(lp2821
g62
(g83
g64
NtRp2822
(dp2823
g67
(dp2824
g87
g88
ssg76
g2818
sg69
(lp2825
S'is_local'
p2826
asbag62
(g83
g64
NtRp2827
(dp2828
g67
(dp2829
g94
g95
ssg76
g2818
sg69
(lp2830
S':'
asbag62
(g83
g64
NtRp2831
(dp2832
g67
(dp2833
sg76
g2818
sg69
(lp2834
g62
(g63
g64
NtRp2835
(dp2836
g67
(dp2837
g75
I5
ssg76
g2831
sg69
(lp2838
g2232
asbasbasbag62
(g78
g64
NtRp2839
(dp2840
g67
(dp2841
sg76
g72
sg69
(lp2842
g62
(g83
g64
NtRp2843
(dp2844
g67
(dp2845
g87
g88
ssg76
g2839
sg69
(lp2846
S'is_restful'
p2847
asbag62
(g83
g64
NtRp2848
(dp2849
g67
(dp2850
g94
g95
ssg76
g2839
sg69
(lp2851
S':'
asbag62
(g83
g64
NtRp2852
(dp2853
g67
(dp2854
sg76
g2839
sg69
(lp2855
g62
(g63
g64
NtRp2856
(dp2857
g67
(dp2858
g75
I5
ssg76
g2852
sg69
(lp2859
g105
asbasbasbag62
(g78
g64
NtRp2860
(dp2861
g67
(dp2862
sg76
g72
sg69
(lp2863
g62
(g83
g64
NtRp2864
(dp2865
g67
(dp2866
g87
g88
ssg76
g2860
sg69
(lp2867
S'now'
p2868
asbag62
(g83
g64
NtRp2869
(dp2870
g67
(dp2871
g94
g95
ssg76
g2860
sg69
(lp2872
S':'
asbag62
(g83
g64
NtRp2873
(dp2874
g67
(dp2875
sg76
g2860
sg69
(lp2876
g62
(g63
g64
NtRp2877
(dp2878
g67
(dp2879
g75
I5
ssg76
g2873
sg69
(lp2880
S'datetime.datetime(2013, 12, 1, 16, 14, 13, 430500)'
p2881
asbasbasbag62
(g78
g64
NtRp2882
(dp2883
g67
(dp2884
sg76
g72
sg69
(lp2885
g62
(g83
g64
NtRp2886
(dp2887
g67
(dp2888
g87
g88
ssg76
g2882
sg69
(lp2889
S'post_vars'
p2890
asbag62
(g83
g64
NtRp2891
(dp2892
g67
(dp2893
g94
g95
ssg76
g2882
sg69
(lp2894
S':'
asbag62
(g83
g64
NtRp2895
(dp2896
g67
(dp2897
sg76
g2882
sg69
(lp2898
g62
(g63
g64
NtRp2899
(dp2900
g67
(dp2901
g75
I5
ssg76
g2895
sg69
(lp2902
g62
(g71
g64
NtRp2903
(dp2904
g67
(dp2905
g75
I4
ssg76
Nsg69
(lp2906
g62
(g78
g64
NtRp2907
(dp2908
g67
(dp2909
sg76
g2903
sg69
(lp2910
g62
(g83
g64
NtRp2911
(dp2912
g67
(dp2913
g87
g88
ssg76
g2907
sg69
(lp2914
S'esentence'
p2915
asbag62
(g83
g64
NtRp2916
(dp2917
g67
(dp2918
g94
g95
ssg76
g2907
sg69
(lp2919
S':'
asbag62
(g83
g64
NtRp2920
(dp2921
g67
(dp2922
sg76
g2907
sg69
(lp2923
g62
(g63
g64
NtRp2924
(dp2925
g67
(dp2926
g75
I4
ssg76
g2920
sg69
(lp2927
S''
asbasbasbag62
(g78
g64
NtRp2928
(dp2929
g67
(dp2930
sg76
g2903
sg69
(lp2931
g62
(g83
g64
NtRp2932
(dp2933
g67
(dp2934
g87
g88
ssg76
g2928
sg69
(lp2935
S'hsentence'
p2936
asbag62
(g83
g64
NtRp2937
(dp2938
g67
(dp2939
g94
g95
ssg76
g2928
sg69
(lp2940
S':'
asbag62
(g83
g64
NtRp2941
(dp2942
g67
(dp2943
sg76
g2928
sg69
(lp2944
g62
(g63
g64
NtRp2945
(dp2946
g67
(dp2947
g75
I4
ssg76
g2941
sg69
(lp2948
S'\xe0\xa4\xbf\xe0\xa4\xb0\xe0\xa4\xb0'
p2949
asbasbasbag62
(g78
g64
NtRp2950
(dp2951
g67
(dp2952
sg76
g2903
sg69
(lp2953
g62
(g83
g64
NtRp2954
(dp2955
g67
(dp2956
g87
g88
ssg76
g2950
sg69
(lp2957
S'level'
p2958
asbag62
(g83
g64
NtRp2959
(dp2960
g67
(dp2961
g94
g95
ssg76
g2950
sg69
(lp2962
S':'
asbag62
(g83
g64
NtRp2963
(dp2964
g67
(dp2965
sg76
g2950
sg69
(lp2966
g62
(g63
g64
NtRp2967
(dp2968
g67
(dp2969
g75
I4
ssg76
g2963
sg69
(lp2970
S''
asbasbasbag62
(g78
g64
NtRp2971
(dp2972
g67
(dp2973
sg76
g2903
sg69
(lp2974
g62
(g83
g64
NtRp2975
(dp2976
g67
(dp2977
g87
g88
ssg76
g2971
sg69
(lp2978
S'submit'
p2979
asbag62
(g83
g64
NtRp2980
(dp2981
g67
(dp2982
g94
g95
ssg76
g2971
sg69
(lp2983
S':'
asbag62
(g83
g64
NtRp2984
(dp2985
g67
(dp2986
sg76
g2971
sg69
(lp2987
g62
(g63
g64
NtRp2988
(dp2989
g67
(dp2990
g75
I4
ssg76
g2984
sg69
(lp2991
S'Add This Word'
p2992
asbasbasbag62
(g78
g64
NtRp2993
(dp2994
g67
(dp2995
sg76
g2903
sg69
(lp2996
g62
(g83
g64
NtRp2997
(dp2998
g67
(dp2999
g87
g88
ssg76
g2993
sg69
(lp3000
S'word'
p3001
asbag62
(g83
g64
NtRp3002
(dp3003
g67
(dp3004
g94
g95
ssg76
g2993
sg69
(lp3005
S':'
asbag62
(g83
g64
NtRp3006
(dp3007
g67
(dp3008
sg76
g2993
sg69
(lp3009
g62
(g63
g64
NtRp3010
(dp3011
g67
(dp3012
g75
I4
ssg76
g3006
sg69
(lp3013
S''
asbasbasbasbasbasbasbag62
(g78
g64
NtRp3014
(dp3015
g67
(dp3016
sg76
g72
sg69
(lp3017
g62
(g83
g64
NtRp3018
(dp3019
g67
(dp3020
g87
g88
ssg76
g3014
sg69
(lp3021
S'raw_args'
p3022
asbag62
(g83
g64
NtRp3023
(dp3024
g67
(dp3025
g94
g95
ssg76
g3014
sg69
(lp3026
S':'
asbag62
(g83
g64
NtRp3027
(dp3028
g67
(dp3029
sg76
g3014
sg69
(lp3030
g62
(g63
g64
NtRp3031
(dp3032
g67
(dp3033
g75
I5
ssg76
g3027
sg69
(lp3034
S''
asbasbasbag62
(g78
g64
NtRp3035
(dp3036
g67
(dp3037
sg76
g72
sg69
(lp3038
g62
(g83
g64
NtRp3039
(dp3040
g67
(dp3041
g87
g88
ssg76
g3035
sg69
(lp3042
S'raw_extension'
p3043
asbag62
(g83
g64
NtRp3044
(dp3045
g67
(dp3046
g94
g95
ssg76
g3035
sg69
(lp3047
S':'
asbag62
(g83
g64
NtRp3048
(dp3049
g67
(dp3050
sg76
g3035
sg69
(lp3051
g62
(g63
g64
NtRp3052
(dp3053
g67
(dp3054
g75
I5
ssg76
g3048
sg69
(lp3055
S'None'
p3056
asbasbasbag62
(g78
g64
NtRp3057
(dp3058
g67
(dp3059
sg76
g72
sg69
(lp3060
g62
(g83
g64
NtRp3061
(dp3062
g67
(dp3063
g87
g88
ssg76
g3057
sg69
(lp3064
S'url'
p3065
asbag62
(g83
g64
NtRp3066
(dp3067
g67
(dp3068
g94
g95
ssg76
g3057
sg69
(lp3069
S':'
asbag62
(g83
g64
NtRp3070
(dp3071
g67
(dp3072
sg76
g3057
sg69
(lp3073
g62
(g63
g64
NtRp3074
(dp3075
g67
(dp3076
g75
I5
ssg76
g3070
sg69
(lp3077
g1799
asbasbasbag62
(g78
g64
NtRp3078
(dp3079
g67
(dp3080
sg76
g72
sg69
(lp3081
g62
(g83
g64
NtRp3082
(dp3083
g67
(dp3084
g87
g88
ssg76
g3078
sg69
(lp3085
S'utcnow'
p3086
asbag62
(g83
g64
NtRp3087
(dp3088
g67
(dp3089
g94
g95
ssg76
g3078
sg69
(lp3090
S':'
asbag62
(g83
g64
NtRp3091
(dp3092
g67
(dp3093
sg76
g3078
sg69
(lp3094
g62
(g63
g64
NtRp3095
(dp3096
g67
(dp3097
g75
I5
ssg76
g3091
sg69
(lp3098
S'datetime.datetime(2013, 12, 1, 10, 44, 13, 430531)'
p3099
asbasbasbag62
(g78
g64
NtRp3100
(dp3101
g67
(dp3102
sg76
g72
sg69
(lp3103
g62
(g83
g64
NtRp3104
(dp3105
g67
(dp3106
g87
g88
ssg76
g3100
sg69
(lp3107
S'uuid'
p3108
asbag62
(g83
g64
NtRp3109
(dp3110
g67
(dp3111
g94
g95
ssg76
g3100
sg69
(lp3112
S':'
asbag62
(g83
g64
NtRp3113
(dp3114
g67
(dp3115
sg76
g3100
sg69
(lp3116
g62
(g63
g64
NtRp3117
(dp3118
g67
(dp3119
g75
I5
ssg76
g3113
sg69
(lp3120
S'WSD/127.0.0.1.2013-12-01.16-14-13.cf9fdc25-a8d9-4a1d-a67c-a150001b2f39'
p3121
asbasbasbag62
(g78
g64
NtRp3122
(dp3123
g67
(dp3124
sg76
g72
sg69
(lp3125
g62
(g83
g64
NtRp3126
(dp3127
g67
(dp3128
g87
g88
ssg76
g3122
sg69
(lp3129
S'vars'
p3130
asbag62
(g83
g64
NtRp3131
(dp3132
g67
(dp3133
g94
g95
ssg76
g3122
sg69
(lp3134
S':'
asbag62
(g83
g64
NtRp3135
(dp3136
g67
(dp3137
sg76
g3122
sg69
(lp3138
g62
(g63
g64
NtRp3139
(dp3140
g67
(dp3141
g75
I5
ssg76
g3135
sg69
(lp3142
g62
(g71
g64
NtRp3143
(dp3144
g67
(dp3145
g75
I4
ssg76
Nsg69
(lp3146
g62
(g78
g64
NtRp3147
(dp3148
g67
(dp3149
sg76
g3143
sg69
(lp3150
g62
(g83
g64
NtRp3151
(dp3152
g67
(dp3153
g87
g88
ssg76
g3147
sg69
(lp3154
g2915
asbag62
(g83
g64
NtRp3155
(dp3156
g67
(dp3157
g94
g95
ssg76
g3147
sg69
(lp3158
S':'
asbag62
(g83
g64
NtRp3159
(dp3160
g67
(dp3161
sg76
g3147
sg69
(lp3162
g62
(g63
g64
NtRp3163
(dp3164
g67
(dp3165
g75
I4
ssg76
g3159
sg69
(lp3166
S''
asbasbasbag62
(g78
g64
NtRp3167
(dp3168
g67
(dp3169
sg76
g3143
sg69
(lp3170
g62
(g83
g64
NtRp3171
(dp3172
g67
(dp3173
g87
g88
ssg76
g3167
sg69
(lp3174
g2936
asbag62
(g83
g64
NtRp3175
(dp3176
g67
(dp3177
g94
g95
ssg76
g3167
sg69
(lp3178
S':'
asbag62
(g83
g64
NtRp3179
(dp3180
g67
(dp3181
sg76
g3167
sg69
(lp3182
g62
(g63
g64
NtRp3183
(dp3184
g67
(dp3185
g75
I4
ssg76
g3179
sg69
(lp3186
g2949
asbasbasbag62
(g78
g64
NtRp3187
(dp3188
g67
(dp3189
sg76
g3143
sg69
(lp3190
g62
(g83
g64
NtRp3191
(dp3192
g67
(dp3193
g87
g88
ssg76
g3187
sg69
(lp3194
g2958
asbag62
(g83
g64
NtRp3195
(dp3196
g67
(dp3197
g94
g95
ssg76
g3187
sg69
(lp3198
S':'
asbag62
(g83
g64
NtRp3199
(dp3200
g67
(dp3201
sg76
g3187
sg69
(lp3202
g62
(g63
g64
NtRp3203
(dp3204
g67
(dp3205
g75
I4
ssg76
g3199
sg69
(lp3206
S''
asbasbasbag62
(g78
g64
NtRp3207
(dp3208
g67
(dp3209
sg76
g3143
sg69
(lp3210
g62
(g83
g64
NtRp3211
(dp3212
g67
(dp3213
g87
g88
ssg76
g3207
sg69
(lp3214
g2979
asbag62
(g83
g64
NtRp3215
(dp3216
g67
(dp3217
g94
g95
ssg76
g3207
sg69
(lp3218
S':'
asbag62
(g83
g64
NtRp3219
(dp3220
g67
(dp3221
sg76
g3207
sg69
(lp3222
g62
(g63
g64
NtRp3223
(dp3224
g67
(dp3225
g75
I4
ssg76
g3219
sg69
(lp3226
g2992
asbasbasbag62
(g78
g64
NtRp3227
(dp3228
g67
(dp3229
sg76
g3143
sg69
(lp3230
g62
(g83
g64
NtRp3231
(dp3232
g67
(dp3233
g87
g88
ssg76
g3227
sg69
(lp3234
g3001
asbag62
(g83
g64
NtRp3235
(dp3236
g67
(dp3237
g94
g95
ssg76
g3227
sg69
(lp3238
S':'
asbag62
(g83
g64
NtRp3239
(dp3240
g67
(dp3241
sg76
g3227
sg69
(lp3242
g62
(g63
g64
NtRp3243
(dp3244
g67
(dp3245
g75
I4
ssg76
g3239
sg69
(lp3246
S''
asbasbasbasbasbasbasbag62
(g78
g64
NtRp3247
(dp3248
g67
(dp3249
sg76
g72
sg69
(lp3250
g62
(g83
g64
NtRp3251
(dp3252
g67
(dp3253
g87
g88
ssg76
g3247
sg69
(lp3254
S'wsgi'
p3255
asbag62
(g83
g64
NtRp3256
(dp3257
g67
(dp3258
g94
g95
ssg76
g3247
sg69
(lp3259
S':'
asbag62
(g83
g64
NtRp3260
(dp3261
g67
(dp3262
sg76
g3247
sg69
(lp3263
g62
(g63
g64
NtRp3264
(dp3265
g67
(dp3266
g75
I5
ssg76
g3260
sg69
(lp3267
g62
(g71
g64
NtRp3268
(dp3269
g67
(dp3270
g75
I4
ssg76
Nsg69
(lp3271
g62
(g78
g64
NtRp3272
(dp3273
g67
(dp3274
sg76
g3268
sg69
(lp3275
g62
(g83
g64
NtRp3276
(dp3277
g67
(dp3278
g87
g88
ssg76
g3272
sg69
(lp3279
S'environ'
p3280
asbag62
(g83
g64
NtRp3281
(dp3282
g67
(dp3283
g94
g95
ssg76
g3272
sg69
(lp3284
S':'
asbag62
(g83
g64
NtRp3285
(dp3286
g67
(dp3287
sg76
g3272
sg69
(lp3288
g62
(g63
g64
NtRp3289
(dp3290
g67
(dp3291
g75
I4
ssg76
g3285
sg69
(lp3292
g62
(g71
g64
NtRp3293
(dp3294
g67
(dp3295
g75
I3
ssg76
Nsg69
(lp3296
g62
(g78
g64
NtRp3297
(dp3298
g67
(dp3299
sg76
g3293
sg69
(lp3300
g62
(g83
g64
NtRp3301
(dp3302
g67
(dp3303
g87
g88
ssg76
g3297
sg69
(lp3304
S'CONTENT_LENGTH'
p3305
asbag62
(g83
g64
NtRp3306
(dp3307
g67
(dp3308
g94
g95
ssg76
g3297
sg69
(lp3309
S':'
asbag62
(g83
g64
NtRp3310
(dp3311
g67
(dp3312
sg76
g3297
sg69
(lp3313
g62
(g63
g64
NtRp3314
(dp3315
g67
(dp3316
g75
I3
ssg76
g3310
sg69
(lp3317
g1340
asbasbasbag62
(g78
g64
NtRp3318
(dp3319
g67
(dp3320
sg76
g3293
sg69
(lp3321
g62
(g83
g64
NtRp3322
(dp3323
g67
(dp3324
g87
g88
ssg76
g3318
sg69
(lp3325
S'CONTENT_TYPE'
p3326
asbag62
(g83
g64
NtRp3327
(dp3328
g67
(dp3329
g94
g95
ssg76
g3318
sg69
(lp3330
S':'
asbag62
(g83
g64
NtRp3331
(dp3332
g67
(dp3333
sg76
g3318
sg69
(lp3334
g62
(g63
g64
NtRp3335
(dp3336
g67
(dp3337
g75
I3
ssg76
g3331
sg69
(lp3338
g1362
asbasbasbag62
(g78
g64
NtRp3339
(dp3340
g67
(dp3341
sg76
g3293
sg69
(lp3342
g62
(g83
g64
NtRp3343
(dp3344
g67
(dp3345
g87
g88
ssg76
g3339
sg69
(lp3346
S'HTTP_ACCEPT'
p3347
asbag62
(g83
g64
NtRp3348
(dp3349
g67
(dp3350
g94
g95
ssg76
g3339
sg69
(lp3351
S':'
asbag62
(g83
g64
NtRp3352
(dp3353
g67
(dp3354
sg76
g3339
sg69
(lp3355
g62
(g63
g64
NtRp3356
(dp3357
g67
(dp3358
g75
I3
ssg76
g3352
sg69
(lp3359
g1449
asbasbasbag62
(g78
g64
NtRp3360
(dp3361
g67
(dp3362
sg76
g3293
sg69
(lp3363
g62
(g83
g64
NtRp3364
(dp3365
g67
(dp3366
g87
g88
ssg76
g3360
sg69
(lp3367
S'HTTP_ACCEPT_ENCODING'
p3368
asbag62
(g83
g64
NtRp3369
(dp3370
g67
(dp3371
g94
g95
ssg76
g3360
sg69
(lp3372
S':'
asbag62
(g83
g64
NtRp3373
(dp3374
g67
(dp3375
sg76
g3360
sg69
(lp3376
g62
(g63
g64
NtRp3377
(dp3378
g67
(dp3379
g75
I3
ssg76
g3373
sg69
(lp3380
g1471
asbasbasbag62
(g78
g64
NtRp3381
(dp3382
g67
(dp3383
sg76
g3293
sg69
(lp3384
g62
(g83
g64
NtRp3385
(dp3386
g67
(dp3387
g87
g88
ssg76
g3381
sg69
(lp3388
S'HTTP_ACCEPT_LANGUAGE'
p3389
asbag62
(g83
g64
NtRp3390
(dp3391
g67
(dp3392
g94
g95
ssg76
g3381
sg69
(lp3393
S':'
asbag62
(g83
g64
NtRp3394
(dp3395
g67
(dp3396
sg76
g3381
sg69
(lp3397
g62
(g63
g64
NtRp3398
(dp3399
g67
(dp3400
g75
I3
ssg76
g3394
sg69
(lp3401
g1493
asbasbasbag62
(g78
g64
NtRp3402
(dp3403
g67
(dp3404
sg76
g3293
sg69
(lp3405
g62
(g83
g64
NtRp3406
(dp3407
g67
(dp3408
g87
g88
ssg76
g3402
sg69
(lp3409
S'HTTP_CONNECTION'
p3410
asbag62
(g83
g64
NtRp3411
(dp3412
g67
(dp3413
g94
g95
ssg76
g3402
sg69
(lp3414
S':'
asbag62
(g83
g64
NtRp3415
(dp3416
g67
(dp3417
sg76
g3402
sg69
(lp3418
g62
(g63
g64
NtRp3419
(dp3420
g67
(dp3421
g75
I3
ssg76
g3415
sg69
(lp3422
g1515
asbasbasbag62
(g78
g64
NtRp3423
(dp3424
g67
(dp3425
sg76
g3293
sg69
(lp3426
g62
(g83
g64
NtRp3427
(dp3428
g67
(dp3429
g87
g88
ssg76
g3423
sg69
(lp3430
S'HTTP_CONTENT_LENGTH'
p3431
asbag62
(g83
g64
NtRp3432
(dp3433
g67
(dp3434
g94
g95
ssg76
g3423
sg69
(lp3435
S':'
asbag62
(g83
g64
NtRp3436
(dp3437
g67
(dp3438
sg76
g3423
sg69
(lp3439
g62
(g63
g64
NtRp3440
(dp3441
g67
(dp3442
g75
I3
ssg76
g3436
sg69
(lp3443
g1340
asbasbasbag62
(g78
g64
NtRp3444
(dp3445
g67
(dp3446
sg76
g3293
sg69
(lp3447
g62
(g83
g64
NtRp3448
(dp3449
g67
(dp3450
g87
g88
ssg76
g3444
sg69
(lp3451
S'HTTP_CONTENT_TYPE'
p3452
asbag62
(g83
g64
NtRp3453
(dp3454
g67
(dp3455
g94
g95
ssg76
g3444
sg69
(lp3456
S':'
asbag62
(g83
g64
NtRp3457
(dp3458
g67
(dp3459
sg76
g3444
sg69
(lp3460
g62
(g63
g64
NtRp3461
(dp3462
g67
(dp3463
g75
I3
ssg76
g3457
sg69
(lp3464
g1362
asbasbasbag62
(g78
g64
NtRp3465
(dp3466
g67
(dp3467
sg76
g3293
sg69
(lp3468
g62
(g83
g64
NtRp3469
(dp3470
g67
(dp3471
g87
g88
ssg76
g3465
sg69
(lp3472
S'HTTP_COOKIE'
p3473
asbag62
(g83
g64
NtRp3474
(dp3475
g67
(dp3476
g94
g95
ssg76
g3465
sg69
(lp3477
S':'
asbag62
(g83
g64
NtRp3478
(dp3479
g67
(dp3480
sg76
g3465
sg69
(lp3481
g62
(g63
g64
NtRp3482
(dp3483
g67
(dp3484
g75
I3
ssg76
g3478
sg69
(lp3485
g1579
asbasbasbag62
(g78
g64
NtRp3486
(dp3487
g67
(dp3488
sg76
g3293
sg69
(lp3489
g62
(g83
g64
NtRp3490
(dp3491
g67
(dp3492
g87
g88
ssg76
g3486
sg69
(lp3493
S'HTTP_HOST'
p3494
asbag62
(g83
g64
NtRp3495
(dp3496
g67
(dp3497
g94
g95
ssg76
g3486
sg69
(lp3498
S':'
asbag62
(g83
g64
NtRp3499
(dp3500
g67
(dp3501
sg76
g3486
sg69
(lp3502
g62
(g63
g64
NtRp3503
(dp3504
g67
(dp3505
g75
I3
ssg76
g3499
sg69
(lp3506
g1601
asbasbasbag62
(g78
g64
NtRp3507
(dp3508
g67
(dp3509
sg76
g3293
sg69
(lp3510
g62
(g83
g64
NtRp3511
(dp3512
g67
(dp3513
g87
g88
ssg76
g3507
sg69
(lp3514
S'HTTP_REFERER'
p3515
asbag62
(g83
g64
NtRp3516
(dp3517
g67
(dp3518
g94
g95
ssg76
g3507
sg69
(lp3519
S':'
asbag62
(g83
g64
NtRp3520
(dp3521
g67
(dp3522
sg76
g3507
sg69
(lp3523
g62
(g63
g64
NtRp3524
(dp3525
g67
(dp3526
g75
I3
ssg76
g3520
sg69
(lp3527
g1623
asbasbasbag62
(g78
g64
NtRp3528
(dp3529
g67
(dp3530
sg76
g3293
sg69
(lp3531
g62
(g83
g64
NtRp3532
(dp3533
g67
(dp3534
g87
g88
ssg76
g3528
sg69
(lp3535
S'HTTP_USER_AGENT'
p3536
asbag62
(g83
g64
NtRp3537
(dp3538
g67
(dp3539
g94
g95
ssg76
g3528
sg69
(lp3540
S':'
asbag62
(g83
g64
NtRp3541
(dp3542
g67
(dp3543
sg76
g3528
sg69
(lp3544
g62
(g63
g64
NtRp3545
(dp3546
g67
(dp3547
g75
I3
ssg76
g3541
sg69
(lp3548
g1645
asbasbasbag62
(g78
g64
NtRp3549
(dp3550
g67
(dp3551
sg76
g3293
sg69
(lp3552
g62
(g83
g64
NtRp3553
(dp3554
g67
(dp3555
g87
g88
ssg76
g3549
sg69
(lp3556
S'PATH_INFO'
p3557
asbag62
(g83
g64
NtRp3558
(dp3559
g67
(dp3560
g94
g95
ssg76
g3549
sg69
(lp3561
S':'
asbag62
(g83
g64
NtRp3562
(dp3563
g67
(dp3564
sg76
g3549
sg69
(lp3565
g62
(g63
g64
NtRp3566
(dp3567
g67
(dp3568
g75
I3
ssg76
g3562
sg69
(lp3569
g1799
asbasbasbag62
(g78
g64
NtRp3570
(dp3571
g67
(dp3572
sg76
g3293
sg69
(lp3573
g62
(g83
g64
NtRp3574
(dp3575
g67
(dp3576
g87
g88
ssg76
g3570
sg69
(lp3577
S'QUERY_STRING'
p3578
asbag62
(g83
g64
NtRp3579
(dp3580
g67
(dp3581
g94
g95
ssg76
g3570
sg69
(lp3582
S':'
asbag62
(g83
g64
NtRp3583
(dp3584
g67
(dp3585
sg76
g3570
sg69
(lp3586
g62
(g63
g64
NtRp3587
(dp3588
g67
(dp3589
g75
I3
ssg76
g3583
sg69
(lp3590
S''
asbasbasbag62
(g78
g64
NtRp3591
(dp3592
g67
(dp3593
sg76
g3293
sg69
(lp3594
g62
(g83
g64
NtRp3595
(dp3596
g67
(dp3597
g87
g88
ssg76
g3591
sg69
(lp3598
S'REMOTE_ADDR'
p3599
asbag62
(g83
g64
NtRp3600
(dp3601
g67
(dp3602
g94
g95
ssg76
g3591
sg69
(lp3603
S':'
asbag62
(g83
g64
NtRp3604
(dp3605
g67
(dp3606
sg76
g3591
sg69
(lp3607
g62
(g63
g64
NtRp3608
(dp3609
g67
(dp3610
g75
I3
ssg76
g3604
sg69
(lp3611
g217
asbasbasbag62
(g78
g64
NtRp3612
(dp3613
g67
(dp3614
sg76
g3293
sg69
(lp3615
g62
(g83
g64
NtRp3616
(dp3617
g67
(dp3618
g87
g88
ssg76
g3612
sg69
(lp3619
S'REMOTE_PORT'
p3620
asbag62
(g83
g64
NtRp3621
(dp3622
g67
(dp3623
g94
g95
ssg76
g3612
sg69
(lp3624
S':'
asbag62
(g83
g64
NtRp3625
(dp3626
g67
(dp3627
sg76
g3612
sg69
(lp3628
g62
(g63
g64
NtRp3629
(dp3630
g67
(dp3631
g75
I3
ssg76
g3625
sg69
(lp3632
g1863
asbasbasbag62
(g78
g64
NtRp3633
(dp3634
g67
(dp3635
sg76
g3293
sg69
(lp3636
g62
(g83
g64
NtRp3637
(dp3638
g67
(dp3639
g87
g88
ssg76
g3633
sg69
(lp3640
S'REQUEST_METHOD'
p3641
asbag62
(g83
g64
NtRp3642
(dp3643
g67
(dp3644
g94
g95
ssg76
g3633
sg69
(lp3645
S':'
asbag62
(g83
g64
NtRp3646
(dp3647
g67
(dp3648
sg76
g3633
sg69
(lp3649
g62
(g63
g64
NtRp3650
(dp3651
g67
(dp3652
g75
I3
ssg76
g3646
sg69
(lp3653
g1885
asbasbasbag62
(g78
g64
NtRp3654
(dp3655
g67
(dp3656
sg76
g3293
sg69
(lp3657
g62
(g83
g64
NtRp3658
(dp3659
g67
(dp3660
g87
g88
ssg76
g3654
sg69
(lp3661
S'REQUEST_URI'
p3662
asbag62
(g83
g64
NtRp3663
(dp3664
g67
(dp3665
g94
g95
ssg76
g3654
sg69
(lp3666
S':'
asbag62
(g83
g64
NtRp3667
(dp3668
g67
(dp3669
sg76
g3654
sg69
(lp3670
g62
(g63
g64
NtRp3671
(dp3672
g67
(dp3673
g75
I3
ssg76
g3667
sg69
(lp3674
g1799
asbasbasbag62
(g78
g64
NtRp3675
(dp3676
g67
(dp3677
sg76
g3293
sg69
(lp3678
g62
(g83
g64
NtRp3679
(dp3680
g67
(dp3681
g87
g88
ssg76
g3675
sg69
(lp3682
S'SCRIPT_NAME'
p3683
asbag62
(g83
g64
NtRp3684
(dp3685
g67
(dp3686
g94
g95
ssg76
g3675
sg69
(lp3687
S':'
asbag62
(g83
g64
NtRp3688
(dp3689
g67
(dp3690
sg76
g3675
sg69
(lp3691
g62
(g63
g64
NtRp3692
(dp3693
g67
(dp3694
g75
I3
ssg76
g3688
sg69
(lp3695
S''
asbasbasbag62
(g78
g64
NtRp3696
(dp3697
g67
(dp3698
sg76
g3293
sg69
(lp3699
g62
(g83
g64
NtRp3700
(dp3701
g67
(dp3702
g87
g88
ssg76
g3696
sg69
(lp3703
S'SERVER_NAME'
p3704
asbag62
(g83
g64
NtRp3705
(dp3706
g67
(dp3707
g94
g95
ssg76
g3696
sg69
(lp3708
S':'
asbag62
(g83
g64
NtRp3709
(dp3710
g67
(dp3711
sg76
g3696
sg69
(lp3712
g62
(g63
g64
NtRp3713
(dp3714
g67
(dp3715
g75
I3
ssg76
g3709
sg69
(lp3716
g1949
asbasbasbag62
(g78
g64
NtRp3717
(dp3718
g67
(dp3719
sg76
g3293
sg69
(lp3720
g62
(g83
g64
NtRp3721
(dp3722
g67
(dp3723
g87
g88
ssg76
g3717
sg69
(lp3724
S'SERVER_PORT'
p3725
asbag62
(g83
g64
NtRp3726
(dp3727
g67
(dp3728
g94
g95
ssg76
g3717
sg69
(lp3729
S':'
asbag62
(g83
g64
NtRp3730
(dp3731
g67
(dp3732
sg76
g3717
sg69
(lp3733
g62
(g63
g64
NtRp3734
(dp3735
g67
(dp3736
g75
I3
ssg76
g3730
sg69
(lp3737
g1971
asbasbasbag62
(g78
g64
NtRp3738
(dp3739
g67
(dp3740
sg76
g3293
sg69
(lp3741
g62
(g83
g64
NtRp3742
(dp3743
g67
(dp3744
g87
g88
ssg76
g3738
sg69
(lp3745
S'SERVER_PROTOCOL'
p3746
asbag62
(g83
g64
NtRp3747
(dp3748
g67
(dp3749
g94
g95
ssg76
g3738
sg69
(lp3750
S':'
asbag62
(g83
g64
NtRp3751
(dp3752
g67
(dp3753
sg76
g3738
sg69
(lp3754
g62
(g63
g64
NtRp3755
(dp3756
g67
(dp3757
g75
I3
ssg76
g3751
sg69
(lp3758
g1993
asbasbasbag62
(g78
g64
NtRp3759
(dp3760
g67
(dp3761
sg76
g3293
sg69
(lp3762
g62
(g83
g64
NtRp3763
(dp3764
g67
(dp3765
g87
g88
ssg76
g3759
sg69
(lp3766
S'SERVER_SOFTWARE'
p3767
asbag62
(g83
g64
NtRp3768
(dp3769
g67
(dp3770
g94
g95
ssg76
g3759
sg69
(lp3771
S':'
asbag62
(g83
g64
NtRp3772
(dp3773
g67
(dp3774
sg76
g3759
sg69
(lp3775
g62
(g63
g64
NtRp3776
(dp3777
g67
(dp3778
g75
I3
ssg76
g3772
sg69
(lp3779
g2015
asbasbasbag62
(g78
g64
NtRp3780
(dp3781
g67
(dp3782
sg76
g3293
sg69
(lp3783
g62
(g83
g64
NtRp3784
(dp3785
g67
(dp3786
g87
g88
ssg76
g3780
sg69
(lp3787
S'wsgi.errors'
p3788
asbag62
(g83
g64
NtRp3789
(dp3790
g67
(dp3791
g94
g95
ssg76
g3780
sg69
(lp3792
S':'
asbag62
(g83
g64
NtRp3793
(dp3794
g67
(dp3795
sg76
g3780
sg69
(lp3796
g62
(g63
g64
NtRp3797
(dp3798
g67
(dp3799
g75
I3
ssg76
g3793
sg69
(lp3800
S"<open file '<stderr>', mode 'w' at 0xb72a00d0>"
p3801
asbasbasbag62
(g78
g64
NtRp3802
(dp3803
g67
(dp3804
sg76
g3293
sg69
(lp3805
g62
(g83
g64
NtRp3806
(dp3807
g67
(dp3808
g87
g88
ssg76
g3802
sg69
(lp3809
S'wsgi.file_wrapper'
p3810
asbag62
(g83
g64
NtRp3811
(dp3812
g67
(dp3813
g94
g95
ssg76
g3802
sg69
(lp3814
S':'
asbag62
(g83
g64
NtRp3815
(dp3816
g67
(dp3817
sg76
g3802
sg69
(lp3818
g62
(g63
g64
NtRp3819
(dp3820
g67
(dp3821
g75
I3
ssg76
g3815
sg69
(lp3822
S'<class wsgiref.util.FileWrapper at 0x926547c>'
p3823
asbasbasbag62
(g78
g64
NtRp3824
(dp3825
g67
(dp3826
sg76
g3293
sg69
(lp3827
g62
(g83
g64
NtRp3828
(dp3829
g67
(dp3830
g87
g88
ssg76
g3824
sg69
(lp3831
S'wsgi.input'
p3832
asbag62
(g83
g64
NtRp3833
(dp3834
g67
(dp3835
g94
g95
ssg76
g3824
sg69
(lp3836
S':'
asbag62
(g83
g64
NtRp3837
(dp3838
g67
(dp3839
sg76
g3824
sg69
(lp3840
g62
(g63
g64
NtRp3841
(dp3842
g67
(dp3843
g75
I3
ssg76
g3837
sg69
(lp3844
S"<open file '<fdopen>', mode 'w+b' at 0xadba0c80>"
p3845
asbasbasbag62
(g78
g64
NtRp3846
(dp3847
g67
(dp3848
sg76
g3293
sg69
(lp3849
g62
(g83
g64
NtRp3850
(dp3851
g67
(dp3852
g87
g88
ssg76
g3846
sg69
(lp3853
S'wsgi.multiprocess'
p3854
asbag62
(g83
g64
NtRp3855
(dp3856
g67
(dp3857
g94
g95
ssg76
g3846
sg69
(lp3858
S':'
asbag62
(g83
g64
NtRp3859
(dp3860
g67
(dp3861
sg76
g3846
sg69
(lp3862
g62
(g63
g64
NtRp3863
(dp3864
g67
(dp3865
g75
I3
ssg76
g3859
sg69
(lp3866
g105
asbasbasbag62
(g78
g64
NtRp3867
(dp3868
g67
(dp3869
sg76
g3293
sg69
(lp3870
g62
(g83
g64
NtRp3871
(dp3872
g67
(dp3873
g87
g88
ssg76
g3867
sg69
(lp3874
S'wsgi.multithread'
p3875
asbag62
(g83
g64
NtRp3876
(dp3877
g67
(dp3878
g94
g95
ssg76
g3867
sg69
(lp3879
S':'
asbag62
(g83
g64
NtRp3880
(dp3881
g67
(dp3882
sg76
g3867
sg69
(lp3883
g62
(g63
g64
NtRp3884
(dp3885
g67
(dp3886
g75
I3
ssg76
g3880
sg69
(lp3887
g2232
asbasbasbag62
(g78
g64
NtRp3888
(dp3889
g67
(dp3890
sg76
g3293
sg69
(lp3891
g62
(g83
g64
NtRp3892
(dp3893
g67
(dp3894
g87
g88
ssg76
g3888
sg69
(lp3895
S'wsgi.run_once'
p3896
asbag62
(g83
g64
NtRp3897
(dp3898
g67
(dp3899
g94
g95
ssg76
g3888
sg69
(lp3900
S':'
asbag62
(g83
g64
NtRp3901
(dp3902
g67
(dp3903
sg76
g3888
sg69
(lp3904
g62
(g63
g64
NtRp3905
(dp3906
g67
(dp3907
g75
I3
ssg76
g3901
sg69
(lp3908
g105
asbasbasbag62
(g78
g64
NtRp3909
(dp3910
g67
(dp3911
sg76
g3293
sg69
(lp3912
g62
(g83
g64
NtRp3913
(dp3914
g67
(dp3915
g87
g88
ssg76
g3909
sg69
(lp3916
S'wsgi.url_scheme'
p3917
asbag62
(g83
g64
NtRp3918
(dp3919
g67
(dp3920
g94
g95
ssg76
g3909
sg69
(lp3921
S':'
asbag62
(g83
g64
NtRp3922
(dp3923
g67
(dp3924
sg76
g3909
sg69
(lp3925
g62
(g63
g64
NtRp3926
(dp3927
g67
(dp3928
g75
I3
ssg76
g3922
sg69
(lp3929
g2275
asbasbasbag62
(g78
g64
NtRp3930
(dp3931
g67
(dp3932
sg76
g3293
sg69
(lp3933
g62
(g83
g64
NtRp3934
(dp3935
g67
(dp3936
g87
g88
ssg76
g3930
sg69
(lp3937
S'wsgi.version'
p3938
asbag62
(g83
g64
NtRp3939
(dp3940
g67
(dp3941
g94
g95
ssg76
g3930
sg69
(lp3942
S':'
asbag62
(g83
g64
NtRp3943
(dp3944
g67
(dp3945
sg76
g3930
sg69
(lp3946
g62
(g63
g64
NtRp3947
(dp3948
g67
(dp3949
g75
I3
ssg76
g3943
sg69
(lp3950
S'1'
asbasbasbasbasbasbasbasbasbasbasbasbasbsS'frames'
p3951
(lp3952
(dp3953
S'file'
p3954
S'/home/nazrul/web2py/gluon/restricted.py'
p3955
sS'dump'
p3956
(dp3957
S'environment'
p3958
S"{'A': <class 'gluon.html.A'>, 'Auth': <class 'gluon.tools.Auth'>, 'B': <class 'gluon.html.B'>, 'BEAUTIFY': <class 'gluon.html.BEAUTIFY'>, 'BODY': <class 'gluon.html.BODY'>, 'BR': <class 'gluon.html.BR'>, 'BUTTON': <class 'gluon.html.BUTTON'>, 'CAT': <class 'gluon.html.CAT'>, 'CENTER': <class 'gluon.html.CENTER'>, 'CLEANUP': <class 'gluon.validators.CLEANUP'>, ...}"
p3959
sS'ccode'
p3960
S'<code object <module> at 0xad27e608, file "/home...pplications/WSD/controllers/default.py", line 11>'
p3961
ssS'lnum'
p3962
I212
sS'lines'
p3963
(dp3964
I207
S'    try:'
p3965
sI208
S'        if isinstance(code, types.CodeType):'
p3966
sI209
S'            ccode = code'
p3967
sI210
S'        else:'
p3968
sI211
S'            ccode = compile2(code, layer)'
p3969
sI212
S'        exec ccode in environment'
p3970
sI213
S'    except HTTP:'
p3971
sI214
S'        raise'
p3972
sI215
S'    except RestrictedError:'
p3973
sI216
S'        # do not encapsulate (obfuscate) the original RestrictedError'
p3974
ssS'call'
p3975
S"(code='# -*- coding: utf-8 -*-\\n# this file is released ...email)\\n\\nresponse._vars=response._caller(addword)\\n', environment={'A': <class 'gluon.html.A'>, 'Auth': <class 'gluon.tools.Auth'>, 'B': <class 'gluon.html.B'>, 'BEAUTIFY': <class 'gluon.html.BEAUTIFY'>, 'BODY': <class 'gluon.html.BODY'>, 'BR': <class 'gluon.html.BR'>, 'BUTTON': <class 'gluon.html.BUTTON'>, 'CAT': <class 'gluon.html.CAT'>, 'CENTER': <class 'gluon.html.CENTER'>, 'CLEANUP': <class 'gluon.validators.CLEANUP'>, ...}, layer='/home/nazrul/web2py/applications/WSD/controllers/default.py')"
p3976
sS'func'
p3977
S'restricted'
p3978
sa(dp3979
g3954
S'/home/nazrul/web2py/applications/WSD/controllers/default.py'
p3980
sg3956
(dp3981
sg3962
I430
sg3963
(dp3982
I419
S"    form=SQLFORM.factory(Field('user',requires=IS_IN_SET(l)))"
p3983
sI420
S'    if form.accepts(request.vars,session):'
p3984
sI421
S"            redirect(URL('disp_adv',vars=dict(uid=d[form.vars.user])))"
p3985
sI422
S'    return dict(form=form)'
p3986
sI423
S'def disp_adv():'
p3987
sI424
S'    u=request.vars.uid'
p3988
sI425
S'    email=db(db.auth_user.id==u).select(db.auth_user.email)'
p3989
sI426
S'    email=email[0].email'
p3990
sI427
S'    l=db(db.rules.userid==u).select()'
p3991
sI428
S'    return dict(l=l,email=email)'
p3992
ssg3975
S'()'
p3993
sg3977
S'<module>'
p3994
sa(dp3995
g3954
S'/home/nazrul/web2py/gluon/globals.py'
p3996
sg3956
(dp3997
S'self'
p3998
S'undefined'
p3999
sS'f'
S'<function addword>'
p4000
ssg3962
I193
sg3963
(dp4001
I192
S'        self._vars = None'
p4002
sI193
S'        self._caller = lambda f: f()'
p4003
sI194
S'        self._view_environment = None'
p4004
sI195
S'        self._custom_commit = None'
p4005
sI196
S'        self._custom_rollback = None'
p4006
sI197
S''
sI188
S'        self.menu = []             # used by the default view layout'
p4007
sI189
S'        self.files = []            # used by web2py_ajax.html'
p4008
sI190
S'        self.generic_patterns = []  # patterns to allow generic views'
p4009
sI191
S"        self.delimiters = ('{{', '}}')"
p4010
ssg3975
S'(f=<function addword>)'
p4011
sg3977
S'<lambda>'
p4012
sa(dp4013
g3954
S'/home/nazrul/web2py/gluon/tools.py'
p4014
sg3956
(dp4015
S'action'
p4016
S'<function addword>'
p4017
sS'a'
S'()'
p4018
sS'b'
g19
ssg3962
I2929
sg3963
(dp4019
I2924
S'                    flag = condition'
p4020
sI2925
S'                if not flag:'
p4021
sI2926
S'                    current.session.flash = self.messages.access_denied'
p4022
sI2927
S'                    return call_or_redirect('
p4023
sI2928
S'                        self.settings.on_failed_authorization)'
p4024
sI2929
S'                return action(*a, **b)'
p4025
sI2930
S'            f.__doc__ = action.__doc__'
p4026
sI2931
S'            f.__name__ = action.__name__'
p4027
sI2932
S'            f.__dict__.update(action.__dict__)'
p4028
sI2933
S'            return f'
p4029
ssg3975
S'(*a=(), **b={})'
p4030
sg3977
S'f'
sa(dp4031
g3954
S'/home/nazrul/web2py/gluon/tools.py'
p4032
sg3956
(dp4033
S'action'
p4034
S'<function addword>'
p4035
sS'a'
S'()'
p4036
sS'b'
g19
ssg3962
I2929
sg3963
(dp4037
I2924
S'                    flag = condition'
p4038
sI2925
S'                if not flag:'
p4039
sI2926
S'                    current.session.flash = self.messages.access_denied'
p4040
sI2927
S'                    return call_or_redirect('
p4041
sI2928
S'                        self.settings.on_failed_authorization)'
p4042
sI2929
S'                return action(*a, **b)'
p4043
sI2930
S'            f.__doc__ = action.__doc__'
p4044
sI2931
S'            f.__name__ = action.__name__'
p4045
sI2932
S'            f.__dict__.update(action.__dict__)'
p4046
sI2933
S'            return f'
p4047
ssg3975
S'(*a=(), **b={})'
p4048
sg3977
S'f'
sa(dp4049
g3954
S'/home/nazrul/web2py/applications/WSD/controllers/default.py'
p4050
sg3956
(dp4051
S'builtinopen'
p4052
S'<built-in function open>'
p4053
sS'global os'
p4054
S"<module 'os' from '/usr/lib/python2.7/os.pyc'>"
p4055
sS'os.environ'
p4056
S"{'XAUTHORITY': '/home/nazrul/.Xauthority', 'HOME..._HOME': '/home/nazrul/.rvm/gems/ruby-2.0.0-p247'}"
p4057
sS'f'
S"<closed file 'sample', mode 'w'>"
p4058
ssg3962
I269
sg3963
(dp4059
I264
S"       f=open('sample','w')"
p4060
sI265
S'       st="\\n<TITLE> test. </TITLE>\\n<p>\\n" + sen + "\\n</p>\\n"'
p4061
sI266
S'       f.write(st)'
p4062
sI267
S'       f.close()'
p4063
sI268
S'       os.system("/bin/bash Anusaaraka_stanford.sh sample 0 True")'
p4064
sI269
S"       f=open(os.environ['HOME_anu_tmp']+'/tmp/sample_tmp/2.1/word.dat','r')"
p4065
sI270
S'       for line in f:'
p4066
sI271
S"           ind=line.rfind(' '+word)"
p4067
sI272
S"           print word+'*'+line"
p4068
sI273
S'           print "index"+str(ind)'
p4069
ssg3975
S'()'
p4070
sg3977
S'addword'
p4071
sasS'pyver'
p4072
S'Python 2.7.3: /usr/bin/python'
p4073
sS'session'
p4074
g62
(g63
g64
NtRp4075
(dp4076
g67
(dp4077
sg69
(lp4078
g62
(g71
g64
NtRp4079
(dp4080
g67
(dp4081
g75
I5
ssg76
Nsg69
(lp4082
g62
(g78
g64
NtRp4083
(dp4084
g67
(dp4085
sg76
g4079
sg69
(lp4086
g62
(g83
g64
NtRp4087
(dp4088
g67
(dp4089
g87
g88
ssg76
g4083
sg69
(lp4090
S'auth'
p4091
asbag62
(g83
g64
NtRp4092
(dp4093
g67
(dp4094
g94
g95
ssg76
g4083
sg69
(lp4095
S':'
asbag62
(g83
g64
NtRp4096
(dp4097
g67
(dp4098
sg76
g4083
sg69
(lp4099
g62
(g63
g64
NtRp4100
(dp4101
g67
(dp4102
g75
I5
ssg76
g4096
sg69
(lp4103
g62
(g71
g64
NtRp4104
(dp4105
g67
(dp4106
g75
I4
ssg76
Nsg69
(lp4107
g62
(g78
g64
NtRp4108
(dp4109
g67
(dp4110
sg76
g4104
sg69
(lp4111
g62
(g83
g64
NtRp4112
(dp4113
g67
(dp4114
g87
g88
ssg76
g4108
sg69
(lp4115
S'expiration'
p4116
asbag62
(g83
g64
NtRp4117
(dp4118
g67
(dp4119
g94
g95
ssg76
g4108
sg69
(lp4120
S':'
asbag62
(g83
g64
NtRp4121
(dp4122
g67
(dp4123
sg76
g4108
sg69
(lp4124
g62
(g63
g64
NtRp4125
(dp4126
g67
(dp4127
g75
I4
ssg76
g4121
sg69
(lp4128
S'3600'
p4129
asbasbasbag62
(g78
g64
NtRp4130
(dp4131
g67
(dp4132
sg76
g4104
sg69
(lp4133
g62
(g83
g64
NtRp4134
(dp4135
g67
(dp4136
g87
g88
ssg76
g4130
sg69
(lp4137
S'hmac_key'
p4138
asbag62
(g83
g64
NtRp4139
(dp4140
g67
(dp4141
g94
g95
ssg76
g4130
sg69
(lp4142
S':'
asbag62
(g83
g64
NtRp4143
(dp4144
g67
(dp4145
sg76
g4130
sg69
(lp4146
g62
(g63
g64
NtRp4147
(dp4148
g67
(dp4149
g75
I4
ssg76
g4143
sg69
(lp4150
S'3ba9ac48-549c-4785-810f-5bf6550c20d9'
p4151
asbasbasbag62
(g78
g64
NtRp4152
(dp4153
g67
(dp4154
sg76
g4104
sg69
(lp4155
g62
(g83
g64
NtRp4156
(dp4157
g67
(dp4158
g87
g88
ssg76
g4152
sg69
(lp4159
S'last_visit'
p4160
asbag62
(g83
g64
NtRp4161
(dp4162
g67
(dp4163
g94
g95
ssg76
g4152
sg69
(lp4164
S':'
asbag62
(g83
g64
NtRp4165
(dp4166
g67
(dp4167
sg76
g4152
sg69
(lp4168
g62
(g63
g64
NtRp4169
(dp4170
g67
(dp4171
g75
I4
ssg76
g4165
sg69
(lp4172
S'datetime.datetime(2013, 12, 1, 16, 12, 52, 930062)'
p4173
asbasbasbag62
(g78
g64
NtRp4174
(dp4175
g67
(dp4176
sg76
g4104
sg69
(lp4177
g62
(g83
g64
NtRp4178
(dp4179
g67
(dp4180
g87
g88
ssg76
g4174
sg69
(lp4181
S'remember'
p4182
asbag62
(g83
g64
NtRp4183
(dp4184
g67
(dp4185
g94
g95
ssg76
g4174
sg69
(lp4186
S':'
asbag62
(g83
g64
NtRp4187
(dp4188
g67
(dp4189
sg76
g4174
sg69
(lp4190
g62
(g63
g64
NtRp4191
(dp4192
g67
(dp4193
g75
I4
ssg76
g4187
sg69
(lp4194
g105
asbasbasbag62
(g78
g64
NtRp4195
(dp4196
g67
(dp4197
sg76
g4104
sg69
(lp4198
g62
(g83
g64
NtRp4199
(dp4200
g67
(dp4201
g87
g88
ssg76
g4195
sg69
(lp4202
S'user'
p4203
asbag62
(g83
g64
NtRp4204
(dp4205
g67
(dp4206
g94
g95
ssg76
g4195
sg69
(lp4207
S':'
asbag62
(g83
g64
NtRp4208
(dp4209
g67
(dp4210
sg76
g4195
sg69
(lp4211
g62
(g63
g64
NtRp4212
(dp4213
g67
(dp4214
g75
I4
ssg76
g4208
sg69
(lp4215
g62
(g71
g64
NtRp4216
(dp4217
g67
(dp4218
g75
I3
ssg76
Nsg69
(lp4219
g62
(g78
g64
NtRp4220
(dp4221
g67
(dp4222
sg76
g4216
sg69
(lp4223
g62
(g83
g64
NtRp4224
(dp4225
g67
(dp4226
g87
g88
ssg76
g4220
sg69
(lp4227
S'email'
p4228
asbag62
(g83
g64
NtRp4229
(dp4230
g67
(dp4231
g94
g95
ssg76
g4220
sg69
(lp4232
S':'
asbag62
(g83
g64
NtRp4233
(dp4234
g67
(dp4235
sg76
g4220
sg69
(lp4236
g62
(g63
g64
NtRp4237
(dp4238
g67
(dp4239
g75
I3
ssg76
g4233
sg69
(lp4240
S'root@sys.com'
p4241
asbasbasbag62
(g78
g64
NtRp4242
(dp4243
g67
(dp4244
sg76
g4216
sg69
(lp4245
g62
(g83
g64
NtRp4246
(dp4247
g67
(dp4248
g87
g88
ssg76
g4242
sg69
(lp4249
S'first_name'
p4250
asbag62
(g83
g64
NtRp4251
(dp4252
g67
(dp4253
g94
g95
ssg76
g4242
sg69
(lp4254
S':'
asbag62
(g83
g64
NtRp4255
(dp4256
g67
(dp4257
sg76
g4242
sg69
(lp4258
g62
(g63
g64
NtRp4259
(dp4260
g67
(dp4261
g75
I3
ssg76
g4255
sg69
(lp4262
S'root'
p4263
asbasbasbag62
(g78
g64
NtRp4264
(dp4265
g67
(dp4266
sg76
g4216
sg69
(lp4267
g62
(g83
g64
NtRp4268
(dp4269
g67
(dp4270
g87
g88
ssg76
g4264
sg69
(lp4271
S'id'
p4272
asbag62
(g83
g64
NtRp4273
(dp4274
g67
(dp4275
g94
g95
ssg76
g4264
sg69
(lp4276
S':'
asbag62
(g83
g64
NtRp4277
(dp4278
g67
(dp4279
sg76
g4264
sg69
(lp4280
g62
(g63
g64
NtRp4281
(dp4282
g67
(dp4283
g75
I3
ssg76
g4277
sg69
(lp4284
S'4'
asbasbasbag62
(g78
g64
NtRp4285
(dp4286
g67
(dp4287
sg76
g4216
sg69
(lp4288
g62
(g83
g64
NtRp4289
(dp4290
g67
(dp4291
g87
g88
ssg76
g4285
sg69
(lp4292
S'last_name'
p4293
asbag62
(g83
g64
NtRp4294
(dp4295
g67
(dp4296
g94
g95
ssg76
g4285
sg69
(lp4297
S':'
asbag62
(g83
g64
NtRp4298
(dp4299
g67
(dp4300
sg76
g4285
sg69
(lp4301
g62
(g63
g64
NtRp4302
(dp4303
g67
(dp4304
g75
I3
ssg76
g4298
sg69
(lp4305
S'root'
p4306
asbasbasbag62
(g78
g64
NtRp4307
(dp4308
g67
(dp4309
sg76
g4216
sg69
(lp4310
g62
(g83
g64
NtRp4311
(dp4312
g67
(dp4313
g87
g88
ssg76
g4307
sg69
(lp4314
S'registration_id'
p4315
asbag62
(g83
g64
NtRp4316
(dp4317
g67
(dp4318
g94
g95
ssg76
g4307
sg69
(lp4319
S':'
asbag62
(g83
g64
NtRp4320
(dp4321
g67
(dp4322
sg76
g4307
sg69
(lp4323
g62
(g63
g64
NtRp4324
(dp4325
g67
(dp4326
g75
I3
ssg76
g4320
sg69
(lp4327
S''
asbasbasbag62
(g78
g64
NtRp4328
(dp4329
g67
(dp4330
sg76
g4216
sg69
(lp4331
g62
(g83
g64
NtRp4332
(dp4333
g67
(dp4334
g87
g88
ssg76
g4328
sg69
(lp4335
S'registration_key'
p4336
asbag62
(g83
g64
NtRp4337
(dp4338
g67
(dp4339
g94
g95
ssg76
g4328
sg69
(lp4340
S':'
asbag62
(g83
g64
NtRp4341
(dp4342
g67
(dp4343
sg76
g4328
sg69
(lp4344
g62
(g63
g64
NtRp4345
(dp4346
g67
(dp4347
g75
I3
ssg76
g4341
sg69
(lp4348
S''
asbasbasbag62
(g78
g64
NtRp4349
(dp4350
g67
(dp4351
sg76
g4216
sg69
(lp4352
g62
(g83
g64
NtRp4353
(dp4354
g67
(dp4355
g87
g88
ssg76
g4349
sg69
(lp4356
S'reset_password_key'
p4357
asbag62
(g83
g64
NtRp4358
(dp4359
g67
(dp4360
g94
g95
ssg76
g4349
sg69
(lp4361
S':'
asbag62
(g83
g64
NtRp4362
(dp4363
g67
(dp4364
sg76
g4349
sg69
(lp4365
g62
(g63
g64
NtRp4366
(dp4367
g67
(dp4368
g75
I3
ssg76
g4362
sg69
(lp4369
S''
asbasbasbasbasbasbasbag62
(g78
g64
NtRp4370
(dp4371
g67
(dp4372
sg76
g4104
sg69
(lp4373
g62
(g83
g64
NtRp4374
(dp4375
g67
(dp4376
g87
g88
ssg76
g4370
sg69
(lp4377
S'user_groups'
p4378
asbag62
(g83
g64
NtRp4379
(dp4380
g67
(dp4381
g94
g95
ssg76
g4370
sg69
(lp4382
S':'
asbag62
(g83
g64
NtRp4383
(dp4384
g67
(dp4385
sg76
g4370
sg69
(lp4386
g62
(g63
g64
NtRp4387
(dp4388
g67
(dp4389
g75
I4
ssg76
g4383
sg69
(lp4390
g62
(g71
g64
NtRp4391
(dp4392
g67
(dp4393
g75
I3
ssg76
Nsg69
(lp4394
sbasbasbasbasbasbasbasbag62
(g78
g64
NtRp4395
(dp4396
g67
(dp4397
sg76
g4079
sg69
(lp4398
g62
(g83
g64
NtRp4399
(dp4400
g67
(dp4401
g87
g88
ssg76
g4395
sg69
(lp4402
S'flash'
p4403
asbag62
(g83
g64
NtRp4404
(dp4405
g67
(dp4406
g94
g95
ssg76
g4395
sg69
(lp4407
S':'
asbag62
(g83
g64
NtRp4408
(dp4409
g67
(dp4410
sg76
g4395
sg69
(lp4411
g62
(g63
g64
NtRp4412
(dp4413
g67
(dp4414
g75
I5
ssg76
g4408
sg69
(lp4415
S'None'
p4416
asbasbasbag62
(g78
g64
NtRp4417
(dp4418
g67
(dp4419
sg76
g4079
sg69
(lp4420
g62
(g83
g64
NtRp4421
(dp4422
g67
(dp4423
g87
g88
ssg76
g4417
sg69
(lp4424
S'last_orderby'
p4425
asbag62
(g83
g64
NtRp4426
(dp4427
g67
(dp4428
g94
g95
ssg76
g4417
sg69
(lp4429
S':'
asbag62
(g83
g64
NtRp4430
(dp4431
g67
(dp4432
sg76
g4417
sg69
(lp4433
g62
(g63
g64
NtRp4434
(dp4435
g67
(dp4436
g75
I5
ssg76
g4430
sg69
(lp4437
S'None'
p4438
asbasbasbag62
(g78
g64
NtRp4439
(dp4440
g67
(dp4441
sg76
g4079
sg69
(lp4442
g62
(g83
g64
NtRp4443
(dp4444
g67
(dp4445
g87
g88
ssg76
g4439
sg69
(lp4446
S'last_query'
p4447
asbag62
(g83
g64
NtRp4448
(dp4449
g67
(dp4450
g94
g95
ssg76
g4439
sg69
(lp4451
S':'
asbag62
(g83
g64
NtRp4452
(dp4453
g67
(dp4454
sg76
g4439
sg69
(lp4455
g62
(g63
g64
NtRp4456
(dp4457
g67
(dp4458
g75
I5
ssg76
g4452
sg69
(lp4459
S'db.auth_membership.id>0'
p4460
asbasbasbasbasbsS'etype'
p4461
S"<type 'exceptions.IOError'>"
p4462
sS'date'
p4463
S'Sun Dec  1 16:14:24 2013'
p4464
sS'response'
p4465
g62
(g63
g64
NtRp4466
(dp4467
g67
(dp4468
sg69
(lp4469
g62
(g71
g64
NtRp4470
(dp4471
g67
(dp4472
g75
I5
ssg76
Nsg69
(lp4473
g62
(g78
g64
NtRp4474
(dp4475
g67
(dp4476
sg76
g4470
sg69
(lp4477
g62
(g83
g64
NtRp4478
(dp4479
g67
(dp4480
g87
g88
ssg76
g4474
sg69
(lp4481
g160
asbag62
(g83
g64
NtRp4482
(dp4483
g67
(dp4484
g94
g95
ssg76
g4474
sg69
(lp4485
S':'
asbag62
(g83
g64
NtRp4486
(dp4487
g67
(dp4488
sg76
g4474
sg69
(lp4489
g62
(g63
g64
NtRp4490
(dp4491
g67
(dp4492
g75
I5
ssg76
g4486
sg69
(lp4493
S'<cStringIO.StringO object at 0xad0cc3e0>'
p4494
asbasbasbag62
(g78
g64
NtRp4495
(dp4496
g67
(dp4497
sg76
g4470
sg69
(lp4498
g62
(g83
g64
NtRp4499
(dp4500
g67
(dp4501
g87
g88
ssg76
g4495
sg69
(lp4502
g248
asbag62
(g83
g64
NtRp4503
(dp4504
g67
(dp4505
g94
g95
ssg76
g4495
sg69
(lp4506
S':'
asbag62
(g83
g64
NtRp4507
(dp4508
g67
(dp4509
sg76
g4495
sg69
(lp4510
g62
(g63
g64
NtRp4511
(dp4512
g67
(dp4513
g75
I5
ssg76
g4507
sg69
(lp4514
g62
(g71
g64
NtRp4515
(dp4516
g67
(dp4517
g75
I4
ssg76
Nsg69
(lp4518
g62
(g78
g64
NtRp4519
(dp4520
g67
(dp4521
sg76
g4515
sg69
(lp4522
g62
(g83
g64
NtRp4523
(dp4524
g67
(dp4525
g87
g88
ssg76
g4519
sg69
(lp4526
S'session_id_wsd'
p4527
asbag62
(g83
g64
NtRp4528
(dp4529
g67
(dp4530
g94
g95
ssg76
g4519
sg69
(lp4531
S':'
asbag62
(g83
g64
NtRp4532
(dp4533
g67
(dp4534
sg76
g4519
sg69
(lp4535
g62
(g63
g64
NtRp4536
(dp4537
g67
(dp4538
g75
I4
ssg76
g4532
sg69
(lp4539
g852
ag62
(g71
g64
NtRp4540
(dp4541
g67
(dp4542
g75
I3
ssg76
Nsg69
(lp4543
g62
(g78
g64
NtRp4544
(dp4545
g67
(dp4546
sg76
g4540
sg69
(lp4547
g62
(g83
g64
NtRp4548
(dp4549
g67
(dp4550
g87
g88
ssg76
g4544
sg69
(lp4551
g299
asbag62
(g83
g64
NtRp4552
(dp4553
g67
(dp4554
g94
g95
ssg76
g4544
sg69
(lp4555
S':'
asbag62
(g83
g64
NtRp4556
(dp4557
g67
(dp4558
sg76
g4544
sg69
(lp4559
g62
(g63
g64
NtRp4560
(dp4561
g67
(dp4562
g75
I3
ssg76
g4556
sg69
(lp4563
S''
asbasbasbag62
(g78
g64
NtRp4564
(dp4565
g67
(dp4566
sg76
g4540
sg69
(lp4567
g62
(g83
g64
NtRp4568
(dp4569
g67
(dp4570
g87
g88
ssg76
g4564
sg69
(lp4571
g320
asbag62
(g83
g64
NtRp4572
(dp4573
g67
(dp4574
g94
g95
ssg76
g4564
sg69
(lp4575
S':'
asbag62
(g83
g64
NtRp4576
(dp4577
g67
(dp4578
sg76
g4564
sg69
(lp4579
g62
(g63
g64
NtRp4580
(dp4581
g67
(dp4582
g75
I3
ssg76
g4576
sg69
(lp4583
S''
asbasbasbag62
(g78
g64
NtRp4584
(dp4585
g67
(dp4586
sg76
g4540
sg69
(lp4587
g62
(g83
g64
NtRp4588
(dp4589
g67
(dp4590
g87
g88
ssg76
g4584
sg69
(lp4591
g341
asbag62
(g83
g64
NtRp4592
(dp4593
g67
(dp4594
g94
g95
ssg76
g4584
sg69
(lp4595
S':'
asbag62
(g83
g64
NtRp4596
(dp4597
g67
(dp4598
sg76
g4584
sg69
(lp4599
g62
(g63
g64
NtRp4600
(dp4601
g67
(dp4602
g75
I3
ssg76
g4596
sg69
(lp4603
S''
asbasbasbag62
(g78
g64
NtRp4604
(dp4605
g67
(dp4606
sg76
g4540
sg69
(lp4607
g62
(g83
g64
NtRp4608
(dp4609
g67
(dp4610
g87
g88
ssg76
g4604
sg69
(lp4611
g362
asbag62
(g83
g64
NtRp4612
(dp4613
g67
(dp4614
g94
g95
ssg76
g4604
sg69
(lp4615
S':'
asbag62
(g83
g64
NtRp4616
(dp4617
g67
(dp4618
sg76
g4604
sg69
(lp4619
g62
(g63
g64
NtRp4620
(dp4621
g67
(dp4622
g75
I3
ssg76
g4616
sg69
(lp4623
S''
asbasbasbag62
(g78
g64
NtRp4624
(dp4625
g67
(dp4626
sg76
g4540
sg69
(lp4627
g62
(g83
g64
NtRp4628
(dp4629
g67
(dp4630
g87
g88
ssg76
g4624
sg69
(lp4631
g383
asbag62
(g83
g64
NtRp4632
(dp4633
g67
(dp4634
g94
g95
ssg76
g4624
sg69
(lp4635
S':'
asbag62
(g83
g64
NtRp4636
(dp4637
g67
(dp4638
sg76
g4624
sg69
(lp4639
g62
(g63
g64
NtRp4640
(dp4641
g67
(dp4642
g75
I3
ssg76
g4636
sg69
(lp4643
S''
asbasbasbag62
(g78
g64
NtRp4644
(dp4645
g67
(dp4646
sg76
g4540
sg69
(lp4647
g62
(g83
g64
NtRp4648
(dp4649
g67
(dp4650
g87
g88
ssg76
g4644
sg69
(lp4651
g404
asbag62
(g83
g64
NtRp4652
(dp4653
g67
(dp4654
g94
g95
ssg76
g4644
sg69
(lp4655
S':'
asbag62
(g83
g64
NtRp4656
(dp4657
g67
(dp4658
sg76
g4644
sg69
(lp4659
g62
(g63
g64
NtRp4660
(dp4661
g67
(dp4662
g75
I3
ssg76
g4656
sg69
(lp4663
S'/'
asbasbasbag62
(g78
g64
NtRp4664
(dp4665
g67
(dp4666
sg76
g4540
sg69
(lp4667
g62
(g83
g64
NtRp4668
(dp4669
g67
(dp4670
g87
g88
ssg76
g4664
sg69
(lp4671
g425
asbag62
(g83
g64
NtRp4672
(dp4673
g67
(dp4674
g94
g95
ssg76
g4664
sg69
(lp4675
S':'
asbag62
(g83
g64
NtRp4676
(dp4677
g67
(dp4678
sg76
g4664
sg69
(lp4679
g62
(g63
g64
NtRp4680
(dp4681
g67
(dp4682
g75
I3
ssg76
g4676
sg69
(lp4683
S''
asbasbasbag62
(g78
g64
NtRp4684
(dp4685
g67
(dp4686
sg76
g4540
sg69
(lp4687
g62
(g83
g64
NtRp4688
(dp4689
g67
(dp4690
g87
g88
ssg76
g4684
sg69
(lp4691
g446
asbag62
(g83
g64
NtRp4692
(dp4693
g67
(dp4694
g94
g95
ssg76
g4684
sg69
(lp4695
S':'
asbag62
(g83
g64
NtRp4696
(dp4697
g67
(dp4698
sg76
g4684
sg69
(lp4699
g62
(g63
g64
NtRp4700
(dp4701
g67
(dp4702
g75
I3
ssg76
g4696
sg69
(lp4703
S''
asbasbasbasbasbasbasbasbasbasbasbag62
(g78
g64
NtRp4704
(dp4705
g67
(dp4706
sg76
g4470
sg69
(lp4707
g62
(g83
g64
NtRp4708
(dp4709
g67
(dp4710
g87
g88
ssg76
g4704
sg69
(lp4711
S'delimiters'
p4712
asbag62
(g83
g64
NtRp4713
(dp4714
g67
(dp4715
g94
g95
ssg76
g4704
sg69
(lp4716
S':'
asbag62
(g83
g64
NtRp4717
(dp4718
g67
(dp4719
sg76
g4704
sg69
(lp4720
g62
(g63
g64
NtRp4721
(dp4722
g67
(dp4723
g75
I5
ssg76
g4717
sg69
(lp4724
g62
(g71
g64
NtRp4725
(dp4726
g67
(dp4727
g75
I4
ssg76
Nsg69
(lp4728
g62
(g78
g64
NtRp4729
(dp4730
g67
(dp4731
sg76
g4725
sg69
(lp4732
g62
(g83
g64
NtRp4733
(dp4734
g67
(dp4735
sg76
g4729
sg69
(lp4736
g62
(g63
g64
NtRp4737
(dp4738
g67
(dp4739
g75
I4
ssg76
g4733
sg69
(lp4740
S'{{'
p4741
asbasbasbag62
(g78
g64
NtRp4742
(dp4743
g67
(dp4744
sg76
g4725
sg69
(lp4745
g62
(g83
g64
NtRp4746
(dp4747
g67
(dp4748
sg76
g4742
sg69
(lp4749
g62
(g63
g64
NtRp4750
(dp4751
g67
(dp4752
g75
I4
ssg76
g4746
sg69
(lp4753
S'}}'
p4754
asbasbasbasbasbasbasbag62
(g78
g64
NtRp4755
(dp4756
g67
(dp4757
sg76
g4470
sg69
(lp4758
g62
(g83
g64
NtRp4759
(dp4760
g67
(dp4761
g87
g88
ssg76
g4755
sg69
(lp4762
S'files'
p4763
asbag62
(g83
g64
NtRp4764
(dp4765
g67
(dp4766
g94
g95
ssg76
g4755
sg69
(lp4767
S':'
asbag62
(g83
g64
NtRp4768
(dp4769
g67
(dp4770
sg76
g4755
sg69
(lp4771
g62
(g63
g64
NtRp4772
(dp4773
g67
(dp4774
g75
I5
ssg76
g4768
sg69
(lp4775
g62
(g71
g64
NtRp4776
(dp4777
g67
(dp4778
g75
I4
ssg76
Nsg69
(lp4779
sbasbasbasbag62
(g78
g64
NtRp4780
(dp4781
g67
(dp4782
sg76
g4470
sg69
(lp4783
g62
(g83
g64
NtRp4784
(dp4785
g67
(dp4786
g87
g88
ssg76
g4780
sg69
(lp4787
S'flash'
p4788
asbag62
(g83
g64
NtRp4789
(dp4790
g67
(dp4791
g94
g95
ssg76
g4780
sg69
(lp4792
S':'
asbag62
(g83
g64
NtRp4793
(dp4794
g67
(dp4795
sg76
g4780
sg69
(lp4796
g62
(g63
g64
NtRp4797
(dp4798
g67
(dp4799
g75
I5
ssg76
g4793
sg69
(lp4800
S''
asbasbasbag62
(g78
g64
NtRp4801
(dp4802
g67
(dp4803
sg76
g4470
sg69
(lp4804
g62
(g83
g64
NtRp4805
(dp4806
g67
(dp4807
g87
g88
ssg76
g4801
sg69
(lp4808
S'generic_patterns'
p4809
asbag62
(g83
g64
NtRp4810
(dp4811
g67
(dp4812
g94
g95
ssg76
g4801
sg69
(lp4813
S':'
asbag62
(g83
g64
NtRp4814
(dp4815
g67
(dp4816
sg76
g4801
sg69
(lp4817
g62
(g63
g64
NtRp4818
(dp4819
g67
(dp4820
g75
I5
ssg76
g4814
sg69
(lp4821
g62
(g71
g64
NtRp4822
(dp4823
g67
(dp4824
g75
I4
ssg76
Nsg69
(lp4825
g62
(g78
g64
NtRp4826
(dp4827
g67
(dp4828
sg76
g4822
sg69
(lp4829
g62
(g83
g64
NtRp4830
(dp4831
g67
(dp4832
sg76
g4826
sg69
(lp4833
g62
(g63
g64
NtRp4834
(dp4835
g67
(dp4836
g75
I4
ssg76
g4830
sg69
(lp4837
S'*'
asbasbasbasbasbasbasbag62
(g78
g64
NtRp4838
(dp4839
g67
(dp4840
sg76
g4470
sg69
(lp4841
g62
(g83
g64
NtRp4842
(dp4843
g67
(dp4844
g87
g88
ssg76
g4838
sg69
(lp4845
S'google_analytics_id'
p4846
asbag62
(g83
g64
NtRp4847
(dp4848
g67
(dp4849
g94
g95
ssg76
g4838
sg69
(lp4850
S':'
asbag62
(g83
g64
NtRp4851
(dp4852
g67
(dp4853
sg76
g4838
sg69
(lp4854
g62
(g63
g64
NtRp4855
(dp4856
g67
(dp4857
g75
I5
ssg76
g4851
sg69
(lp4858
S'None'
p4859
asbasbasbag62
(g78
g64
NtRp4860
(dp4861
g67
(dp4862
sg76
g4470
sg69
(lp4863
g62
(g83
g64
NtRp4864
(dp4865
g67
(dp4866
g87
g88
ssg76
g4860
sg69
(lp4867
S'headers'
p4868
asbag62
(g83
g64
NtRp4869
(dp4870
g67
(dp4871
g94
g95
ssg76
g4860
sg69
(lp4872
S':'
asbag62
(g83
g64
NtRp4873
(dp4874
g67
(dp4875
sg76
g4860
sg69
(lp4876
g62
(g63
g64
NtRp4877
(dp4878
g67
(dp4879
g75
I5
ssg76
g4873
sg69
(lp4880
g62
(g71
g64
NtRp4881
(dp4882
g67
(dp4883
g75
I4
ssg76
Nsg69
(lp4884
g62
(g78
g64
NtRp4885
(dp4886
g67
(dp4887
sg76
g4881
sg69
(lp4888
g62
(g83
g64
NtRp4889
(dp4890
g67
(dp4891
g87
g88
ssg76
g4885
sg69
(lp4892
S'X-Powered-By'
p4893
asbag62
(g83
g64
NtRp4894
(dp4895
g67
(dp4896
g94
g95
ssg76
g4885
sg69
(lp4897
S':'
asbag62
(g83
g64
NtRp4898
(dp4899
g67
(dp4900
sg76
g4885
sg69
(lp4901
g62
(g63
g64
NtRp4902
(dp4903
g67
(dp4904
g75
I4
ssg76
g4898
sg69
(lp4905
S'web2py'
p4906
asbasbasbasbasbasbasbag62
(g78
g64
NtRp4907
(dp4908
g67
(dp4909
sg76
g4470
sg69
(lp4910
g62
(g83
g64
NtRp4911
(dp4912
g67
(dp4913
g87
g88
ssg76
g4907
sg69
(lp4914
S'menu'
p4915
asbag62
(g83
g64
NtRp4916
(dp4917
g67
(dp4918
g94
g95
ssg76
g4907
sg69
(lp4919
S':'
asbag62
(g83
g64
NtRp4920
(dp4921
g67
(dp4922
sg76
g4907
sg69
(lp4923
g62
(g63
g64
NtRp4924
(dp4925
g67
(dp4926
g75
I5
ssg76
g4920
sg69
(lp4927
g62
(g71
g64
NtRp4928
(dp4929
g67
(dp4930
g75
I4
ssg76
Nsg69
(lp4931
g62
(g78
g64
NtRp4932
(dp4933
g67
(dp4934
sg76
g4928
sg69
(lp4935
g62
(g83
g64
NtRp4936
(dp4937
g67
(dp4938
sg76
g4932
sg69
(lp4939
g62
(g63
g64
NtRp4940
(dp4941
g67
(dp4942
g75
I4
ssg76
g4936
sg69
(lp4943
g62
(g71
g64
NtRp4944
(dp4945
g67
(dp4946
g75
I3
ssg76
Nsg69
(lp4947
g62
(g78
g64
NtRp4948
(dp4949
g67
(dp4950
sg76
g4944
sg69
(lp4951
g62
(g83
g64
NtRp4952
(dp4953
g67
(dp4954
sg76
g4948
sg69
(lp4955
g62
(g63
g64
NtRp4956
(dp4957
g67
(dp4958
g75
I3
ssg76
g4952
sg69
(lp4959
cgluon.languages
lazyT_unpickle
p4960
(S't\x04\x00\x00\x00Home'
tRp4961
asbasbasbag62
(g78
g64
NtRp4962
(dp4963
g67
(dp4964
sg76
g4944
sg69
(lp4965
g62
(g83
g64
NtRp4966
(dp4967
g67
(dp4968
sg76
g4962
sg69
(lp4969
g62
(g63
g64
NtRp4970
(dp4971
g67
(dp4972
g75
I3
ssg76
g4966
sg69
(lp4973
g105
asbasbasbag62
(g78
g64
NtRp4974
(dp4975
g67
(dp4976
sg76
g4944
sg69
(lp4977
g62
(g83
g64
NtRp4978
(dp4979
g67
(dp4980
sg76
g4974
sg69
(lp4981
g62
(g63
g64
NtRp4982
(dp4983
g67
(dp4984
g75
I3
ssg76
g4978
sg69
(lp4985
S'/WSD/default/index'
p4986
asbasbasbag62
(g78
g64
NtRp4987
(dp4988
g67
(dp4989
sg76
g4944
sg69
(lp4990
g62
(g83
g64
NtRp4991
(dp4992
g67
(dp4993
sg76
g4987
sg69
(lp4994
g62
(g63
g64
NtRp4995
(dp4996
g67
(dp4997
g75
I3
ssg76
g4991
sg69
(lp4998
g62
(g71
g64
NtRp4999
(dp5000
g67
(dp5001
g75
I2
ssg76
Nsg69
(lp5002
sbasbasbasbasbasbasbasbag62
(g78
g64
NtRp5003
(dp5004
g67
(dp5005
sg76
g4928
sg69
(lp5006
g62
(g83
g64
NtRp5007
(dp5008
g67
(dp5009
sg76
g5003
sg69
(lp5010
g62
(g63
g64
NtRp5011
(dp5012
g67
(dp5013
g75
I4
ssg76
g5007
sg69
(lp5014
g62
(g71
g64
NtRp5015
(dp5016
g67
(dp5017
g75
I3
ssg76
Nsg69
(lp5018
g62
(g78
g64
NtRp5019
(dp5020
g67
(dp5021
sg76
g5015
sg69
(lp5022
g62
(g83
g64
NtRp5023
(dp5024
g67
(dp5025
sg76
g5019
sg69
(lp5026
g62
(g63
g64
NtRp5027
(dp5028
g67
(dp5029
g75
I3
ssg76
g5023
sg69
(lp5030
g62
(cgluon.html
SPAN
p5031
g64
NtRp5032
(dp5033
g67
(dp5034
g87
S'color:yellow'
p5035
ssg76
Nsg69
(lp5036
g4906
asbasbasbasbag62
(g78
g64
NtRp5037
(dp5038
g67
(dp5039
sg76
g5015
sg69
(lp5040
g62
(g83
g64
NtRp5041
(dp5042
g67
(dp5043
sg76
g5037
sg69
(lp5044
g62
(g63
g64
NtRp5045
(dp5046
g67
(dp5047
g75
I3
ssg76
g5041
sg69
(lp5048
g105
asbasbasbag62
(g78
g64
NtRp5049
(dp5050
g67
(dp5051
sg76
g5015
sg69
(lp5052
g62
(g83
g64
NtRp5053
(dp5054
g67
(dp5055
sg76
g5049
sg69
(lp5056
g62
(g63
g64
NtRp5057
(dp5058
g67
(dp5059
g75
I3
ssg76
g5053
sg69
(lp5060
S'None'
p5061
asbasbasbag62
(g78
g64
NtRp5062
(dp5063
g67
(dp5064
sg76
g5015
sg69
(lp5065
g62
(g83
g64
NtRp5066
(dp5067
g67
(dp5068
sg76
g5062
sg69
(lp5069
g62
(g63
g64
NtRp5070
(dp5071
g67
(dp5072
g75
I3
ssg76
g5066
sg69
(lp5073
g62
(g71
g64
NtRp5074
(dp5075
g67
(dp5076
g75
I2
ssg76
Nsg69
(lp5077
g62
(g78
g64
NtRp5078
(dp5079
g67
(dp5080
sg76
g5074
sg69
(lp5081
g62
(g83
g64
NtRp5082
(dp5083
g67
(dp5084
sg76
g5078
sg69
(lp5085
g62
(g63
g64
NtRp5086
(dp5087
g67
(dp5088
g75
I2
ssg76
g5082
sg69
(lp5089
g62
(g71
g64
NtRp5090
(dp5091
g67
(dp5092
g75
I1
ssg76
Nsg69
(lp5093
g62
(g78
g64
NtRp5094
(dp5095
g67
(dp5096
sg76
g5090
sg69
(lp5097
g62
(g83
g64
NtRp5098
(dp5099
g67
(dp5100
sg76
g5094
sg69
(lp5101
g62
(g63
g64
NtRp5102
(dp5103
g67
(dp5104
g75
I1
ssg76
g5098
sg69
(lp5105
g4960
(S's\x08\x00\x00\x00My Sites'
tRp5106
asbasbasbag62
(g78
g64
NtRp5107
(dp5108
g67
(dp5109
sg76
g5090
sg69
(lp5110
g62
(g83
g64
NtRp5111
(dp5112
g67
(dp5113
sg76
g5107
sg69
(lp5114
g62
(g63
g64
NtRp5115
(dp5116
g67
(dp5117
g75
I1
ssg76
g5111
sg69
(lp5118
I00
asbasbasbag62
(g78
g64
NtRp5119
(dp5120
g67
(dp5121
sg76
g5090
sg69
(lp5122
g62
(g83
g64
NtRp5123
(dp5124
g67
(dp5125
sg76
g5119
sg69
(lp5126
g62
(g63
g64
NtRp5127
(dp5128
g67
(dp5129
g75
I1
ssg76
g5123
sg69
(lp5130
S'/admin/default/site'
p5131
asbasbasbasbasbasbasbag62
(g78
g64
NtRp5132
(dp5133
g67
(dp5134
sg76
g5074
sg69
(lp5135
g62
(g83
g64
NtRp5136
(dp5137
g67
(dp5138
sg76
g5132
sg69
(lp5139
g62
(g63
g64
NtRp5140
(dp5141
g67
(dp5142
g75
I2
ssg76
g5136
sg69
(lp5143
g62
(g71
g64
NtRp5144
(dp5145
g67
(dp5146
g75
I1
ssg76
Nsg69
(lp5147
g62
(g78
g64
NtRp5148
(dp5149
g67
(dp5150
sg76
g5144
sg69
(lp5151
g62
(g83
g64
NtRp5152
(dp5153
g67
(dp5154
sg76
g5148
sg69
(lp5155
g62
(g63
g64
NtRp5156
(dp5157
g67
(dp5158
g75
I1
ssg76
g5152
sg69
(lp5159
g4960
(S's\x08\x00\x00\x00This App'
tRp5160
asbasbasbag62
(g78
g64
NtRp5161
(dp5162
g67
(dp5163
sg76
g5144
sg69
(lp5164
g62
(g83
g64
NtRp5165
(dp5166
g67
(dp5167
sg76
g5161
sg69
(lp5168
g62
(g63
g64
NtRp5169
(dp5170
g67
(dp5171
g75
I1
ssg76
g5165
sg69
(lp5172
I00
asbasbasbag62
(g78
g64
NtRp5173
(dp5174
g67
(dp5175
sg76
g5144
sg69
(lp5176
g62
(g83
g64
NtRp5177
(dp5178
g67
(dp5179
sg76
g5173
sg69
(lp5180
g62
(g63
g64
NtRp5181
(dp5182
g67
(dp5183
g75
I1
ssg76
g5177
sg69
(lp5184
S'/admin/default/design/WSD'
p5185
asbasbasbag62
(g78
g64
NtRp5186
(dp5187
g67
(dp5188
sg76
g5144
sg69
(lp5189
g62
(g83
g64
NtRp5190
(dp5191
g67
(dp5192
sg76
g5186
sg69
(lp5193
g62
(g63
g64
NtRp5194
(dp5195
g67
(dp5196
g75
I1
ssg76
g5190
sg69
(lp5197
(lp5198
(g4960
(S't\n\x00\x00\x00Controller'
tRp5199
I00
S'/admin/default/edit/WSD/controllers/default.py'
tp5200
a(g4960
(S't\x04\x00\x00\x00View'
tRp5201
I00
S'/admin/default/edit/WSD/views/default/addword.html'
tp5202
a(g4960
(S't\x06\x00\x00\x00Layout'
tRp5203
I00
S'/admin/default/edit/WSD/views/layout.html'
tp5204
a(g4960
(S't\n\x00\x00\x00Stylesheet'
tRp5205
I00
S'/admin/default/edit/WSD/static/css/web2py.css'
tp5206
a(g4960
(S's\x08\x00\x00\x00DB Model'
tRp5207
I00
S'/admin/default/edit/WSD/models/db.py'
tp5208
a(g4960
(S's\n\x00\x00\x00Menu Model'
tRp5209
I00
S'/admin/default/edit/WSD/models/menu.py'
tp5210
a(g4960
(S't\x08\x00\x00\x00Database'
tRp5211
I00
S'/WSD/appadmin/index'
tp5212
a(g4960
(S't\x06\x00\x00\x00Errors'
tRp5213
I00
S'/admin/default/errors/WSD'
tp5214
a(g4960
(S't\x05\x00\x00\x00About'
tRp5215
I00
S'/admin/default/about/WSD'
tp5216
aasbasbasbasbasbasbasbag62
(g78
g64
NtRp5217
(dp5218
g67
(dp5219
sg76
g5074
sg69
(lp5220
g62
(g83
g64
NtRp5221
(dp5222
g67
(dp5223
sg76
g5217
sg69
(lp5224
g62
(g63
g64
NtRp5225
(dp5226
g67
(dp5227
g75
I2
ssg76
g5221
sg69
(lp5228
g62
(g71
g64
NtRp5229
(dp5230
g67
(dp5231
g75
I1
ssg76
Nsg69
(lp5232
g62
(g78
g64
NtRp5233
(dp5234
g67
(dp5235
sg76
g5229
sg69
(lp5236
g62
(g83
g64
NtRp5237
(dp5238
g67
(dp5239
sg76
g5233
sg69
(lp5240
g62
(g63
g64
NtRp5241
(dp5242
g67
(dp5243
g75
I1
ssg76
g5237
sg69
(lp5244
S'web2py.com'
p5245
asbasbasbag62
(g78
g64
NtRp5246
(dp5247
g67
(dp5248
sg76
g5229
sg69
(lp5249
g62
(g83
g64
NtRp5250
(dp5251
g67
(dp5252
sg76
g5246
sg69
(lp5253
g62
(g63
g64
NtRp5254
(dp5255
g67
(dp5256
g75
I1
ssg76
g5250
sg69
(lp5257
I00
asbasbasbag62
(g78
g64
NtRp5258
(dp5259
g67
(dp5260
sg76
g5229
sg69
(lp5261
g62
(g83
g64
NtRp5262
(dp5263
g67
(dp5264
sg76
g5258
sg69
(lp5265
g62
(g63
g64
NtRp5266
(dp5267
g67
(dp5268
g75
I1
ssg76
g5262
sg69
(lp5269
S'http://www.web2py.com'
p5270
asbasbasbag62
(g78
g64
NtRp5271
(dp5272
g67
(dp5273
sg76
g5229
sg69
(lp5274
g62
(g83
g64
NtRp5275
(dp5276
g67
(dp5277
sg76
g5271
sg69
(lp5278
g62
(g63
g64
NtRp5279
(dp5280
g67
(dp5281
g75
I1
ssg76
g5275
sg69
(lp5282
(lp5283
(g4960
(S't\x08\x00\x00\x00Download'
tRp5284
I00
S'http://www.web2py.com/examples/default/download'
p5285
tp5286
a(g4960
(S't\x07\x00\x00\x00Support'
tRp5287
I00
S'http://www.web2py.com/examples/default/support'
p5288
tp5289
a(g4960
(S't\x04\x00\x00\x00Demo'
tRp5290
I00
S'http://web2py.com/demo_admin'
p5291
tp5292
a(g4960
(S's\x0e\x00\x00\x00Quick Examples'
tRp5293
I00
S'http://web2py.com/examples/default/examples'
p5294
tp5295
a(g4960
(S't\x03\x00\x00\x00FAQ'
tRp5296
I00
S'http://web2py.com/AlterEgo'
p5297
tp5298
a(g4960
(S't\x06\x00\x00\x00Videos'
tRp5299
I00
S'http://www.web2py.com/examples/default/videos/'
p5300
tp5301
a(g4960
(S's\x11\x00\x00\x00Free Applications'
tRp5302
I00
S'http://web2py.com/appliances'
p5303
tp5304
a(g4960
(S't\x07\x00\x00\x00Plugins'
tRp5305
I00
S'http://web2py.com/plugins'
p5306
tp5307
a(g4960
(S't\x07\x00\x00\x00Layouts'
tRp5308
I00
S'http://web2py.com/layouts'
p5309
tp5310
a(g4960
(S't\x07\x00\x00\x00Recipes'
tRp5311
I00
S'http://web2pyslices.com/'
p5312
tp5313
a(g4960
(S't\x08\x00\x00\x00Semantic'
tRp5314
I00
S'http://web2py.com/semantic'
p5315
tp5316
aasbasbasbasbasbasbasbag62
(g78
g64
NtRp5317
(dp5318
g67
(dp5319
sg76
g5074
sg69
(lp5320
g62
(g83
g64
NtRp5321
(dp5322
g67
(dp5323
sg76
g5317
sg69
(lp5324
g62
(g63
g64
NtRp5325
(dp5326
g67
(dp5327
g75
I2
ssg76
g5321
sg69
(lp5328
g62
(g71
g64
NtRp5329
(dp5330
g67
(dp5331
g75
I1
ssg76
Nsg69
(lp5332
g62
(g78
g64
NtRp5333
(dp5334
g67
(dp5335
sg76
g5329
sg69
(lp5336
g62
(g83
g64
NtRp5337
(dp5338
g67
(dp5339
sg76
g5333
sg69
(lp5340
g62
(g63
g64
NtRp5341
(dp5342
g67
(dp5343
g75
I1
ssg76
g5337
sg69
(lp5344
g4960
(S't\r\x00\x00\x00Documentation'
tRp5345
asbasbasbag62
(g78
g64
NtRp5346
(dp5347
g67
(dp5348
sg76
g5329
sg69
(lp5349
g62
(g83
g64
NtRp5350
(dp5351
g67
(dp5352
sg76
g5346
sg69
(lp5353
g62
(g63
g64
NtRp5354
(dp5355
g67
(dp5356
g75
I1
ssg76
g5350
sg69
(lp5357
I00
asbasbasbag62
(g78
g64
NtRp5358
(dp5359
g67
(dp5360
sg76
g5329
sg69
(lp5361
g62
(g83
g64
NtRp5362
(dp5363
g67
(dp5364
sg76
g5358
sg69
(lp5365
g62
(g63
g64
NtRp5366
(dp5367
g67
(dp5368
g75
I1
ssg76
g5362
sg69
(lp5369
S'http://www.web2py.com/book'
p5370
asbasbasbag62
(g78
g64
NtRp5371
(dp5372
g67
(dp5373
sg76
g5329
sg69
(lp5374
g62
(g83
g64
NtRp5375
(dp5376
g67
(dp5377
sg76
g5371
sg69
(lp5378
g62
(g63
g64
NtRp5379
(dp5380
g67
(dp5381
g75
I1
ssg76
g5375
sg69
(lp5382
(lp5383
(g4960
(S't\x07\x00\x00\x00Preface'
tRp5384
I00
S'http://www.web2py.com/book/default/chapter/00'
p5385
tp5386
a(g4960
(S't\x0c\x00\x00\x00Introduction'
tRp5387
I00
S'http://www.web2py.com/book/default/chapter/01'
p5388
tp5389
a(g4960
(S't\x06\x00\x00\x00Python'
tRp5390
I00
S'http://www.web2py.com/book/default/chapter/02'
p5391
tp5392
a(g4960
(S't\x08\x00\x00\x00Overview'
tRp5393
I00
S'http://www.web2py.com/book/default/chapter/03'
p5394
tp5395
a(g4960
(S's\x08\x00\x00\x00The Core'
tRp5396
I00
S'http://www.web2py.com/book/default/chapter/04'
p5397
tp5398
a(g4960
(S's\t\x00\x00\x00The Views'
tRp5399
I00
S'http://www.web2py.com/book/default/chapter/05'
p5400
tp5401
a(g4960
(S't\x08\x00\x00\x00Database'
tRp5402
I00
S'http://www.web2py.com/book/default/chapter/06'
p5403
tp5404
a(g4960
(S's\x14\x00\x00\x00Forms and Validators'
tRp5405
I00
S'http://www.web2py.com/book/default/chapter/07'
p5406
tp5407
a(g4960
(S's\r\x00\x00\x00Email and SMS'
tRp5408
I00
S'http://www.web2py.com/book/default/chapter/08'
p5409
tp5410
a(g4960
(S's\x0e\x00\x00\x00Access Control'
tRp5411
I00
S'http://www.web2py.com/book/default/chapter/09'
p5412
tp5413
a(g4960
(S't\x08\x00\x00\x00Services'
tRp5414
I00
S'http://www.web2py.com/book/default/chapter/10'
p5415
tp5416
a(g4960
(S's\x0c\x00\x00\x00Ajax Recipes'
tRp5417
I00
S'http://www.web2py.com/book/default/chapter/11'
p5418
tp5419
a(g4960
(S's\x16\x00\x00\x00Components and Plugins'
tRp5420
I00
S'http://www.web2py.com/book/default/chapter/12'
p5421
tp5422
a(g4960
(S's\x12\x00\x00\x00Deployment Recipes'
tRp5423
I00
S'http://www.web2py.com/book/default/chapter/13'
p5424
tp5425
a(g4960
(S's\r\x00\x00\x00Other Recipes'
tRp5426
I00
S'http://www.web2py.com/book/default/chapter/14'
p5427
tp5428
a(g4960
(S's\r\x00\x00\x00Buy this book'
tRp5429
I00
S'http://stores.lulu.com/web2py'
p5430
tp5431
aasbasbasbasbasbasbasbag62
(g78
g64
NtRp5432
(dp5433
g67
(dp5434
sg76
g5074
sg69
(lp5435
g62
(g83
g64
NtRp5436
(dp5437
g67
(dp5438
sg76
g5432
sg69
(lp5439
g62
(g63
g64
NtRp5440
(dp5441
g67
(dp5442
g75
I2
ssg76
g5436
sg69
(lp5443
g62
(g71
g64
NtRp5444
(dp5445
g67
(dp5446
g75
I1
ssg76
Nsg69
(lp5447
g62
(g78
g64
NtRp5448
(dp5449
g67
(dp5450
sg76
g5444
sg69
(lp5451
g62
(g83
g64
NtRp5452
(dp5453
g67
(dp5454
sg76
g5448
sg69
(lp5455
g62
(g63
g64
NtRp5456
(dp5457
g67
(dp5458
g75
I1
ssg76
g5452
sg69
(lp5459
g4960
(S't\t\x00\x00\x00Community'
tRp5460
asbasbasbag62
(g78
g64
NtRp5461
(dp5462
g67
(dp5463
sg76
g5444
sg69
(lp5464
g62
(g83
g64
NtRp5465
(dp5466
g67
(dp5467
sg76
g5461
sg69
(lp5468
g62
(g63
g64
NtRp5469
(dp5470
g67
(dp5471
g75
I1
ssg76
g5465
sg69
(lp5472
I00
asbasbasbag62
(g78
g64
NtRp5473
(dp5474
g67
(dp5475
sg76
g5444
sg69
(lp5476
g62
(g83
g64
NtRp5477
(dp5478
g67
(dp5479
sg76
g5473
sg69
(lp5480
g62
(g63
g64
NtRp5481
(dp5482
g67
(dp5483
g75
I1
ssg76
g5477
sg69
(lp5484
Nasbasbasbag62
(g78
g64
NtRp5485
(dp5486
g67
(dp5487
sg76
g5444
sg69
(lp5488
g62
(g83
g64
NtRp5489
(dp5490
g67
(dp5491
sg76
g5485
sg69
(lp5492
g62
(g63
g64
NtRp5493
(dp5494
g67
(dp5495
g75
I1
ssg76
g5489
sg69
(lp5496
(lp5497
(g4960
(S't\x06\x00\x00\x00Groups'
tRp5498
I00
S'http://www.web2py.com/examples/default/usergroups'
p5499
tp5500
a(g4960
(S't\x07\x00\x00\x00Twitter'
tRp5501
I00
S'http://twitter.com/web2py'
p5502
tp5503
a(g4960
(S's\t\x00\x00\x00Live Chat'
tRp5504
I00
S'http://webchat.freenode.net/?channels=web2py'
p5505
tp5506
aasbasbasbasbasbasbasbag62
(g78
g64
NtRp5507
(dp5508
g67
(dp5509
sg76
g5074
sg69
(lp5510
g62
(g83
g64
NtRp5511
(dp5512
g67
(dp5513
sg76
g5507
sg69
(lp5514
g62
(g63
g64
NtRp5515
(dp5516
g67
(dp5517
g75
I2
ssg76
g5511
sg69
(lp5518
g62
(g71
g64
NtRp5519
(dp5520
g67
(dp5521
g75
I1
ssg76
Nsg69
(lp5522
g62
(g78
g64
NtRp5523
(dp5524
g67
(dp5525
sg76
g5519
sg69
(lp5526
g62
(g83
g64
NtRp5527
(dp5528
g67
(dp5529
sg76
g5523
sg69
(lp5530
g62
(g63
g64
NtRp5531
(dp5532
g67
(dp5533
g75
I1
ssg76
g5527
sg69
(lp5534
g4960
(S't\x07\x00\x00\x00Plugins'
tRp5535
asbasbasbag62
(g78
g64
NtRp5536
(dp5537
g67
(dp5538
sg76
g5519
sg69
(lp5539
g62
(g83
g64
NtRp5540
(dp5541
g67
(dp5542
sg76
g5536
sg69
(lp5543
g62
(g63
g64
NtRp5544
(dp5545
g67
(dp5546
g75
I1
ssg76
g5540
sg69
(lp5547
I00
asbasbasbag62
(g78
g64
NtRp5548
(dp5549
g67
(dp5550
sg76
g5519
sg69
(lp5551
g62
(g83
g64
NtRp5552
(dp5553
g67
(dp5554
sg76
g5548
sg69
(lp5555
g62
(g63
g64
NtRp5556
(dp5557
g67
(dp5558
g75
I1
ssg76
g5552
sg69
(lp5559
Nasbasbasbag62
(g78
g64
NtRp5560
(dp5561
g67
(dp5562
sg76
g5519
sg69
(lp5563
g62
(g83
g64
NtRp5564
(dp5565
g67
(dp5566
sg76
g5560
sg69
(lp5567
g62
(g63
g64
NtRp5568
(dp5569
g67
(dp5570
g75
I1
ssg76
g5564
sg69
(lp5571
(lp5572
(S'plugin_wiki'
p5573
I00
S'http://web2py.com/examples/default/download'
p5574
tp5575
a(g4960
(S's\r\x00\x00\x00Other Plugins'
tRp5576
I00
g5306
tp5577
a(g4960
(S's\x0e\x00\x00\x00Layout Plugins'
tRp5578
I00
g5309
tp5579
aasbasbasbasbasbasbasbasbasbasbasbasbasbasbasbasbasbasbasbag62
(g78
g64
NtRp5580
(dp5581
g67
(dp5582
sg76
g4470
sg69
(lp5583
g62
(g83
g64
NtRp5584
(dp5585
g67
(dp5586
g87
g88
ssg76
g5580
sg69
(lp5587
S'meta'
p5588
asbag62
(g83
g64
NtRp5589
(dp5590
g67
(dp5591
g94
g95
ssg76
g5580
sg69
(lp5592
S':'
asbag62
(g83
g64
NtRp5593
(dp5594
g67
(dp5595
sg76
g5580
sg69
(lp5596
g62
(g63
g64
NtRp5597
(dp5598
g67
(dp5599
g75
I5
ssg76
g5593
sg69
(lp5600
g62
(g71
g64
NtRp5601
(dp5602
g67
(dp5603
g75
I4
ssg76
Nsg69
(lp5604
g62
(g78
g64
NtRp5605
(dp5606
g67
(dp5607
sg76
g5601
sg69
(lp5608
g62
(g83
g64
NtRp5609
(dp5610
g67
(dp5611
g87
g88
ssg76
g5605
sg69
(lp5612
S'author'
p5613
asbag62
(g83
g64
NtRp5614
(dp5615
g67
(dp5616
g94
g95
ssg76
g5605
sg69
(lp5617
S':'
asbag62
(g83
g64
NtRp5618
(dp5619
g67
(dp5620
sg76
g5605
sg69
(lp5621
g62
(g63
g64
NtRp5622
(dp5623
g67
(dp5624
g75
I4
ssg76
g5618
sg69
(lp5625
S'Your Name <you@example.com>'
p5626
asbasbasbag62
(g78
g64
NtRp5627
(dp5628
g67
(dp5629
sg76
g5601
sg69
(lp5630
g62
(g83
g64
NtRp5631
(dp5632
g67
(dp5633
g87
g88
ssg76
g5627
sg69
(lp5634
S'copyright'
p5635
asbag62
(g83
g64
NtRp5636
(dp5637
g67
(dp5638
g94
g95
ssg76
g5627
sg69
(lp5639
S':'
asbag62
(g83
g64
NtRp5640
(dp5641
g67
(dp5642
sg76
g5627
sg69
(lp5643
g62
(g63
g64
NtRp5644
(dp5645
g67
(dp5646
g75
I4
ssg76
g5640
sg69
(lp5647
S'Copyright 2011'
p5648
asbasbasbag62
(g78
g64
NtRp5649
(dp5650
g67
(dp5651
sg76
g5601
sg69
(lp5652
g62
(g83
g64
NtRp5653
(dp5654
g67
(dp5655
g87
g88
ssg76
g5649
sg69
(lp5656
S'description'
p5657
asbag62
(g83
g64
NtRp5658
(dp5659
g67
(dp5660
g94
g95
ssg76
g5649
sg69
(lp5661
S':'
asbag62
(g83
g64
NtRp5662
(dp5663
g67
(dp5664
sg76
g5649
sg69
(lp5665
g62
(g63
g64
NtRp5666
(dp5667
g67
(dp5668
g75
I4
ssg76
g5662
sg69
(lp5669
S'a cool new app'
p5670
asbasbasbag62
(g78
g64
NtRp5671
(dp5672
g67
(dp5673
sg76
g5601
sg69
(lp5674
g62
(g83
g64
NtRp5675
(dp5676
g67
(dp5677
g87
g88
ssg76
g5671
sg69
(lp5678
S'generator'
p5679
asbag62
(g83
g64
NtRp5680
(dp5681
g67
(dp5682
g94
g95
ssg76
g5671
sg69
(lp5683
S':'
asbag62
(g83
g64
NtRp5684
(dp5685
g67
(dp5686
sg76
g5671
sg69
(lp5687
g62
(g63
g64
NtRp5688
(dp5689
g67
(dp5690
g75
I4
ssg76
g5684
sg69
(lp5691
S'Web2py Web Framework'
p5692
asbasbasbag62
(g78
g64
NtRp5693
(dp5694
g67
(dp5695
sg76
g5601
sg69
(lp5696
g62
(g83
g64
NtRp5697
(dp5698
g67
(dp5699
g87
g88
ssg76
g5693
sg69
(lp5700
S'keywords'
p5701
asbag62
(g83
g64
NtRp5702
(dp5703
g67
(dp5704
g94
g95
ssg76
g5693
sg69
(lp5705
S':'
asbag62
(g83
g64
NtRp5706
(dp5707
g67
(dp5708
sg76
g5693
sg69
(lp5709
g62
(g63
g64
NtRp5710
(dp5711
g67
(dp5712
g75
I4
ssg76
g5706
sg69
(lp5713
S'web2py, python, framework'
p5714
asbasbasbasbasbasbasbag62
(g78
g64
NtRp5715
(dp5716
g67
(dp5717
sg76
g4470
sg69
(lp5718
g62
(g83
g64
NtRp5719
(dp5720
g67
(dp5721
g87
g88
ssg76
g5715
sg69
(lp5722
S'models_to_run'
p5723
asbag62
(g83
g64
NtRp5724
(dp5725
g67
(dp5726
g94
g95
ssg76
g5715
sg69
(lp5727
S':'
asbag62
(g83
g64
NtRp5728
(dp5729
g67
(dp5730
sg76
g5715
sg69
(lp5731
g62
(g63
g64
NtRp5732
(dp5733
g67
(dp5734
g75
I5
ssg76
g5728
sg69
(lp5735
g62
(g71
g64
NtRp5736
(dp5737
g67
(dp5738
g75
I4
ssg76
Nsg69
(lp5739
g62
(g78
g64
NtRp5740
(dp5741
g67
(dp5742
sg76
g5736
sg69
(lp5743
g62
(g83
g64
NtRp5744
(dp5745
g67
(dp5746
sg76
g5740
sg69
(lp5747
g62
(g63
g64
NtRp5748
(dp5749
g67
(dp5750
g75
I4
ssg76
g5744
sg69
(lp5751
S'^\\w+\\.py$'
p5752
asbasbasbag62
(g78
g64
NtRp5753
(dp5754
g67
(dp5755
sg76
g5736
sg69
(lp5756
g62
(g83
g64
NtRp5757
(dp5758
g67
(dp5759
sg76
g5753
sg69
(lp5760
g62
(g63
g64
NtRp5761
(dp5762
g67
(dp5763
g75
I4
ssg76
g5757
sg69
(lp5764
S'^default/\\w+\\.py$'
p5765
asbasbasbag62
(g78
g64
NtRp5766
(dp5767
g67
(dp5768
sg76
g5736
sg69
(lp5769
g62
(g83
g64
NtRp5770
(dp5771
g67
(dp5772
sg76
g5766
sg69
(lp5773
g62
(g63
g64
NtRp5774
(dp5775
g67
(dp5776
g75
I4
ssg76
g5770
sg69
(lp5777
S'^default/addword/\\w+\\.py$'
p5778
asbasbasbasbasbasbasbag62
(g78
g64
NtRp5779
(dp5780
g67
(dp5781
sg76
g4470
sg69
(lp5782
g62
(g83
g64
NtRp5783
(dp5784
g67
(dp5785
g87
g88
ssg76
g5779
sg69
(lp5786
S'postprocessing'
p5787
asbag62
(g83
g64
NtRp5788
(dp5789
g67
(dp5790
g94
g95
ssg76
g5779
sg69
(lp5791
S':'
asbag62
(g83
g64
NtRp5792
(dp5793
g67
(dp5794
sg76
g5779
sg69
(lp5795
g62
(g63
g64
NtRp5796
(dp5797
g67
(dp5798
g75
I5
ssg76
g5792
sg69
(lp5799
g62
(g71
g64
NtRp5800
(dp5801
g67
(dp5802
g75
I4
ssg76
Nsg69
(lp5803
sbasbasbasbag62
(g78
g64
NtRp5804
(dp5805
g67
(dp5806
sg76
g4470
sg69
(lp5807
g62
(g83
g64
NtRp5808
(dp5809
g67
(dp5810
g87
g88
ssg76
g5804
sg69
(lp5811
S'session_cookie_expires'
p5812
asbag62
(g83
g64
NtRp5813
(dp5814
g67
(dp5815
g94
g95
ssg76
g5804
sg69
(lp5816
S':'
asbag62
(g83
g64
NtRp5817
(dp5818
g67
(dp5819
sg76
g5804
sg69
(lp5820
g62
(g63
g64
NtRp5821
(dp5822
g67
(dp5823
g75
I5
ssg76
g5817
sg69
(lp5824
S'None'
p5825
asbasbasbag62
(g78
g64
NtRp5826
(dp5827
g67
(dp5828
sg76
g4470
sg69
(lp5829
g62
(g83
g64
NtRp5830
(dp5831
g67
(dp5832
g87
g88
ssg76
g5826
sg69
(lp5833
S'session_data_name'
p5834
asbag62
(g83
g64
NtRp5835
(dp5836
g67
(dp5837
g94
g95
ssg76
g5826
sg69
(lp5838
S':'
asbag62
(g83
g64
NtRp5839
(dp5840
g67
(dp5841
sg76
g5826
sg69
(lp5842
g62
(g63
g64
NtRp5843
(dp5844
g67
(dp5845
g75
I5
ssg76
g5839
sg69
(lp5846
S'session_data_wsd'
p5847
asbasbasbag62
(g78
g64
NtRp5848
(dp5849
g67
(dp5850
sg76
g4470
sg69
(lp5851
g62
(g83
g64
NtRp5852
(dp5853
g67
(dp5854
g87
g88
ssg76
g5848
sg69
(lp5855
S'session_file'
p5856
asbag62
(g83
g64
NtRp5857
(dp5858
g67
(dp5859
g94
g95
ssg76
g5848
sg69
(lp5860
S':'
asbag62
(g83
g64
NtRp5861
(dp5862
g67
(dp5863
sg76
g5848
sg69
(lp5864
g62
(g63
g64
NtRp5865
(dp5866
g67
(dp5867
g75
I5
ssg76
g5861
sg69
(lp5868
S"<open file '/home/nazrul/web2py/applications/WSD/sessions/127.0.0.1-03e21421-54ec-40b0-8e35-83cdb5ef6b10', mode 'rb+' at 0xad92c9c0>"
p5869
asbasbasbag62
(g78
g64
NtRp5870
(dp5871
g67
(dp5872
sg76
g4470
sg69
(lp5873
g62
(g83
g64
NtRp5874
(dp5875
g67
(dp5876
g87
g88
ssg76
g5870
sg69
(lp5877
S'session_filename'
p5878
asbag62
(g83
g64
NtRp5879
(dp5880
g67
(dp5881
g94
g95
ssg76
g5870
sg69
(lp5882
S':'
asbag62
(g83
g64
NtRp5883
(dp5884
g67
(dp5885
sg76
g5870
sg69
(lp5886
g62
(g63
g64
NtRp5887
(dp5888
g67
(dp5889
g75
I5
ssg76
g5883
sg69
(lp5890
S'/home/nazrul/web2py/applications/WSD/sessions/127.0.0.1-03e21421-54ec-40b0-8e35-83cdb5ef6b10'
p5891
asbasbasbag62
(g78
g64
NtRp5892
(dp5893
g67
(dp5894
sg76
g4470
sg69
(lp5895
g62
(g83
g64
NtRp5896
(dp5897
g67
(dp5898
g87
g88
ssg76
g5892
sg69
(lp5899
S'session_id'
p5900
asbag62
(g83
g64
NtRp5901
(dp5902
g67
(dp5903
g94
g95
ssg76
g5892
sg69
(lp5904
S':'
asbag62
(g83
g64
NtRp5905
(dp5906
g67
(dp5907
sg76
g5892
sg69
(lp5908
g62
(g63
g64
NtRp5909
(dp5910
g67
(dp5911
g75
I5
ssg76
g5905
sg69
(lp5912
g852
asbasbasbag62
(g78
g64
NtRp5913
(dp5914
g67
(dp5915
sg76
g4470
sg69
(lp5916
g62
(g83
g64
NtRp5917
(dp5918
g67
(dp5919
g87
g88
ssg76
g5913
sg69
(lp5920
S'session_id_name'
p5921
asbag62
(g83
g64
NtRp5922
(dp5923
g67
(dp5924
g94
g95
ssg76
g5913
sg69
(lp5925
S':'
asbag62
(g83
g64
NtRp5926
(dp5927
g67
(dp5928
sg76
g5913
sg69
(lp5929
g62
(g63
g64
NtRp5930
(dp5931
g67
(dp5932
g75
I5
ssg76
g5926
sg69
(lp5933
g4527
asbasbasbag62
(g78
g64
NtRp5934
(dp5935
g67
(dp5936
sg76
g4470
sg69
(lp5937
g62
(g83
g64
NtRp5938
(dp5939
g67
(dp5940
g87
g88
ssg76
g5934
sg69
(lp5941
S'session_locked'
p5942
asbag62
(g83
g64
NtRp5943
(dp5944
g67
(dp5945
g94
g95
ssg76
g5934
sg69
(lp5946
S':'
asbag62
(g83
g64
NtRp5947
(dp5948
g67
(dp5949
sg76
g5934
sg69
(lp5950
g62
(g63
g64
NtRp5951
(dp5952
g67
(dp5953
g75
I5
ssg76
g5947
sg69
(lp5954
g2232
asbasbasbag62
(g78
g64
NtRp5955
(dp5956
g67
(dp5957
sg76
g4470
sg69
(lp5958
g62
(g83
g64
NtRp5959
(dp5960
g67
(dp5961
g87
g88
ssg76
g5955
sg69
(lp5962
S'session_new'
p5963
asbag62
(g83
g64
NtRp5964
(dp5965
g67
(dp5966
g94
g95
ssg76
g5955
sg69
(lp5967
S':'
asbag62
(g83
g64
NtRp5968
(dp5969
g67
(dp5970
sg76
g5955
sg69
(lp5971
g62
(g63
g64
NtRp5972
(dp5973
g67
(dp5974
g75
I5
ssg76
g5968
sg69
(lp5975
g105
asbasbasbag62
(g78
g64
NtRp5976
(dp5977
g67
(dp5978
sg76
g4470
sg69
(lp5979
g62
(g83
g64
NtRp5980
(dp5981
g67
(dp5982
g87
g88
ssg76
g5976
sg69
(lp5983
S'session_storage_type'
p5984
asbag62
(g83
g64
NtRp5985
(dp5986
g67
(dp5987
g94
g95
ssg76
g5976
sg69
(lp5988
S':'
asbag62
(g83
g64
NtRp5989
(dp5990
g67
(dp5991
sg76
g5976
sg69
(lp5992
g62
(g63
g64
NtRp5993
(dp5994
g67
(dp5995
g75
I5
ssg76
g5989
sg69
(lp5996
g3954
asbasbasbag62
(g78
g64
NtRp5997
(dp5998
g67
(dp5999
sg76
g4470
sg69
(lp6000
g62
(g83
g64
NtRp6001
(dp6002
g67
(dp6003
g87
g88
ssg76
g5997
sg69
(lp6004
S'status'
p6005
asbag62
(g83
g64
NtRp6006
(dp6007
g67
(dp6008
g94
g95
ssg76
g5997
sg69
(lp6009
S':'
asbag62
(g83
g64
NtRp6010
(dp6011
g67
(dp6012
sg76
g5997
sg69
(lp6013
g62
(g63
g64
NtRp6014
(dp6015
g67
(dp6016
g75
I5
ssg76
g6010
sg69
(lp6017
S'200'
p6018
asbasbasbag62
(g78
g64
NtRp6019
(dp6020
g67
(dp6021
sg76
g4470
sg69
(lp6022
g62
(g83
g64
NtRp6023
(dp6024
g67
(dp6025
g87
g88
ssg76
g6019
sg69
(lp6026
S'subtitle'
p6027
asbag62
(g83
g64
NtRp6028
(dp6029
g67
(dp6030
g94
g95
ssg76
g6019
sg69
(lp6031
S':'
asbag62
(g83
g64
NtRp6032
(dp6033
g67
(dp6034
sg76
g6019
sg69
(lp6035
g62
(g63
g64
NtRp6036
(dp6037
g67
(dp6038
g75
I5
ssg76
g6032
sg69
(lp6039
g4960
(S's\r\x00\x00\x00customize me!'
tRp6040
asbasbasbag62
(g78
g64
NtRp6041
(dp6042
g67
(dp6043
sg76
g4470
sg69
(lp6044
g62
(g83
g64
NtRp6045
(dp6046
g67
(dp6047
g87
g88
ssg76
g6041
sg69
(lp6048
S'title'
p6049
asbag62
(g83
g64
NtRp6050
(dp6051
g67
(dp6052
g94
g95
ssg76
g6041
sg69
(lp6053
S':'
asbag62
(g83
g64
NtRp6054
(dp6055
g67
(dp6056
sg76
g6041
sg69
(lp6057
g62
(g63
g64
NtRp6058
(dp6059
g67
(dp6060
g75
I5
ssg76
g6054
sg69
(lp6061
S'Wsd'
p6062
asbasbasbag62
(g78
g64
NtRp6063
(dp6064
g67
(dp6065
sg76
g4470
sg69
(lp6066
g62
(g83
g64
NtRp6067
(dp6068
g67
(dp6069
g87
g88
ssg76
g6063
sg69
(lp6070
S'view'
p6071
asbag62
(g83
g64
NtRp6072
(dp6073
g67
(dp6074
g94
g95
ssg76
g6063
sg69
(lp6075
S':'
asbag62
(g83
g64
NtRp6076
(dp6077
g67
(dp6078
sg76
g6063
sg69
(lp6079
g62
(g63
g64
NtRp6080
(dp6081
g67
(dp6082
g75
I5
ssg76
g6076
sg69
(lp6083
S'default/addword.html'
p6084
asbasbasbasbasbsS'locals'
p6085
(dp6086
S'word'
p6087
S"''"
p6088
sS'f'
S"<closed file 'sample', mode 'w'>"
p6089
sS'st'
p6090
S"'\\n<TITLE> test. </TITLE>\\n<p>\\n\\n</p>\\n'"
p6091
sS's'
S'<Rows (1)>'
p6092
sS'w'
S'<Rows (1)>'
p6093
sS'sen'
p6094
S"''"
p6095
sssS'traceback'
p6096
S'Traceback (most recent call last):\n  File "/home/nazrul/web2py/gluon/restricted.py", line 212, in restricted\n    exec ccode in environment\n  File "/home/nazrul/web2py/applications/WSD/controllers/default.py", line 430, in <module>\n  File "/home/nazrul/web2py/gluon/globals.py", line 193, in <lambda>\n    self._caller = lambda f: f()\n  File "/home/nazrul/web2py/gluon/tools.py", line 2929, in f\n    return action(*a, **b)\n  File "/home/nazrul/web2py/gluon/tools.py", line 2929, in f\n    return action(*a, **b)\n  File "/home/nazrul/web2py/applications/WSD/controllers/default.py", line 269, in addword\n    f=open(os.environ[\'HOME_anu_tmp\']+\'/tmp/sample_tmp/2.1/word.dat\',\'r\')\nIOError: [Errno 2] No such file or directory: \'/home/nazrul/Dropbox/iiit/sem3/ssad/project/tmp_anu_dir/tmp/sample_tmp/2.1/word.dat\'\n'
p6097
s.