(dp1
S'output'
p2
S"<type 'exceptions.SyntaxError'> invalid syntax (word_select.html, line 111)"
p3
sS'layer'
p4
S'/home/jayanthkaturi/web2py/applications/WSD/views/default/word_select.html'
p5
sS'code'
p6
S'response.write("<style>\\n\\n   \\n    .myButton {\\n        \\n        -moz-box-shadow:inset 0px 1px 3px 0px #91b8b3;\\n        -webkit-box-shadow:inset 0px 1px 3px 0px #91b8b3;\\n        box-shadow:inset 0px 1px 3px 0px #91b8b3;\\n        \\n        background:-webkit-gradient(linear, left top, left bottom, color-stop(0.05, #768d87), color-stop(1, #6c7c7c));\\n        background:-moz-linear-gradient(top, #768d87 5%, #6c7c7c 100%);\\n        background:-webkit-linear-gradient(top, #768d87 5%, #6c7c7c 100%);\\n        background:-o-linear-gradient(top, #768d87 5%, #6c7c7c 100%);\\n        background:-ms-linear-gradient(top, #768d87 5%, #6c7c7c 100%);\\n        background:linear-gradient(to bottom, #768d87 5%, #6c7c7c 100%);\\n        filter:progid:DXImageTransform.Microsoft.gradient(startColorstr=\'#768d87\', endColorstr=\'#6c7c7c\',GradientType=0);\\n        \\n        background-color:#768d87;\\n        \\n        -moz-border-radius:5px;\\n        -webkit-border-radius:5px;\\n        border-radius:5px;\\n        \\n        border:1px solid #566963;\\n        \\n        display:inline-block;\\n        color:#ffffff;\\n        font-family:arial;\\n        font-size:15px;\\n        font-weight:bold;\\n        padding:6px 18px;\\n        text-decoration:none;\\n        \\n        text-shadow:0px -1px 0px #2b665e;\\n        \\n    }\\n    .myButton:hover {\\n        \\n        background:-webkit-gradient(linear, left top, left bottom, color-stop(0.05, #6c7c7c), color-stop(1, #768d87));\\n        background:-moz-linear-gradient(top, #6c7c7c 5%, #768d87 100%);\\n        background:-webkit-linear-gradient(top, #6c7c7c 5%, #768d87 100%);\\n        background:-o-linear-gradient(top, #6c7c7c 5%, #768d87 100%);\\n        background:-ms-linear-gradient(top, #6c7c7c 5%, #768d87 100%);\\n        background:linear-gradient(to bottom, #6c7c7c 5%, #768d87 100%);\\n        filter:progid:DXImageTransform.Microsoft.gradient(startColorstr=\'#6c7c7c\', endColorstr=\'#768d87\',GradientType=0);\\n        \\n        background-color:#6c7c7c;\\n    }\\n    .myButton:active {\\n        position:relative;\\n        top:1px;\\n    }\\n  \\n</style>\\n", escape=False)\nresponse.write(\'<!DOCTYPE html PUBLIC "-//W3C//DTD XHTML 1.0 Strict//EN" "http://www.w3.org/TR/xhtml1/DTD/xhtml1-strict.dtd">\\n<!--\\n\\nDesign by Free CSS Templates\\nhttp://www.freecsstemplates.org\\nReleased for free under a Creative Commons Attribution 2.5 License\\n\\nTitle      : Interlude\\nVersion    : 1.0\\nReleased   : 20080903\\nDescription: A multi-column, fixed-width design for 800x600 resolutions.\\n\\n-->\\n<html xmlns="http://www.w3.org/1999/xhtml">\\n <head>\\n  <title>\\n   \', escape=False)\nresponse.write(response.title or request.application)\nresponse.write(\'\\n  </title>\\n  \', escape=False)\nresponse.files.append(URL(request.application,\'static\',\'plugin_layouts/layouts/Interlude/default.css\'))\nresponse.write(\'\\n  \', escape=False)\nresponse.files.append(URL(\'static\',\'plugin_layouts/superfish.js\'))\nresponse.write(\'\\n  \', escape=False)\nresponse.write(\'<script type="text/javascript"><!--\\n    // These variables are used by the web2py_ajax_init function in web2py_ajax.js (which is loaded below).\\n    var w2p_ajax_confirm_message = "\', escape=False)\nresponse.write(T(\'Are you sure you want to delete this object?\'))\nresponse.write(\'";\\n    var w2p_ajax_date_format = "\', escape=False)\nresponse.write(T(\'%Y-%m-%d\'))\nresponse.write(\'";\\n    var w2p_ajax_datetime_format = "\', escape=False)\nresponse.write(T(\'%Y-%m-%d %H:%M:%S\'))\nresponse.write(\'";\\n    //--></script>\\n\', escape=False)\nresponse.files.insert(0,URL(\'static\',\'js/jquery.js\'))\nresponse.files.insert(1,URL(\'static\',\'css/calendar.css\'))\nresponse.files.insert(2,URL(\'static\',\'js/calendar.js\'))\nresponse.files.insert(3,URL(\'static\',\'js/web2py.js\'))\nresponse.include_meta()\nresponse.include_files()\nresponse.write(\'\\n\', escape=False)\nresponse.write(\'\\n\\n  <style>\\n<!--ul.web2py-menu-vertical { width: 150px; position: relative; top:1em; left:1em;  z-index:30; border:0; margin:0; padding: 0; list-style: none; text-decoration: none;}\\nul.web2py-menu-vertical li { margin:0; padding:0; border:0; width: 150px; background: black; text-align:left;}\\nul.web2py-menu-vertical li a { margin:0; padding: 1px 3px 1px 3px; border:0; width: 144px; color: white; font-size:12px;}\\n\\ndiv.flash { position: fixed; float: right; padding: 10px; top: 10px; right: 30px; opacity: 0.75; margin: 10px 10px 10px 10px; text-align: center; clear: both; color: #fff; font-size: 11pt; text-align: center; vertical-align: middle; cursor: pointer; background: black; border: 2px solid #fff; -moz-border-radius: 5px; -webkit-border-radius: 5px; z-index: 2; }-->\\n<!--\\ndiv.error { background-color: red; color: white; padding: 3px; }\\n.auth_navbar { text-align:right; z-index:20; position: absolute; top: 2px; right:30px; border:0; padding:0 }-->\\n#basic_login{position:relative;top:230px;right=-2px;}\\n  </style>\\n  \\n </head>\\n <body>\\n  <!-- start header -->\\n  <div id="header">\\n   <div id="logo">\\n    <h1>\\n     \', escape=False)\nresponse.write(response.title or request.application)\nresponse.write(\'\\n    </h1>\\n<!--    <p>\\n     <a href="http://www.freecsstemplates.org/">\\n      Design by Free CSS Templates\\n     </a>\\n    </p>-->\\n   </div>\\n   <!--\\n   <div id="menu">\\n   \\n    \', escape=False)\nresponse.write(MENU(response.menu,_class=\'web2py-menu\'))\nresponse.write(\'\\n   \\n    <script>\\n      jQuery(document).ready(function(){jQuery(\\\'ul.web2py-menu\\\').superfish({delay:400});});\\n    </script>\\n    \\n   </div>\\n   -->\\n   <div id="basic_login">\\n       \', escape=False)\nif auth.user:\n    response.write(\'\\n       <a style="position:relative;left:-370px;text-decoration:none;font-weight:bold"href="\', escape=False)\n    response.write(URL(\'home\'))\n    response.write(\'">HOME</a>\\n       \', escape=False)\n    pass\nresponse.write(\'\\n  <!-- start header -->\\n  \', escape=False)\ntry:\n    response.write(auth.navbar(action=URL(\'default\',\'user\')))\nexcept:pass\nresponse.write(\'\\n</div>\\n\\n\\n\\n\\n  </div>\\n\\n\\n  <hr />\\n\\n  <!-- end header -->\\n  <!-- start page -->\\n  <div id="wrapper">\\n   <div id="page">\\n    <!-- start content -->\\n    <div id="content">\\n<!--     <div class="flash">\', escape=False)\nresponse.write(response.flash or \'\')\nresponse.write(\'</div>-->\\n     \', escape=False)\nresponse.write(\'\\n\\n\', escape=False)\nlevel = db(db.user_level.email==auth.user.email).select(db.user_level.level)\nresponse.write(\'\\n\\n\\n\', escape=False)\nt = []\nresponse.write(\'\\n\', escape=False)\nll = []\nresponse.write(\'\\n\', escape=False)\nh = []\nresponse.write(\'\\n\', escape=False)\ns = db(db.sentences.hsentence!=\'\').select(db.sentences.id)\nresponse.write(\'\\n\', escape=False)\nfor i in s:\n    response.write(\'\\n\', escape=False)\n    h.append(db(db.links.sid==i.id).select(db.links.wid))\n    response.write(\'\\n\', escape=False)\n    pass\nresponse.write(\'\\n\', escape=False)\nfor i in h:\n    response.write(\'\\n\', escape=False)\n    for j in i:\n        response.write(\'\\n\', escape=False)\n        t.append(db(db.words.id==j.wid).select(db.words.word))\n        response.write(\'\\n\', escape=False)\n        pass\n    response.write(\'\\n\', escape=False)\n    pass\nresponse.write(\'\\n\', escape=False)\nfor i in t:\n    response.write(\'\\n\', escape=False)\n    for j in i:\n        response.write(\'\\n\', escape=False)\n        ll.append(j.word)\n        response.write(\'\\n\', escape=False)\n        pass\n    response.write(\'\\n\', escape=False)\n    pass\nresponse.write(\'\\n\\n\', escape=False)\ntt = db(db.words).select()\nresponse.write(\'\\n\', escape=False)\nl = []\nresponse.write(\'\\n\', escape=False)\nfor i in tt:\n    response.write(\'\\n\', escape=False)\n    check=0\n    response.write(\'\\n\\n\', escape=False)\n    for j in ll:\n        response.write(\'\\n\', escape=False)\n        if j!=i.word:\n            response.write(\'\\n\', escape=False)\n            check+=1\n            response.write(\'\\n\', escape=False)\n            pass\n        response.write(\'\\n\', escape=False)\n        pass\n    response.write(\'\\n\\n\', escape=False)\n    if check==len(ll):\n        response.write(\'\\n\', escape=False)\n        l.append(i.word)\n        response.write(\'\\n\', escape=False)\n        pass\n    response.write(\'\\n\', escape=False)\n    pass\nresponse.write(\'\\n\\n\\n<script>\\n    var c=0;\\n    var l=new Array();\\n    var j=0;\\n    \', escape=False)\nfor i in l :\n    response.write("\\n        l[j]=\'", escape=False)\n    response.write(i)\n    response.write("\';\\n        j=j+1;\\n    ", escape=False)\n    pass\nresponse.write(\'\\n    function randomv()\\n    {\\n                     if (c==l.length)\\n        {\\n            c=0;\\n    }\\n                     //var d=Math.floor(Math.random() * (l.length-1)) + 0;\\n        document.forms.form.word.value = l[c];\\n        c+=1;\\n    }\\n</script>\\n<br/><br/><br/>\\n<form method="POST" name="form">\\n<input class="myButton" type="button" name="random" value="random" onClick="randomv();">&nbsp;&nbsp;\\n<input type=\\\'text\\\' name=\\\'word\\\' >\\n<br>\\n<select name=\\\'level\\\'>\\n\', escape=False)\nfor i in level:\n    response.write(\'\\n\', escape=False)\n    for i.level>0:\n        response.write("\\n<option value=\'", escape=False)\n        response.write(i.level)\n        response.write("\'>", escape=False)\n        response.write(i.level)\n        response.write(\'</option>\\n\', escape=False)\n        i.level = i.level-1\n        response.write(\'\\n\', escape=False)\n        pass\n    response.write(\'\\n\', escape=False)\n    break\nresponse.write(\'\\n\', escape=False)\npass\nresponse.write(\'\\n</select><br>\\n    <input type=\\\'submit\\\' name="submit" value="Go">\\n</form>\\n\', escape=False)\nresponse.write(\'\\n     <br />\\n     <br />\\n     <br />\\n     <br />\\n     <br />\\n     <br />\\n     <br />\\n     <br />\\n    </div>\\n    <!-- end content -->\\n    <!-- start sidebar -->\\n<!--    <div id="sidebar">\\n     <ul>\\n      <li id="categories">\\n       <h2>\\n        Categories\\n       </h2>\\n       <ul>\\n        <li>\\n         <a href="#">\\n          Lorem Ipsum\\n         </a>\\n         (1)\\n        </li>\\n        <li>\\n         <a href="#">\\n          Uncategorized\\n         </a>\\n         (4)\\n        </li>\\n        <li>\\n         <a href="#">\\n          Nulla luctus eleifend\\n         </a>\\n         (1)\\n        </li>\\n        <li>\\n         <a href="#">\\n          Pellentesque tempus\\n         </a>\\n         (4)\\n        </li>\\n        <li>\\n         <a href="#">\\n          Donec dictum metus\\n         </a>\\n         (1)\\n        </li>\\n        <li>\\n         <a href="#">\\n          Etiam posuere augue\\n         </a>\\n         (4)\\n        </li>\\n       </ul>\\n      </li>\\n      <li id="calendar">\\n       <h2>\\n        Calendar\\n       </h2>\\n       <div id="calendar_wrap">\\n        <table id="wp-calendar" summary="Calendar">\\n         <caption>\\n          September 2008\\n         </caption>\\n         <thead>\\n          <tr>\\n           <th abbr="Monday" scope="col" title="Monday">\\n            M\\n           </th>\\n           <th abbr="Tuesday" scope="col" title="Tuesday">\\n            T\\n           </th>\\n           <th abbr="Wednesday" scope="col" title="Wednesday">\\n            W\\n           </th>\\n           <th abbr="Thursday" scope="col" title="Thursday">\\n            T\\n           </th>\\n           <th abbr="Friday" scope="col" title="Friday">\\n            F\\n           </th>\\n           <th abbr="Saturday" scope="col" title="Saturday">\\n            S\\n           </th>\\n           <th abbr="Sunday" scope="col" title="Sunday">\\n            S\\n           </th>\\n          </tr>\\n         </thead>\\n         <tfoot>\\n          <tr>\\n           <td abbr="July" colspan="3" id="prev">\\n            <a href="#">\\n             &laquo; Jul\\n            </a>\\n           </td>\\n           <td class="pad">\\n            &nbsp;\\n           </td>\\n           <td abbr="September" colspan="3" id="next" class="pad">\\n            <a href="#">\\n             Sep &raquo;\\n            </a>\\n           </td>\\n          </tr>\\n         </tfoot>\\n         <tbody>\\n          <tr>\\n           <td colspan="2" class="pad">\\n            &nbsp;\\n           </td>\\n           <td>\\n            1\\n           </td>\\n           <td>\\n            2\\n           </td>\\n           <td>\\n            3\\n           </td>\\n           <td>\\n            4\\n           </td>\\n           <td>\\n            5\\n           </td>\\n          </tr>\\n          <tr>\\n           <td>\\n            6\\n           </td>\\n           <td>\\n            7\\n           </td>\\n           <td>\\n            8\\n           </td>\\n           <td>\\n            9\\n           </td>\\n           <td>\\n            10\\n           </td>\\n           <td>\\n            11\\n           </td>\\n           <td>\\n            12\\n           </td>\\n          </tr>\\n          <tr>\\n           <td>\\n            13\\n           </td>\\n           <td>\\n            14\\n           </td>\\n           <td>\\n            15\\n           </td>\\n           <td>\\n            16\\n           </td>\\n           <td>\\n            17\\n           </td>\\n           <td>\\n            18\\n           </td>\\n           <td>\\n            19\\n           </td>\\n          </tr>\\n          <tr>\\n           <td>\\n            20\\n           </td>\\n           <td id="today">\\n            21\\n           </td>\\n           <td>\\n            22\\n           </td>\\n           <td>\\n            23\\n           </td>\\n           <td>\\n            24\\n           </td>\\n           <td>\\n            25\\n           </td>\\n           <td>\\n            26\\n           </td>\\n          </tr>\\n          <tr>\\n           <td>\\n            27\\n           </td>\\n           <td>\\n            28\\n           </td>\\n           <td>\\n            29\\n           </td>\\n           <td>\\n            30\\n           </td>\\n           <td>\\n            31\\n           </td>\\n           <td class="pad" colspan="2">\\n            &nbsp;\\n           </td>\\n          </tr>\\n         </tbody>\\n        </table>\\n       </div>\\n      </li>\\n      <li>\\n       <h2>\\n        Lorem Ipsum Dolor\\n       </h2>\\n       <ul>\\n        <li>\\n         <a href="#">\\n          Nulla luctus eleifend purus\\n         </a>\\n        </li>\\n        <li>\\n         <a href="#">\\n          Praesent scelerisque scelerisque erat\\n         </a>\\n        </li>\\n        <li>\\n         <a href="#">\\n          Ut nonummy rutrum sem\\n         </a>\\n        </li>\\n        <li>\\n         <a href="#">\\n          Pellentesque tempus quam quis nulla\\n         </a>\\n        </li>\\n        <li>\\n         <a href="#">\\n          Fusce ultrices fringilla metus\\n         </a>\\n        </li>\\n        <li>\\n         <a href="#">\\n          Praesent mattis condimentum nisl\\n         </a>\\n        </li>\\n       </ul>\\n      </li>\\n     </ul>\\n    </div>-->\\n    <!-- end sidebar -->\\n    <br style="clear: both;" />\\n   </div>\\n  </div>\\n  <!-- end page -->\\n  <!-- start footer -->\\n  <div id="wrapper2">\\n    \\n\\n   <div id="footer">\\n<!--\\n    <ul>\\n     <li class="first">\\n      <h2>\\n       Mauris vulputate dolor\\n      </h2>\\n      <ul>\\n       <li>\\n        <a href="#">\\n         Nulla luctus eleifend purus\\n        </a>\\n       </li>\\n       <li>\\n        <a href="#">\\n         Praesent scelerisque scelerisque erat\\n        </a>\\n       </li>\\n       <li>\\n        <a href="#">\\n         Ut nonummy rutrum sem\\n        </a>\\n       </li>\\n       <li>\\n        <a href="#">\\n         Pellentesque tempus quam quis nulla\\n        </a>\\n       </li>\\n       <li>\\n        <a href="#">\\n         Fusce ultrices fringilla metus\\n        </a>\\n       </li>\\n       <li>\\n        <a href="#">\\n         Praesent mattis condimentum nisl\\n        </a>\\n       </li>\\n      </ul>\\n     </li>\\n     <li>\\n      <h2>\\n       Praesent scelerisque sceler\\n      </h2>\\n      <ul>\\n       <li>\\n        <a href="#">\\n         Nulla luctus eleifend purus\\n        </a>\\n       </li>\\n       <li>\\n        <a href="#">\\n         Praesent scelerisque scelerisque erat\\n        </a>\\n       </li>\\n       <li>\\n        <a href="#">\\n         Ut nonummy rutrum sem\\n        </a>\\n       </li>\\n       <li>\\n        <a href="#">\\n         Pellentesque tempus quam quis nulla\\n        </a>\\n       </li>\\n       <li>\\n        <a href="#">\\n         Fusce ultrices fringilla metus\\n        </a>\\n       </li>\\n       <li>\\n        <a href="#">\\n         Praesent mattis condimentum nisl\\n        </a>\\n       </li>\\n      </ul>\\n     </li>\\n     <li>\\n      <h2>\\n       Fusce ultrices fringilla\\n      </h2>\\n      <ul>\\n       <li>\\n        <a href="#">\\n         Nulla luctus eleifend purus\\n        </a>\\n       </li>\\n       <li>\\n        <a href="#">\\n         Praesent scelerisque scelerisque erat\\n        </a>\\n       </li>\\n       <li>\\n        <a href="#">\\n         Ut nonummy rutrum sem\\n        </a>\\n       </li>\\n       <li>\\n        <a href="#">\\n         Pellentesque tempus quam quis nulla\\n        </a>\\n       </li>\\n       <li>\\n        <a href="#">\\n         Fusce ultrices fringilla metus\\n        </a>\\n       </li>\\n       <li>\\n        <a href="#">\\n         Praesent mattis condimentum nisl\\n        </a>\\n       </li>\\n      </ul>\\n     </li>\\n    </ul>\\n    -->\\n   </div>\\n   \\n   <p id="legal">\\n     &bull;&nbsp;&nbsp;\\n    &copy;2013 All Rights Reserved\\n\\t\\t&nbsp;&nbsp;&bull;&nbsp;&nbsp;\\n\\t\\tDesign by :\\n    Abhinav Pandey, Ankit Kotak, Nazrul Haque Athar, Anubhav Srivastava, Jayanth Katuri\\n    &nbsp;&nbsp;&bull;&nbsp;&nbsp;\\n    <!--\\n\\t\\tIcons by\\n    <a href="http://famfamfam.com/">\\n     FAMFAMFAM\\n    </a>\\n    .\\n    <a href="http://validator.w3.org/check/referer" class="xhtml" title="This page validates as XHTML">\\n     Valid\\n     <abbr title="eXtensible HyperText Markup Language">\\n      XHTML\\n     </abbr>\\n    </a>\\n    &nbsp;&nbsp;&bull;&nbsp;&nbsp;\\n    <a href="http://jigsaw.w3.org/css-validator/check/referer" class="css" title="This page validates as CSS">\\n     Valid\\n     <abbr title="Cascading Style Sheets">\\n      CSS\\n     </abbr>\\n    </a>-->\\n   </p>\\n  </div>\\n  <!-- end footer -->\\n </body>\\n</html>\\n\', escape=False)'
p7
sS'snapshot'
p8
(dp9
S'exception'
p10
(dp11
S'__getslice__'
p12
S"<method-wrapper '__getslice__' of exceptions.SyntaxError object>"
p13
sS'text'
p14
S"'    for i.level>0:\\n'"
p15
sS'__str__'
p16
S"<method-wrapper '__str__' of exceptions.SyntaxError object>"
p17
sS'__reduce__'
p18
S'<built-in method __reduce__ of exceptions.SyntaxError object>'
p19
sS'__dict__'
p20
S'{}'
p21
sS'__sizeof__'
p22
S'<built-in method __sizeof__ of exceptions.SyntaxError object>'
p23
sS'__init__'
p24
S"<method-wrapper '__init__' of exceptions.SyntaxError object>"
p25
sS'__setattr__'
p26
S"<method-wrapper '__setattr__' of exceptions.SyntaxError object>"
p27
sS'__reduce_ex__'
p28
S'<built-in method __reduce_ex__ of exceptions.SyntaxError object>'
p29
sS'__new__'
p30
S'<built-in method __new__ of type object>'
p31
sS'__format__'
p32
S'<built-in method __format__ of exceptions.SyntaxError object>'
p33
sS'__class__'
p34
S"<type 'exceptions.SyntaxError'>"
p35
sS'filename'
p36
S"'/home/jayanthkaturi/web2py/applications/WSD/views/default/word_select.html'"
p37
sS'lineno'
p38
S'111'
p39
sS'msg'
p40
S"'invalid syntax'"
p41
sS'__doc__'
p42
S"'Invalid syntax.'"
p43
sS'__getitem__'
p44
S"<method-wrapper '__getitem__' of exceptions.SyntaxError object>"
p45
sS'__setstate__'
p46
S'<built-in method __setstate__ of exceptions.SyntaxError object>'
p47
sS'__getattribute__'
p48
S"<method-wrapper '__getattribute__' of exceptions.SyntaxError object>"
p49
sS'print_file_and_line'
p50
S'None'
p51
sS'args'
p52
S"('invalid syntax', ('/home/jayanthkaturi/web2py/applications/WSD/views/default/word_select.html', 111, 16, '    for i.level>0:\\n'))"
p53
sS'__subclasshook__'
p54
S'<built-in method __subclasshook__ of type object>'
p55
sS'offset'
p56
S'16'
p57
sS'__unicode__'
p58
S'<built-in method __unicode__ of exceptions.SyntaxError object>'
p59
sS'__delattr__'
p60
S"<method-wrapper '__delattr__' of exceptions.SyntaxError object>"
p61
sS'__repr__'
p62
S"<method-wrapper '__repr__' of exceptions.SyntaxError object>"
p63
sS'__hash__'
p64
S"<method-wrapper '__hash__' of exceptions.SyntaxError object>"
p65
ssS'evalue'
p66
S'invalid syntax (word_select.html, line 111)'
p67
sS'request'
p68
ccopy_reg
_reconstructor
p69
(cgluon.html
BEAUTIFY
p70
c__builtin__
object
p71
NtRp72
(dp73
S'attributes'
p74
(dp75
sS'components'
p76
(lp77
g69
(cgluon.html
TABLE
p78
g71
NtRp79
(dp80
g74
(dp81
S'level'
p82
I5
ssS'parent'
p83
Nsg76
(lp84
g69
(cgluon.html
TR
p85
g71
NtRp86
(dp87
g74
(dp88
sg83
g79
sg76
(lp89
g69
(cgluon.html
TD
p90
g71
NtRp91
(dp92
g74
(dp93
S'_style'
p94
S'font-weight:bold;vertical-align:top'
p95
ssg83
g86
sg76
(lp96
S'ajax'
p97
asbag69
(g90
g71
NtRp98
(dp99
g74
(dp100
S'_valign'
p101
S'top'
p102
ssg83
g86
sg76
(lp103
S':'
asbag69
(g90
g71
NtRp104
(dp105
g74
(dp106
sg83
g86
sg76
(lp107
g69
(g70
g71
NtRp108
(dp109
g74
(dp110
g82
I5
ssg83
g104
sg76
(lp111
S'False'
p112
asbasbasbag69
(g85
g71
NtRp113
(dp114
g74
(dp115
sg83
g79
sg76
(lp116
g69
(g90
g71
NtRp117
(dp118
g74
(dp119
g94
g95
ssg83
g113
sg76
(lp120
S'application'
p121
asbag69
(g90
g71
NtRp122
(dp123
g74
(dp124
g101
g102
ssg83
g113
sg76
(lp125
S':'
asbag69
(g90
g71
NtRp126
(dp127
g74
(dp128
sg83
g113
sg76
(lp129
g69
(g70
g71
NtRp130
(dp131
g74
(dp132
g82
I5
ssg83
g126
sg76
(lp133
S'WSD'
p134
asbasbasbag69
(g85
g71
NtRp135
(dp136
g74
(dp137
sg83
g79
sg76
(lp138
g69
(g90
g71
NtRp139
(dp140
g74
(dp141
g94
g95
ssg83
g135
sg76
(lp142
g52
asbag69
(g90
g71
NtRp143
(dp144
g74
(dp145
g101
g102
ssg83
g135
sg76
(lp146
S':'
asbag69
(g90
g71
NtRp147
(dp148
g74
(dp149
sg83
g135
sg76
(lp150
g69
(g70
g71
NtRp151
(dp152
g74
(dp153
g82
I5
ssg83
g147
sg76
(lp154
g69
(g78
g71
NtRp155
(dp156
g74
(dp157
g82
I4
ssg83
Nsg76
(lp158
sbasbasbasbag69
(g85
g71
NtRp159
(dp160
g74
(dp161
sg83
g79
sg76
(lp162
g69
(g90
g71
NtRp163
(dp164
g74
(dp165
g94
g95
ssg83
g159
sg76
(lp166
S'body'
p167
asbag69
(g90
g71
NtRp168
(dp169
g74
(dp170
g101
g102
ssg83
g159
sg76
(lp171
S':'
asbag69
(g90
g71
NtRp172
(dp173
g74
(dp174
sg83
g159
sg76
(lp175
g69
(g70
g71
NtRp176
(dp177
g74
(dp178
g82
I5
ssg83
g172
sg76
(lp179
S'<cStringIO.StringO object at 0xab7a73e0>'
p180
asbasbasbag69
(g85
g71
NtRp181
(dp182
g74
(dp183
sg83
g79
sg76
(lp184
g69
(g90
g71
NtRp185
(dp186
g74
(dp187
g94
g95
ssg83
g181
sg76
(lp188
S'client'
p189
asbag69
(g90
g71
NtRp190
(dp191
g74
(dp192
g101
g102
ssg83
g181
sg76
(lp193
S':'
asbag69
(g90
g71
NtRp194
(dp195
g74
(dp196
sg83
g181
sg76
(lp197
g69
(g70
g71
NtRp198
(dp199
g74
(dp200
g82
I5
ssg83
g194
sg76
(lp201
S'127.0.0.1'
p202
asbasbasbag69
(g85
g71
NtRp203
(dp204
g74
(dp205
sg83
g79
sg76
(lp206
g69
(g90
g71
NtRp207
(dp208
g74
(dp209
g94
g95
ssg83
g203
sg76
(lp210
S'controller'
p211
asbag69
(g90
g71
NtRp212
(dp213
g74
(dp214
g101
g102
ssg83
g203
sg76
(lp215
S':'
asbag69
(g90
g71
NtRp216
(dp217
g74
(dp218
sg83
g203
sg76
(lp219
g69
(g70
g71
NtRp220
(dp221
g74
(dp222
g82
I5
ssg83
g216
sg76
(lp223
S'default'
p224
asbasbasbag69
(g85
g71
NtRp225
(dp226
g74
(dp227
sg83
g79
sg76
(lp228
g69
(g90
g71
NtRp229
(dp230
g74
(dp231
g94
g95
ssg83
g225
sg76
(lp232
S'cookies'
p233
asbag69
(g90
g71
NtRp234
(dp235
g74
(dp236
g101
g102
ssg83
g225
sg76
(lp237
S':'
asbag69
(g90
g71
NtRp238
(dp239
g74
(dp240
sg83
g225
sg76
(lp241
g69
(g70
g71
NtRp242
(dp243
g74
(dp244
g82
I5
ssg83
g238
sg76
(lp245
g69
(g78
g71
NtRp246
(dp247
g74
(dp248
g82
I4
ssg83
Nsg76
(lp249
g69
(g85
g71
NtRp250
(dp251
g74
(dp252
sg83
g246
sg76
(lp253
g69
(g90
g71
NtRp254
(dp255
g74
(dp256
g94
g95
ssg83
g250
sg76
(lp257
S'KBD'
p258
asbag69
(g90
g71
NtRp259
(dp260
g74
(dp261
g101
g102
ssg83
g250
sg76
(lp262
S':'
asbag69
(g90
g71
NtRp263
(dp264
g74
(dp265
sg83
g250
sg76
(lp266
g69
(g70
g71
NtRp267
(dp268
g74
(dp269
g82
I4
ssg83
g263
sg76
(lp270
g69
(g78
g71
NtRp271
(dp272
g74
(dp273
g82
I3
ssg83
Nsg76
(lp274
g69
(g85
g71
NtRp275
(dp276
g74
(dp277
sg83
g271
sg76
(lp278
g69
(g90
g71
NtRp279
(dp280
g74
(dp281
g94
g95
ssg83
g275
sg76
(lp282
S'comment'
p283
asbag69
(g90
g71
NtRp284
(dp285
g74
(dp286
g101
g102
ssg83
g275
sg76
(lp287
S':'
asbag69
(g90
g71
NtRp288
(dp289
g74
(dp290
sg83
g275
sg76
(lp291
g69
(g70
g71
NtRp292
(dp293
g74
(dp294
g82
I3
ssg83
g288
sg76
(lp295
S''
asbasbasbag69
(g85
g71
NtRp296
(dp297
g74
(dp298
sg83
g271
sg76
(lp299
g69
(g90
g71
NtRp300
(dp301
g74
(dp302
g94
g95
ssg83
g296
sg76
(lp303
S'domain'
p304
asbag69
(g90
g71
NtRp305
(dp306
g74
(dp307
g101
g102
ssg83
g296
sg76
(lp308
S':'
asbag69
(g90
g71
NtRp309
(dp310
g74
(dp311
sg83
g296
sg76
(lp312
g69
(g70
g71
NtRp313
(dp314
g74
(dp315
g82
I3
ssg83
g309
sg76
(lp316
S''
asbasbasbag69
(g85
g71
NtRp317
(dp318
g74
(dp319
sg83
g271
sg76
(lp320
g69
(g90
g71
NtRp321
(dp322
g74
(dp323
g94
g95
ssg83
g317
sg76
(lp324
S'expires'
p325
asbag69
(g90
g71
NtRp326
(dp327
g74
(dp328
g101
g102
ssg83
g317
sg76
(lp329
S':'
asbag69
(g90
g71
NtRp330
(dp331
g74
(dp332
sg83
g317
sg76
(lp333
g69
(g70
g71
NtRp334
(dp335
g74
(dp336
g82
I3
ssg83
g330
sg76
(lp337
S''
asbasbasbag69
(g85
g71
NtRp338
(dp339
g74
(dp340
sg83
g271
sg76
(lp341
g69
(g90
g71
NtRp342
(dp343
g74
(dp344
g94
g95
ssg83
g338
sg76
(lp345
S'httponly'
p346
asbag69
(g90
g71
NtRp347
(dp348
g74
(dp349
g101
g102
ssg83
g338
sg76
(lp350
S':'
asbag69
(g90
g71
NtRp351
(dp352
g74
(dp353
sg83
g338
sg76
(lp354
g69
(g70
g71
NtRp355
(dp356
g74
(dp357
g82
I3
ssg83
g351
sg76
(lp358
S''
asbasbasbag69
(g85
g71
NtRp359
(dp360
g74
(dp361
sg83
g271
sg76
(lp362
g69
(g90
g71
NtRp363
(dp364
g74
(dp365
g94
g95
ssg83
g359
sg76
(lp366
S'max-age'
p367
asbag69
(g90
g71
NtRp368
(dp369
g74
(dp370
g101
g102
ssg83
g359
sg76
(lp371
S':'
asbag69
(g90
g71
NtRp372
(dp373
g74
(dp374
sg83
g359
sg76
(lp375
g69
(g70
g71
NtRp376
(dp377
g74
(dp378
g82
I3
ssg83
g372
sg76
(lp379
S''
asbasbasbag69
(g85
g71
NtRp380
(dp381
g74
(dp382
sg83
g271
sg76
(lp383
g69
(g90
g71
NtRp384
(dp385
g74
(dp386
g94
g95
ssg83
g380
sg76
(lp387
S'path'
p388
asbag69
(g90
g71
NtRp389
(dp390
g74
(dp391
g101
g102
ssg83
g380
sg76
(lp392
S':'
asbag69
(g90
g71
NtRp393
(dp394
g74
(dp395
sg83
g380
sg76
(lp396
g69
(g70
g71
NtRp397
(dp398
g74
(dp399
g82
I3
ssg83
g393
sg76
(lp400
S''
asbasbasbag69
(g85
g71
NtRp401
(dp402
g74
(dp403
sg83
g271
sg76
(lp404
g69
(g90
g71
NtRp405
(dp406
g74
(dp407
g94
g95
ssg83
g401
sg76
(lp408
S'secure'
p409
asbag69
(g90
g71
NtRp410
(dp411
g74
(dp412
g101
g102
ssg83
g401
sg76
(lp413
S':'
asbag69
(g90
g71
NtRp414
(dp415
g74
(dp416
sg83
g401
sg76
(lp417
g69
(g70
g71
NtRp418
(dp419
g74
(dp420
g82
I3
ssg83
g414
sg76
(lp421
S''
asbasbasbag69
(g85
g71
NtRp422
(dp423
g74
(dp424
sg83
g271
sg76
(lp425
g69
(g90
g71
NtRp426
(dp427
g74
(dp428
g94
g95
ssg83
g422
sg76
(lp429
S'version'
p430
asbag69
(g90
g71
NtRp431
(dp432
g74
(dp433
g101
g102
ssg83
g422
sg76
(lp434
S':'
asbag69
(g90
g71
NtRp435
(dp436
g74
(dp437
sg83
g422
sg76
(lp438
g69
(g70
g71
NtRp439
(dp440
g74
(dp441
g82
I3
ssg83
g435
sg76
(lp442
S''
asbasbasbasbasbasbasbag69
(g85
g71
NtRp443
(dp444
g74
(dp445
sg83
g246
sg76
(lp446
g69
(g90
g71
NtRp447
(dp448
g74
(dp449
g94
g95
ssg83
g443
sg76
(lp450
S'session_id_admin'
p451
asbag69
(g90
g71
NtRp452
(dp453
g74
(dp454
g101
g102
ssg83
g443
sg76
(lp455
S':'
asbag69
(g90
g71
NtRp456
(dp457
g74
(dp458
sg83
g443
sg76
(lp459
g69
(g70
g71
NtRp460
(dp461
g74
(dp462
g82
I4
ssg83
g456
sg76
(lp463
g69
(g78
g71
NtRp464
(dp465
g74
(dp466
g82
I3
ssg83
Nsg76
(lp467
g69
(g85
g71
NtRp468
(dp469
g74
(dp470
sg83
g464
sg76
(lp471
g69
(g90
g71
NtRp472
(dp473
g74
(dp474
g94
g95
ssg83
g468
sg76
(lp475
g283
asbag69
(g90
g71
NtRp476
(dp477
g74
(dp478
g101
g102
ssg83
g468
sg76
(lp479
S':'
asbag69
(g90
g71
NtRp480
(dp481
g74
(dp482
sg83
g468
sg76
(lp483
g69
(g70
g71
NtRp484
(dp485
g74
(dp486
g82
I3
ssg83
g480
sg76
(lp487
S''
asbasbasbag69
(g85
g71
NtRp488
(dp489
g74
(dp490
sg83
g464
sg76
(lp491
g69
(g90
g71
NtRp492
(dp493
g74
(dp494
g94
g95
ssg83
g488
sg76
(lp495
g304
asbag69
(g90
g71
NtRp496
(dp497
g74
(dp498
g101
g102
ssg83
g488
sg76
(lp499
S':'
asbag69
(g90
g71
NtRp500
(dp501
g74
(dp502
sg83
g488
sg76
(lp503
g69
(g70
g71
NtRp504
(dp505
g74
(dp506
g82
I3
ssg83
g500
sg76
(lp507
S''
asbasbasbag69
(g85
g71
NtRp508
(dp509
g74
(dp510
sg83
g464
sg76
(lp511
g69
(g90
g71
NtRp512
(dp513
g74
(dp514
g94
g95
ssg83
g508
sg76
(lp515
g325
asbag69
(g90
g71
NtRp516
(dp517
g74
(dp518
g101
g102
ssg83
g508
sg76
(lp519
S':'
asbag69
(g90
g71
NtRp520
(dp521
g74
(dp522
sg83
g508
sg76
(lp523
g69
(g70
g71
NtRp524
(dp525
g74
(dp526
g82
I3
ssg83
g520
sg76
(lp527
S''
asbasbasbag69
(g85
g71
NtRp528
(dp529
g74
(dp530
sg83
g464
sg76
(lp531
g69
(g90
g71
NtRp532
(dp533
g74
(dp534
g94
g95
ssg83
g528
sg76
(lp535
g346
asbag69
(g90
g71
NtRp536
(dp537
g74
(dp538
g101
g102
ssg83
g528
sg76
(lp539
S':'
asbag69
(g90
g71
NtRp540
(dp541
g74
(dp542
sg83
g528
sg76
(lp543
g69
(g70
g71
NtRp544
(dp545
g74
(dp546
g82
I3
ssg83
g540
sg76
(lp547
S''
asbasbasbag69
(g85
g71
NtRp548
(dp549
g74
(dp550
sg83
g464
sg76
(lp551
g69
(g90
g71
NtRp552
(dp553
g74
(dp554
g94
g95
ssg83
g548
sg76
(lp555
g367
asbag69
(g90
g71
NtRp556
(dp557
g74
(dp558
g101
g102
ssg83
g548
sg76
(lp559
S':'
asbag69
(g90
g71
NtRp560
(dp561
g74
(dp562
sg83
g548
sg76
(lp563
g69
(g70
g71
NtRp564
(dp565
g74
(dp566
g82
I3
ssg83
g560
sg76
(lp567
S''
asbasbasbag69
(g85
g71
NtRp568
(dp569
g74
(dp570
sg83
g464
sg76
(lp571
g69
(g90
g71
NtRp572
(dp573
g74
(dp574
g94
g95
ssg83
g568
sg76
(lp575
g388
asbag69
(g90
g71
NtRp576
(dp577
g74
(dp578
g101
g102
ssg83
g568
sg76
(lp579
S':'
asbag69
(g90
g71
NtRp580
(dp581
g74
(dp582
sg83
g568
sg76
(lp583
g69
(g70
g71
NtRp584
(dp585
g74
(dp586
g82
I3
ssg83
g580
sg76
(lp587
S''
asbasbasbag69
(g85
g71
NtRp588
(dp589
g74
(dp590
sg83
g464
sg76
(lp591
g69
(g90
g71
NtRp592
(dp593
g74
(dp594
g94
g95
ssg83
g588
sg76
(lp595
g409
asbag69
(g90
g71
NtRp596
(dp597
g74
(dp598
g101
g102
ssg83
g588
sg76
(lp599
S':'
asbag69
(g90
g71
NtRp600
(dp601
g74
(dp602
sg83
g588
sg76
(lp603
g69
(g70
g71
NtRp604
(dp605
g74
(dp606
g82
I3
ssg83
g600
sg76
(lp607
S''
asbasbasbag69
(g85
g71
NtRp608
(dp609
g74
(dp610
sg83
g464
sg76
(lp611
g69
(g90
g71
NtRp612
(dp613
g74
(dp614
g94
g95
ssg83
g608
sg76
(lp615
g430
asbag69
(g90
g71
NtRp616
(dp617
g74
(dp618
g101
g102
ssg83
g608
sg76
(lp619
S':'
asbag69
(g90
g71
NtRp620
(dp621
g74
(dp622
sg83
g608
sg76
(lp623
g69
(g70
g71
NtRp624
(dp625
g74
(dp626
g82
I3
ssg83
g620
sg76
(lp627
S''
asbasbasbasbasbasbasbag69
(g85
g71
NtRp628
(dp629
g74
(dp630
sg83
g246
sg76
(lp631
g69
(g90
g71
NtRp632
(dp633
g74
(dp634
g94
g95
ssg83
g628
sg76
(lp635
S'session_id_welcome'
p636
asbag69
(g90
g71
NtRp637
(dp638
g74
(dp639
g101
g102
ssg83
g628
sg76
(lp640
S':'
asbag69
(g90
g71
NtRp641
(dp642
g74
(dp643
sg83
g628
sg76
(lp644
g69
(g70
g71
NtRp645
(dp646
g74
(dp647
g82
I4
ssg83
g641
sg76
(lp648
g69
(g78
g71
NtRp649
(dp650
g74
(dp651
g82
I3
ssg83
Nsg76
(lp652
g69
(g85
g71
NtRp653
(dp654
g74
(dp655
sg83
g649
sg76
(lp656
g69
(g90
g71
NtRp657
(dp658
g74
(dp659
g94
g95
ssg83
g653
sg76
(lp660
g283
asbag69
(g90
g71
NtRp661
(dp662
g74
(dp663
g101
g102
ssg83
g653
sg76
(lp664
S':'
asbag69
(g90
g71
NtRp665
(dp666
g74
(dp667
sg83
g653
sg76
(lp668
g69
(g70
g71
NtRp669
(dp670
g74
(dp671
g82
I3
ssg83
g665
sg76
(lp672
S''
asbasbasbag69
(g85
g71
NtRp673
(dp674
g74
(dp675
sg83
g649
sg76
(lp676
g69
(g90
g71
NtRp677
(dp678
g74
(dp679
g94
g95
ssg83
g673
sg76
(lp680
g304
asbag69
(g90
g71
NtRp681
(dp682
g74
(dp683
g101
g102
ssg83
g673
sg76
(lp684
S':'
asbag69
(g90
g71
NtRp685
(dp686
g74
(dp687
sg83
g673
sg76
(lp688
g69
(g70
g71
NtRp689
(dp690
g74
(dp691
g82
I3
ssg83
g685
sg76
(lp692
S''
asbasbasbag69
(g85
g71
NtRp693
(dp694
g74
(dp695
sg83
g649
sg76
(lp696
g69
(g90
g71
NtRp697
(dp698
g74
(dp699
g94
g95
ssg83
g693
sg76
(lp700
g325
asbag69
(g90
g71
NtRp701
(dp702
g74
(dp703
g101
g102
ssg83
g693
sg76
(lp704
S':'
asbag69
(g90
g71
NtRp705
(dp706
g74
(dp707
sg83
g693
sg76
(lp708
g69
(g70
g71
NtRp709
(dp710
g74
(dp711
g82
I3
ssg83
g705
sg76
(lp712
S''
asbasbasbag69
(g85
g71
NtRp713
(dp714
g74
(dp715
sg83
g649
sg76
(lp716
g69
(g90
g71
NtRp717
(dp718
g74
(dp719
g94
g95
ssg83
g713
sg76
(lp720
g346
asbag69
(g90
g71
NtRp721
(dp722
g74
(dp723
g101
g102
ssg83
g713
sg76
(lp724
S':'
asbag69
(g90
g71
NtRp725
(dp726
g74
(dp727
sg83
g713
sg76
(lp728
g69
(g70
g71
NtRp729
(dp730
g74
(dp731
g82
I3
ssg83
g725
sg76
(lp732
S''
asbasbasbag69
(g85
g71
NtRp733
(dp734
g74
(dp735
sg83
g649
sg76
(lp736
g69
(g90
g71
NtRp737
(dp738
g74
(dp739
g94
g95
ssg83
g733
sg76
(lp740
g367
asbag69
(g90
g71
NtRp741
(dp742
g74
(dp743
g101
g102
ssg83
g733
sg76
(lp744
S':'
asbag69
(g90
g71
NtRp745
(dp746
g74
(dp747
sg83
g733
sg76
(lp748
g69
(g70
g71
NtRp749
(dp750
g74
(dp751
g82
I3
ssg83
g745
sg76
(lp752
S''
asbasbasbag69
(g85
g71
NtRp753
(dp754
g74
(dp755
sg83
g649
sg76
(lp756
g69
(g90
g71
NtRp757
(dp758
g74
(dp759
g94
g95
ssg83
g753
sg76
(lp760
g388
asbag69
(g90
g71
NtRp761
(dp762
g74
(dp763
g101
g102
ssg83
g753
sg76
(lp764
S':'
asbag69
(g90
g71
NtRp765
(dp766
g74
(dp767
sg83
g753
sg76
(lp768
g69
(g70
g71
NtRp769
(dp770
g74
(dp771
g82
I3
ssg83
g765
sg76
(lp772
S''
asbasbasbag69
(g85
g71
NtRp773
(dp774
g74
(dp775
sg83
g649
sg76
(lp776
g69
(g90
g71
NtRp777
(dp778
g74
(dp779
g94
g95
ssg83
g773
sg76
(lp780
g409
asbag69
(g90
g71
NtRp781
(dp782
g74
(dp783
g101
g102
ssg83
g773
sg76
(lp784
S':'
asbag69
(g90
g71
NtRp785
(dp786
g74
(dp787
sg83
g773
sg76
(lp788
g69
(g70
g71
NtRp789
(dp790
g74
(dp791
g82
I3
ssg83
g785
sg76
(lp792
S''
asbasbasbag69
(g85
g71
NtRp793
(dp794
g74
(dp795
sg83
g649
sg76
(lp796
g69
(g90
g71
NtRp797
(dp798
g74
(dp799
g94
g95
ssg83
g793
sg76
(lp800
g430
asbag69
(g90
g71
NtRp801
(dp802
g74
(dp803
g101
g102
ssg83
g793
sg76
(lp804
S':'
asbag69
(g90
g71
NtRp805
(dp806
g74
(dp807
sg83
g793
sg76
(lp808
g69
(g70
g71
NtRp809
(dp810
g74
(dp811
g82
I3
ssg83
g805
sg76
(lp812
S''
asbasbasbasbasbasbasbag69
(g85
g71
NtRp813
(dp814
g74
(dp815
sg83
g246
sg76
(lp816
g69
(g90
g71
NtRp817
(dp818
g74
(dp819
g94
g95
ssg83
g813
sg76
(lp820
S'session_id_wsd'
p821
asbag69
(g90
g71
NtRp822
(dp823
g74
(dp824
g101
g102
ssg83
g813
sg76
(lp825
S':'
asbag69
(g90
g71
NtRp826
(dp827
g74
(dp828
sg83
g813
sg76
(lp829
g69
(g70
g71
NtRp830
(dp831
g74
(dp832
g82
I4
ssg83
g826
sg76
(lp833
g69
(g78
g71
NtRp834
(dp835
g74
(dp836
g82
I3
ssg83
Nsg76
(lp837
g69
(g85
g71
NtRp838
(dp839
g74
(dp840
sg83
g834
sg76
(lp841
g69
(g90
g71
NtRp842
(dp843
g74
(dp844
g94
g95
ssg83
g838
sg76
(lp845
g283
asbag69
(g90
g71
NtRp846
(dp847
g74
(dp848
g101
g102
ssg83
g838
sg76
(lp849
S':'
asbag69
(g90
g71
NtRp850
(dp851
g74
(dp852
sg83
g838
sg76
(lp853
g69
(g70
g71
NtRp854
(dp855
g74
(dp856
g82
I3
ssg83
g850
sg76
(lp857
S''
asbasbasbag69
(g85
g71
NtRp858
(dp859
g74
(dp860
sg83
g834
sg76
(lp861
g69
(g90
g71
NtRp862
(dp863
g74
(dp864
g94
g95
ssg83
g858
sg76
(lp865
g304
asbag69
(g90
g71
NtRp866
(dp867
g74
(dp868
g101
g102
ssg83
g858
sg76
(lp869
S':'
asbag69
(g90
g71
NtRp870
(dp871
g74
(dp872
sg83
g858
sg76
(lp873
g69
(g70
g71
NtRp874
(dp875
g74
(dp876
g82
I3
ssg83
g870
sg76
(lp877
S''
asbasbasbag69
(g85
g71
NtRp878
(dp879
g74
(dp880
sg83
g834
sg76
(lp881
g69
(g90
g71
NtRp882
(dp883
g74
(dp884
g94
g95
ssg83
g878
sg76
(lp885
g325
asbag69
(g90
g71
NtRp886
(dp887
g74
(dp888
g101
g102
ssg83
g878
sg76
(lp889
S':'
asbag69
(g90
g71
NtRp890
(dp891
g74
(dp892
sg83
g878
sg76
(lp893
g69
(g70
g71
NtRp894
(dp895
g74
(dp896
g82
I3
ssg83
g890
sg76
(lp897
S''
asbasbasbag69
(g85
g71
NtRp898
(dp899
g74
(dp900
sg83
g834
sg76
(lp901
g69
(g90
g71
NtRp902
(dp903
g74
(dp904
g94
g95
ssg83
g898
sg76
(lp905
g346
asbag69
(g90
g71
NtRp906
(dp907
g74
(dp908
g101
g102
ssg83
g898
sg76
(lp909
S':'
asbag69
(g90
g71
NtRp910
(dp911
g74
(dp912
sg83
g898
sg76
(lp913
g69
(g70
g71
NtRp914
(dp915
g74
(dp916
g82
I3
ssg83
g910
sg76
(lp917
S''
asbasbasbag69
(g85
g71
NtRp918
(dp919
g74
(dp920
sg83
g834
sg76
(lp921
g69
(g90
g71
NtRp922
(dp923
g74
(dp924
g94
g95
ssg83
g918
sg76
(lp925
g367
asbag69
(g90
g71
NtRp926
(dp927
g74
(dp928
g101
g102
ssg83
g918
sg76
(lp929
S':'
asbag69
(g90
g71
NtRp930
(dp931
g74
(dp932
sg83
g918
sg76
(lp933
g69
(g70
g71
NtRp934
(dp935
g74
(dp936
g82
I3
ssg83
g930
sg76
(lp937
S''
asbasbasbag69
(g85
g71
NtRp938
(dp939
g74
(dp940
sg83
g834
sg76
(lp941
g69
(g90
g71
NtRp942
(dp943
g74
(dp944
g94
g95
ssg83
g938
sg76
(lp945
g388
asbag69
(g90
g71
NtRp946
(dp947
g74
(dp948
g101
g102
ssg83
g938
sg76
(lp949
S':'
asbag69
(g90
g71
NtRp950
(dp951
g74
(dp952
sg83
g938
sg76
(lp953
g69
(g70
g71
NtRp954
(dp955
g74
(dp956
g82
I3
ssg83
g950
sg76
(lp957
S''
asbasbasbag69
(g85
g71
NtRp958
(dp959
g74
(dp960
sg83
g834
sg76
(lp961
g69
(g90
g71
NtRp962
(dp963
g74
(dp964
g94
g95
ssg83
g958
sg76
(lp965
g409
asbag69
(g90
g71
NtRp966
(dp967
g74
(dp968
g101
g102
ssg83
g958
sg76
(lp969
S':'
asbag69
(g90
g71
NtRp970
(dp971
g74
(dp972
sg83
g958
sg76
(lp973
g69
(g70
g71
NtRp974
(dp975
g74
(dp976
g82
I3
ssg83
g970
sg76
(lp977
S''
asbasbasbag69
(g85
g71
NtRp978
(dp979
g74
(dp980
sg83
g834
sg76
(lp981
g69
(g90
g71
NtRp982
(dp983
g74
(dp984
g94
g95
ssg83
g978
sg76
(lp985
g430
asbag69
(g90
g71
NtRp986
(dp987
g74
(dp988
g101
g102
ssg83
g978
sg76
(lp989
S':'
asbag69
(g90
g71
NtRp990
(dp991
g74
(dp992
sg83
g978
sg76
(lp993
g69
(g70
g71
NtRp994
(dp995
g74
(dp996
g82
I3
ssg83
g990
sg76
(lp997
S''
asbasbasbasbasbasbasbasbasbasbasbag69
(g85
g71
NtRp998
(dp999
g74
(dp1000
sg83
g79
sg76
(lp1001
g69
(g90
g71
NtRp1002
(dp1003
g74
(dp1004
g94
g95
ssg83
g998
sg76
(lp1005
S'env'
p1006
asbag69
(g90
g71
NtRp1007
(dp1008
g74
(dp1009
g101
g102
ssg83
g998
sg76
(lp1010
S':'
asbag69
(g90
g71
NtRp1011
(dp1012
g74
(dp1013
sg83
g998
sg76
(lp1014
g69
(g70
g71
NtRp1015
(dp1016
g74
(dp1017
g82
I5
ssg83
g1011
sg76
(lp1018
g69
(g78
g71
NtRp1019
(dp1020
g74
(dp1021
g82
I4
ssg83
Nsg76
(lp1022
g69
(g85
g71
NtRp1023
(dp1024
g74
(dp1025
sg83
g1019
sg76
(lp1026
g69
(g90
g71
NtRp1027
(dp1028
g74
(dp1029
g94
g95
ssg83
g1023
sg76
(lp1030
S'app_folders'
p1031
asbag69
(g90
g71
NtRp1032
(dp1033
g74
(dp1034
g101
g102
ssg83
g1023
sg76
(lp1035
S':'
asbag69
(g90
g71
NtRp1036
(dp1037
g74
(dp1038
sg83
g1023
sg76
(lp1039
g69
(g70
g71
NtRp1040
(dp1041
g74
(dp1042
g82
I4
ssg83
g1036
sg76
(lp1043
S"set(['/home/jayanthkaturi/web2py/applications/WSD/', '/home/jayanthkaturi/web2py/applications/welcome/', '/home/jayanthkaturi/web2py/applications/admin/'])"
p1044
asbasbasbag69
(g85
g71
NtRp1045
(dp1046
g74
(dp1047
sg83
g1019
sg76
(lp1048
g69
(g90
g71
NtRp1049
(dp1050
g74
(dp1051
g94
g95
ssg83
g1045
sg76
(lp1052
S'applications_parent'
p1053
asbag69
(g90
g71
NtRp1054
(dp1055
g74
(dp1056
g101
g102
ssg83
g1045
sg76
(lp1057
S':'
asbag69
(g90
g71
NtRp1058
(dp1059
g74
(dp1060
sg83
g1045
sg76
(lp1061
g69
(g70
g71
NtRp1062
(dp1063
g74
(dp1064
g82
I4
ssg83
g1058
sg76
(lp1065
S'/home/jayanthkaturi/web2py'
p1066
asbasbasbag69
(g85
g71
NtRp1067
(dp1068
g74
(dp1069
sg83
g1019
sg76
(lp1070
g69
(g90
g71
NtRp1071
(dp1072
g74
(dp1073
g94
g95
ssg83
g1067
sg76
(lp1074
S'cmd_args'
p1075
asbag69
(g90
g71
NtRp1076
(dp1077
g74
(dp1078
g101
g102
ssg83
g1067
sg76
(lp1079
S':'
asbag69
(g90
g71
NtRp1080
(dp1081
g74
(dp1082
sg83
g1067
sg76
(lp1083
g69
(g70
g71
NtRp1084
(dp1085
g74
(dp1086
g82
I4
ssg83
g1080
sg76
(lp1087
g69
(g78
g71
NtRp1088
(dp1089
g74
(dp1090
g82
I3
ssg83
Nsg76
(lp1091
sbasbasbasbag69
(g85
g71
NtRp1092
(dp1093
g74
(dp1094
sg83
g1019
sg76
(lp1095
g69
(g90
g71
NtRp1096
(dp1097
g74
(dp1098
g94
g95
ssg83
g1092
sg76
(lp1099
S'cmd_options'
p1100
asbag69
(g90
g71
NtRp1101
(dp1102
g74
(dp1103
g101
g102
ssg83
g1092
sg76
(lp1104
S':'
asbag69
(g90
g71
NtRp1105
(dp1106
g74
(dp1107
sg83
g1092
sg76
(lp1108
g69
(g70
g71
NtRp1109
(dp1110
g74
(dp1111
g82
I4
ssg83
g1105
sg76
(lp1112
S"<Values at 0xa764b0c: {'verbose': False, 'ip': '127.0.0.1', 'shutdown_timeout': 5, 'taskbar': False, 'port': 8000, 'maxthreads': None, 'softcron': False, 'server_name': 'ubuntu', 'bpython': False, 'nogui': False, 'nocron': False, 'extcron': False, 'debuglevel': 30, 'test': None, 'folder': '/home/jayanthkaturi/web2py', 'config': '', 'import_models': False, 'winservice': '', 'shell': None, 'run': '', 'log_filename': 'httpserver.log', 'args': [''], 'socket_timeout': 1, 'profiler_filename': None, 'ssl_private_key': '', 'password': '<ask>', 'request_queue_size': 5, 'ssl_certificate': '', 'cronjob': False, 'plain': False, 'quiet': False, 'interfaces': None, 'minthreads': None, 'timeout': 10, 'numthreads': None, 'nobanner': False, 'pid_filename': 'httpserver.pid'}>"
p1113
asbasbasbag69
(g85
g71
NtRp1114
(dp1115
g74
(dp1116
sg83
g1019
sg76
(lp1117
g69
(g90
g71
NtRp1118
(dp1119
g74
(dp1120
g94
g95
ssg83
g1114
sg76
(lp1121
S'db_sessions'
p1122
asbag69
(g90
g71
NtRp1123
(dp1124
g74
(dp1125
g101
g102
ssg83
g1114
sg76
(lp1126
S':'
asbag69
(g90
g71
NtRp1127
(dp1128
g74
(dp1129
sg83
g1114
sg76
(lp1130
g69
(g70
g71
NtRp1131
(dp1132
g74
(dp1133
g82
I4
ssg83
g1127
sg76
(lp1134
S'set([])'
p1135
asbasbasbag69
(g85
g71
NtRp1136
(dp1137
g74
(dp1138
sg83
g1019
sg76
(lp1139
g69
(g90
g71
NtRp1140
(dp1141
g74
(dp1142
g94
g95
ssg83
g1136
sg76
(lp1143
S'debugging'
p1144
asbag69
(g90
g71
NtRp1145
(dp1146
g74
(dp1147
g101
g102
ssg83
g1136
sg76
(lp1148
S':'
asbag69
(g90
g71
NtRp1149
(dp1150
g74
(dp1151
sg83
g1136
sg76
(lp1152
g69
(g70
g71
NtRp1153
(dp1154
g74
(dp1155
g82
I4
ssg83
g1149
sg76
(lp1156
g112
asbasbasbag69
(g85
g71
NtRp1157
(dp1158
g74
(dp1159
sg83
g1019
sg76
(lp1160
g69
(g90
g71
NtRp1161
(dp1162
g74
(dp1163
g94
g95
ssg83
g1157
sg76
(lp1164
S'gluon_parent'
p1165
asbag69
(g90
g71
NtRp1166
(dp1167
g74
(dp1168
g101
g102
ssg83
g1157
sg76
(lp1169
S':'
asbag69
(g90
g71
NtRp1170
(dp1171
g74
(dp1172
sg83
g1157
sg76
(lp1173
g69
(g70
g71
NtRp1174
(dp1175
g74
(dp1176
g82
I4
ssg83
g1170
sg76
(lp1177
S'/usr/share/web2py'
p1178
asbasbasbag69
(g85
g71
NtRp1179
(dp1180
g74
(dp1181
sg83
g1019
sg76
(lp1182
g69
(g90
g71
NtRp1183
(dp1184
g74
(dp1185
g94
g95
ssg83
g1179
sg76
(lp1186
S'http_accept'
p1187
asbag69
(g90
g71
NtRp1188
(dp1189
g74
(dp1190
g101
g102
ssg83
g1179
sg76
(lp1191
S':'
asbag69
(g90
g71
NtRp1192
(dp1193
g74
(dp1194
sg83
g1179
sg76
(lp1195
g69
(g70
g71
NtRp1196
(dp1197
g74
(dp1198
g82
I4
ssg83
g1192
sg76
(lp1199
S'text/html,application/xhtml+xml,application/xml;q=0.9,*/*;q=0.8'
p1200
asbasbasbag69
(g85
g71
NtRp1201
(dp1202
g74
(dp1203
sg83
g1019
sg76
(lp1204
g69
(g90
g71
NtRp1205
(dp1206
g74
(dp1207
g94
g95
ssg83
g1201
sg76
(lp1208
S'http_accept_encoding'
p1209
asbag69
(g90
g71
NtRp1210
(dp1211
g74
(dp1212
g101
g102
ssg83
g1201
sg76
(lp1213
S':'
asbag69
(g90
g71
NtRp1214
(dp1215
g74
(dp1216
sg83
g1201
sg76
(lp1217
g69
(g70
g71
NtRp1218
(dp1219
g74
(dp1220
g82
I4
ssg83
g1214
sg76
(lp1221
S'gzip, deflate'
p1222
asbasbasbag69
(g85
g71
NtRp1223
(dp1224
g74
(dp1225
sg83
g1019
sg76
(lp1226
g69
(g90
g71
NtRp1227
(dp1228
g74
(dp1229
g94
g95
ssg83
g1223
sg76
(lp1230
S'http_accept_language'
p1231
asbag69
(g90
g71
NtRp1232
(dp1233
g74
(dp1234
g101
g102
ssg83
g1223
sg76
(lp1235
S':'
asbag69
(g90
g71
NtRp1236
(dp1237
g74
(dp1238
sg83
g1223
sg76
(lp1239
g69
(g70
g71
NtRp1240
(dp1241
g74
(dp1242
g82
I4
ssg83
g1236
sg76
(lp1243
S'en-US,en;q=0.5'
p1244
asbasbasbag69
(g85
g71
NtRp1245
(dp1246
g74
(dp1247
sg83
g1019
sg76
(lp1248
g69
(g90
g71
NtRp1249
(dp1250
g74
(dp1251
g94
g95
ssg83
g1245
sg76
(lp1252
S'http_connection'
p1253
asbag69
(g90
g71
NtRp1254
(dp1255
g74
(dp1256
g101
g102
ssg83
g1245
sg76
(lp1257
S':'
asbag69
(g90
g71
NtRp1258
(dp1259
g74
(dp1260
sg83
g1245
sg76
(lp1261
g69
(g70
g71
NtRp1262
(dp1263
g74
(dp1264
g82
I4
ssg83
g1258
sg76
(lp1265
S'keep-alive'
p1266
asbasbasbag69
(g85
g71
NtRp1267
(dp1268
g74
(dp1269
sg83
g1019
sg76
(lp1270
g69
(g90
g71
NtRp1271
(dp1272
g74
(dp1273
g94
g95
ssg83
g1267
sg76
(lp1274
S'http_cookie'
p1275
asbag69
(g90
g71
NtRp1276
(dp1277
g74
(dp1278
g101
g102
ssg83
g1267
sg76
(lp1279
S':'
asbag69
(g90
g71
NtRp1280
(dp1281
g74
(dp1282
sg83
g1267
sg76
(lp1283
g69
(g70
g71
NtRp1284
(dp1285
g74
(dp1286
g82
I4
ssg83
g1280
sg76
(lp1287
S'KBD=0hi-2; session_id_welcome=127.0.0.1-1c8d6aad-3d31-4d7a-b573-d1f41f7334c3; session_id_admin=127.0.0.1-a7f94927-e2cf-4767-b48e-676afd9ff13b; session_id_wsd=127.0.0.1-ba5da912-56ca-4d5d-8aac-8a66d9faf08f'
p1288
asbasbasbag69
(g85
g71
NtRp1289
(dp1290
g74
(dp1291
sg83
g1019
sg76
(lp1292
g69
(g90
g71
NtRp1293
(dp1294
g74
(dp1295
g94
g95
ssg83
g1289
sg76
(lp1296
S'http_host'
p1297
asbag69
(g90
g71
NtRp1298
(dp1299
g74
(dp1300
g101
g102
ssg83
g1289
sg76
(lp1301
S':'
asbag69
(g90
g71
NtRp1302
(dp1303
g74
(dp1304
sg83
g1289
sg76
(lp1305
g69
(g70
g71
NtRp1306
(dp1307
g74
(dp1308
g82
I4
ssg83
g1302
sg76
(lp1309
S'127.0.0.1:8000'
p1310
asbasbasbag69
(g85
g71
NtRp1311
(dp1312
g74
(dp1313
sg83
g1019
sg76
(lp1314
g69
(g90
g71
NtRp1315
(dp1316
g74
(dp1317
g94
g95
ssg83
g1311
sg76
(lp1318
S'http_referer'
p1319
asbag69
(g90
g71
NtRp1320
(dp1321
g74
(dp1322
g101
g102
ssg83
g1311
sg76
(lp1323
S':'
asbag69
(g90
g71
NtRp1324
(dp1325
g74
(dp1326
sg83
g1311
sg76
(lp1327
g69
(g70
g71
NtRp1328
(dp1329
g74
(dp1330
g82
I4
ssg83
g1324
sg76
(lp1331
S'http://127.0.0.1:8000/WSD/default/home'
p1332
asbasbasbag69
(g85
g71
NtRp1333
(dp1334
g74
(dp1335
sg83
g1019
sg76
(lp1336
g69
(g90
g71
NtRp1337
(dp1338
g74
(dp1339
g94
g95
ssg83
g1333
sg76
(lp1340
S'http_user_agent'
p1341
asbag69
(g90
g71
NtRp1342
(dp1343
g74
(dp1344
g101
g102
ssg83
g1333
sg76
(lp1345
S':'
asbag69
(g90
g71
NtRp1346
(dp1347
g74
(dp1348
sg83
g1333
sg76
(lp1349
g69
(g70
g71
NtRp1350
(dp1351
g74
(dp1352
g82
I4
ssg83
g1346
sg76
(lp1353
S'Mozilla/5.0 (X11; Ubuntu; Linux i686; rv:23.0) Gecko/20100101 Firefox/23.0'
p1354
asbasbasbag69
(g85
g71
NtRp1355
(dp1356
g74
(dp1357
sg83
g1019
sg76
(lp1358
g69
(g90
g71
NtRp1359
(dp1360
g74
(dp1361
g94
g95
ssg83
g1355
sg76
(lp1362
S'is_jython'
p1363
asbag69
(g90
g71
NtRp1364
(dp1365
g74
(dp1366
g101
g102
ssg83
g1355
sg76
(lp1367
S':'
asbag69
(g90
g71
NtRp1368
(dp1369
g74
(dp1370
sg83
g1355
sg76
(lp1371
g69
(g70
g71
NtRp1372
(dp1373
g74
(dp1374
g82
I4
ssg83
g1368
sg76
(lp1375
g112
asbasbasbag69
(g85
g71
NtRp1376
(dp1377
g74
(dp1378
sg83
g1019
sg76
(lp1379
g69
(g90
g71
NtRp1380
(dp1381
g74
(dp1382
g94
g95
ssg83
g1376
sg76
(lp1383
S'is_pypy'
p1384
asbag69
(g90
g71
NtRp1385
(dp1386
g74
(dp1387
g101
g102
ssg83
g1376
sg76
(lp1388
S':'
asbag69
(g90
g71
NtRp1389
(dp1390
g74
(dp1391
sg83
g1376
sg76
(lp1392
g69
(g70
g71
NtRp1393
(dp1394
g74
(dp1395
g82
I4
ssg83
g1389
sg76
(lp1396
g112
asbasbasbag69
(g85
g71
NtRp1397
(dp1398
g74
(dp1399
sg83
g1019
sg76
(lp1400
g69
(g90
g71
NtRp1401
(dp1402
g74
(dp1403
g94
g95
ssg83
g1397
sg76
(lp1404
S'path_info'
p1405
asbag69
(g90
g71
NtRp1406
(dp1407
g74
(dp1408
g101
g102
ssg83
g1397
sg76
(lp1409
S':'
asbag69
(g90
g71
NtRp1410
(dp1411
g74
(dp1412
sg83
g1397
sg76
(lp1413
g69
(g70
g71
NtRp1414
(dp1415
g74
(dp1416
g82
I4
ssg83
g1410
sg76
(lp1417
S'/WSD/default/word_select'
p1418
asbasbasbag69
(g85
g71
NtRp1419
(dp1420
g74
(dp1421
sg83
g1019
sg76
(lp1422
g69
(g90
g71
NtRp1423
(dp1424
g74
(dp1425
g94
g95
ssg83
g1419
sg76
(lp1426
S'query_string'
p1427
asbag69
(g90
g71
NtRp1428
(dp1429
g74
(dp1430
g101
g102
ssg83
g1419
sg76
(lp1431
S':'
asbag69
(g90
g71
NtRp1432
(dp1433
g74
(dp1434
sg83
g1419
sg76
(lp1435
g69
(g70
g71
NtRp1436
(dp1437
g74
(dp1438
g82
I4
ssg83
g1432
sg76
(lp1439
S'check=1'
p1440
asbasbasbag69
(g85
g71
NtRp1441
(dp1442
g74
(dp1443
sg83
g1019
sg76
(lp1444
g69
(g90
g71
NtRp1445
(dp1446
g74
(dp1447
g94
g95
ssg83
g1441
sg76
(lp1448
S'remote_addr'
p1449
asbag69
(g90
g71
NtRp1450
(dp1451
g74
(dp1452
g101
g102
ssg83
g1441
sg76
(lp1453
S':'
asbag69
(g90
g71
NtRp1454
(dp1455
g74
(dp1456
sg83
g1441
sg76
(lp1457
g69
(g70
g71
NtRp1458
(dp1459
g74
(dp1460
g82
I4
ssg83
g1454
sg76
(lp1461
g202
asbasbasbag69
(g85
g71
NtRp1462
(dp1463
g74
(dp1464
sg83
g1019
sg76
(lp1465
g69
(g90
g71
NtRp1466
(dp1467
g74
(dp1468
g94
g95
ssg83
g1462
sg76
(lp1469
S'remote_port'
p1470
asbag69
(g90
g71
NtRp1471
(dp1472
g74
(dp1473
g101
g102
ssg83
g1462
sg76
(lp1474
S':'
asbag69
(g90
g71
NtRp1475
(dp1476
g74
(dp1477
sg83
g1462
sg76
(lp1478
g69
(g70
g71
NtRp1479
(dp1480
g74
(dp1481
g82
I4
ssg83
g1475
sg76
(lp1482
S'59407'
p1483
asbasbasbag69
(g85
g71
NtRp1484
(dp1485
g74
(dp1486
sg83
g1019
sg76
(lp1487
g69
(g90
g71
NtRp1488
(dp1489
g74
(dp1490
g94
g95
ssg83
g1484
sg76
(lp1491
S'request_method'
p1492
asbag69
(g90
g71
NtRp1493
(dp1494
g74
(dp1495
g101
g102
ssg83
g1484
sg76
(lp1496
S':'
asbag69
(g90
g71
NtRp1497
(dp1498
g74
(dp1499
sg83
g1484
sg76
(lp1500
g69
(g70
g71
NtRp1501
(dp1502
g74
(dp1503
g82
I4
ssg83
g1497
sg76
(lp1504
S'GET'
p1505
asbasbasbag69
(g85
g71
NtRp1506
(dp1507
g74
(dp1508
sg83
g1019
sg76
(lp1509
g69
(g90
g71
NtRp1510
(dp1511
g74
(dp1512
g94
g95
ssg83
g1506
sg76
(lp1513
S'script_name'
p1514
asbag69
(g90
g71
NtRp1515
(dp1516
g74
(dp1517
g101
g102
ssg83
g1506
sg76
(lp1518
S':'
asbag69
(g90
g71
NtRp1519
(dp1520
g74
(dp1521
sg83
g1506
sg76
(lp1522
g69
(g70
g71
NtRp1523
(dp1524
g74
(dp1525
g82
I4
ssg83
g1519
sg76
(lp1526
S''
asbasbasbag69
(g85
g71
NtRp1527
(dp1528
g74
(dp1529
sg83
g1019
sg76
(lp1530
g69
(g90
g71
NtRp1531
(dp1532
g74
(dp1533
g94
g95
ssg83
g1527
sg76
(lp1534
S'server_name'
p1535
asbag69
(g90
g71
NtRp1536
(dp1537
g74
(dp1538
g101
g102
ssg83
g1527
sg76
(lp1539
S':'
asbag69
(g90
g71
NtRp1540
(dp1541
g74
(dp1542
sg83
g1527
sg76
(lp1543
g69
(g70
g71
NtRp1544
(dp1545
g74
(dp1546
g82
I4
ssg83
g1540
sg76
(lp1547
S'ubuntu'
p1548
asbasbasbag69
(g85
g71
NtRp1549
(dp1550
g74
(dp1551
sg83
g1019
sg76
(lp1552
g69
(g90
g71
NtRp1553
(dp1554
g74
(dp1555
g94
g95
ssg83
g1549
sg76
(lp1556
S'server_port'
p1557
asbag69
(g90
g71
NtRp1558
(dp1559
g74
(dp1560
g101
g102
ssg83
g1549
sg76
(lp1561
S':'
asbag69
(g90
g71
NtRp1562
(dp1563
g74
(dp1564
sg83
g1549
sg76
(lp1565
g69
(g70
g71
NtRp1566
(dp1567
g74
(dp1568
g82
I4
ssg83
g1562
sg76
(lp1569
S'8000'
p1570
asbasbasbag69
(g85
g71
NtRp1571
(dp1572
g74
(dp1573
sg83
g1019
sg76
(lp1574
g69
(g90
g71
NtRp1575
(dp1576
g74
(dp1577
g94
g95
ssg83
g1571
sg76
(lp1578
S'server_protocol'
p1579
asbag69
(g90
g71
NtRp1580
(dp1581
g74
(dp1582
g101
g102
ssg83
g1571
sg76
(lp1583
S':'
asbag69
(g90
g71
NtRp1584
(dp1585
g74
(dp1586
sg83
g1571
sg76
(lp1587
g69
(g70
g71
NtRp1588
(dp1589
g74
(dp1590
g82
I4
ssg83
g1584
sg76
(lp1591
S'HTTP/1.1'
p1592
asbasbasbag69
(g85
g71
NtRp1593
(dp1594
g74
(dp1595
sg83
g1019
sg76
(lp1596
g69
(g90
g71
NtRp1597
(dp1598
g74
(dp1599
g94
g95
ssg83
g1593
sg76
(lp1600
S'server_software'
p1601
asbag69
(g90
g71
NtRp1602
(dp1603
g74
(dp1604
g101
g102
ssg83
g1593
sg76
(lp1605
S':'
asbag69
(g90
g71
NtRp1606
(dp1607
g74
(dp1608
sg83
g1593
sg76
(lp1609
g69
(g70
g71
NtRp1610
(dp1611
g74
(dp1612
g82
I4
ssg83
g1606
sg76
(lp1613
S'Rocket 1.2.4'
p1614
asbasbasbag69
(g85
g71
NtRp1615
(dp1616
g74
(dp1617
sg83
g1019
sg76
(lp1618
g69
(g90
g71
NtRp1619
(dp1620
g74
(dp1621
g94
g95
ssg83
g1615
sg76
(lp1622
S'web2py_crontype'
p1623
asbag69
(g90
g71
NtRp1624
(dp1625
g74
(dp1626
g101
g102
ssg83
g1615
sg76
(lp1627
S':'
asbag69
(g90
g71
NtRp1628
(dp1629
g74
(dp1630
sg83
g1615
sg76
(lp1631
g69
(g70
g71
NtRp1632
(dp1633
g74
(dp1634
g82
I4
ssg83
g1628
sg76
(lp1635
S'hard'
p1636
asbasbasbag69
(g85
g71
NtRp1637
(dp1638
g74
(dp1639
sg83
g1019
sg76
(lp1640
g69
(g90
g71
NtRp1641
(dp1642
g74
(dp1643
g94
g95
ssg83
g1637
sg76
(lp1644
S'web2py_path'
p1645
asbag69
(g90
g71
NtRp1646
(dp1647
g74
(dp1648
g101
g102
ssg83
g1637
sg76
(lp1649
S':'
asbag69
(g90
g71
NtRp1650
(dp1651
g74
(dp1652
sg83
g1637
sg76
(lp1653
g69
(g70
g71
NtRp1654
(dp1655
g74
(dp1656
g82
I4
ssg83
g1650
sg76
(lp1657
g1066
asbasbasbag69
(g85
g71
NtRp1658
(dp1659
g74
(dp1660
sg83
g1019
sg76
(lp1661
g69
(g90
g71
NtRp1662
(dp1663
g74
(dp1664
g94
g95
ssg83
g1658
sg76
(lp1665
S'web2py_version'
p1666
asbag69
(g90
g71
NtRp1667
(dp1668
g74
(dp1669
g101
g102
ssg83
g1658
sg76
(lp1670
S':'
asbag69
(g90
g71
NtRp1671
(dp1672
g74
(dp1673
sg83
g1658
sg76
(lp1674
g69
(g70
g71
NtRp1675
(dp1676
g74
(dp1677
g82
I4
ssg83
g1671
sg76
(lp1678
g69
(g78
g71
NtRp1679
(dp1680
g74
(dp1681
g82
I3
ssg83
Nsg76
(lp1682
g69
(g85
g71
NtRp1683
(dp1684
g74
(dp1685
sg83
g1679
sg76
(lp1686
g69
(g90
g71
NtRp1687
(dp1688
g74
(dp1689
sg83
g1683
sg76
(lp1690
g69
(g70
g71
NtRp1691
(dp1692
g74
(dp1693
g82
I3
ssg83
g1687
sg76
(lp1694
S'1'
asbasbasbag69
(g85
g71
NtRp1695
(dp1696
g74
(dp1697
sg83
g1679
sg76
(lp1698
g69
(g90
g71
NtRp1699
(dp1700
g74
(dp1701
sg83
g1695
sg76
(lp1702
g69
(g70
g71
NtRp1703
(dp1704
g74
(dp1705
g82
I3
ssg83
g1699
sg76
(lp1706
S'99'
p1707
asbasbasbag69
(g85
g71
NtRp1708
(dp1709
g74
(dp1710
sg83
g1679
sg76
(lp1711
g69
(g90
g71
NtRp1712
(dp1713
g74
(dp1714
sg83
g1708
sg76
(lp1715
g69
(g70
g71
NtRp1716
(dp1717
g74
(dp1718
g82
I3
ssg83
g1712
sg76
(lp1719
S'4'
asbasbasbag69
(g85
g71
NtRp1720
(dp1721
g74
(dp1722
sg83
g1679
sg76
(lp1723
g69
(g90
g71
NtRp1724
(dp1725
g74
(dp1726
sg83
g1720
sg76
(lp1727
g69
(g70
g71
NtRp1728
(dp1729
g74
(dp1730
g82
I3
ssg83
g1724
sg76
(lp1731
S'datetime.datetime(2011, 12, 14, 14, 46, 14)'
p1732
asbasbasbag69
(g85
g71
NtRp1733
(dp1734
g74
(dp1735
sg83
g1679
sg76
(lp1736
g69
(g90
g71
NtRp1737
(dp1738
g74
(dp1739
sg83
g1733
sg76
(lp1740
g69
(g70
g71
NtRp1741
(dp1742
g74
(dp1743
g82
I3
ssg83
g1737
sg76
(lp1744
S'stable'
p1745
asbasbasbasbasbasbasbag69
(g85
g71
NtRp1746
(dp1747
g74
(dp1748
sg83
g1019
sg76
(lp1749
g69
(g90
g71
NtRp1750
(dp1751
g74
(dp1752
g94
g95
ssg83
g1746
sg76
(lp1753
S'wsgi_errors'
p1754
asbag69
(g90
g71
NtRp1755
(dp1756
g74
(dp1757
g101
g102
ssg83
g1746
sg76
(lp1758
S':'
asbag69
(g90
g71
NtRp1759
(dp1760
g74
(dp1761
sg83
g1746
sg76
(lp1762
g69
(g70
g71
NtRp1763
(dp1764
g74
(dp1765
g82
I4
ssg83
g1759
sg76
(lp1766
S"<open file '<stderr>', mode 'w' at 0xb72d30d0>"
p1767
asbasbasbag69
(g85
g71
NtRp1768
(dp1769
g74
(dp1770
sg83
g1019
sg76
(lp1771
g69
(g90
g71
NtRp1772
(dp1773
g74
(dp1774
g94
g95
ssg83
g1768
sg76
(lp1775
S'wsgi_file_wrapper'
p1776
asbag69
(g90
g71
NtRp1777
(dp1778
g74
(dp1779
g101
g102
ssg83
g1768
sg76
(lp1780
S':'
asbag69
(g90
g71
NtRp1781
(dp1782
g74
(dp1783
sg83
g1768
sg76
(lp1784
g69
(g70
g71
NtRp1785
(dp1786
g74
(dp1787
g82
I4
ssg83
g1781
sg76
(lp1788
S'<class wsgiref.util.FileWrapper at 0xa70e53c>'
p1789
asbasbasbag69
(g85
g71
NtRp1790
(dp1791
g74
(dp1792
sg83
g1019
sg76
(lp1793
g69
(g90
g71
NtRp1794
(dp1795
g74
(dp1796
g94
g95
ssg83
g1790
sg76
(lp1797
S'wsgi_input'
p1798
asbag69
(g90
g71
NtRp1799
(dp1800
g74
(dp1801
g101
g102
ssg83
g1790
sg76
(lp1802
S':'
asbag69
(g90
g71
NtRp1803
(dp1804
g74
(dp1805
sg83
g1790
sg76
(lp1806
g69
(g70
g71
NtRp1807
(dp1808
g74
(dp1809
g82
I4
ssg83
g1803
sg76
(lp1810
S'<socket._fileobject object at 0xab7b466c>'
p1811
asbasbasbag69
(g85
g71
NtRp1812
(dp1813
g74
(dp1814
sg83
g1019
sg76
(lp1815
g69
(g90
g71
NtRp1816
(dp1817
g74
(dp1818
g94
g95
ssg83
g1812
sg76
(lp1819
S'wsgi_multiprocess'
p1820
asbag69
(g90
g71
NtRp1821
(dp1822
g74
(dp1823
g101
g102
ssg83
g1812
sg76
(lp1824
S':'
asbag69
(g90
g71
NtRp1825
(dp1826
g74
(dp1827
sg83
g1812
sg76
(lp1828
g69
(g70
g71
NtRp1829
(dp1830
g74
(dp1831
g82
I4
ssg83
g1825
sg76
(lp1832
g112
asbasbasbag69
(g85
g71
NtRp1833
(dp1834
g74
(dp1835
sg83
g1019
sg76
(lp1836
g69
(g90
g71
NtRp1837
(dp1838
g74
(dp1839
g94
g95
ssg83
g1833
sg76
(lp1840
S'wsgi_multithread'
p1841
asbag69
(g90
g71
NtRp1842
(dp1843
g74
(dp1844
g101
g102
ssg83
g1833
sg76
(lp1845
S':'
asbag69
(g90
g71
NtRp1846
(dp1847
g74
(dp1848
sg83
g1833
sg76
(lp1849
g69
(g70
g71
NtRp1850
(dp1851
g74
(dp1852
g82
I4
ssg83
g1846
sg76
(lp1853
S'True'
p1854
asbasbasbag69
(g85
g71
NtRp1855
(dp1856
g74
(dp1857
sg83
g1019
sg76
(lp1858
g69
(g90
g71
NtRp1859
(dp1860
g74
(dp1861
g94
g95
ssg83
g1855
sg76
(lp1862
S'wsgi_run_once'
p1863
asbag69
(g90
g71
NtRp1864
(dp1865
g74
(dp1866
g101
g102
ssg83
g1855
sg76
(lp1867
S':'
asbag69
(g90
g71
NtRp1868
(dp1869
g74
(dp1870
sg83
g1855
sg76
(lp1871
g69
(g70
g71
NtRp1872
(dp1873
g74
(dp1874
g82
I4
ssg83
g1868
sg76
(lp1875
g112
asbasbasbag69
(g85
g71
NtRp1876
(dp1877
g74
(dp1878
sg83
g1019
sg76
(lp1879
g69
(g90
g71
NtRp1880
(dp1881
g74
(dp1882
g94
g95
ssg83
g1876
sg76
(lp1883
S'wsgi_url_scheme'
p1884
asbag69
(g90
g71
NtRp1885
(dp1886
g74
(dp1887
g101
g102
ssg83
g1876
sg76
(lp1888
S':'
asbag69
(g90
g71
NtRp1889
(dp1890
g74
(dp1891
sg83
g1876
sg76
(lp1892
g69
(g70
g71
NtRp1893
(dp1894
g74
(dp1895
g82
I4
ssg83
g1889
sg76
(lp1896
S'http'
p1897
asbasbasbag69
(g85
g71
NtRp1898
(dp1899
g74
(dp1900
sg83
g1019
sg76
(lp1901
g69
(g90
g71
NtRp1902
(dp1903
g74
(dp1904
g94
g95
ssg83
g1898
sg76
(lp1905
S'wsgi_version'
p1906
asbag69
(g90
g71
NtRp1907
(dp1908
g74
(dp1909
g101
g102
ssg83
g1898
sg76
(lp1910
S':'
asbag69
(g90
g71
NtRp1911
(dp1912
g74
(dp1913
sg83
g1898
sg76
(lp1914
g69
(g70
g71
NtRp1915
(dp1916
g74
(dp1917
g82
I4
ssg83
g1911
sg76
(lp1918
g69
(g78
g71
NtRp1919
(dp1920
g74
(dp1921
g82
I3
ssg83
Nsg76
(lp1922
g69
(g85
g71
NtRp1923
(dp1924
g74
(dp1925
sg83
g1919
sg76
(lp1926
g69
(g90
g71
NtRp1927
(dp1928
g74
(dp1929
sg83
g1923
sg76
(lp1930
g69
(g70
g71
NtRp1931
(dp1932
g74
(dp1933
g82
I3
ssg83
g1927
sg76
(lp1934
S'1'
asbasbasbag69
(g85
g71
NtRp1935
(dp1936
g74
(dp1937
sg83
g1919
sg76
(lp1938
g69
(g90
g71
NtRp1939
(dp1940
g74
(dp1941
sg83
g1935
sg76
(lp1942
g69
(g70
g71
NtRp1943
(dp1944
g74
(dp1945
g82
I3
ssg83
g1939
sg76
(lp1946
S'0'
asbasbasbasbasbasbasbasbasbasbasbag69
(g85
g71
NtRp1947
(dp1948
g74
(dp1949
sg83
g79
sg76
(lp1950
g69
(g90
g71
NtRp1951
(dp1952
g74
(dp1953
g94
g95
ssg83
g1947
sg76
(lp1954
S'extension'
p1955
asbag69
(g90
g71
NtRp1956
(dp1957
g74
(dp1958
g101
g102
ssg83
g1947
sg76
(lp1959
S':'
asbag69
(g90
g71
NtRp1960
(dp1961
g74
(dp1962
sg83
g1947
sg76
(lp1963
g69
(g70
g71
NtRp1964
(dp1965
g74
(dp1966
g82
I5
ssg83
g1960
sg76
(lp1967
S'html'
p1968
asbasbasbag69
(g85
g71
NtRp1969
(dp1970
g74
(dp1971
sg83
g79
sg76
(lp1972
g69
(g90
g71
NtRp1973
(dp1974
g74
(dp1975
g94
g95
ssg83
g1969
sg76
(lp1976
S'folder'
p1977
asbag69
(g90
g71
NtRp1978
(dp1979
g74
(dp1980
g101
g102
ssg83
g1969
sg76
(lp1981
S':'
asbag69
(g90
g71
NtRp1982
(dp1983
g74
(dp1984
sg83
g1969
sg76
(lp1985
g69
(g70
g71
NtRp1986
(dp1987
g74
(dp1988
g82
I5
ssg83
g1982
sg76
(lp1989
S'/home/jayanthkaturi/web2py/applications/WSD/'
p1990
asbasbasbag69
(g85
g71
NtRp1991
(dp1992
g74
(dp1993
sg83
g79
sg76
(lp1994
g69
(g90
g71
NtRp1995
(dp1996
g74
(dp1997
g94
g95
ssg83
g1991
sg76
(lp1998
S'function'
p1999
asbag69
(g90
g71
NtRp2000
(dp2001
g74
(dp2002
g101
g102
ssg83
g1991
sg76
(lp2003
S':'
asbag69
(g90
g71
NtRp2004
(dp2005
g74
(dp2006
sg83
g1991
sg76
(lp2007
g69
(g70
g71
NtRp2008
(dp2009
g74
(dp2010
g82
I5
ssg83
g2004
sg76
(lp2011
S'word_select'
p2012
asbasbasbag69
(g85
g71
NtRp2013
(dp2014
g74
(dp2015
sg83
g79
sg76
(lp2016
g69
(g90
g71
NtRp2017
(dp2018
g74
(dp2019
g94
g95
ssg83
g2013
sg76
(lp2020
S'get_vars'
p2021
asbag69
(g90
g71
NtRp2022
(dp2023
g74
(dp2024
g101
g102
ssg83
g2013
sg76
(lp2025
S':'
asbag69
(g90
g71
NtRp2026
(dp2027
g74
(dp2028
sg83
g2013
sg76
(lp2029
g69
(g70
g71
NtRp2030
(dp2031
g74
(dp2032
g82
I5
ssg83
g2026
sg76
(lp2033
g69
(g78
g71
NtRp2034
(dp2035
g74
(dp2036
g82
I4
ssg83
Nsg76
(lp2037
g69
(g85
g71
NtRp2038
(dp2039
g74
(dp2040
sg83
g2034
sg76
(lp2041
g69
(g90
g71
NtRp2042
(dp2043
g74
(dp2044
g94
g95
ssg83
g2038
sg76
(lp2045
S'check'
p2046
asbag69
(g90
g71
NtRp2047
(dp2048
g74
(dp2049
g101
g102
ssg83
g2038
sg76
(lp2050
S':'
asbag69
(g90
g71
NtRp2051
(dp2052
g74
(dp2053
sg83
g2038
sg76
(lp2054
g69
(g70
g71
NtRp2055
(dp2056
g74
(dp2057
g82
I4
ssg83
g2051
sg76
(lp2058
S'1'
asbasbasbasbasbasbasbag69
(g85
g71
NtRp2059
(dp2060
g74
(dp2061
sg83
g79
sg76
(lp2062
g69
(g90
g71
NtRp2063
(dp2064
g74
(dp2065
g94
g95
ssg83
g2059
sg76
(lp2066
S'global_settings'
p2067
asbag69
(g90
g71
NtRp2068
(dp2069
g74
(dp2070
g101
g102
ssg83
g2059
sg76
(lp2071
S':'
asbag69
(g90
g71
NtRp2072
(dp2073
g74
(dp2074
sg83
g2059
sg76
(lp2075
g69
(g70
g71
NtRp2076
(dp2077
g74
(dp2078
g82
I5
ssg83
g2072
sg76
(lp2079
g69
(g78
g71
NtRp2080
(dp2081
g74
(dp2082
g82
I4
ssg83
Nsg76
(lp2083
g69
(g85
g71
NtRp2084
(dp2085
g74
(dp2086
sg83
g2080
sg76
(lp2087
g69
(g90
g71
NtRp2088
(dp2089
g74
(dp2090
g94
g95
ssg83
g2084
sg76
(lp2091
g1031
asbag69
(g90
g71
NtRp2092
(dp2093
g74
(dp2094
g101
g102
ssg83
g2084
sg76
(lp2095
S':'
asbag69
(g90
g71
NtRp2096
(dp2097
g74
(dp2098
sg83
g2084
sg76
(lp2099
g69
(g70
g71
NtRp2100
(dp2101
g74
(dp2102
g82
I4
ssg83
g2096
sg76
(lp2103
S"set(['/home/jayanthkaturi/web2py/applications/WSD/', '/home/jayanthkaturi/web2py/applications/welcome/', '/home/jayanthkaturi/web2py/applications/admin/'])"
p2104
asbasbasbag69
(g85
g71
NtRp2105
(dp2106
g74
(dp2107
sg83
g2080
sg76
(lp2108
g69
(g90
g71
NtRp2109
(dp2110
g74
(dp2111
g94
g95
ssg83
g2105
sg76
(lp2112
g1053
asbag69
(g90
g71
NtRp2113
(dp2114
g74
(dp2115
g101
g102
ssg83
g2105
sg76
(lp2116
S':'
asbag69
(g90
g71
NtRp2117
(dp2118
g74
(dp2119
sg83
g2105
sg76
(lp2120
g69
(g70
g71
NtRp2121
(dp2122
g74
(dp2123
g82
I4
ssg83
g2117
sg76
(lp2124
g1066
asbasbasbag69
(g85
g71
NtRp2125
(dp2126
g74
(dp2127
sg83
g2080
sg76
(lp2128
g69
(g90
g71
NtRp2129
(dp2130
g74
(dp2131
g94
g95
ssg83
g2125
sg76
(lp2132
g1075
asbag69
(g90
g71
NtRp2133
(dp2134
g74
(dp2135
g101
g102
ssg83
g2125
sg76
(lp2136
S':'
asbag69
(g90
g71
NtRp2137
(dp2138
g74
(dp2139
sg83
g2125
sg76
(lp2140
g69
(g70
g71
NtRp2141
(dp2142
g74
(dp2143
g82
I4
ssg83
g2137
sg76
(lp2144
g69
(g78
g71
NtRp2145
(dp2146
g74
(dp2147
g82
I3
ssg83
Nsg76
(lp2148
sbasbasbasbag69
(g85
g71
NtRp2149
(dp2150
g74
(dp2151
sg83
g2080
sg76
(lp2152
g69
(g90
g71
NtRp2153
(dp2154
g74
(dp2155
g94
g95
ssg83
g2149
sg76
(lp2156
g1100
asbag69
(g90
g71
NtRp2157
(dp2158
g74
(dp2159
g101
g102
ssg83
g2149
sg76
(lp2160
S':'
asbag69
(g90
g71
NtRp2161
(dp2162
g74
(dp2163
sg83
g2149
sg76
(lp2164
g69
(g70
g71
NtRp2165
(dp2166
g74
(dp2167
g82
I4
ssg83
g2161
sg76
(lp2168
S"<Values at 0xa764b0c: {'verbose': False, 'ip': '127.0.0.1', 'shutdown_timeout': 5, 'taskbar': False, 'port': 8000, 'maxthreads': None, 'softcron': False, 'server_name': 'ubuntu', 'bpython': False, 'nogui': False, 'nocron': False, 'extcron': False, 'debuglevel': 30, 'test': None, 'folder': '/home/jayanthkaturi/web2py', 'config': '', 'import_models': False, 'winservice': '', 'shell': None, 'run': '', 'log_filename': 'httpserver.log', 'args': [''], 'socket_timeout': 1, 'profiler_filename': None, 'ssl_private_key': '', 'password': '<ask>', 'request_queue_size': 5, 'ssl_certificate': '', 'cronjob': False, 'plain': False, 'quiet': False, 'interfaces': None, 'minthreads': None, 'timeout': 10, 'numthreads': None, 'nobanner': False, 'pid_filename': 'httpserver.pid'}>"
p2169
asbasbasbag69
(g85
g71
NtRp2170
(dp2171
g74
(dp2172
sg83
g2080
sg76
(lp2173
g69
(g90
g71
NtRp2174
(dp2175
g74
(dp2176
g94
g95
ssg83
g2170
sg76
(lp2177
g1122
asbag69
(g90
g71
NtRp2178
(dp2179
g74
(dp2180
g101
g102
ssg83
g2170
sg76
(lp2181
S':'
asbag69
(g90
g71
NtRp2182
(dp2183
g74
(dp2184
sg83
g2170
sg76
(lp2185
g69
(g70
g71
NtRp2186
(dp2187
g74
(dp2188
g82
I4
ssg83
g2182
sg76
(lp2189
S'set([])'
p2190
asbasbasbag69
(g85
g71
NtRp2191
(dp2192
g74
(dp2193
sg83
g2080
sg76
(lp2194
g69
(g90
g71
NtRp2195
(dp2196
g74
(dp2197
g94
g95
ssg83
g2191
sg76
(lp2198
g1144
asbag69
(g90
g71
NtRp2199
(dp2200
g74
(dp2201
g101
g102
ssg83
g2191
sg76
(lp2202
S':'
asbag69
(g90
g71
NtRp2203
(dp2204
g74
(dp2205
sg83
g2191
sg76
(lp2206
g69
(g70
g71
NtRp2207
(dp2208
g74
(dp2209
g82
I4
ssg83
g2203
sg76
(lp2210
g112
asbasbasbag69
(g85
g71
NtRp2211
(dp2212
g74
(dp2213
sg83
g2080
sg76
(lp2214
g69
(g90
g71
NtRp2215
(dp2216
g74
(dp2217
g94
g95
ssg83
g2211
sg76
(lp2218
g1165
asbag69
(g90
g71
NtRp2219
(dp2220
g74
(dp2221
g101
g102
ssg83
g2211
sg76
(lp2222
S':'
asbag69
(g90
g71
NtRp2223
(dp2224
g74
(dp2225
sg83
g2211
sg76
(lp2226
g69
(g70
g71
NtRp2227
(dp2228
g74
(dp2229
g82
I4
ssg83
g2223
sg76
(lp2230
g1178
asbasbasbag69
(g85
g71
NtRp2231
(dp2232
g74
(dp2233
sg83
g2080
sg76
(lp2234
g69
(g90
g71
NtRp2235
(dp2236
g74
(dp2237
g94
g95
ssg83
g2231
sg76
(lp2238
g1363
asbag69
(g90
g71
NtRp2239
(dp2240
g74
(dp2241
g101
g102
ssg83
g2231
sg76
(lp2242
S':'
asbag69
(g90
g71
NtRp2243
(dp2244
g74
(dp2245
sg83
g2231
sg76
(lp2246
g69
(g70
g71
NtRp2247
(dp2248
g74
(dp2249
g82
I4
ssg83
g2243
sg76
(lp2250
g112
asbasbasbag69
(g85
g71
NtRp2251
(dp2252
g74
(dp2253
sg83
g2080
sg76
(lp2254
g69
(g90
g71
NtRp2255
(dp2256
g74
(dp2257
g94
g95
ssg83
g2251
sg76
(lp2258
g1384
asbag69
(g90
g71
NtRp2259
(dp2260
g74
(dp2261
g101
g102
ssg83
g2251
sg76
(lp2262
S':'
asbag69
(g90
g71
NtRp2263
(dp2264
g74
(dp2265
sg83
g2251
sg76
(lp2266
g69
(g70
g71
NtRp2267
(dp2268
g74
(dp2269
g82
I4
ssg83
g2263
sg76
(lp2270
g112
asbasbasbag69
(g85
g71
NtRp2271
(dp2272
g74
(dp2273
sg83
g2080
sg76
(lp2274
g69
(g90
g71
NtRp2275
(dp2276
g74
(dp2277
g94
g95
ssg83
g2271
sg76
(lp2278
g1623
asbag69
(g90
g71
NtRp2279
(dp2280
g74
(dp2281
g101
g102
ssg83
g2271
sg76
(lp2282
S':'
asbag69
(g90
g71
NtRp2283
(dp2284
g74
(dp2285
sg83
g2271
sg76
(lp2286
g69
(g70
g71
NtRp2287
(dp2288
g74
(dp2289
g82
I4
ssg83
g2283
sg76
(lp2290
g1636
asbasbasbag69
(g85
g71
NtRp2291
(dp2292
g74
(dp2293
sg83
g2080
sg76
(lp2294
g69
(g90
g71
NtRp2295
(dp2296
g74
(dp2297
g94
g95
ssg83
g2291
sg76
(lp2298
g1666
asbag69
(g90
g71
NtRp2299
(dp2300
g74
(dp2301
g101
g102
ssg83
g2291
sg76
(lp2302
S':'
asbag69
(g90
g71
NtRp2303
(dp2304
g74
(dp2305
sg83
g2291
sg76
(lp2306
g69
(g70
g71
NtRp2307
(dp2308
g74
(dp2309
g82
I4
ssg83
g2303
sg76
(lp2310
g69
(g78
g71
NtRp2311
(dp2312
g74
(dp2313
g82
I3
ssg83
Nsg76
(lp2314
g69
(g85
g71
NtRp2315
(dp2316
g74
(dp2317
sg83
g2311
sg76
(lp2318
g69
(g90
g71
NtRp2319
(dp2320
g74
(dp2321
sg83
g2315
sg76
(lp2322
g69
(g70
g71
NtRp2323
(dp2324
g74
(dp2325
g82
I3
ssg83
g2319
sg76
(lp2326
S'1'
asbasbasbag69
(g85
g71
NtRp2327
(dp2328
g74
(dp2329
sg83
g2311
sg76
(lp2330
g69
(g90
g71
NtRp2331
(dp2332
g74
(dp2333
sg83
g2327
sg76
(lp2334
g69
(g70
g71
NtRp2335
(dp2336
g74
(dp2337
g82
I3
ssg83
g2331
sg76
(lp2338
S'99'
p2339
asbasbasbag69
(g85
g71
NtRp2340
(dp2341
g74
(dp2342
sg83
g2311
sg76
(lp2343
g69
(g90
g71
NtRp2344
(dp2345
g74
(dp2346
sg83
g2340
sg76
(lp2347
g69
(g70
g71
NtRp2348
(dp2349
g74
(dp2350
g82
I3
ssg83
g2344
sg76
(lp2351
S'4'
asbasbasbag69
(g85
g71
NtRp2352
(dp2353
g74
(dp2354
sg83
g2311
sg76
(lp2355
g69
(g90
g71
NtRp2356
(dp2357
g74
(dp2358
sg83
g2352
sg76
(lp2359
g69
(g70
g71
NtRp2360
(dp2361
g74
(dp2362
g82
I3
ssg83
g2356
sg76
(lp2363
S'datetime.datetime(2011, 12, 14, 14, 46, 14)'
p2364
asbasbasbag69
(g85
g71
NtRp2365
(dp2366
g74
(dp2367
sg83
g2311
sg76
(lp2368
g69
(g90
g71
NtRp2369
(dp2370
g74
(dp2371
sg83
g2365
sg76
(lp2372
g69
(g70
g71
NtRp2373
(dp2374
g74
(dp2375
g82
I3
ssg83
g2369
sg76
(lp2376
g1745
asbasbasbasbasbasbasbasbasbasbasbag69
(g85
g71
NtRp2377
(dp2378
g74
(dp2379
sg83
g79
sg76
(lp2380
g69
(g90
g71
NtRp2381
(dp2382
g74
(dp2383
g94
g95
ssg83
g2377
sg76
(lp2384
S'is_https'
p2385
asbag69
(g90
g71
NtRp2386
(dp2387
g74
(dp2388
g101
g102
ssg83
g2377
sg76
(lp2389
S':'
asbag69
(g90
g71
NtRp2390
(dp2391
g74
(dp2392
sg83
g2377
sg76
(lp2393
g69
(g70
g71
NtRp2394
(dp2395
g74
(dp2396
g82
I5
ssg83
g2390
sg76
(lp2397
g112
asbasbasbag69
(g85
g71
NtRp2398
(dp2399
g74
(dp2400
sg83
g79
sg76
(lp2401
g69
(g90
g71
NtRp2402
(dp2403
g74
(dp2404
g94
g95
ssg83
g2398
sg76
(lp2405
S'is_local'
p2406
asbag69
(g90
g71
NtRp2407
(dp2408
g74
(dp2409
g101
g102
ssg83
g2398
sg76
(lp2410
S':'
asbag69
(g90
g71
NtRp2411
(dp2412
g74
(dp2413
sg83
g2398
sg76
(lp2414
g69
(g70
g71
NtRp2415
(dp2416
g74
(dp2417
g82
I5
ssg83
g2411
sg76
(lp2418
g1854
asbasbasbag69
(g85
g71
NtRp2419
(dp2420
g74
(dp2421
sg83
g79
sg76
(lp2422
g69
(g90
g71
NtRp2423
(dp2424
g74
(dp2425
g94
g95
ssg83
g2419
sg76
(lp2426
S'is_restful'
p2427
asbag69
(g90
g71
NtRp2428
(dp2429
g74
(dp2430
g101
g102
ssg83
g2419
sg76
(lp2431
S':'
asbag69
(g90
g71
NtRp2432
(dp2433
g74
(dp2434
sg83
g2419
sg76
(lp2435
g69
(g70
g71
NtRp2436
(dp2437
g74
(dp2438
g82
I5
ssg83
g2432
sg76
(lp2439
g112
asbasbasbag69
(g85
g71
NtRp2440
(dp2441
g74
(dp2442
sg83
g79
sg76
(lp2443
g69
(g90
g71
NtRp2444
(dp2445
g74
(dp2446
g94
g95
ssg83
g2440
sg76
(lp2447
S'now'
p2448
asbag69
(g90
g71
NtRp2449
(dp2450
g74
(dp2451
g101
g102
ssg83
g2440
sg76
(lp2452
S':'
asbag69
(g90
g71
NtRp2453
(dp2454
g74
(dp2455
sg83
g2440
sg76
(lp2456
g69
(g70
g71
NtRp2457
(dp2458
g74
(dp2459
g82
I5
ssg83
g2453
sg76
(lp2460
S'datetime.datetime(2013, 11, 14, 21, 25, 57, 216746)'
p2461
asbasbasbag69
(g85
g71
NtRp2462
(dp2463
g74
(dp2464
sg83
g79
sg76
(lp2465
g69
(g90
g71
NtRp2466
(dp2467
g74
(dp2468
g94
g95
ssg83
g2462
sg76
(lp2469
S'post_vars'
p2470
asbag69
(g90
g71
NtRp2471
(dp2472
g74
(dp2473
g101
g102
ssg83
g2462
sg76
(lp2474
S':'
asbag69
(g90
g71
NtRp2475
(dp2476
g74
(dp2477
sg83
g2462
sg76
(lp2478
g69
(g70
g71
NtRp2479
(dp2480
g74
(dp2481
g82
I5
ssg83
g2475
sg76
(lp2482
g69
(g78
g71
NtRp2483
(dp2484
g74
(dp2485
g82
I4
ssg83
Nsg76
(lp2486
sbasbasbasbag69
(g85
g71
NtRp2487
(dp2488
g74
(dp2489
sg83
g79
sg76
(lp2490
g69
(g90
g71
NtRp2491
(dp2492
g74
(dp2493
g94
g95
ssg83
g2487
sg76
(lp2494
S'url'
p2495
asbag69
(g90
g71
NtRp2496
(dp2497
g74
(dp2498
g101
g102
ssg83
g2487
sg76
(lp2499
S':'
asbag69
(g90
g71
NtRp2500
(dp2501
g74
(dp2502
sg83
g2487
sg76
(lp2503
g69
(g70
g71
NtRp2504
(dp2505
g74
(dp2506
g82
I5
ssg83
g2500
sg76
(lp2507
S'/WSD/default/word_select'
p2508
asbasbasbag69
(g85
g71
NtRp2509
(dp2510
g74
(dp2511
sg83
g79
sg76
(lp2512
g69
(g90
g71
NtRp2513
(dp2514
g74
(dp2515
g94
g95
ssg83
g2509
sg76
(lp2516
S'utcnow'
p2517
asbag69
(g90
g71
NtRp2518
(dp2519
g74
(dp2520
g101
g102
ssg83
g2509
sg76
(lp2521
S':'
asbag69
(g90
g71
NtRp2522
(dp2523
g74
(dp2524
sg83
g2509
sg76
(lp2525
g69
(g70
g71
NtRp2526
(dp2527
g74
(dp2528
g82
I5
ssg83
g2522
sg76
(lp2529
S'datetime.datetime(2013, 11, 14, 15, 55, 57, 216816)'
p2530
asbasbasbag69
(g85
g71
NtRp2531
(dp2532
g74
(dp2533
sg83
g79
sg76
(lp2534
g69
(g90
g71
NtRp2535
(dp2536
g74
(dp2537
g94
g95
ssg83
g2531
sg76
(lp2538
S'uuid'
p2539
asbag69
(g90
g71
NtRp2540
(dp2541
g74
(dp2542
g101
g102
ssg83
g2531
sg76
(lp2543
S':'
asbag69
(g90
g71
NtRp2544
(dp2545
g74
(dp2546
sg83
g2531
sg76
(lp2547
g69
(g70
g71
NtRp2548
(dp2549
g74
(dp2550
g82
I5
ssg83
g2544
sg76
(lp2551
S'WSD/127.0.0.1.2013-11-14.21-25-57.1d4207b6-b91a-48f6-9fa5-72170c491c5f'
p2552
asbasbasbag69
(g85
g71
NtRp2553
(dp2554
g74
(dp2555
sg83
g79
sg76
(lp2556
g69
(g90
g71
NtRp2557
(dp2558
g74
(dp2559
g94
g95
ssg83
g2553
sg76
(lp2560
S'vars'
p2561
asbag69
(g90
g71
NtRp2562
(dp2563
g74
(dp2564
g101
g102
ssg83
g2553
sg76
(lp2565
S':'
asbag69
(g90
g71
NtRp2566
(dp2567
g74
(dp2568
sg83
g2553
sg76
(lp2569
g69
(g70
g71
NtRp2570
(dp2571
g74
(dp2572
g82
I5
ssg83
g2566
sg76
(lp2573
g69
(g78
g71
NtRp2574
(dp2575
g74
(dp2576
g82
I4
ssg83
Nsg76
(lp2577
g69
(g85
g71
NtRp2578
(dp2579
g74
(dp2580
sg83
g2574
sg76
(lp2581
g69
(g90
g71
NtRp2582
(dp2583
g74
(dp2584
g94
g95
ssg83
g2578
sg76
(lp2585
g2046
asbag69
(g90
g71
NtRp2586
(dp2587
g74
(dp2588
g101
g102
ssg83
g2578
sg76
(lp2589
S':'
asbag69
(g90
g71
NtRp2590
(dp2591
g74
(dp2592
sg83
g2578
sg76
(lp2593
g69
(g70
g71
NtRp2594
(dp2595
g74
(dp2596
g82
I4
ssg83
g2590
sg76
(lp2597
S'1'
asbasbasbasbasbasbasbag69
(g85
g71
NtRp2598
(dp2599
g74
(dp2600
sg83
g79
sg76
(lp2601
g69
(g90
g71
NtRp2602
(dp2603
g74
(dp2604
g94
g95
ssg83
g2598
sg76
(lp2605
S'wsgi'
p2606
asbag69
(g90
g71
NtRp2607
(dp2608
g74
(dp2609
g101
g102
ssg83
g2598
sg76
(lp2610
S':'
asbag69
(g90
g71
NtRp2611
(dp2612
g74
(dp2613
sg83
g2598
sg76
(lp2614
g69
(g70
g71
NtRp2615
(dp2616
g74
(dp2617
g82
I5
ssg83
g2611
sg76
(lp2618
g69
(g78
g71
NtRp2619
(dp2620
g74
(dp2621
g82
I4
ssg83
Nsg76
(lp2622
g69
(g85
g71
NtRp2623
(dp2624
g74
(dp2625
sg83
g2619
sg76
(lp2626
g69
(g90
g71
NtRp2627
(dp2628
g74
(dp2629
g94
g95
ssg83
g2623
sg76
(lp2630
S'environ'
p2631
asbag69
(g90
g71
NtRp2632
(dp2633
g74
(dp2634
g101
g102
ssg83
g2623
sg76
(lp2635
S':'
asbag69
(g90
g71
NtRp2636
(dp2637
g74
(dp2638
sg83
g2623
sg76
(lp2639
g69
(g70
g71
NtRp2640
(dp2641
g74
(dp2642
g82
I4
ssg83
g2636
sg76
(lp2643
g69
(g78
g71
NtRp2644
(dp2645
g74
(dp2646
g82
I3
ssg83
Nsg76
(lp2647
g69
(g85
g71
NtRp2648
(dp2649
g74
(dp2650
sg83
g2644
sg76
(lp2651
g69
(g90
g71
NtRp2652
(dp2653
g74
(dp2654
g94
g95
ssg83
g2648
sg76
(lp2655
S'HTTP_ACCEPT'
p2656
asbag69
(g90
g71
NtRp2657
(dp2658
g74
(dp2659
g101
g102
ssg83
g2648
sg76
(lp2660
S':'
asbag69
(g90
g71
NtRp2661
(dp2662
g74
(dp2663
sg83
g2648
sg76
(lp2664
g69
(g70
g71
NtRp2665
(dp2666
g74
(dp2667
g82
I3
ssg83
g2661
sg76
(lp2668
g1200
asbasbasbag69
(g85
g71
NtRp2669
(dp2670
g74
(dp2671
sg83
g2644
sg76
(lp2672
g69
(g90
g71
NtRp2673
(dp2674
g74
(dp2675
g94
g95
ssg83
g2669
sg76
(lp2676
S'HTTP_ACCEPT_ENCODING'
p2677
asbag69
(g90
g71
NtRp2678
(dp2679
g74
(dp2680
g101
g102
ssg83
g2669
sg76
(lp2681
S':'
asbag69
(g90
g71
NtRp2682
(dp2683
g74
(dp2684
sg83
g2669
sg76
(lp2685
g69
(g70
g71
NtRp2686
(dp2687
g74
(dp2688
g82
I3
ssg83
g2682
sg76
(lp2689
g1222
asbasbasbag69
(g85
g71
NtRp2690
(dp2691
g74
(dp2692
sg83
g2644
sg76
(lp2693
g69
(g90
g71
NtRp2694
(dp2695
g74
(dp2696
g94
g95
ssg83
g2690
sg76
(lp2697
S'HTTP_ACCEPT_LANGUAGE'
p2698
asbag69
(g90
g71
NtRp2699
(dp2700
g74
(dp2701
g101
g102
ssg83
g2690
sg76
(lp2702
S':'
asbag69
(g90
g71
NtRp2703
(dp2704
g74
(dp2705
sg83
g2690
sg76
(lp2706
g69
(g70
g71
NtRp2707
(dp2708
g74
(dp2709
g82
I3
ssg83
g2703
sg76
(lp2710
g1244
asbasbasbag69
(g85
g71
NtRp2711
(dp2712
g74
(dp2713
sg83
g2644
sg76
(lp2714
g69
(g90
g71
NtRp2715
(dp2716
g74
(dp2717
g94
g95
ssg83
g2711
sg76
(lp2718
S'HTTP_CONNECTION'
p2719
asbag69
(g90
g71
NtRp2720
(dp2721
g74
(dp2722
g101
g102
ssg83
g2711
sg76
(lp2723
S':'
asbag69
(g90
g71
NtRp2724
(dp2725
g74
(dp2726
sg83
g2711
sg76
(lp2727
g69
(g70
g71
NtRp2728
(dp2729
g74
(dp2730
g82
I3
ssg83
g2724
sg76
(lp2731
g1266
asbasbasbag69
(g85
g71
NtRp2732
(dp2733
g74
(dp2734
sg83
g2644
sg76
(lp2735
g69
(g90
g71
NtRp2736
(dp2737
g74
(dp2738
g94
g95
ssg83
g2732
sg76
(lp2739
S'HTTP_COOKIE'
p2740
asbag69
(g90
g71
NtRp2741
(dp2742
g74
(dp2743
g101
g102
ssg83
g2732
sg76
(lp2744
S':'
asbag69
(g90
g71
NtRp2745
(dp2746
g74
(dp2747
sg83
g2732
sg76
(lp2748
g69
(g70
g71
NtRp2749
(dp2750
g74
(dp2751
g82
I3
ssg83
g2745
sg76
(lp2752
g1288
asbasbasbag69
(g85
g71
NtRp2753
(dp2754
g74
(dp2755
sg83
g2644
sg76
(lp2756
g69
(g90
g71
NtRp2757
(dp2758
g74
(dp2759
g94
g95
ssg83
g2753
sg76
(lp2760
S'HTTP_HOST'
p2761
asbag69
(g90
g71
NtRp2762
(dp2763
g74
(dp2764
g101
g102
ssg83
g2753
sg76
(lp2765
S':'
asbag69
(g90
g71
NtRp2766
(dp2767
g74
(dp2768
sg83
g2753
sg76
(lp2769
g69
(g70
g71
NtRp2770
(dp2771
g74
(dp2772
g82
I3
ssg83
g2766
sg76
(lp2773
g1310
asbasbasbag69
(g85
g71
NtRp2774
(dp2775
g74
(dp2776
sg83
g2644
sg76
(lp2777
g69
(g90
g71
NtRp2778
(dp2779
g74
(dp2780
g94
g95
ssg83
g2774
sg76
(lp2781
S'HTTP_REFERER'
p2782
asbag69
(g90
g71
NtRp2783
(dp2784
g74
(dp2785
g101
g102
ssg83
g2774
sg76
(lp2786
S':'
asbag69
(g90
g71
NtRp2787
(dp2788
g74
(dp2789
sg83
g2774
sg76
(lp2790
g69
(g70
g71
NtRp2791
(dp2792
g74
(dp2793
g82
I3
ssg83
g2787
sg76
(lp2794
g1332
asbasbasbag69
(g85
g71
NtRp2795
(dp2796
g74
(dp2797
sg83
g2644
sg76
(lp2798
g69
(g90
g71
NtRp2799
(dp2800
g74
(dp2801
g94
g95
ssg83
g2795
sg76
(lp2802
S'HTTP_USER_AGENT'
p2803
asbag69
(g90
g71
NtRp2804
(dp2805
g74
(dp2806
g101
g102
ssg83
g2795
sg76
(lp2807
S':'
asbag69
(g90
g71
NtRp2808
(dp2809
g74
(dp2810
sg83
g2795
sg76
(lp2811
g69
(g70
g71
NtRp2812
(dp2813
g74
(dp2814
g82
I3
ssg83
g2808
sg76
(lp2815
g1354
asbasbasbag69
(g85
g71
NtRp2816
(dp2817
g74
(dp2818
sg83
g2644
sg76
(lp2819
g69
(g90
g71
NtRp2820
(dp2821
g74
(dp2822
g94
g95
ssg83
g2816
sg76
(lp2823
S'PATH_INFO'
p2824
asbag69
(g90
g71
NtRp2825
(dp2826
g74
(dp2827
g101
g102
ssg83
g2816
sg76
(lp2828
S':'
asbag69
(g90
g71
NtRp2829
(dp2830
g74
(dp2831
sg83
g2816
sg76
(lp2832
g69
(g70
g71
NtRp2833
(dp2834
g74
(dp2835
g82
I3
ssg83
g2829
sg76
(lp2836
g1418
asbasbasbag69
(g85
g71
NtRp2837
(dp2838
g74
(dp2839
sg83
g2644
sg76
(lp2840
g69
(g90
g71
NtRp2841
(dp2842
g74
(dp2843
g94
g95
ssg83
g2837
sg76
(lp2844
S'QUERY_STRING'
p2845
asbag69
(g90
g71
NtRp2846
(dp2847
g74
(dp2848
g101
g102
ssg83
g2837
sg76
(lp2849
S':'
asbag69
(g90
g71
NtRp2850
(dp2851
g74
(dp2852
sg83
g2837
sg76
(lp2853
g69
(g70
g71
NtRp2854
(dp2855
g74
(dp2856
g82
I3
ssg83
g2850
sg76
(lp2857
g1440
asbasbasbag69
(g85
g71
NtRp2858
(dp2859
g74
(dp2860
sg83
g2644
sg76
(lp2861
g69
(g90
g71
NtRp2862
(dp2863
g74
(dp2864
g94
g95
ssg83
g2858
sg76
(lp2865
S'REMOTE_ADDR'
p2866
asbag69
(g90
g71
NtRp2867
(dp2868
g74
(dp2869
g101
g102
ssg83
g2858
sg76
(lp2870
S':'
asbag69
(g90
g71
NtRp2871
(dp2872
g74
(dp2873
sg83
g2858
sg76
(lp2874
g69
(g70
g71
NtRp2875
(dp2876
g74
(dp2877
g82
I3
ssg83
g2871
sg76
(lp2878
g202
asbasbasbag69
(g85
g71
NtRp2879
(dp2880
g74
(dp2881
sg83
g2644
sg76
(lp2882
g69
(g90
g71
NtRp2883
(dp2884
g74
(dp2885
g94
g95
ssg83
g2879
sg76
(lp2886
S'REMOTE_PORT'
p2887
asbag69
(g90
g71
NtRp2888
(dp2889
g74
(dp2890
g101
g102
ssg83
g2879
sg76
(lp2891
S':'
asbag69
(g90
g71
NtRp2892
(dp2893
g74
(dp2894
sg83
g2879
sg76
(lp2895
g69
(g70
g71
NtRp2896
(dp2897
g74
(dp2898
g82
I3
ssg83
g2892
sg76
(lp2899
g1483
asbasbasbag69
(g85
g71
NtRp2900
(dp2901
g74
(dp2902
sg83
g2644
sg76
(lp2903
g69
(g90
g71
NtRp2904
(dp2905
g74
(dp2906
g94
g95
ssg83
g2900
sg76
(lp2907
S'REQUEST_METHOD'
p2908
asbag69
(g90
g71
NtRp2909
(dp2910
g74
(dp2911
g101
g102
ssg83
g2900
sg76
(lp2912
S':'
asbag69
(g90
g71
NtRp2913
(dp2914
g74
(dp2915
sg83
g2900
sg76
(lp2916
g69
(g70
g71
NtRp2917
(dp2918
g74
(dp2919
g82
I3
ssg83
g2913
sg76
(lp2920
g1505
asbasbasbag69
(g85
g71
NtRp2921
(dp2922
g74
(dp2923
sg83
g2644
sg76
(lp2924
g69
(g90
g71
NtRp2925
(dp2926
g74
(dp2927
g94
g95
ssg83
g2921
sg76
(lp2928
S'SCRIPT_NAME'
p2929
asbag69
(g90
g71
NtRp2930
(dp2931
g74
(dp2932
g101
g102
ssg83
g2921
sg76
(lp2933
S':'
asbag69
(g90
g71
NtRp2934
(dp2935
g74
(dp2936
sg83
g2921
sg76
(lp2937
g69
(g70
g71
NtRp2938
(dp2939
g74
(dp2940
g82
I3
ssg83
g2934
sg76
(lp2941
S''
asbasbasbag69
(g85
g71
NtRp2942
(dp2943
g74
(dp2944
sg83
g2644
sg76
(lp2945
g69
(g90
g71
NtRp2946
(dp2947
g74
(dp2948
g94
g95
ssg83
g2942
sg76
(lp2949
S'SERVER_NAME'
p2950
asbag69
(g90
g71
NtRp2951
(dp2952
g74
(dp2953
g101
g102
ssg83
g2942
sg76
(lp2954
S':'
asbag69
(g90
g71
NtRp2955
(dp2956
g74
(dp2957
sg83
g2942
sg76
(lp2958
g69
(g70
g71
NtRp2959
(dp2960
g74
(dp2961
g82
I3
ssg83
g2955
sg76
(lp2962
g1548
asbasbasbag69
(g85
g71
NtRp2963
(dp2964
g74
(dp2965
sg83
g2644
sg76
(lp2966
g69
(g90
g71
NtRp2967
(dp2968
g74
(dp2969
g94
g95
ssg83
g2963
sg76
(lp2970
S'SERVER_PORT'
p2971
asbag69
(g90
g71
NtRp2972
(dp2973
g74
(dp2974
g101
g102
ssg83
g2963
sg76
(lp2975
S':'
asbag69
(g90
g71
NtRp2976
(dp2977
g74
(dp2978
sg83
g2963
sg76
(lp2979
g69
(g70
g71
NtRp2980
(dp2981
g74
(dp2982
g82
I3
ssg83
g2976
sg76
(lp2983
g1570
asbasbasbag69
(g85
g71
NtRp2984
(dp2985
g74
(dp2986
sg83
g2644
sg76
(lp2987
g69
(g90
g71
NtRp2988
(dp2989
g74
(dp2990
g94
g95
ssg83
g2984
sg76
(lp2991
S'SERVER_PROTOCOL'
p2992
asbag69
(g90
g71
NtRp2993
(dp2994
g74
(dp2995
g101
g102
ssg83
g2984
sg76
(lp2996
S':'
asbag69
(g90
g71
NtRp2997
(dp2998
g74
(dp2999
sg83
g2984
sg76
(lp3000
g69
(g70
g71
NtRp3001
(dp3002
g74
(dp3003
g82
I3
ssg83
g2997
sg76
(lp3004
g1592
asbasbasbag69
(g85
g71
NtRp3005
(dp3006
g74
(dp3007
sg83
g2644
sg76
(lp3008
g69
(g90
g71
NtRp3009
(dp3010
g74
(dp3011
g94
g95
ssg83
g3005
sg76
(lp3012
S'SERVER_SOFTWARE'
p3013
asbag69
(g90
g71
NtRp3014
(dp3015
g74
(dp3016
g101
g102
ssg83
g3005
sg76
(lp3017
S':'
asbag69
(g90
g71
NtRp3018
(dp3019
g74
(dp3020
sg83
g3005
sg76
(lp3021
g69
(g70
g71
NtRp3022
(dp3023
g74
(dp3024
g82
I3
ssg83
g3018
sg76
(lp3025
g1614
asbasbasbag69
(g85
g71
NtRp3026
(dp3027
g74
(dp3028
sg83
g2644
sg76
(lp3029
g69
(g90
g71
NtRp3030
(dp3031
g74
(dp3032
g94
g95
ssg83
g3026
sg76
(lp3033
S'wsgi.errors'
p3034
asbag69
(g90
g71
NtRp3035
(dp3036
g74
(dp3037
g101
g102
ssg83
g3026
sg76
(lp3038
S':'
asbag69
(g90
g71
NtRp3039
(dp3040
g74
(dp3041
sg83
g3026
sg76
(lp3042
g69
(g70
g71
NtRp3043
(dp3044
g74
(dp3045
g82
I3
ssg83
g3039
sg76
(lp3046
S"<open file '<stderr>', mode 'w' at 0xb72d30d0>"
p3047
asbasbasbag69
(g85
g71
NtRp3048
(dp3049
g74
(dp3050
sg83
g2644
sg76
(lp3051
g69
(g90
g71
NtRp3052
(dp3053
g74
(dp3054
g94
g95
ssg83
g3048
sg76
(lp3055
S'wsgi.file_wrapper'
p3056
asbag69
(g90
g71
NtRp3057
(dp3058
g74
(dp3059
g101
g102
ssg83
g3048
sg76
(lp3060
S':'
asbag69
(g90
g71
NtRp3061
(dp3062
g74
(dp3063
sg83
g3048
sg76
(lp3064
g69
(g70
g71
NtRp3065
(dp3066
g74
(dp3067
g82
I3
ssg83
g3061
sg76
(lp3068
S'<class wsgiref.util.FileWrapper at 0xa70e53c>'
p3069
asbasbasbag69
(g85
g71
NtRp3070
(dp3071
g74
(dp3072
sg83
g2644
sg76
(lp3073
g69
(g90
g71
NtRp3074
(dp3075
g74
(dp3076
g94
g95
ssg83
g3070
sg76
(lp3077
S'wsgi.input'
p3078
asbag69
(g90
g71
NtRp3079
(dp3080
g74
(dp3081
g101
g102
ssg83
g3070
sg76
(lp3082
S':'
asbag69
(g90
g71
NtRp3083
(dp3084
g74
(dp3085
sg83
g3070
sg76
(lp3086
g69
(g70
g71
NtRp3087
(dp3088
g74
(dp3089
g82
I3
ssg83
g3083
sg76
(lp3090
S'<cStringIO.StringO object at 0xab7a73e0>'
p3091
asbasbasbag69
(g85
g71
NtRp3092
(dp3093
g74
(dp3094
sg83
g2644
sg76
(lp3095
g69
(g90
g71
NtRp3096
(dp3097
g74
(dp3098
g94
g95
ssg83
g3092
sg76
(lp3099
S'wsgi.multiprocess'
p3100
asbag69
(g90
g71
NtRp3101
(dp3102
g74
(dp3103
g101
g102
ssg83
g3092
sg76
(lp3104
S':'
asbag69
(g90
g71
NtRp3105
(dp3106
g74
(dp3107
sg83
g3092
sg76
(lp3108
g69
(g70
g71
NtRp3109
(dp3110
g74
(dp3111
g82
I3
ssg83
g3105
sg76
(lp3112
g112
asbasbasbag69
(g85
g71
NtRp3113
(dp3114
g74
(dp3115
sg83
g2644
sg76
(lp3116
g69
(g90
g71
NtRp3117
(dp3118
g74
(dp3119
g94
g95
ssg83
g3113
sg76
(lp3120
S'wsgi.multithread'
p3121
asbag69
(g90
g71
NtRp3122
(dp3123
g74
(dp3124
g101
g102
ssg83
g3113
sg76
(lp3125
S':'
asbag69
(g90
g71
NtRp3126
(dp3127
g74
(dp3128
sg83
g3113
sg76
(lp3129
g69
(g70
g71
NtRp3130
(dp3131
g74
(dp3132
g82
I3
ssg83
g3126
sg76
(lp3133
g1854
asbasbasbag69
(g85
g71
NtRp3134
(dp3135
g74
(dp3136
sg83
g2644
sg76
(lp3137
g69
(g90
g71
NtRp3138
(dp3139
g74
(dp3140
g94
g95
ssg83
g3134
sg76
(lp3141
S'wsgi.run_once'
p3142
asbag69
(g90
g71
NtRp3143
(dp3144
g74
(dp3145
g101
g102
ssg83
g3134
sg76
(lp3146
S':'
asbag69
(g90
g71
NtRp3147
(dp3148
g74
(dp3149
sg83
g3134
sg76
(lp3150
g69
(g70
g71
NtRp3151
(dp3152
g74
(dp3153
g82
I3
ssg83
g3147
sg76
(lp3154
g112
asbasbasbag69
(g85
g71
NtRp3155
(dp3156
g74
(dp3157
sg83
g2644
sg76
(lp3158
g69
(g90
g71
NtRp3159
(dp3160
g74
(dp3161
g94
g95
ssg83
g3155
sg76
(lp3162
S'wsgi.url_scheme'
p3163
asbag69
(g90
g71
NtRp3164
(dp3165
g74
(dp3166
g101
g102
ssg83
g3155
sg76
(lp3167
S':'
asbag69
(g90
g71
NtRp3168
(dp3169
g74
(dp3170
sg83
g3155
sg76
(lp3171
g69
(g70
g71
NtRp3172
(dp3173
g74
(dp3174
g82
I3
ssg83
g3168
sg76
(lp3175
g1897
asbasbasbag69
(g85
g71
NtRp3176
(dp3177
g74
(dp3178
sg83
g2644
sg76
(lp3179
g69
(g90
g71
NtRp3180
(dp3181
g74
(dp3182
g94
g95
ssg83
g3176
sg76
(lp3183
S'wsgi.version'
p3184
asbag69
(g90
g71
NtRp3185
(dp3186
g74
(dp3187
g101
g102
ssg83
g3176
sg76
(lp3188
S':'
asbag69
(g90
g71
NtRp3189
(dp3190
g74
(dp3191
sg83
g3176
sg76
(lp3192
g69
(g70
g71
NtRp3193
(dp3194
g74
(dp3195
g82
I3
ssg83
g3189
sg76
(lp3196
S'1'
asbasbasbasbasbasbasbasbasbasbasbasbasbsS'frames'
p3197
(lp3198
(dp3199
S'file'
p3200
S'/usr/lib/pymodules/python2.7/gluon/restricted.py'
p3201
sS'dump'
p3202
(dp3203
S'code'
p3204
S'\'response.write("<style>\\\\n\\\\n   \\\\n    .myButton {\\\\...d footer -->\\\\n </body>\\\\n</html>\\\\n\\\', escape=False)\''
p3205
sS'layer'
p3206
S"'/home/jayanthkaturi/web2py/applications/WSD/views/default/word_select.html'"
p3207
sS'global compile2'
p3208
S'<function compile2>'
p3209
sS'ccode'
p3210
S'undefined'
p3211
ssS'lnum'
p3212
I203
sS'lines'
p3213
(dp3214
I198
S"    environment['__file__'] = layer"
p3215
sI199
S'    try:'
p3216
sI200
S'        if type(code) == types.CodeType:'
p3217
sI201
S'            ccode = code'
p3218
sI202
S'        else:'
p3219
sI203
S'            ccode = compile2(code,layer)'
p3220
sI204
S'        exec ccode in environment'
p3221
sI205
S'    except HTTP:'
p3222
sI206
S'        raise'
p3223
sI207
S'    except RestrictedError:'
p3224
ssS'call'
p3225
S'(code=\'response.write("<style>\\\\n\\\\n   \\\\n    .myButton {\\\\...d footer -->\\\\n </body>\\\\n</html>\\\\n\\\', escape=False)\', environment={\'A\': <class \'gluon.html.A\'>, \'Auth\': <class \'gluon.tools.Auth\'>, \'B\': <class \'gluon.html.B\'>, \'BEAUTIFY\': <class \'gluon.html.BEAUTIFY\'>, \'BODY\': <class \'gluon.html.BODY\'>, \'BR\': <class \'gluon.html.BR\'>, \'BUTTON\': <class \'gluon.html.BUTTON\'>, \'CAT\': <class \'gluon.html.CAT\'>, \'CENTER\': <class \'gluon.html.CENTER\'>, \'CLEANUP\': <class \'gluon.validators.CLEANUP\'>, ...}, layer=\'/home/jayanthkaturi/web2py/applications/WSD/views/default/word_select.html\')'
p3226
sS'func'
p3227
S'restricted'
p3228
sa(dp3229
g3200
S'/usr/lib/pymodules/python2.7/gluon/restricted.py'
p3230
sg3202
(dp3231
S'builtincompile'
p3232
S'<built-in function compile>'
p3233
sS'code'
p3234
S'\'response.write("<style>\\\\n\\\\n   \\\\n    .myButton {\\\\...d footer -->\\\\n </body>\\\\n</html>\\\\n\\\', escape=False)\''
p3235
sS'code.rstrip'
p3236
S'<built-in method rstrip of str object>'
p3237
sS').replace'
p3238
g3211
sS'layer'
p3239
S"'/home/jayanthkaturi/web2py/applications/WSD/views/default/word_select.html'"
p3240
ssg3212
I189
sg3213
(dp3241
I192
S'    """'
p3242
sI193
S'    runs code in environment and returns the output. if an exception occurs'
p3243
sI184
S''
sI185
S'def compile2(code,layer):'
p3244
sI186
S'    """'
p3245
sI187
S"    The +'\\n' is necessary else compile fails when code ends in a comment."
p3246
sI188
S'    """'
p3247
sI189
S"    return compile(code.rstrip().replace('\\r\\n','\\n')+'\\n', layer, 'exec')"
p3248
sI190
S''
sI191
S"def restricted(code, environment=None, layer='Unknown'):"
p3249
ssg3225
S'(code=\'response.write("<style>\\\\n\\\\n   \\\\n    .myButton {\\\\...d footer -->\\\\n </body>\\\\n</html>\\\\n\\\', escape=False)\', layer=\'/home/jayanthkaturi/web2py/applications/WSD/views/default/word_select.html\')'
p3250
sg3227
S'compile2'
p3251
sasS'pyver'
p3252
S'Python 2.7.3: /usr/bin/python'
p3253
sS'session'
p3254
g69
(g70
g71
NtRp3255
(dp3256
g74
(dp3257
sg76
(lp3258
g69
(g78
g71
NtRp3259
(dp3260
g74
(dp3261
g82
I5
ssg83
Nsg76
(lp3262
g69
(g85
g71
NtRp3263
(dp3264
g74
(dp3265
sg83
g3259
sg76
(lp3266
g69
(g90
g71
NtRp3267
(dp3268
g74
(dp3269
g94
g95
ssg83
g3263
sg76
(lp3270
S'auth'
p3271
asbag69
(g90
g71
NtRp3272
(dp3273
g74
(dp3274
g101
g102
ssg83
g3263
sg76
(lp3275
S':'
asbag69
(g90
g71
NtRp3276
(dp3277
g74
(dp3278
sg83
g3263
sg76
(lp3279
g69
(g70
g71
NtRp3280
(dp3281
g74
(dp3282
g82
I5
ssg83
g3276
sg76
(lp3283
g69
(g78
g71
NtRp3284
(dp3285
g74
(dp3286
g82
I4
ssg83
Nsg76
(lp3287
g69
(g85
g71
NtRp3288
(dp3289
g74
(dp3290
sg83
g3284
sg76
(lp3291
g69
(g90
g71
NtRp3292
(dp3293
g74
(dp3294
g94
g95
ssg83
g3288
sg76
(lp3295
S'expiration'
p3296
asbag69
(g90
g71
NtRp3297
(dp3298
g74
(dp3299
g101
g102
ssg83
g3288
sg76
(lp3300
S':'
asbag69
(g90
g71
NtRp3301
(dp3302
g74
(dp3303
sg83
g3288
sg76
(lp3304
g69
(g70
g71
NtRp3305
(dp3306
g74
(dp3307
g82
I4
ssg83
g3301
sg76
(lp3308
S'2592000'
p3309
asbasbasbag69
(g85
g71
NtRp3310
(dp3311
g74
(dp3312
sg83
g3284
sg76
(lp3313
g69
(g90
g71
NtRp3314
(dp3315
g74
(dp3316
g94
g95
ssg83
g3310
sg76
(lp3317
S'hmac_key'
p3318
asbag69
(g90
g71
NtRp3319
(dp3320
g74
(dp3321
g101
g102
ssg83
g3310
sg76
(lp3322
S':'
asbag69
(g90
g71
NtRp3323
(dp3324
g74
(dp3325
sg83
g3310
sg76
(lp3326
g69
(g70
g71
NtRp3327
(dp3328
g74
(dp3329
g82
I4
ssg83
g3323
sg76
(lp3330
S'725acb6f-a8a0-4bde-8603-43c62b9fa80a'
p3331
asbasbasbag69
(g85
g71
NtRp3332
(dp3333
g74
(dp3334
sg83
g3284
sg76
(lp3335
g69
(g90
g71
NtRp3336
(dp3337
g74
(dp3338
g94
g95
ssg83
g3332
sg76
(lp3339
S'last_visit'
p3340
asbag69
(g90
g71
NtRp3341
(dp3342
g74
(dp3343
g101
g102
ssg83
g3332
sg76
(lp3344
S':'
asbag69
(g90
g71
NtRp3345
(dp3346
g74
(dp3347
sg83
g3332
sg76
(lp3348
g69
(g70
g71
NtRp3349
(dp3350
g74
(dp3351
g82
I4
ssg83
g3345
sg76
(lp3352
S'datetime.datetime(2013, 11, 14, 21, 18, 55, 365353)'
p3353
asbasbasbag69
(g85
g71
NtRp3354
(dp3355
g74
(dp3356
sg83
g3284
sg76
(lp3357
g69
(g90
g71
NtRp3358
(dp3359
g74
(dp3360
g94
g95
ssg83
g3354
sg76
(lp3361
S'remember'
p3362
asbag69
(g90
g71
NtRp3363
(dp3364
g74
(dp3365
g101
g102
ssg83
g3354
sg76
(lp3366
S':'
asbag69
(g90
g71
NtRp3367
(dp3368
g74
(dp3369
sg83
g3354
sg76
(lp3370
g69
(g70
g71
NtRp3371
(dp3372
g74
(dp3373
g82
I4
ssg83
g3367
sg76
(lp3374
g112
asbasbasbag69
(g85
g71
NtRp3375
(dp3376
g74
(dp3377
sg83
g3284
sg76
(lp3378
g69
(g90
g71
NtRp3379
(dp3380
g74
(dp3381
g94
g95
ssg83
g3375
sg76
(lp3382
S'user'
p3383
asbag69
(g90
g71
NtRp3384
(dp3385
g74
(dp3386
g101
g102
ssg83
g3375
sg76
(lp3387
S':'
asbag69
(g90
g71
NtRp3388
(dp3389
g74
(dp3390
sg83
g3375
sg76
(lp3391
g69
(g70
g71
NtRp3392
(dp3393
g74
(dp3394
g82
I4
ssg83
g3388
sg76
(lp3395
g69
(g78
g71
NtRp3396
(dp3397
g74
(dp3398
g82
I3
ssg83
Nsg76
(lp3399
g69
(g85
g71
NtRp3400
(dp3401
g74
(dp3402
sg83
g3396
sg76
(lp3403
g69
(g90
g71
NtRp3404
(dp3405
g74
(dp3406
g94
g95
ssg83
g3400
sg76
(lp3407
S'email'
p3408
asbag69
(g90
g71
NtRp3409
(dp3410
g74
(dp3411
g101
g102
ssg83
g3400
sg76
(lp3412
S':'
asbag69
(g90
g71
NtRp3413
(dp3414
g74
(dp3415
sg83
g3400
sg76
(lp3416
g69
(g70
g71
NtRp3417
(dp3418
g74
(dp3419
g82
I3
ssg83
g3413
sg76
(lp3420
S'root@sys.com'
p3421
asbasbasbag69
(g85
g71
NtRp3422
(dp3423
g74
(dp3424
sg83
g3396
sg76
(lp3425
g69
(g90
g71
NtRp3426
(dp3427
g74
(dp3428
g94
g95
ssg83
g3422
sg76
(lp3429
S'first_name'
p3430
asbag69
(g90
g71
NtRp3431
(dp3432
g74
(dp3433
g101
g102
ssg83
g3422
sg76
(lp3434
S':'
asbag69
(g90
g71
NtRp3435
(dp3436
g74
(dp3437
sg83
g3422
sg76
(lp3438
g69
(g70
g71
NtRp3439
(dp3440
g74
(dp3441
g82
I3
ssg83
g3435
sg76
(lp3442
S'root'
p3443
asbasbasbag69
(g85
g71
NtRp3444
(dp3445
g74
(dp3446
sg83
g3396
sg76
(lp3447
g69
(g90
g71
NtRp3448
(dp3449
g74
(dp3450
g94
g95
ssg83
g3444
sg76
(lp3451
S'id'
p3452
asbag69
(g90
g71
NtRp3453
(dp3454
g74
(dp3455
g101
g102
ssg83
g3444
sg76
(lp3456
S':'
asbag69
(g90
g71
NtRp3457
(dp3458
g74
(dp3459
sg83
g3444
sg76
(lp3460
g69
(g70
g71
NtRp3461
(dp3462
g74
(dp3463
g82
I3
ssg83
g3457
sg76
(lp3464
S'4'
asbasbasbag69
(g85
g71
NtRp3465
(dp3466
g74
(dp3467
sg83
g3396
sg76
(lp3468
g69
(g90
g71
NtRp3469
(dp3470
g74
(dp3471
g94
g95
ssg83
g3465
sg76
(lp3472
S'last_name'
p3473
asbag69
(g90
g71
NtRp3474
(dp3475
g74
(dp3476
g101
g102
ssg83
g3465
sg76
(lp3477
S':'
asbag69
(g90
g71
NtRp3478
(dp3479
g74
(dp3480
sg83
g3465
sg76
(lp3481
g69
(g70
g71
NtRp3482
(dp3483
g74
(dp3484
g82
I3
ssg83
g3478
sg76
(lp3485
S'root'
p3486
asbasbasbag69
(g85
g71
NtRp3487
(dp3488
g74
(dp3489
sg83
g3396
sg76
(lp3490
g69
(g90
g71
NtRp3491
(dp3492
g74
(dp3493
g94
g95
ssg83
g3487
sg76
(lp3494
S'password'
p3495
asbag69
(g90
g71
NtRp3496
(dp3497
g74
(dp3498
g101
g102
ssg83
g3487
sg76
(lp3499
S':'
asbag69
(g90
g71
NtRp3500
(dp3501
g74
(dp3502
sg83
g3487
sg76
(lp3503
g69
(g70
g71
NtRp3504
(dp3505
g74
(dp3506
g82
I3
ssg83
g3500
sg76
(lp3507
S'486cce7e7cb0ce2148454f1917fbc2fa'
p3508
asbasbasbag69
(g85
g71
NtRp3509
(dp3510
g74
(dp3511
sg83
g3396
sg76
(lp3512
g69
(g90
g71
NtRp3513
(dp3514
g74
(dp3515
g94
g95
ssg83
g3509
sg76
(lp3516
S'registration_id'
p3517
asbag69
(g90
g71
NtRp3518
(dp3519
g74
(dp3520
g101
g102
ssg83
g3509
sg76
(lp3521
S':'
asbag69
(g90
g71
NtRp3522
(dp3523
g74
(dp3524
sg83
g3509
sg76
(lp3525
g69
(g70
g71
NtRp3526
(dp3527
g74
(dp3528
g82
I3
ssg83
g3522
sg76
(lp3529
S''
asbasbasbag69
(g85
g71
NtRp3530
(dp3531
g74
(dp3532
sg83
g3396
sg76
(lp3533
g69
(g90
g71
NtRp3534
(dp3535
g74
(dp3536
g94
g95
ssg83
g3530
sg76
(lp3537
S'registration_key'
p3538
asbag69
(g90
g71
NtRp3539
(dp3540
g74
(dp3541
g101
g102
ssg83
g3530
sg76
(lp3542
S':'
asbag69
(g90
g71
NtRp3543
(dp3544
g74
(dp3545
sg83
g3530
sg76
(lp3546
g69
(g70
g71
NtRp3547
(dp3548
g74
(dp3549
g82
I3
ssg83
g3543
sg76
(lp3550
S''
asbasbasbag69
(g85
g71
NtRp3551
(dp3552
g74
(dp3553
sg83
g3396
sg76
(lp3554
g69
(g90
g71
NtRp3555
(dp3556
g74
(dp3557
g94
g95
ssg83
g3551
sg76
(lp3558
S'reset_password_key'
p3559
asbag69
(g90
g71
NtRp3560
(dp3561
g74
(dp3562
g101
g102
ssg83
g3551
sg76
(lp3563
S':'
asbag69
(g90
g71
NtRp3564
(dp3565
g74
(dp3566
sg83
g3551
sg76
(lp3567
g69
(g70
g71
NtRp3568
(dp3569
g74
(dp3570
g82
I3
ssg83
g3564
sg76
(lp3571
S''
asbasbasbasbasbasbasbasbasbasbasbag69
(g85
g71
NtRp3572
(dp3573
g74
(dp3574
sg83
g3259
sg76
(lp3575
g69
(g90
g71
NtRp3576
(dp3577
g74
(dp3578
g94
g95
ssg83
g3572
sg76
(lp3579
S'ide'
p3580
asbag69
(g90
g71
NtRp3581
(dp3582
g74
(dp3583
g101
g102
ssg83
g3572
sg76
(lp3584
S':'
asbag69
(g90
g71
NtRp3585
(dp3586
g74
(dp3587
sg83
g3572
sg76
(lp3588
g69
(g70
g71
NtRp3589
(dp3590
g74
(dp3591
g82
I5
ssg83
g3585
sg76
(lp3592
S'31'
p3593
asbasbasbag69
(g85
g71
NtRp3594
(dp3595
g74
(dp3596
sg83
g3259
sg76
(lp3597
g69
(g90
g71
NtRp3598
(dp3599
g74
(dp3600
g94
g95
ssg83
g3594
sg76
(lp3601
S'last_query'
p3602
asbag69
(g90
g71
NtRp3603
(dp3604
g74
(dp3605
g101
g102
ssg83
g3594
sg76
(lp3606
S':'
asbag69
(g90
g71
NtRp3607
(dp3608
g74
(dp3609
sg83
g3594
sg76
(lp3610
g69
(g70
g71
NtRp3611
(dp3612
g74
(dp3613
g82
I5
ssg83
g3607
sg76
(lp3614
S'db.sentences.id>0'
p3615
asbasbasbag69
(g85
g71
NtRp3616
(dp3617
g74
(dp3618
sg83
g3259
sg76
(lp3619
g69
(g90
g71
NtRp3620
(dp3621
g74
(dp3622
g94
g95
ssg83
g3616
sg76
(lp3623
S'word'
p3624
asbag69
(g90
g71
NtRp3625
(dp3626
g74
(dp3627
g101
g102
ssg83
g3616
sg76
(lp3628
S':'
asbag69
(g90
g71
NtRp3629
(dp3630
g74
(dp3631
sg83
g3616
sg76
(lp3632
g69
(g70
g71
NtRp3633
(dp3634
g74
(dp3635
g82
I5
ssg83
g3629
sg76
(lp3636
S'pikachu'
p3637
asbasbasbasbasbsS'etype'
p3638
S"<type 'exceptions.SyntaxError'>"
p3639
sS'date'
p3640
S'Thu Nov 14 21:25:57 2013'
p3641
sS'response'
p3642
g69
(g70
g71
NtRp3643
(dp3644
g74
(dp3645
sg76
(lp3646
g69
(g78
g71
NtRp3647
(dp3648
g74
(dp3649
g82
I5
ssg83
Nsg76
(lp3650
g69
(g85
g71
NtRp3651
(dp3652
g74
(dp3653
sg83
g3647
sg76
(lp3654
g69
(g90
g71
NtRp3655
(dp3656
g74
(dp3657
g94
g95
ssg83
g3651
sg76
(lp3658
g167
asbag69
(g90
g71
NtRp3659
(dp3660
g74
(dp3661
g101
g102
ssg83
g3651
sg76
(lp3662
S':'
asbag69
(g90
g71
NtRp3663
(dp3664
g74
(dp3665
sg83
g3651
sg76
(lp3666
g69
(g70
g71
NtRp3667
(dp3668
g74
(dp3669
g82
I5
ssg83
g3663
sg76
(lp3670
S'<cStringIO.StringO object at 0xab7a7d20>'
p3671
asbasbasbag69
(g85
g71
NtRp3672
(dp3673
g74
(dp3674
sg83
g3647
sg76
(lp3675
g69
(g90
g71
NtRp3676
(dp3677
g74
(dp3678
g94
g95
ssg83
g3672
sg76
(lp3679
g233
asbag69
(g90
g71
NtRp3680
(dp3681
g74
(dp3682
g101
g102
ssg83
g3672
sg76
(lp3683
S':'
asbag69
(g90
g71
NtRp3684
(dp3685
g74
(dp3686
sg83
g3672
sg76
(lp3687
g69
(g70
g71
NtRp3688
(dp3689
g74
(dp3690
g82
I5
ssg83
g3684
sg76
(lp3691
g69
(g78
g71
NtRp3692
(dp3693
g74
(dp3694
g82
I4
ssg83
Nsg76
(lp3695
g69
(g85
g71
NtRp3696
(dp3697
g74
(dp3698
sg83
g3692
sg76
(lp3699
g69
(g90
g71
NtRp3700
(dp3701
g74
(dp3702
g94
g95
ssg83
g3696
sg76
(lp3703
S'session_id_wsd'
p3704
asbag69
(g90
g71
NtRp3705
(dp3706
g74
(dp3707
g101
g102
ssg83
g3696
sg76
(lp3708
S':'
asbag69
(g90
g71
NtRp3709
(dp3710
g74
(dp3711
sg83
g3696
sg76
(lp3712
g69
(g70
g71
NtRp3713
(dp3714
g74
(dp3715
g82
I4
ssg83
g3709
sg76
(lp3716
g69
(g78
g71
NtRp3717
(dp3718
g74
(dp3719
g82
I3
ssg83
Nsg76
(lp3720
g69
(g85
g71
NtRp3721
(dp3722
g74
(dp3723
sg83
g3717
sg76
(lp3724
g69
(g90
g71
NtRp3725
(dp3726
g74
(dp3727
g94
g95
ssg83
g3721
sg76
(lp3728
g283
asbag69
(g90
g71
NtRp3729
(dp3730
g74
(dp3731
g101
g102
ssg83
g3721
sg76
(lp3732
S':'
asbag69
(g90
g71
NtRp3733
(dp3734
g74
(dp3735
sg83
g3721
sg76
(lp3736
g69
(g70
g71
NtRp3737
(dp3738
g74
(dp3739
g82
I3
ssg83
g3733
sg76
(lp3740
S''
asbasbasbag69
(g85
g71
NtRp3741
(dp3742
g74
(dp3743
sg83
g3717
sg76
(lp3744
g69
(g90
g71
NtRp3745
(dp3746
g74
(dp3747
g94
g95
ssg83
g3741
sg76
(lp3748
g304
asbag69
(g90
g71
NtRp3749
(dp3750
g74
(dp3751
g101
g102
ssg83
g3741
sg76
(lp3752
S':'
asbag69
(g90
g71
NtRp3753
(dp3754
g74
(dp3755
sg83
g3741
sg76
(lp3756
g69
(g70
g71
NtRp3757
(dp3758
g74
(dp3759
g82
I3
ssg83
g3753
sg76
(lp3760
S''
asbasbasbag69
(g85
g71
NtRp3761
(dp3762
g74
(dp3763
sg83
g3717
sg76
(lp3764
g69
(g90
g71
NtRp3765
(dp3766
g74
(dp3767
g94
g95
ssg83
g3761
sg76
(lp3768
g325
asbag69
(g90
g71
NtRp3769
(dp3770
g74
(dp3771
g101
g102
ssg83
g3761
sg76
(lp3772
S':'
asbag69
(g90
g71
NtRp3773
(dp3774
g74
(dp3775
sg83
g3761
sg76
(lp3776
g69
(g70
g71
NtRp3777
(dp3778
g74
(dp3779
g82
I3
ssg83
g3773
sg76
(lp3780
S''
asbasbasbag69
(g85
g71
NtRp3781
(dp3782
g74
(dp3783
sg83
g3717
sg76
(lp3784
g69
(g90
g71
NtRp3785
(dp3786
g74
(dp3787
g94
g95
ssg83
g3781
sg76
(lp3788
g346
asbag69
(g90
g71
NtRp3789
(dp3790
g74
(dp3791
g101
g102
ssg83
g3781
sg76
(lp3792
S':'
asbag69
(g90
g71
NtRp3793
(dp3794
g74
(dp3795
sg83
g3781
sg76
(lp3796
g69
(g70
g71
NtRp3797
(dp3798
g74
(dp3799
g82
I3
ssg83
g3793
sg76
(lp3800
S''
asbasbasbag69
(g85
g71
NtRp3801
(dp3802
g74
(dp3803
sg83
g3717
sg76
(lp3804
g69
(g90
g71
NtRp3805
(dp3806
g74
(dp3807
g94
g95
ssg83
g3801
sg76
(lp3808
g367
asbag69
(g90
g71
NtRp3809
(dp3810
g74
(dp3811
g101
g102
ssg83
g3801
sg76
(lp3812
S':'
asbag69
(g90
g71
NtRp3813
(dp3814
g74
(dp3815
sg83
g3801
sg76
(lp3816
g69
(g70
g71
NtRp3817
(dp3818
g74
(dp3819
g82
I3
ssg83
g3813
sg76
(lp3820
S''
asbasbasbag69
(g85
g71
NtRp3821
(dp3822
g74
(dp3823
sg83
g3717
sg76
(lp3824
g69
(g90
g71
NtRp3825
(dp3826
g74
(dp3827
g94
g95
ssg83
g3821
sg76
(lp3828
g388
asbag69
(g90
g71
NtRp3829
(dp3830
g74
(dp3831
g101
g102
ssg83
g3821
sg76
(lp3832
S':'
asbag69
(g90
g71
NtRp3833
(dp3834
g74
(dp3835
sg83
g3821
sg76
(lp3836
g69
(g70
g71
NtRp3837
(dp3838
g74
(dp3839
g82
I3
ssg83
g3833
sg76
(lp3840
S'/'
asbasbasbag69
(g85
g71
NtRp3841
(dp3842
g74
(dp3843
sg83
g3717
sg76
(lp3844
g69
(g90
g71
NtRp3845
(dp3846
g74
(dp3847
g94
g95
ssg83
g3841
sg76
(lp3848
g409
asbag69
(g90
g71
NtRp3849
(dp3850
g74
(dp3851
g101
g102
ssg83
g3841
sg76
(lp3852
S':'
asbag69
(g90
g71
NtRp3853
(dp3854
g74
(dp3855
sg83
g3841
sg76
(lp3856
g69
(g70
g71
NtRp3857
(dp3858
g74
(dp3859
g82
I3
ssg83
g3853
sg76
(lp3860
S''
asbasbasbag69
(g85
g71
NtRp3861
(dp3862
g74
(dp3863
sg83
g3717
sg76
(lp3864
g69
(g90
g71
NtRp3865
(dp3866
g74
(dp3867
g94
g95
ssg83
g3861
sg76
(lp3868
g430
asbag69
(g90
g71
NtRp3869
(dp3870
g74
(dp3871
g101
g102
ssg83
g3861
sg76
(lp3872
S':'
asbag69
(g90
g71
NtRp3873
(dp3874
g74
(dp3875
sg83
g3861
sg76
(lp3876
g69
(g70
g71
NtRp3877
(dp3878
g74
(dp3879
g82
I3
ssg83
g3873
sg76
(lp3880
S''
asbasbasbasbasbasbasbasbasbasbasbag69
(g85
g71
NtRp3881
(dp3882
g74
(dp3883
sg83
g3647
sg76
(lp3884
g69
(g90
g71
NtRp3885
(dp3886
g74
(dp3887
g94
g95
ssg83
g3881
sg76
(lp3888
S'files'
p3889
asbag69
(g90
g71
NtRp3890
(dp3891
g74
(dp3892
g101
g102
ssg83
g3881
sg76
(lp3893
S':'
asbag69
(g90
g71
NtRp3894
(dp3895
g74
(dp3896
sg83
g3881
sg76
(lp3897
g69
(g70
g71
NtRp3898
(dp3899
g74
(dp3900
g82
I5
ssg83
g3894
sg76
(lp3901
g69
(g78
g71
NtRp3902
(dp3903
g74
(dp3904
g82
I4
ssg83
Nsg76
(lp3905
sbasbasbasbag69
(g85
g71
NtRp3906
(dp3907
g74
(dp3908
sg83
g3647
sg76
(lp3909
g69
(g90
g71
NtRp3910
(dp3911
g74
(dp3912
g94
g95
ssg83
g3906
sg76
(lp3913
S'flash'
p3914
asbag69
(g90
g71
NtRp3915
(dp3916
g74
(dp3917
g101
g102
ssg83
g3906
sg76
(lp3918
S':'
asbag69
(g90
g71
NtRp3919
(dp3920
g74
(dp3921
sg83
g3906
sg76
(lp3922
g69
(g70
g71
NtRp3923
(dp3924
g74
(dp3925
g82
I5
ssg83
g3919
sg76
(lp3926
S''
asbasbasbag69
(g85
g71
NtRp3927
(dp3928
g74
(dp3929
sg83
g3647
sg76
(lp3930
g69
(g90
g71
NtRp3931
(dp3932
g74
(dp3933
g94
g95
ssg83
g3927
sg76
(lp3934
S'generic_patterns'
p3935
asbag69
(g90
g71
NtRp3936
(dp3937
g74
(dp3938
g101
g102
ssg83
g3927
sg76
(lp3939
S':'
asbag69
(g90
g71
NtRp3940
(dp3941
g74
(dp3942
sg83
g3927
sg76
(lp3943
g69
(g70
g71
NtRp3944
(dp3945
g74
(dp3946
g82
I5
ssg83
g3940
sg76
(lp3947
g69
(g78
g71
NtRp3948
(dp3949
g74
(dp3950
g82
I4
ssg83
Nsg76
(lp3951
g69
(g85
g71
NtRp3952
(dp3953
g74
(dp3954
sg83
g3948
sg76
(lp3955
g69
(g90
g71
NtRp3956
(dp3957
g74
(dp3958
sg83
g3952
sg76
(lp3959
g69
(g70
g71
NtRp3960
(dp3961
g74
(dp3962
g82
I4
ssg83
g3956
sg76
(lp3963
S'*'
asbasbasbasbasbasbasbag69
(g85
g71
NtRp3964
(dp3965
g74
(dp3966
sg83
g3647
sg76
(lp3967
g69
(g90
g71
NtRp3968
(dp3969
g74
(dp3970
g94
g95
ssg83
g3964
sg76
(lp3971
S'headers'
p3972
asbag69
(g90
g71
NtRp3973
(dp3974
g74
(dp3975
g101
g102
ssg83
g3964
sg76
(lp3976
S':'
asbag69
(g90
g71
NtRp3977
(dp3978
g74
(dp3979
sg83
g3964
sg76
(lp3980
g69
(g70
g71
NtRp3981
(dp3982
g74
(dp3983
g82
I5
ssg83
g3977
sg76
(lp3984
g69
(g78
g71
NtRp3985
(dp3986
g74
(dp3987
g82
I4
ssg83
Nsg76
(lp3988
g69
(g85
g71
NtRp3989
(dp3990
g74
(dp3991
sg83
g3985
sg76
(lp3992
g69
(g90
g71
NtRp3993
(dp3994
g74
(dp3995
g94
g95
ssg83
g3989
sg76
(lp3996
S'Cache-Control'
p3997
asbag69
(g90
g71
NtRp3998
(dp3999
g74
(dp4000
g101
g102
ssg83
g3989
sg76
(lp4001
S':'
asbag69
(g90
g71
NtRp4002
(dp4003
g74
(dp4004
sg83
g3989
sg76
(lp4005
g69
(g70
g71
NtRp4006
(dp4007
g74
(dp4008
g82
I4
ssg83
g4002
sg76
(lp4009
S'no-store, no-cache, must-revalidate, post-check=0, pre-check=0'
p4010
asbasbasbag69
(g85
g71
NtRp4011
(dp4012
g74
(dp4013
sg83
g3985
sg76
(lp4014
g69
(g90
g71
NtRp4015
(dp4016
g74
(dp4017
g94
g95
ssg83
g4011
sg76
(lp4018
S'Content-Type'
p4019
asbag69
(g90
g71
NtRp4020
(dp4021
g74
(dp4022
g101
g102
ssg83
g4011
sg76
(lp4023
S':'
asbag69
(g90
g71
NtRp4024
(dp4025
g74
(dp4026
sg83
g4011
sg76
(lp4027
g69
(g70
g71
NtRp4028
(dp4029
g74
(dp4030
g82
I4
ssg83
g4024
sg76
(lp4031
S'text/html; charset=utf-8'
p4032
asbasbasbag69
(g85
g71
NtRp4033
(dp4034
g74
(dp4035
sg83
g3985
sg76
(lp4036
g69
(g90
g71
NtRp4037
(dp4038
g74
(dp4039
g94
g95
ssg83
g4033
sg76
(lp4040
S'Expires'
p4041
asbag69
(g90
g71
NtRp4042
(dp4043
g74
(dp4044
g101
g102
ssg83
g4033
sg76
(lp4045
S':'
asbag69
(g90
g71
NtRp4046
(dp4047
g74
(dp4048
sg83
g4033
sg76
(lp4049
g69
(g70
g71
NtRp4050
(dp4051
g74
(dp4052
g82
I4
ssg83
g4046
sg76
(lp4053
S'Thu, 14 Nov 2013 15:55:57 GMT'
p4054
asbasbasbag69
(g85
g71
NtRp4055
(dp4056
g74
(dp4057
sg83
g3985
sg76
(lp4058
g69
(g90
g71
NtRp4059
(dp4060
g74
(dp4061
g94
g95
ssg83
g4055
sg76
(lp4062
S'Pragma'
p4063
asbag69
(g90
g71
NtRp4064
(dp4065
g74
(dp4066
g101
g102
ssg83
g4055
sg76
(lp4067
S':'
asbag69
(g90
g71
NtRp4068
(dp4069
g74
(dp4070
sg83
g4055
sg76
(lp4071
g69
(g70
g71
NtRp4072
(dp4073
g74
(dp4074
g82
I4
ssg83
g4068
sg76
(lp4075
S'no-cache'
p4076
asbasbasbag69
(g85
g71
NtRp4077
(dp4078
g74
(dp4079
sg83
g3985
sg76
(lp4080
g69
(g90
g71
NtRp4081
(dp4082
g74
(dp4083
g94
g95
ssg83
g4077
sg76
(lp4084
S'X-Powered-By'
p4085
asbag69
(g90
g71
NtRp4086
(dp4087
g74
(dp4088
g101
g102
ssg83
g4077
sg76
(lp4089
S':'
asbag69
(g90
g71
NtRp4090
(dp4091
g74
(dp4092
sg83
g4077
sg76
(lp4093
g69
(g70
g71
NtRp4094
(dp4095
g74
(dp4096
g82
I4
ssg83
g4090
sg76
(lp4097
S'web2py'
p4098
asbasbasbasbasbasbasbag69
(g85
g71
NtRp4099
(dp4100
g74
(dp4101
sg83
g3647
sg76
(lp4102
g69
(g90
g71
NtRp4103
(dp4104
g74
(dp4105
g94
g95
ssg83
g4099
sg76
(lp4106
S'menu'
p4107
asbag69
(g90
g71
NtRp4108
(dp4109
g74
(dp4110
g101
g102
ssg83
g4099
sg76
(lp4111
S':'
asbag69
(g90
g71
NtRp4112
(dp4113
g74
(dp4114
sg83
g4099
sg76
(lp4115
g69
(g70
g71
NtRp4116
(dp4117
g74
(dp4118
g82
I5
ssg83
g4112
sg76
(lp4119
g69
(g78
g71
NtRp4120
(dp4121
g74
(dp4122
g82
I4
ssg83
Nsg76
(lp4123
g69
(g85
g71
NtRp4124
(dp4125
g74
(dp4126
sg83
g4120
sg76
(lp4127
g69
(g90
g71
NtRp4128
(dp4129
g74
(dp4130
sg83
g4124
sg76
(lp4131
g69
(g70
g71
NtRp4132
(dp4133
g74
(dp4134
g82
I4
ssg83
g4128
sg76
(lp4135
g69
(g78
g71
NtRp4136
(dp4137
g74
(dp4138
g82
I3
ssg83
Nsg76
(lp4139
g69
(g85
g71
NtRp4140
(dp4141
g74
(dp4142
sg83
g4136
sg76
(lp4143
g69
(g90
g71
NtRp4144
(dp4145
g74
(dp4146
sg83
g4140
sg76
(lp4147
g69
(g70
g71
NtRp4148
(dp4149
g74
(dp4150
g82
I3
ssg83
g4144
sg76
(lp4151
cgluon.languages
lazyT_unpickle
p4152
(S't\x04\x00\x00\x00Home'
tRp4153
asbasbasbag69
(g85
g71
NtRp4154
(dp4155
g74
(dp4156
sg83
g4136
sg76
(lp4157
g69
(g90
g71
NtRp4158
(dp4159
g74
(dp4160
sg83
g4154
sg76
(lp4161
g69
(g70
g71
NtRp4162
(dp4163
g74
(dp4164
g82
I3
ssg83
g4158
sg76
(lp4165
g112
asbasbasbag69
(g85
g71
NtRp4166
(dp4167
g74
(dp4168
sg83
g4136
sg76
(lp4169
g69
(g90
g71
NtRp4170
(dp4171
g74
(dp4172
sg83
g4166
sg76
(lp4173
g69
(g70
g71
NtRp4174
(dp4175
g74
(dp4176
g82
I3
ssg83
g4170
sg76
(lp4177
S'/WSD/default/index'
p4178
asbasbasbag69
(g85
g71
NtRp4179
(dp4180
g74
(dp4181
sg83
g4136
sg76
(lp4182
g69
(g90
g71
NtRp4183
(dp4184
g74
(dp4185
sg83
g4179
sg76
(lp4186
g69
(g70
g71
NtRp4187
(dp4188
g74
(dp4189
g82
I3
ssg83
g4183
sg76
(lp4190
g69
(g78
g71
NtRp4191
(dp4192
g74
(dp4193
g82
I2
ssg83
Nsg76
(lp4194
sbasbasbasbasbasbasbasbag69
(g85
g71
NtRp4195
(dp4196
g74
(dp4197
sg83
g4120
sg76
(lp4198
g69
(g90
g71
NtRp4199
(dp4200
g74
(dp4201
sg83
g4195
sg76
(lp4202
g69
(g70
g71
NtRp4203
(dp4204
g74
(dp4205
g82
I4
ssg83
g4199
sg76
(lp4206
g69
(g78
g71
NtRp4207
(dp4208
g74
(dp4209
g82
I3
ssg83
Nsg76
(lp4210
g69
(g85
g71
NtRp4211
(dp4212
g74
(dp4213
sg83
g4207
sg76
(lp4214
g69
(g90
g71
NtRp4215
(dp4216
g74
(dp4217
sg83
g4211
sg76
(lp4218
g69
(g70
g71
NtRp4219
(dp4220
g74
(dp4221
g82
I3
ssg83
g4215
sg76
(lp4222
g69
(cgluon.html
SPAN
p4223
g71
NtRp4224
(dp4225
g74
(dp4226
g94
S'color:yellow'
p4227
ssg83
Nsg76
(lp4228
g4098
asbasbasbasbag69
(g85
g71
NtRp4229
(dp4230
g74
(dp4231
sg83
g4207
sg76
(lp4232
g69
(g90
g71
NtRp4233
(dp4234
g74
(dp4235
sg83
g4229
sg76
(lp4236
g69
(g70
g71
NtRp4237
(dp4238
g74
(dp4239
g82
I3
ssg83
g4233
sg76
(lp4240
g112
asbasbasbag69
(g85
g71
NtRp4241
(dp4242
g74
(dp4243
sg83
g4207
sg76
(lp4244
g69
(g90
g71
NtRp4245
(dp4246
g74
(dp4247
sg83
g4241
sg76
(lp4248
g69
(g70
g71
NtRp4249
(dp4250
g74
(dp4251
g82
I3
ssg83
g4245
sg76
(lp4252
S'None'
p4253
asbasbasbag69
(g85
g71
NtRp4254
(dp4255
g74
(dp4256
sg83
g4207
sg76
(lp4257
g69
(g90
g71
NtRp4258
(dp4259
g74
(dp4260
sg83
g4254
sg76
(lp4261
g69
(g70
g71
NtRp4262
(dp4263
g74
(dp4264
g82
I3
ssg83
g4258
sg76
(lp4265
g69
(g78
g71
NtRp4266
(dp4267
g74
(dp4268
g82
I2
ssg83
Nsg76
(lp4269
g69
(g85
g71
NtRp4270
(dp4271
g74
(dp4272
sg83
g4266
sg76
(lp4273
g69
(g90
g71
NtRp4274
(dp4275
g74
(dp4276
sg83
g4270
sg76
(lp4277
g69
(g70
g71
NtRp4278
(dp4279
g74
(dp4280
g82
I2
ssg83
g4274
sg76
(lp4281
g69
(g78
g71
NtRp4282
(dp4283
g74
(dp4284
g82
I1
ssg83
Nsg76
(lp4285
g69
(g85
g71
NtRp4286
(dp4287
g74
(dp4288
sg83
g4282
sg76
(lp4289
g69
(g90
g71
NtRp4290
(dp4291
g74
(dp4292
sg83
g4286
sg76
(lp4293
g69
(g70
g71
NtRp4294
(dp4295
g74
(dp4296
g82
I1
ssg83
g4290
sg76
(lp4297
g4152
(S's\x08\x00\x00\x00My Sites'
tRp4298
asbasbasbag69
(g85
g71
NtRp4299
(dp4300
g74
(dp4301
sg83
g4282
sg76
(lp4302
g69
(g90
g71
NtRp4303
(dp4304
g74
(dp4305
sg83
g4299
sg76
(lp4306
g69
(g70
g71
NtRp4307
(dp4308
g74
(dp4309
g82
I1
ssg83
g4303
sg76
(lp4310
I00
asbasbasbag69
(g85
g71
NtRp4311
(dp4312
g74
(dp4313
sg83
g4282
sg76
(lp4314
g69
(g90
g71
NtRp4315
(dp4316
g74
(dp4317
sg83
g4311
sg76
(lp4318
g69
(g70
g71
NtRp4319
(dp4320
g74
(dp4321
g82
I1
ssg83
g4315
sg76
(lp4322
S'/admin/default/site'
p4323
asbasbasbasbasbasbasbag69
(g85
g71
NtRp4324
(dp4325
g74
(dp4326
sg83
g4266
sg76
(lp4327
g69
(g90
g71
NtRp4328
(dp4329
g74
(dp4330
sg83
g4324
sg76
(lp4331
g69
(g70
g71
NtRp4332
(dp4333
g74
(dp4334
g82
I2
ssg83
g4328
sg76
(lp4335
g69
(g78
g71
NtRp4336
(dp4337
g74
(dp4338
g82
I1
ssg83
Nsg76
(lp4339
g69
(g85
g71
NtRp4340
(dp4341
g74
(dp4342
sg83
g4336
sg76
(lp4343
g69
(g90
g71
NtRp4344
(dp4345
g74
(dp4346
sg83
g4340
sg76
(lp4347
g69
(g70
g71
NtRp4348
(dp4349
g74
(dp4350
g82
I1
ssg83
g4344
sg76
(lp4351
g4152
(S's\x08\x00\x00\x00This App'
tRp4352
asbasbasbag69
(g85
g71
NtRp4353
(dp4354
g74
(dp4355
sg83
g4336
sg76
(lp4356
g69
(g90
g71
NtRp4357
(dp4358
g74
(dp4359
sg83
g4353
sg76
(lp4360
g69
(g70
g71
NtRp4361
(dp4362
g74
(dp4363
g82
I1
ssg83
g4357
sg76
(lp4364
I00
asbasbasbag69
(g85
g71
NtRp4365
(dp4366
g74
(dp4367
sg83
g4336
sg76
(lp4368
g69
(g90
g71
NtRp4369
(dp4370
g74
(dp4371
sg83
g4365
sg76
(lp4372
g69
(g70
g71
NtRp4373
(dp4374
g74
(dp4375
g82
I1
ssg83
g4369
sg76
(lp4376
S'/admin/default/design/WSD'
p4377
asbasbasbag69
(g85
g71
NtRp4378
(dp4379
g74
(dp4380
sg83
g4336
sg76
(lp4381
g69
(g90
g71
NtRp4382
(dp4383
g74
(dp4384
sg83
g4378
sg76
(lp4385
g69
(g70
g71
NtRp4386
(dp4387
g74
(dp4388
g82
I1
ssg83
g4382
sg76
(lp4389
(lp4390
(g4152
(S't\n\x00\x00\x00Controller'
tRp4391
I00
S'/admin/default/edit/WSD/controllers/default.py'
tp4392
a(g4152
(S't\x04\x00\x00\x00View'
tRp4393
I00
S'/admin/default/edit/WSD/views/default/word_select.html'
tp4394
a(g4152
(S't\x06\x00\x00\x00Layout'
tRp4395
I00
S'/admin/default/edit/WSD/views/layout.html'
tp4396
a(g4152
(S't\n\x00\x00\x00Stylesheet'
tRp4397
I00
S'/admin/default/edit/WSD/static/css/web2py.css'
tp4398
a(g4152
(S's\x08\x00\x00\x00DB Model'
tRp4399
I00
S'/admin/default/edit/WSD/models/db.py'
tp4400
a(g4152
(S's\n\x00\x00\x00Menu Model'
tRp4401
I00
S'/admin/default/edit/WSD/models/menu.py'
tp4402
a(g4152
(S't\x08\x00\x00\x00Database'
tRp4403
I00
S'/WSD/appadmin/index'
tp4404
a(g4152
(S't\x06\x00\x00\x00Errors'
tRp4405
I00
S'/admin/default/errors/WSD'
tp4406
a(g4152
(S't\x05\x00\x00\x00About'
tRp4407
I00
S'/admin/default/about/WSD'
tp4408
aasbasbasbasbasbasbasbag69
(g85
g71
NtRp4409
(dp4410
g74
(dp4411
sg83
g4266
sg76
(lp4412
g69
(g90
g71
NtRp4413
(dp4414
g74
(dp4415
sg83
g4409
sg76
(lp4416
g69
(g70
g71
NtRp4417
(dp4418
g74
(dp4419
g82
I2
ssg83
g4413
sg76
(lp4420
g69
(g78
g71
NtRp4421
(dp4422
g74
(dp4423
g82
I1
ssg83
Nsg76
(lp4424
g69
(g85
g71
NtRp4425
(dp4426
g74
(dp4427
sg83
g4421
sg76
(lp4428
g69
(g90
g71
NtRp4429
(dp4430
g74
(dp4431
sg83
g4425
sg76
(lp4432
g69
(g70
g71
NtRp4433
(dp4434
g74
(dp4435
g82
I1
ssg83
g4429
sg76
(lp4436
S'web2py.com'
p4437
asbasbasbag69
(g85
g71
NtRp4438
(dp4439
g74
(dp4440
sg83
g4421
sg76
(lp4441
g69
(g90
g71
NtRp4442
(dp4443
g74
(dp4444
sg83
g4438
sg76
(lp4445
g69
(g70
g71
NtRp4446
(dp4447
g74
(dp4448
g82
I1
ssg83
g4442
sg76
(lp4449
I00
asbasbasbag69
(g85
g71
NtRp4450
(dp4451
g74
(dp4452
sg83
g4421
sg76
(lp4453
g69
(g90
g71
NtRp4454
(dp4455
g74
(dp4456
sg83
g4450
sg76
(lp4457
g69
(g70
g71
NtRp4458
(dp4459
g74
(dp4460
g82
I1
ssg83
g4454
sg76
(lp4461
S'http://www.web2py.com'
p4462
asbasbasbag69
(g85
g71
NtRp4463
(dp4464
g74
(dp4465
sg83
g4421
sg76
(lp4466
g69
(g90
g71
NtRp4467
(dp4468
g74
(dp4469
sg83
g4463
sg76
(lp4470
g69
(g70
g71
NtRp4471
(dp4472
g74
(dp4473
g82
I1
ssg83
g4467
sg76
(lp4474
(lp4475
(g4152
(S't\x08\x00\x00\x00Download'
tRp4476
I00
S'http://www.web2py.com/examples/default/download'
p4477
tp4478
a(g4152
(S't\x07\x00\x00\x00Support'
tRp4479
I00
S'http://www.web2py.com/examples/default/support'
p4480
tp4481
a(g4152
(S't\x04\x00\x00\x00Demo'
tRp4482
I00
S'http://web2py.com/demo_admin'
p4483
tp4484
a(g4152
(S's\x0e\x00\x00\x00Quick Examples'
tRp4485
I00
S'http://web2py.com/examples/default/examples'
p4486
tp4487
a(g4152
(S't\x03\x00\x00\x00FAQ'
tRp4488
I00
S'http://web2py.com/AlterEgo'
p4489
tp4490
a(g4152
(S't\x06\x00\x00\x00Videos'
tRp4491
I00
S'http://www.web2py.com/examples/default/videos/'
p4492
tp4493
a(g4152
(S's\x11\x00\x00\x00Free Applications'
tRp4494
I00
S'http://web2py.com/appliances'
p4495
tp4496
a(g4152
(S't\x07\x00\x00\x00Plugins'
tRp4497
I00
S'http://web2py.com/plugins'
p4498
tp4499
a(g4152
(S't\x07\x00\x00\x00Layouts'
tRp4500
I00
S'http://web2py.com/layouts'
p4501
tp4502
a(g4152
(S't\x07\x00\x00\x00Recipes'
tRp4503
I00
S'http://web2pyslices.com/'
p4504
tp4505
a(g4152
(S't\x08\x00\x00\x00Semantic'
tRp4506
I00
S'http://web2py.com/semantic'
p4507
tp4508
aasbasbasbasbasbasbasbag69
(g85
g71
NtRp4509
(dp4510
g74
(dp4511
sg83
g4266
sg76
(lp4512
g69
(g90
g71
NtRp4513
(dp4514
g74
(dp4515
sg83
g4509
sg76
(lp4516
g69
(g70
g71
NtRp4517
(dp4518
g74
(dp4519
g82
I2
ssg83
g4513
sg76
(lp4520
g69
(g78
g71
NtRp4521
(dp4522
g74
(dp4523
g82
I1
ssg83
Nsg76
(lp4524
g69
(g85
g71
NtRp4525
(dp4526
g74
(dp4527
sg83
g4521
sg76
(lp4528
g69
(g90
g71
NtRp4529
(dp4530
g74
(dp4531
sg83
g4525
sg76
(lp4532
g69
(g70
g71
NtRp4533
(dp4534
g74
(dp4535
g82
I1
ssg83
g4529
sg76
(lp4536
g4152
(S't\r\x00\x00\x00Documentation'
tRp4537
asbasbasbag69
(g85
g71
NtRp4538
(dp4539
g74
(dp4540
sg83
g4521
sg76
(lp4541
g69
(g90
g71
NtRp4542
(dp4543
g74
(dp4544
sg83
g4538
sg76
(lp4545
g69
(g70
g71
NtRp4546
(dp4547
g74
(dp4548
g82
I1
ssg83
g4542
sg76
(lp4549
I00
asbasbasbag69
(g85
g71
NtRp4550
(dp4551
g74
(dp4552
sg83
g4521
sg76
(lp4553
g69
(g90
g71
NtRp4554
(dp4555
g74
(dp4556
sg83
g4550
sg76
(lp4557
g69
(g70
g71
NtRp4558
(dp4559
g74
(dp4560
g82
I1
ssg83
g4554
sg76
(lp4561
S'http://www.web2py.com/book'
p4562
asbasbasbag69
(g85
g71
NtRp4563
(dp4564
g74
(dp4565
sg83
g4521
sg76
(lp4566
g69
(g90
g71
NtRp4567
(dp4568
g74
(dp4569
sg83
g4563
sg76
(lp4570
g69
(g70
g71
NtRp4571
(dp4572
g74
(dp4573
g82
I1
ssg83
g4567
sg76
(lp4574
(lp4575
(g4152
(S't\x07\x00\x00\x00Preface'
tRp4576
I00
S'http://www.web2py.com/book/default/chapter/00'
p4577
tp4578
a(g4152
(S't\x0c\x00\x00\x00Introduction'
tRp4579
I00
S'http://www.web2py.com/book/default/chapter/01'
p4580
tp4581
a(g4152
(S't\x06\x00\x00\x00Python'
tRp4582
I00
S'http://www.web2py.com/book/default/chapter/02'
p4583
tp4584
a(g4152
(S't\x08\x00\x00\x00Overview'
tRp4585
I00
S'http://www.web2py.com/book/default/chapter/03'
p4586
tp4587
a(g4152
(S's\x08\x00\x00\x00The Core'
tRp4588
I00
S'http://www.web2py.com/book/default/chapter/04'
p4589
tp4590
a(g4152
(S's\t\x00\x00\x00The Views'
tRp4591
I00
S'http://www.web2py.com/book/default/chapter/05'
p4592
tp4593
a(g4152
(S't\x08\x00\x00\x00Database'
tRp4594
I00
S'http://www.web2py.com/book/default/chapter/06'
p4595
tp4596
a(g4152
(S's\x14\x00\x00\x00Forms and Validators'
tRp4597
I00
S'http://www.web2py.com/book/default/chapter/07'
p4598
tp4599
a(g4152
(S's\r\x00\x00\x00Email and SMS'
tRp4600
I00
S'http://www.web2py.com/book/default/chapter/08'
p4601
tp4602
a(g4152
(S's\x0e\x00\x00\x00Access Control'
tRp4603
I00
S'http://www.web2py.com/book/default/chapter/09'
p4604
tp4605
a(g4152
(S't\x08\x00\x00\x00Services'
tRp4606
I00
S'http://www.web2py.com/book/default/chapter/10'
p4607
tp4608
a(g4152
(S's\x0c\x00\x00\x00Ajax Recipes'
tRp4609
I00
S'http://www.web2py.com/book/default/chapter/11'
p4610
tp4611
a(g4152
(S's\x16\x00\x00\x00Components and Plugins'
tRp4612
I00
S'http://www.web2py.com/book/default/chapter/12'
p4613
tp4614
a(g4152
(S's\x12\x00\x00\x00Deployment Recipes'
tRp4615
I00
S'http://www.web2py.com/book/default/chapter/13'
p4616
tp4617
a(g4152
(S's\r\x00\x00\x00Other Recipes'
tRp4618
I00
S'http://www.web2py.com/book/default/chapter/14'
p4619
tp4620
a(g4152
(S's\r\x00\x00\x00Buy this book'
tRp4621
I00
S'http://stores.lulu.com/web2py'
p4622
tp4623
aasbasbasbasbasbasbasbag69
(g85
g71
NtRp4624
(dp4625
g74
(dp4626
sg83
g4266
sg76
(lp4627
g69
(g90
g71
NtRp4628
(dp4629
g74
(dp4630
sg83
g4624
sg76
(lp4631
g69
(g70
g71
NtRp4632
(dp4633
g74
(dp4634
g82
I2
ssg83
g4628
sg76
(lp4635
g69
(g78
g71
NtRp4636
(dp4637
g74
(dp4638
g82
I1
ssg83
Nsg76
(lp4639
g69
(g85
g71
NtRp4640
(dp4641
g74
(dp4642
sg83
g4636
sg76
(lp4643
g69
(g90
g71
NtRp4644
(dp4645
g74
(dp4646
sg83
g4640
sg76
(lp4647
g69
(g70
g71
NtRp4648
(dp4649
g74
(dp4650
g82
I1
ssg83
g4644
sg76
(lp4651
g4152
(S't\t\x00\x00\x00Community'
tRp4652
asbasbasbag69
(g85
g71
NtRp4653
(dp4654
g74
(dp4655
sg83
g4636
sg76
(lp4656
g69
(g90
g71
NtRp4657
(dp4658
g74
(dp4659
sg83
g4653
sg76
(lp4660
g69
(g70
g71
NtRp4661
(dp4662
g74
(dp4663
g82
I1
ssg83
g4657
sg76
(lp4664
I00
asbasbasbag69
(g85
g71
NtRp4665
(dp4666
g74
(dp4667
sg83
g4636
sg76
(lp4668
g69
(g90
g71
NtRp4669
(dp4670
g74
(dp4671
sg83
g4665
sg76
(lp4672
g69
(g70
g71
NtRp4673
(dp4674
g74
(dp4675
g82
I1
ssg83
g4669
sg76
(lp4676
Nasbasbasbag69
(g85
g71
NtRp4677
(dp4678
g74
(dp4679
sg83
g4636
sg76
(lp4680
g69
(g90
g71
NtRp4681
(dp4682
g74
(dp4683
sg83
g4677
sg76
(lp4684
g69
(g70
g71
NtRp4685
(dp4686
g74
(dp4687
g82
I1
ssg83
g4681
sg76
(lp4688
(lp4689
(g4152
(S't\x06\x00\x00\x00Groups'
tRp4690
I00
S'http://www.web2py.com/examples/default/usergroups'
p4691
tp4692
a(g4152
(S't\x07\x00\x00\x00Twitter'
tRp4693
I00
S'http://twitter.com/web2py'
p4694
tp4695
a(g4152
(S's\t\x00\x00\x00Live Chat'
tRp4696
I00
S'http://webchat.freenode.net/?channels=web2py'
p4697
tp4698
aasbasbasbasbasbasbasbag69
(g85
g71
NtRp4699
(dp4700
g74
(dp4701
sg83
g4266
sg76
(lp4702
g69
(g90
g71
NtRp4703
(dp4704
g74
(dp4705
sg83
g4699
sg76
(lp4706
g69
(g70
g71
NtRp4707
(dp4708
g74
(dp4709
g82
I2
ssg83
g4703
sg76
(lp4710
g69
(g78
g71
NtRp4711
(dp4712
g74
(dp4713
g82
I1
ssg83
Nsg76
(lp4714
g69
(g85
g71
NtRp4715
(dp4716
g74
(dp4717
sg83
g4711
sg76
(lp4718
g69
(g90
g71
NtRp4719
(dp4720
g74
(dp4721
sg83
g4715
sg76
(lp4722
g69
(g70
g71
NtRp4723
(dp4724
g74
(dp4725
g82
I1
ssg83
g4719
sg76
(lp4726
g4152
(S't\x07\x00\x00\x00Plugins'
tRp4727
asbasbasbag69
(g85
g71
NtRp4728
(dp4729
g74
(dp4730
sg83
g4711
sg76
(lp4731
g69
(g90
g71
NtRp4732
(dp4733
g74
(dp4734
sg83
g4728
sg76
(lp4735
g69
(g70
g71
NtRp4736
(dp4737
g74
(dp4738
g82
I1
ssg83
g4732
sg76
(lp4739
I00
asbasbasbag69
(g85
g71
NtRp4740
(dp4741
g74
(dp4742
sg83
g4711
sg76
(lp4743
g69
(g90
g71
NtRp4744
(dp4745
g74
(dp4746
sg83
g4740
sg76
(lp4747
g69
(g70
g71
NtRp4748
(dp4749
g74
(dp4750
g82
I1
ssg83
g4744
sg76
(lp4751
Nasbasbasbag69
(g85
g71
NtRp4752
(dp4753
g74
(dp4754
sg83
g4711
sg76
(lp4755
g69
(g90
g71
NtRp4756
(dp4757
g74
(dp4758
sg83
g4752
sg76
(lp4759
g69
(g70
g71
NtRp4760
(dp4761
g74
(dp4762
g82
I1
ssg83
g4756
sg76
(lp4763
(lp4764
(S'plugin_wiki'
p4765
I00
S'http://web2py.com/examples/default/download'
p4766
tp4767
a(g4152
(S's\r\x00\x00\x00Other Plugins'
tRp4768
I00
g4498
tp4769
a(g4152
(S's\x0e\x00\x00\x00Layout Plugins'
tRp4770
I00
g4501
tp4771
aasbasbasbasbasbasbasbasbasbasbasbasbasbasbasbasbasbasbasbag69
(g85
g71
NtRp4772
(dp4773
g74
(dp4774
sg83
g3647
sg76
(lp4775
g69
(g90
g71
NtRp4776
(dp4777
g74
(dp4778
g94
g95
ssg83
g4772
sg76
(lp4779
S'meta'
p4780
asbag69
(g90
g71
NtRp4781
(dp4782
g74
(dp4783
g101
g102
ssg83
g4772
sg76
(lp4784
S':'
asbag69
(g90
g71
NtRp4785
(dp4786
g74
(dp4787
sg83
g4772
sg76
(lp4788
g69
(g70
g71
NtRp4789
(dp4790
g74
(dp4791
g82
I5
ssg83
g4785
sg76
(lp4792
g69
(g78
g71
NtRp4793
(dp4794
g74
(dp4795
g82
I4
ssg83
Nsg76
(lp4796
g69
(g85
g71
NtRp4797
(dp4798
g74
(dp4799
sg83
g4793
sg76
(lp4800
g69
(g90
g71
NtRp4801
(dp4802
g74
(dp4803
g94
g95
ssg83
g4797
sg76
(lp4804
S'author'
p4805
asbag69
(g90
g71
NtRp4806
(dp4807
g74
(dp4808
g101
g102
ssg83
g4797
sg76
(lp4809
S':'
asbag69
(g90
g71
NtRp4810
(dp4811
g74
(dp4812
sg83
g4797
sg76
(lp4813
g69
(g70
g71
NtRp4814
(dp4815
g74
(dp4816
g82
I4
ssg83
g4810
sg76
(lp4817
S'Your Name <you@example.com>'
p4818
asbasbasbag69
(g85
g71
NtRp4819
(dp4820
g74
(dp4821
sg83
g4793
sg76
(lp4822
g69
(g90
g71
NtRp4823
(dp4824
g74
(dp4825
g94
g95
ssg83
g4819
sg76
(lp4826
S'copyright'
p4827
asbag69
(g90
g71
NtRp4828
(dp4829
g74
(dp4830
g101
g102
ssg83
g4819
sg76
(lp4831
S':'
asbag69
(g90
g71
NtRp4832
(dp4833
g74
(dp4834
sg83
g4819
sg76
(lp4835
g69
(g70
g71
NtRp4836
(dp4837
g74
(dp4838
g82
I4
ssg83
g4832
sg76
(lp4839
S'Copyright 2011'
p4840
asbasbasbag69
(g85
g71
NtRp4841
(dp4842
g74
(dp4843
sg83
g4793
sg76
(lp4844
g69
(g90
g71
NtRp4845
(dp4846
g74
(dp4847
g94
g95
ssg83
g4841
sg76
(lp4848
S'description'
p4849
asbag69
(g90
g71
NtRp4850
(dp4851
g74
(dp4852
g101
g102
ssg83
g4841
sg76
(lp4853
S':'
asbag69
(g90
g71
NtRp4854
(dp4855
g74
(dp4856
sg83
g4841
sg76
(lp4857
g69
(g70
g71
NtRp4858
(dp4859
g74
(dp4860
g82
I4
ssg83
g4854
sg76
(lp4861
S'a cool new app'
p4862
asbasbasbag69
(g85
g71
NtRp4863
(dp4864
g74
(dp4865
sg83
g4793
sg76
(lp4866
g69
(g90
g71
NtRp4867
(dp4868
g74
(dp4869
g94
g95
ssg83
g4863
sg76
(lp4870
S'generator'
p4871
asbag69
(g90
g71
NtRp4872
(dp4873
g74
(dp4874
g101
g102
ssg83
g4863
sg76
(lp4875
S':'
asbag69
(g90
g71
NtRp4876
(dp4877
g74
(dp4878
sg83
g4863
sg76
(lp4879
g69
(g70
g71
NtRp4880
(dp4881
g74
(dp4882
g82
I4
ssg83
g4876
sg76
(lp4883
S'Web2py Web Framework'
p4884
asbasbasbag69
(g85
g71
NtRp4885
(dp4886
g74
(dp4887
sg83
g4793
sg76
(lp4888
g69
(g90
g71
NtRp4889
(dp4890
g74
(dp4891
g94
g95
ssg83
g4885
sg76
(lp4892
S'keywords'
p4893
asbag69
(g90
g71
NtRp4894
(dp4895
g74
(dp4896
g101
g102
ssg83
g4885
sg76
(lp4897
S':'
asbag69
(g90
g71
NtRp4898
(dp4899
g74
(dp4900
sg83
g4885
sg76
(lp4901
g69
(g70
g71
NtRp4902
(dp4903
g74
(dp4904
g82
I4
ssg83
g4898
sg76
(lp4905
S'web2py, python, framework'
p4906
asbasbasbasbasbasbasbag69
(g85
g71
NtRp4907
(dp4908
g74
(dp4909
sg83
g3647
sg76
(lp4910
g69
(g90
g71
NtRp4911
(dp4912
g74
(dp4913
g94
g95
ssg83
g4907
sg76
(lp4914
S'postprocessing'
p4915
asbag69
(g90
g71
NtRp4916
(dp4917
g74
(dp4918
g101
g102
ssg83
g4907
sg76
(lp4919
S':'
asbag69
(g90
g71
NtRp4920
(dp4921
g74
(dp4922
sg83
g4907
sg76
(lp4923
g69
(g70
g71
NtRp4924
(dp4925
g74
(dp4926
g82
I5
ssg83
g4920
sg76
(lp4927
g69
(g78
g71
NtRp4928
(dp4929
g74
(dp4930
g82
I4
ssg83
Nsg76
(lp4931
sbasbasbasbag69
(g85
g71
NtRp4932
(dp4933
g74
(dp4934
sg83
g3647
sg76
(lp4935
g69
(g90
g71
NtRp4936
(dp4937
g74
(dp4938
g94
g95
ssg83
g4932
sg76
(lp4939
S'session_file'
p4940
asbag69
(g90
g71
NtRp4941
(dp4942
g74
(dp4943
g101
g102
ssg83
g4932
sg76
(lp4944
S':'
asbag69
(g90
g71
NtRp4945
(dp4946
g74
(dp4947
sg83
g4932
sg76
(lp4948
g69
(g70
g71
NtRp4949
(dp4950
g74
(dp4951
g82
I5
ssg83
g4945
sg76
(lp4952
S"<open file '/home/jayanthkaturi/web2py/applications/WSD/sessions/127.0.0.1-ba5da912-56ca-4d5d-8aac-8a66d9faf08f', mode 'rb+' at 0xab916020>"
p4953
asbasbasbag69
(g85
g71
NtRp4954
(dp4955
g74
(dp4956
sg83
g3647
sg76
(lp4957
g69
(g90
g71
NtRp4958
(dp4959
g74
(dp4960
g94
g95
ssg83
g4954
sg76
(lp4961
S'session_filename'
p4962
asbag69
(g90
g71
NtRp4963
(dp4964
g74
(dp4965
g101
g102
ssg83
g4954
sg76
(lp4966
S':'
asbag69
(g90
g71
NtRp4967
(dp4968
g74
(dp4969
sg83
g4954
sg76
(lp4970
g69
(g70
g71
NtRp4971
(dp4972
g74
(dp4973
g82
I5
ssg83
g4967
sg76
(lp4974
S'/home/jayanthkaturi/web2py/applications/WSD/sessions/127.0.0.1-ba5da912-56ca-4d5d-8aac-8a66d9faf08f'
p4975
asbasbasbag69
(g85
g71
NtRp4976
(dp4977
g74
(dp4978
sg83
g3647
sg76
(lp4979
g69
(g90
g71
NtRp4980
(dp4981
g74
(dp4982
g94
g95
ssg83
g4976
sg76
(lp4983
S'session_id'
p4984
asbag69
(g90
g71
NtRp4985
(dp4986
g74
(dp4987
g101
g102
ssg83
g4976
sg76
(lp4988
S':'
asbag69
(g90
g71
NtRp4989
(dp4990
g74
(dp4991
sg83
g4976
sg76
(lp4992
g69
(g70
g71
NtRp4993
(dp4994
g74
(dp4995
g82
I5
ssg83
g4989
sg76
(lp4996
S'127.0.0.1-ba5da912-56ca-4d5d-8aac-8a66d9faf08f'
p4997
asbasbasbag69
(g85
g71
NtRp4998
(dp4999
g74
(dp5000
sg83
g3647
sg76
(lp5001
g69
(g90
g71
NtRp5002
(dp5003
g74
(dp5004
g94
g95
ssg83
g4998
sg76
(lp5005
S'session_id_name'
p5006
asbag69
(g90
g71
NtRp5007
(dp5008
g74
(dp5009
g101
g102
ssg83
g4998
sg76
(lp5010
S':'
asbag69
(g90
g71
NtRp5011
(dp5012
g74
(dp5013
sg83
g4998
sg76
(lp5014
g69
(g70
g71
NtRp5015
(dp5016
g74
(dp5017
g82
I5
ssg83
g5011
sg76
(lp5018
g3704
asbasbasbag69
(g85
g71
NtRp5019
(dp5020
g74
(dp5021
sg83
g3647
sg76
(lp5022
g69
(g90
g71
NtRp5023
(dp5024
g74
(dp5025
g94
g95
ssg83
g5019
sg76
(lp5026
S'session_locked'
p5027
asbag69
(g90
g71
NtRp5028
(dp5029
g74
(dp5030
g101
g102
ssg83
g5019
sg76
(lp5031
S':'
asbag69
(g90
g71
NtRp5032
(dp5033
g74
(dp5034
sg83
g5019
sg76
(lp5035
g69
(g70
g71
NtRp5036
(dp5037
g74
(dp5038
g82
I5
ssg83
g5032
sg76
(lp5039
g1854
asbasbasbag69
(g85
g71
NtRp5040
(dp5041
g74
(dp5042
sg83
g3647
sg76
(lp5043
g69
(g90
g71
NtRp5044
(dp5045
g74
(dp5046
g94
g95
ssg83
g5040
sg76
(lp5047
S'session_new'
p5048
asbag69
(g90
g71
NtRp5049
(dp5050
g74
(dp5051
g101
g102
ssg83
g5040
sg76
(lp5052
S':'
asbag69
(g90
g71
NtRp5053
(dp5054
g74
(dp5055
sg83
g5040
sg76
(lp5056
g69
(g70
g71
NtRp5057
(dp5058
g74
(dp5059
g82
I5
ssg83
g5053
sg76
(lp5060
g112
asbasbasbag69
(g85
g71
NtRp5061
(dp5062
g74
(dp5063
sg83
g3647
sg76
(lp5064
g69
(g90
g71
NtRp5065
(dp5066
g74
(dp5067
g94
g95
ssg83
g5061
sg76
(lp5068
S'status'
p5069
asbag69
(g90
g71
NtRp5070
(dp5071
g74
(dp5072
g101
g102
ssg83
g5061
sg76
(lp5073
S':'
asbag69
(g90
g71
NtRp5074
(dp5075
g74
(dp5076
sg83
g5061
sg76
(lp5077
g69
(g70
g71
NtRp5078
(dp5079
g74
(dp5080
g82
I5
ssg83
g5074
sg76
(lp5081
S'200'
p5082
asbasbasbag69
(g85
g71
NtRp5083
(dp5084
g74
(dp5085
sg83
g3647
sg76
(lp5086
g69
(g90
g71
NtRp5087
(dp5088
g74
(dp5089
g94
g95
ssg83
g5083
sg76
(lp5090
S'subtitle'
p5091
asbag69
(g90
g71
NtRp5092
(dp5093
g74
(dp5094
g101
g102
ssg83
g5083
sg76
(lp5095
S':'
asbag69
(g90
g71
NtRp5096
(dp5097
g74
(dp5098
sg83
g5083
sg76
(lp5099
g69
(g70
g71
NtRp5100
(dp5101
g74
(dp5102
g82
I5
ssg83
g5096
sg76
(lp5103
g4152
(S's\r\x00\x00\x00customize me!'
tRp5104
asbasbasbag69
(g85
g71
NtRp5105
(dp5106
g74
(dp5107
sg83
g3647
sg76
(lp5108
g69
(g90
g71
NtRp5109
(dp5110
g74
(dp5111
g94
g95
ssg83
g5105
sg76
(lp5112
S'title'
p5113
asbag69
(g90
g71
NtRp5114
(dp5115
g74
(dp5116
g101
g102
ssg83
g5105
sg76
(lp5117
S':'
asbag69
(g90
g71
NtRp5118
(dp5119
g74
(dp5120
sg83
g5105
sg76
(lp5121
g69
(g70
g71
NtRp5122
(dp5123
g74
(dp5124
g82
I5
ssg83
g5118
sg76
(lp5125
S'Wsd'
p5126
asbasbasbag69
(g85
g71
NtRp5127
(dp5128
g74
(dp5129
sg83
g3647
sg76
(lp5130
g69
(g90
g71
NtRp5131
(dp5132
g74
(dp5133
g94
g95
ssg83
g5127
sg76
(lp5134
g2539
asbag69
(g90
g71
NtRp5135
(dp5136
g74
(dp5137
g101
g102
ssg83
g5127
sg76
(lp5138
S':'
asbag69
(g90
g71
NtRp5139
(dp5140
g74
(dp5141
sg83
g5127
sg76
(lp5142
g69
(g70
g71
NtRp5143
(dp5144
g74
(dp5145
g82
I5
ssg83
g5139
sg76
(lp5146
g2552
asbasbasbag69
(g85
g71
NtRp5147
(dp5148
g74
(dp5149
sg83
g3647
sg76
(lp5150
g69
(g90
g71
NtRp5151
(dp5152
g74
(dp5153
g94
g95
ssg83
g5147
sg76
(lp5154
S'view'
p5155
asbag69
(g90
g71
NtRp5156
(dp5157
g74
(dp5158
g101
g102
ssg83
g5147
sg76
(lp5159
S':'
asbag69
(g90
g71
NtRp5160
(dp5161
g74
(dp5162
sg83
g5147
sg76
(lp5163
g69
(g70
g71
NtRp5164
(dp5165
g74
(dp5166
g82
I5
ssg83
g5160
sg76
(lp5167
S'default/word_select.html'
p5168
asbasbasbasbasbsS'locals'
p5169
(dp5170
g4
S"'/home/jayanthkaturi/web2py/applications/WSD/views/default/word_select.html'"
p5171
sg6
S'\'response.write("<style>\\\\n\\\\n   \\\\n    .myButton {\\\\...d footer -->\\\\n </body>\\\\n</html>\\\\n\\\', escape=False)\''
p5172
sssS'traceback'
p5173
S'Traceback (most recent call last):\n  File "/usr/lib/pymodules/python2.7/gluon/restricted.py", line 203, in restricted\n    ccode = compile2(code,layer)\n  File "/usr/lib/pymodules/python2.7/gluon/restricted.py", line 189, in compile2\n    return compile(code.rstrip().replace(\'\\r\\n\',\'\\n\')+\'\\n\', layer, \'exec\')\n  File "/home/jayanthkaturi/web2py/applications/WSD/views/default/word_select.html", line 111\n    for i.level>0:\n               ^\nSyntaxError: invalid syntax\n'
p5174
s.