(dp1
S'output'
p2
S"<type 'exceptions.SyntaxError'> invalid syntax (disp_adv.html, line 44)"
p3
sS'layer'
p4
S'/home/nazrul/web2py/applications/WSD/views/default/disp_adv.html'
p5
sS'code'
p6
S'response.write(\'<!DOCTYPE html PUBLIC "-//W3C//DTD XHTML 1.0 Strict//EN" "http://www.w3.org/TR/xhtml1/DTD/xhtml1-strict.dtd">\\n<!--\\n\\nDesign by Free CSS Templates\\nhttp://www.freecsstemplates.org\\nReleased for free under a Creative Commons Attribution 2.5 License\\n\\nTitle      : Interlude\\nVersion    : 1.0\\nReleased   : 20080903\\nDescription: A multi-column, fixed-width design for 800x600 resolutions.\\n\\n-->\\n<html xmlns="http://www.w3.org/1999/xhtml">\\n <head>\\n  <title>\\n   \', escape=False)\nresponse.write(response.title or request.application)\nresponse.write(\'\\n  </title>\\n  \', escape=False)\nresponse.files.append(URL(request.application,\'static\',\'plugin_layouts/layouts/Interlude/default.css\'))\nresponse.write(\'\\n  \', escape=False)\nresponse.files.append(URL(\'static\',\'plugin_layouts/superfish.js\'))\nresponse.write(\'\\n  \', escape=False)\nresponse.write(\'<script type="text/javascript"><!--\\n    // These variables are used by the web2py_ajax_init function in web2py_ajax.js (which is loaded below).\\n    var w2p_ajax_confirm_message = "\', escape=False)\nresponse.write(T(\'Are you sure you want to delete this object?\'))\nresponse.write(\'";\\n    var w2p_ajax_date_format = "\', escape=False)\nresponse.write(T(\'%Y-%m-%d\'))\nresponse.write(\'";\\n    var w2p_ajax_datetime_format = "\', escape=False)\nresponse.write(T(\'%Y-%m-%d %H:%M:%S\'))\nresponse.write(\'";\\n    //--></script>\\n\', escape=False)\nresponse.files.insert(0,URL(\'static\',\'js/jquery.js\'))\nresponse.files.insert(1,URL(\'static\',\'css/calendar.css\'))\nresponse.files.insert(2,URL(\'static\',\'js/calendar.js\'))\nresponse.files.insert(3,URL(\'static\',\'js/web2py.js\'))\nresponse.include_meta()\nresponse.include_files()\nresponse.write(\'\\n\', escape=False)\nresponse.write(\'\\n\\n  <style>\\n<!--ul.web2py-menu-vertical { width: 150px; position: relative; top:1em; left:1em;  z-index:30; border:0; margin:0; padding: 0; list-style: none; text-decoration: none;}\\nul.web2py-menu-vertical li { margin:0; padding:0; border:0; width: 150px; background: black; text-align:left;}\\nul.web2py-menu-vertical li a { margin:0; padding: 1px 3px 1px 3px; border:0; width: 144px; color: white; font-size:12px;}\\n\\ndiv.flash { position: fixed; float: right; padding: 10px; top: 10px; right: 30px; opacity: 0.75; margin: 10px 10px 10px 10px; text-align: center; clear: both; color: #fff; font-size: 11pt; text-align: center; vertical-align: middle; cursor: pointer; background: black; border: 2px solid #fff; -moz-border-radius: 5px; -webkit-border-radius: 5px; z-index: 2; }-->\\n<!--\\ndiv.error { background-color: red; color: white; padding: 3px; }\\n.auth_navbar { text-align:right; z-index:20; position: absolute; top: 2px; right:30px; border:0; padding:0 }-->\\n#basic_login{position:relative;top:230px;right=-2px;}\\n  </style>\\n  \\n </head>\\n <body>\\n  <!-- start header -->\\n  <div id="header">\\n   <div id="logo">\\n    <h1>\\n     \', escape=False)\nresponse.write(response.title or request.application)\nresponse.write(\'\\n    </h1>\\n<!--    <p>\\n     <a href="http://www.freecsstemplates.org/">\\n      Design by Free CSS Templates\\n     </a>\\n    </p>-->\\n   </div>\\n   <!--\\n   <div id="menu">\\n   \\n    \', escape=False)\nresponse.write(MENU(response.menu,_class=\'web2py-menu\'))\nresponse.write(\'\\n   \\n    <script>\\n      jQuery(document).ready(function(){jQuery(\\\'ul.web2py-menu\\\').superfish({delay:400});});\\n    </script>\\n    \\n   </div>\\n   -->\\n   <div id="basic_login">\\n       \', escape=False)\nif auth.user:\n    response.write(\'\\n       <a style="position:relative;left:-370px;text-decoration:none;font-weight:bold"href="\', escape=False)\n    response.write(URL(\'home\'))\n    response.write(\'">HOME</a>\\n       \', escape=False)\n    pass\nresponse.write(\'\\n  <!-- start header -->\\n  \', escape=False)\ntry:\n    response.write(auth.navbar(action=URL(\'default\',\'user\')))\nexcept:pass\nresponse.write(\'\\n</div>\\n\\n\\n\\n\\n  </div>\\n\\n\\n  <hr />\\n\\n  <!-- end header -->\\n  <!-- start page -->\\n  <div id="wrapper">\\n   <div id="page">\\n    <!-- start content -->\\n    <div id="content">\\n<!--     <div class="flash">\', escape=False)\nresponse.write(response.flash or \'\')\nresponse.write(\'</div>-->\\n     \', escape=False)\nresponse.write(\'\\n<style>\\n\\t\\ttable a:link {\\n\\t\\t\\t\\tcolor: #666;\\n\\t\\t\\t\\tfont-weight: bold;\\n\\t\\t\\t\\ttext-decoration:none;\\n\\t\\t}\\n\\t\\ttable a:visited {\\n\\t\\t\\t\\tcolor: #999999;\\n\\t\\t\\t\\tfont-weight:bold;\\n\\t\\t\\t\\ttext-decoration:none;\\n\\t\\t}\\n\\t\\ttable a:active,\\n\\t\\ttable a:hover {\\n\\t\\t\\t\\tcolor: #bd5a35;\\n\\t\\t\\t\\ttext-decoration:underline;\\n\\t\\t}\\n\\t\\ttable {\\n\\t\\t\\t\\tfont-family:Arial, Helvetica, sans-serif;\\n\\t\\t\\t\\tcolor:#666;\\n\\t\\t\\t\\tfont-size:12px;\\n\\t\\t\\t\\ttext-shadow: 1px 1px 0px #fff;\\n\\t\\t\\t\\tbackground:#eaebec;\\n\\t\\t\\t\\tmargin:20px;\\n\\t\\t\\t\\tborder:#ccc 1px solid;\\n\\n\\t\\t\\t\\t-moz-border-radius:3px;\\n\\t\\t\\t\\t-webkit-border-radius:3px;\\n\\t\\t\\t\\tborder-radius:3px;\\n\\n\\t\\t\\t\\t-moz-box-shadow: 0 1px 2px #d1d1d1;\\n\\t\\t\\t\\t-webkit-box-shadow: 0 1px 2px #d1d1d1;\\n\\t\\t\\t\\tbox-shadow: 0 1px 2px #d1d1d1;\\n\\t\\t}\\n\\t\\ttable th {\\n\\t\\t\\t\\tpadding:21px 25px 22px 25px;\\n\\t\\t\\t\\tborder-top:1px solid #fafafa;\\n\\t\\t\\t\\tborder-bottom:1px solid #e0e0e0;\\n\\n\\t\\t\\t\\tbackground: #ededed;\\n\\t\\t\\t\\tbackground: -webkit-gradient(linear, left top, left bottom, from(#ededed), to(#ebebeb));\\n\\t\\t\\t\\tbackground: -moz-linear-gradient(top,  #ededed,  #ebebeb);\\n\\t\\t}\\n\\t\\ttable th:first-child {\\n\\t\\t\\t\\ttext-align: left;\\n\\t\\t\\t\\tpadding-left:20px;\\n\\t\\t}\\n\\t\\ttable tr:first-child th:first-child {\\n\\t\\t\\t\\t-moz-border-radius-topleft:3px;\\n\\t\\t\\t\\t-webkit-border-top-left-radius:3px;\\n\\t\\t\\t\\tborder-top-left-radius:3px;\\n\\t\\t}\\n\\t\\ttable tr:first-child th:last-child {\\n\\t\\t\\t\\t-moz-border-radius-topright:3px;\\n\\t\\t\\t\\t-webkit-border-top-right-radius:3px;\\n\\t\\t\\t\\tborder-top-right-radius:3px;\\n\\t\\t}\\n\\t\\ttable tr {\\n\\t\\t\\t\\ttext-align: center;\\n\\t\\t\\t\\tpadding-left:20px;\\n\\t\\t}\\n\\t\\ttable td:first-child {\\n\\t\\t\\t\\ttext-align: left;\\n\\t\\t\\t\\tpadding-left:20px;\\n\\t\\t\\t\\tborder-left: 0;\\n\\t\\t}\\n\\t\\ttable td {\\n\\t\\t\\t\\tpadding:18px;\\n\\t\\t\\t\\tborder-top: 1px solid #ffffff;\\n\\t\\t\\t\\tborder-bottom:1px solid #e0e0e0;\\n\\t\\t\\t\\tborder-left: 1px solid #e0e0e0;\\n\\n\\t\\t\\t\\tbackground: #fafafa;\\n\\t\\t\\t\\tbackground: -webkit-gradient(linear, left top, left bottom, from(#fbfbfb), to(#fafafa));\\n\\t\\t\\t\\tbackground: -moz-linear-gradient(top,  #fbfbfb,  #fafafa);\\n\\t\\t}\\n\\t\\ttable tr.even td {\\n\\t\\t\\t\\tbackground: #f6f6f6;\\n\\t\\t\\t\\tbackground: -webkit-gradient(linear, left top, left bottom, from(#f8f8f8), to(#f6f6f6));\\n\\t\\t\\t\\tbackground: -moz-linear-gradient(top,  #f8f8f8,  #f6f6f6);\\n\\t\\t}\\n\\t\\ttable tr:last-child td {\\n\\t\\t\\t\\tborder-bottom:0;\\n\\t\\t}\\n\\t\\ttable tr:last-child td:first-child {\\n\\t\\t\\t\\t-moz-border-radius-bottomleft:3px;\\n\\t\\t\\t\\t-webkit-border-bottom-left-radius:3px;\\n\\t\\t\\t\\tborder-bottom-left-radius:3px;\\n\\t\\t}\\n\\t\\ttable tr:last-child td:last-child {\\n\\t\\t\\t\\t-moz-border-radius-bottomright:3px;\\n\\t\\t\\t\\t-webkit-border-bottom-right-radius:3px;\\n\\t\\t\\t\\tborder-bottom-right-radius:3px;\\n\\t\\t}\\n\\t\\ttable tr:hover td {\\n\\t\\t\\t\\tbackground: #f2f2f2;\\n\\t\\t\\t\\tbackground: -webkit-gradient(linear, left top, left bottom, from(#f2f2f2), to(#f0f0f0));\\n\\t\\t\\t\\tbackground: -moz-linear-gradient(top,  #f2f2f2,  #f0f0f0);\\t\\n\\t\\t}\\n</style>\\n\', escape=False)\nlev=db(db.user_level.email==email).select(db.user_level.level);lev=lev[0].level\nresponse.write(\'\\n<h3 style="text-align:center;font-size:20px"><b>User : </b>\', escape=False)\nresponse.write(email)\nresponse.write(\' &nbsp;&nbsp; <b>Level : </b>\', escape=False)\nh3>\n<table class="gradienttable">\n<thead>\n<th>Sentence</th>\n<th>Word </th>\n<th>User Given Translation</th>\n<th>Rule name</th>\n<th>Part of Speech</th>\n<th>Relations</th>\n<th>Property</th>\n</thead>\nresponse.write(\'{{for i in l:}}\', escape=False)\nsen=db(db.sentences.id==i.sid).select(db.sentences.esentence);sen=sen[0].esentence\nresponse.write(\'\\n\\t\\t\\t\\t\', escape=False)\nw=db(db.words.id==i.wid).select(db.words.word);w=w[0].word\nresponse.write(\'\\n\\t\\t\\t\\t<tr>\\n\\t\\t\\t\\t\\t\\t<td>\', escape=False)\nresponse.write(sen)\nresponse.write(\'</td>\\n\\t\\t\\t\\t\\t\\t<td>\', escape=False)\nresponse.write(w)\nresponse.write(\'</td>\\n\\t\\t\\t\\t\\t\\t<td>\', escape=False)\nresponse.write(i.translation)\nresponse.write(\'</td>\\n\\t\\t\\t\\t\\t\\t<td>\', escape=False)\nresponse.write(i.name)\nresponse.write(\'</td>\\n\\t\\t\\t\\t\\t\\t<td>\', escape=False)\nresponse.write(i.typ)\nresponse.write(\'</td>\\n\\t\\t\\t\\t\\t\\t\', escape=False)\nr=db((db.rel_rule.sid==i.sid)&(db.rel_rule.wid==i.wid)).select(db.rel_rule.relation)\nresponse.write(\'\\n\\t\\t\\t\\t\\t\\t<td>\\n\\t\\t\\t\\t\\t\\t\\t\\t\', escape=False)\nfor j in r:\n    response.write(\'\\n\\t\\t\\t\\t\\t\\t\\t\\t\', escape=False)\n    if j.relation:\n        response.write(\'\\n\\t\\t\\t\\t\\t\\t\\t\\t<li>\', escape=False)\n        response.write(j.relation)\n        response.write(\'</li>\\n\\t\\t\\t\\t\\t\\t\\t\\t\', escape=False)\n    else:\n        response.write(\'\\n\\t\\t\\t\\t\\t\\t\\t\\t<li>None</li>\\n\\t\\t\\t\\t\\t\\t\\t\\t\', escape=False)\n        pass\n    response.write(\'\\n\\t\\t\\t\\t\\t\\t\\t\\t\', escape=False)\n    pass\nresponse.write(\'\\n\\t\\t\\t\\t\\t\\t</td>\\n\\t\\t\\t\\t\\t\\t<td>\', escape=False)\nresponse.write(i.property)\nresponse.write(\'</td>\\n\\t\\t\\t\\t</tr>\\n\\t\\t\\t\\t\', escape=False)\npass\nresponse.write(\'\\n\\t\\t</table>\\n\', escape=False)\nresponse.write(\'\\n     <br />\\n     <br />\\n     <br />\\n     <br />\\n     <br />\\n     <br />\\n     <br />\\n     <br />\\n    </div>\\n    <!-- end content -->\\n    <!-- start sidebar -->\\n<!--    <div id="sidebar">\\n     <ul>\\n      <li id="categories">\\n       <h2>\\n        Categories\\n       </h2>\\n       <ul>\\n        <li>\\n         <a href="#">\\n          Lorem Ipsum\\n         </a>\\n         (1)\\n        </li>\\n        <li>\\n         <a href="#">\\n          Uncategorized\\n         </a>\\n         (4)\\n        </li>\\n        <li>\\n         <a href="#">\\n          Nulla luctus eleifend\\n         </a>\\n         (1)\\n        </li>\\n        <li>\\n         <a href="#">\\n          Pellentesque tempus\\n         </a>\\n         (4)\\n        </li>\\n        <li>\\n         <a href="#">\\n          Donec dictum metus\\n         </a>\\n         (1)\\n        </li>\\n        <li>\\n         <a href="#">\\n          Etiam posuere augue\\n         </a>\\n         (4)\\n        </li>\\n       </ul>\\n      </li>\\n      <li id="calendar">\\n       <h2>\\n        Calendar\\n       </h2>\\n       <div id="calendar_wrap">\\n        <table id="wp-calendar" summary="Calendar">\\n         <caption>\\n          September 2008\\n         </caption>\\n         <thead>\\n          <tr>\\n           <th abbr="Monday" scope="col" title="Monday">\\n            M\\n           </th>\\n           <th abbr="Tuesday" scope="col" title="Tuesday">\\n            T\\n           </th>\\n           <th abbr="Wednesday" scope="col" title="Wednesday">\\n            W\\n           </th>\\n           <th abbr="Thursday" scope="col" title="Thursday">\\n            T\\n           </th>\\n           <th abbr="Friday" scope="col" title="Friday">\\n            F\\n           </th>\\n           <th abbr="Saturday" scope="col" title="Saturday">\\n            S\\n           </th>\\n           <th abbr="Sunday" scope="col" title="Sunday">\\n            S\\n           </th>\\n          </tr>\\n         </thead>\\n         <tfoot>\\n          <tr>\\n           <td abbr="July" colspan="3" id="prev">\\n            <a href="#">\\n             &laquo; Jul\\n            </a>\\n           </td>\\n           <td class="pad">\\n            &nbsp;\\n           </td>\\n           <td abbr="September" colspan="3" id="next" class="pad">\\n            <a href="#">\\n             Sep &raquo;\\n            </a>\\n           </td>\\n          </tr>\\n         </tfoot>\\n         <tbody>\\n          <tr>\\n           <td colspan="2" class="pad">\\n            &nbsp;\\n           </td>\\n           <td>\\n            1\\n           </td>\\n           <td>\\n            2\\n           </td>\\n           <td>\\n            3\\n           </td>\\n           <td>\\n            4\\n           </td>\\n           <td>\\n            5\\n           </td>\\n          </tr>\\n          <tr>\\n           <td>\\n            6\\n           </td>\\n           <td>\\n            7\\n           </td>\\n           <td>\\n            8\\n           </td>\\n           <td>\\n            9\\n           </td>\\n           <td>\\n            10\\n           </td>\\n           <td>\\n            11\\n           </td>\\n           <td>\\n            12\\n           </td>\\n          </tr>\\n          <tr>\\n           <td>\\n            13\\n           </td>\\n           <td>\\n            14\\n           </td>\\n           <td>\\n            15\\n           </td>\\n           <td>\\n            16\\n           </td>\\n           <td>\\n            17\\n           </td>\\n           <td>\\n            18\\n           </td>\\n           <td>\\n            19\\n           </td>\\n          </tr>\\n          <tr>\\n           <td>\\n            20\\n           </td>\\n           <td id="today">\\n            21\\n           </td>\\n           <td>\\n            22\\n           </td>\\n           <td>\\n            23\\n           </td>\\n           <td>\\n            24\\n           </td>\\n           <td>\\n            25\\n           </td>\\n           <td>\\n            26\\n           </td>\\n          </tr>\\n          <tr>\\n           <td>\\n            27\\n           </td>\\n           <td>\\n            28\\n           </td>\\n           <td>\\n            29\\n           </td>\\n           <td>\\n            30\\n           </td>\\n           <td>\\n            31\\n           </td>\\n           <td class="pad" colspan="2">\\n            &nbsp;\\n           </td>\\n          </tr>\\n         </tbody>\\n        </table>\\n       </div>\\n      </li>\\n      <li>\\n       <h2>\\n        Lorem Ipsum Dolor\\n       </h2>\\n       <ul>\\n        <li>\\n         <a href="#">\\n          Nulla luctus eleifend purus\\n         </a>\\n        </li>\\n        <li>\\n         <a href="#">\\n          Praesent scelerisque scelerisque erat\\n         </a>\\n        </li>\\n        <li>\\n         <a href="#">\\n          Ut nonummy rutrum sem\\n         </a>\\n        </li>\\n        <li>\\n         <a href="#">\\n          Pellentesque tempus quam quis nulla\\n         </a>\\n        </li>\\n        <li>\\n         <a href="#">\\n          Fusce ultrices fringilla metus\\n         </a>\\n        </li>\\n        <li>\\n         <a href="#">\\n          Praesent mattis condimentum nisl\\n         </a>\\n        </li>\\n       </ul>\\n      </li>\\n     </ul>\\n    </div>-->\\n    <!-- end sidebar -->\\n    <br style="clear: both;" />\\n   </div>\\n  </div>\\n  <!-- end page -->\\n  <!-- start footer -->\\n  <div id="wrapper2">\\n    \\n\\n   <div id="footer">\\n<!--\\n    <ul>\\n     <li class="first">\\n      <h2>\\n       Mauris vulputate dolor\\n      </h2>\\n      <ul>\\n       <li>\\n        <a href="#">\\n         Nulla luctus eleifend purus\\n        </a>\\n       </li>\\n       <li>\\n        <a href="#">\\n         Praesent scelerisque scelerisque erat\\n        </a>\\n       </li>\\n       <li>\\n        <a href="#">\\n         Ut nonummy rutrum sem\\n        </a>\\n       </li>\\n       <li>\\n        <a href="#">\\n         Pellentesque tempus quam quis nulla\\n        </a>\\n       </li>\\n       <li>\\n        <a href="#">\\n         Fusce ultrices fringilla metus\\n        </a>\\n       </li>\\n       <li>\\n        <a href="#">\\n         Praesent mattis condimentum nisl\\n        </a>\\n       </li>\\n      </ul>\\n     </li>\\n     <li>\\n      <h2>\\n       Praesent scelerisque sceler\\n      </h2>\\n      <ul>\\n       <li>\\n        <a href="#">\\n         Nulla luctus eleifend purus\\n        </a>\\n       </li>\\n       <li>\\n        <a href="#">\\n         Praesent scelerisque scelerisque erat\\n        </a>\\n       </li>\\n       <li>\\n        <a href="#">\\n         Ut nonummy rutrum sem\\n        </a>\\n       </li>\\n       <li>\\n        <a href="#">\\n         Pellentesque tempus quam quis nulla\\n        </a>\\n       </li>\\n       <li>\\n        <a href="#">\\n         Fusce ultrices fringilla metus\\n        </a>\\n       </li>\\n       <li>\\n        <a href="#">\\n         Praesent mattis condimentum nisl\\n        </a>\\n       </li>\\n      </ul>\\n     </li>\\n     <li>\\n      <h2>\\n       Fusce ultrices fringilla\\n      </h2>\\n      <ul>\\n       <li>\\n        <a href="#">\\n         Nulla luctus eleifend purus\\n        </a>\\n       </li>\\n       <li>\\n        <a href="#">\\n         Praesent scelerisque scelerisque erat\\n        </a>\\n       </li>\\n       <li>\\n        <a href="#">\\n         Ut nonummy rutrum sem\\n        </a>\\n       </li>\\n       <li>\\n        <a href="#">\\n         Pellentesque tempus quam quis nulla\\n        </a>\\n       </li>\\n       <li>\\n        <a href="#">\\n         Fusce ultrices fringilla metus\\n        </a>\\n       </li>\\n       <li>\\n        <a href="#">\\n         Praesent mattis condimentum nisl\\n        </a>\\n       </li>\\n      </ul>\\n     </li>\\n    </ul>\\n    -->\\n   </div>\\n   \\n   <p id="legal">\\n     &bull;&nbsp;&nbsp;\\n    &copy;2013 All Rights Reserved\\n\\t\\t&nbsp;&nbsp;&bull;&nbsp;&nbsp;\\n\\t\\tDesign by :\\n    Abhinav Pandey, Ankit Kotak, Nazrul Haque Athar, Anubhav Srivastava, Jayanth Katuri\\n    &nbsp;&nbsp;&bull;&nbsp;&nbsp;\\n    <!--\\n\\t\\tIcons by\\n    <a href="http://famfamfam.com/">\\n     FAMFAMFAM\\n    </a>\\n    .\\n    <a href="http://validator.w3.org/check/referer" class="xhtml" title="This page validates as XHTML">\\n     Valid\\n     <abbr title="eXtensible HyperText Markup Language">\\n      XHTML\\n     </abbr>\\n    </a>\\n    &nbsp;&nbsp;&bull;&nbsp;&nbsp;\\n    <a href="http://jigsaw.w3.org/css-validator/check/referer" class="css" title="This page validates as CSS">\\n     Valid\\n     <abbr title="Cascading Style Sheets">\\n      CSS\\n     </abbr>\\n    </a>-->\\n   </p>\\n  </div>\\n  <!-- end footer -->\\n </body>\\n</html>\\n\', escape=False)'
p7
sS'snapshot'
p8
(dp9
S'exception'
p10
(dp11
S'__getslice__'
p12
S"<method-wrapper '__getslice__' of exceptions.SyntaxError object>"
p13
sS'text'
p14
S"'h3>\\n'"
p15
sS'__str__'
p16
S"<method-wrapper '__str__' of exceptions.SyntaxError object>"
p17
sS'__reduce__'
p18
S'<built-in method __reduce__ of exceptions.SyntaxError object>'
p19
sS'__dict__'
p20
S'{}'
p21
sS'__sizeof__'
p22
S'<built-in method __sizeof__ of exceptions.SyntaxError object>'
p23
sS'__init__'
p24
S"<method-wrapper '__init__' of exceptions.SyntaxError object>"
p25
sS'__setattr__'
p26
S"<method-wrapper '__setattr__' of exceptions.SyntaxError object>"
p27
sS'__reduce_ex__'
p28
S'<built-in method __reduce_ex__ of exceptions.SyntaxError object>'
p29
sS'__new__'
p30
S'<built-in method __new__ of type object>'
p31
sS'__format__'
p32
S'<built-in method __format__ of exceptions.SyntaxError object>'
p33
sS'__class__'
p34
S"<type 'exceptions.SyntaxError'>"
p35
sS'filename'
p36
S"'/home/nazrul/web2py/applications/WSD/views/default/disp_adv.html'"
p37
sS'lineno'
p38
S'44'
p39
sS'msg'
p40
S"'invalid syntax'"
p41
sS'__doc__'
p42
S"'Invalid syntax.'"
p43
sS'__getitem__'
p44
S"<method-wrapper '__getitem__' of exceptions.SyntaxError object>"
p45
sS'__setstate__'
p46
S'<built-in method __setstate__ of exceptions.SyntaxError object>'
p47
sS'__getattribute__'
p48
S"<method-wrapper '__getattribute__' of exceptions.SyntaxError object>"
p49
sS'print_file_and_line'
p50
S'None'
p51
sS'args'
p52
S"('invalid syntax', ('/home/nazrul/web2py/applications/WSD/views/default/disp_adv.html', 44, 4, 'h3>\\n'))"
p53
sS'__subclasshook__'
p54
S'<built-in method __subclasshook__ of type object>'
p55
sS'offset'
p56
S'4'
sS'__unicode__'
p57
S'<built-in method __unicode__ of exceptions.SyntaxError object>'
p58
sS'__delattr__'
p59
S"<method-wrapper '__delattr__' of exceptions.SyntaxError object>"
p60
sS'__repr__'
p61
S"<method-wrapper '__repr__' of exceptions.SyntaxError object>"
p62
sS'__hash__'
p63
S"<method-wrapper '__hash__' of exceptions.SyntaxError object>"
p64
ssS'evalue'
p65
S'invalid syntax (disp_adv.html, line 44)'
p66
sS'request'
p67
ccopy_reg
_reconstructor
p68
(cgluon.html
BEAUTIFY
p69
c__builtin__
object
p70
NtRp71
(dp72
S'attributes'
p73
(dp74
sS'components'
p75
(lp76
g68
(cgluon.html
TABLE
p77
g70
NtRp78
(dp79
g73
(dp80
S'level'
p81
I5
ssS'parent'
p82
Nsg75
(lp83
g68
(cgluon.html
TR
p84
g70
NtRp85
(dp86
g73
(dp87
sg82
g78
sg75
(lp88
g68
(cgluon.html
TD
p89
g70
NtRp90
(dp91
g73
(dp92
S'_style'
p93
S'font-weight:bold;vertical-align:top'
p94
ssg82
g85
sg75
(lp95
S'ajax'
p96
asbag68
(g89
g70
NtRp97
(dp98
g73
(dp99
S'_valign'
p100
S'top'
p101
ssg82
g85
sg75
(lp102
S':'
asbag68
(g89
g70
NtRp103
(dp104
g73
(dp105
sg82
g85
sg75
(lp106
g68
(g69
g70
NtRp107
(dp108
g73
(dp109
g81
I5
ssg82
g103
sg75
(lp110
S'False'
p111
asbasbasbag68
(g84
g70
NtRp112
(dp113
g73
(dp114
sg82
g78
sg75
(lp115
g68
(g89
g70
NtRp116
(dp117
g73
(dp118
g93
g94
ssg82
g112
sg75
(lp119
S'application'
p120
asbag68
(g89
g70
NtRp121
(dp122
g73
(dp123
g100
g101
ssg82
g112
sg75
(lp124
S':'
asbag68
(g89
g70
NtRp125
(dp126
g73
(dp127
sg82
g112
sg75
(lp128
g68
(g69
g70
NtRp129
(dp130
g73
(dp131
g81
I5
ssg82
g125
sg75
(lp132
S'WSD'
p133
asbasbasbag68
(g84
g70
NtRp134
(dp135
g73
(dp136
sg82
g78
sg75
(lp137
g68
(g89
g70
NtRp138
(dp139
g73
(dp140
g93
g94
ssg82
g134
sg75
(lp141
g52
asbag68
(g89
g70
NtRp142
(dp143
g73
(dp144
g100
g101
ssg82
g134
sg75
(lp145
S':'
asbag68
(g89
g70
NtRp146
(dp147
g73
(dp148
sg82
g134
sg75
(lp149
g68
(g69
g70
NtRp150
(dp151
g73
(dp152
g81
I5
ssg82
g146
sg75
(lp153
g68
(g77
g70
NtRp154
(dp155
g73
(dp156
g81
I4
ssg82
Nsg75
(lp157
sbasbasbasbag68
(g84
g70
NtRp158
(dp159
g73
(dp160
sg82
g78
sg75
(lp161
g68
(g89
g70
NtRp162
(dp163
g73
(dp164
g93
g94
ssg82
g158
sg75
(lp165
S'body'
p166
asbag68
(g89
g70
NtRp167
(dp168
g73
(dp169
g100
g101
ssg82
g158
sg75
(lp170
S':'
asbag68
(g89
g70
NtRp171
(dp172
g73
(dp173
sg82
g158
sg75
(lp174
g68
(g69
g70
NtRp175
(dp176
g73
(dp177
g81
I5
ssg82
g171
sg75
(lp178
S'<cStringIO.StringO object at 0xadd27e80>'
p179
asbasbasbag68
(g84
g70
NtRp180
(dp181
g73
(dp182
sg82
g78
sg75
(lp183
g68
(g89
g70
NtRp184
(dp185
g73
(dp186
g93
g94
ssg82
g180
sg75
(lp187
S'cid'
p188
asbag68
(g89
g70
NtRp189
(dp190
g73
(dp191
g100
g101
ssg82
g180
sg75
(lp192
S':'
asbag68
(g89
g70
NtRp193
(dp194
g73
(dp195
sg82
g180
sg75
(lp196
g68
(g69
g70
NtRp197
(dp198
g73
(dp199
g81
I5
ssg82
g193
sg75
(lp200
S'None'
p201
asbasbasbag68
(g84
g70
NtRp202
(dp203
g73
(dp204
sg82
g78
sg75
(lp205
g68
(g89
g70
NtRp206
(dp207
g73
(dp208
g93
g94
ssg82
g202
sg75
(lp209
S'client'
p210
asbag68
(g89
g70
NtRp211
(dp212
g73
(dp213
g100
g101
ssg82
g202
sg75
(lp214
S':'
asbag68
(g89
g70
NtRp215
(dp216
g73
(dp217
sg82
g202
sg75
(lp218
g68
(g69
g70
NtRp219
(dp220
g73
(dp221
g81
I5
ssg82
g215
sg75
(lp222
S'127.0.0.1'
p223
asbasbasbag68
(g84
g70
NtRp224
(dp225
g73
(dp226
sg82
g78
sg75
(lp227
g68
(g89
g70
NtRp228
(dp229
g73
(dp230
g93
g94
ssg82
g224
sg75
(lp231
S'controller'
p232
asbag68
(g89
g70
NtRp233
(dp234
g73
(dp235
g100
g101
ssg82
g224
sg75
(lp236
S':'
asbag68
(g89
g70
NtRp237
(dp238
g73
(dp239
sg82
g224
sg75
(lp240
g68
(g69
g70
NtRp241
(dp242
g73
(dp243
g81
I5
ssg82
g237
sg75
(lp244
S'default'
p245
asbasbasbag68
(g84
g70
NtRp246
(dp247
g73
(dp248
sg82
g78
sg75
(lp249
g68
(g89
g70
NtRp250
(dp251
g73
(dp252
g93
g94
ssg82
g246
sg75
(lp253
S'cookies'
p254
asbag68
(g89
g70
NtRp255
(dp256
g73
(dp257
g100
g101
ssg82
g246
sg75
(lp258
S':'
asbag68
(g89
g70
NtRp259
(dp260
g73
(dp261
sg82
g246
sg75
(lp262
g68
(g69
g70
NtRp263
(dp264
g73
(dp265
g81
I5
ssg82
g259
sg75
(lp266
g68
(g77
g70
NtRp267
(dp268
g73
(dp269
g81
I4
ssg82
Nsg75
(lp270
g68
(g84
g70
NtRp271
(dp272
g73
(dp273
sg82
g267
sg75
(lp274
g68
(g89
g70
NtRp275
(dp276
g73
(dp277
g93
g94
ssg82
g271
sg75
(lp278
S'KBD'
p279
asbag68
(g89
g70
NtRp280
(dp281
g73
(dp282
g100
g101
ssg82
g271
sg75
(lp283
S':'
asbag68
(g89
g70
NtRp284
(dp285
g73
(dp286
sg82
g271
sg75
(lp287
g68
(g69
g70
NtRp288
(dp289
g73
(dp290
g81
I4
ssg82
g284
sg75
(lp291
S'0hi-0'
p292
ag68
(g77
g70
NtRp293
(dp294
g73
(dp295
g81
I3
ssg82
Nsg75
(lp296
g68
(g84
g70
NtRp297
(dp298
g73
(dp299
sg82
g293
sg75
(lp300
g68
(g89
g70
NtRp301
(dp302
g73
(dp303
g93
g94
ssg82
g297
sg75
(lp304
S'comment'
p305
asbag68
(g89
g70
NtRp306
(dp307
g73
(dp308
g100
g101
ssg82
g297
sg75
(lp309
S':'
asbag68
(g89
g70
NtRp310
(dp311
g73
(dp312
sg82
g297
sg75
(lp313
g68
(g69
g70
NtRp314
(dp315
g73
(dp316
g81
I3
ssg82
g310
sg75
(lp317
S''
asbasbasbag68
(g84
g70
NtRp318
(dp319
g73
(dp320
sg82
g293
sg75
(lp321
g68
(g89
g70
NtRp322
(dp323
g73
(dp324
g93
g94
ssg82
g318
sg75
(lp325
S'domain'
p326
asbag68
(g89
g70
NtRp327
(dp328
g73
(dp329
g100
g101
ssg82
g318
sg75
(lp330
S':'
asbag68
(g89
g70
NtRp331
(dp332
g73
(dp333
sg82
g318
sg75
(lp334
g68
(g69
g70
NtRp335
(dp336
g73
(dp337
g81
I3
ssg82
g331
sg75
(lp338
S''
asbasbasbag68
(g84
g70
NtRp339
(dp340
g73
(dp341
sg82
g293
sg75
(lp342
g68
(g89
g70
NtRp343
(dp344
g73
(dp345
g93
g94
ssg82
g339
sg75
(lp346
S'expires'
p347
asbag68
(g89
g70
NtRp348
(dp349
g73
(dp350
g100
g101
ssg82
g339
sg75
(lp351
S':'
asbag68
(g89
g70
NtRp352
(dp353
g73
(dp354
sg82
g339
sg75
(lp355
g68
(g69
g70
NtRp356
(dp357
g73
(dp358
g81
I3
ssg82
g352
sg75
(lp359
S''
asbasbasbag68
(g84
g70
NtRp360
(dp361
g73
(dp362
sg82
g293
sg75
(lp363
g68
(g89
g70
NtRp364
(dp365
g73
(dp366
g93
g94
ssg82
g360
sg75
(lp367
S'httponly'
p368
asbag68
(g89
g70
NtRp369
(dp370
g73
(dp371
g100
g101
ssg82
g360
sg75
(lp372
S':'
asbag68
(g89
g70
NtRp373
(dp374
g73
(dp375
sg82
g360
sg75
(lp376
g68
(g69
g70
NtRp377
(dp378
g73
(dp379
g81
I3
ssg82
g373
sg75
(lp380
S''
asbasbasbag68
(g84
g70
NtRp381
(dp382
g73
(dp383
sg82
g293
sg75
(lp384
g68
(g89
g70
NtRp385
(dp386
g73
(dp387
g93
g94
ssg82
g381
sg75
(lp388
S'max-age'
p389
asbag68
(g89
g70
NtRp390
(dp391
g73
(dp392
g100
g101
ssg82
g381
sg75
(lp393
S':'
asbag68
(g89
g70
NtRp394
(dp395
g73
(dp396
sg82
g381
sg75
(lp397
g68
(g69
g70
NtRp398
(dp399
g73
(dp400
g81
I3
ssg82
g394
sg75
(lp401
S''
asbasbasbag68
(g84
g70
NtRp402
(dp403
g73
(dp404
sg82
g293
sg75
(lp405
g68
(g89
g70
NtRp406
(dp407
g73
(dp408
g93
g94
ssg82
g402
sg75
(lp409
S'path'
p410
asbag68
(g89
g70
NtRp411
(dp412
g73
(dp413
g100
g101
ssg82
g402
sg75
(lp414
S':'
asbag68
(g89
g70
NtRp415
(dp416
g73
(dp417
sg82
g402
sg75
(lp418
g68
(g69
g70
NtRp419
(dp420
g73
(dp421
g81
I3
ssg82
g415
sg75
(lp422
S''
asbasbasbag68
(g84
g70
NtRp423
(dp424
g73
(dp425
sg82
g293
sg75
(lp426
g68
(g89
g70
NtRp427
(dp428
g73
(dp429
g93
g94
ssg82
g423
sg75
(lp430
S'secure'
p431
asbag68
(g89
g70
NtRp432
(dp433
g73
(dp434
g100
g101
ssg82
g423
sg75
(lp435
S':'
asbag68
(g89
g70
NtRp436
(dp437
g73
(dp438
sg82
g423
sg75
(lp439
g68
(g69
g70
NtRp440
(dp441
g73
(dp442
g81
I3
ssg82
g436
sg75
(lp443
S''
asbasbasbag68
(g84
g70
NtRp444
(dp445
g73
(dp446
sg82
g293
sg75
(lp447
g68
(g89
g70
NtRp448
(dp449
g73
(dp450
g93
g94
ssg82
g444
sg75
(lp451
S'version'
p452
asbag68
(g89
g70
NtRp453
(dp454
g73
(dp455
g100
g101
ssg82
g444
sg75
(lp456
S':'
asbag68
(g89
g70
NtRp457
(dp458
g73
(dp459
sg82
g444
sg75
(lp460
g68
(g69
g70
NtRp461
(dp462
g73
(dp463
g81
I3
ssg82
g457
sg75
(lp464
S''
asbasbasbasbasbasbasbag68
(g84
g70
NtRp465
(dp466
g73
(dp467
sg82
g267
sg75
(lp468
g68
(g89
g70
NtRp469
(dp470
g73
(dp471
g93
g94
ssg82
g465
sg75
(lp472
S'session_id_admin'
p473
asbag68
(g89
g70
NtRp474
(dp475
g73
(dp476
g100
g101
ssg82
g465
sg75
(lp477
S':'
asbag68
(g89
g70
NtRp478
(dp479
g73
(dp480
sg82
g465
sg75
(lp481
g68
(g69
g70
NtRp482
(dp483
g73
(dp484
g81
I4
ssg82
g478
sg75
(lp485
S'127.0.0.1-76a862a2-9a71-40a1-95b6-27d29da4fe5d'
p486
ag68
(g77
g70
NtRp487
(dp488
g73
(dp489
g81
I3
ssg82
Nsg75
(lp490
g68
(g84
g70
NtRp491
(dp492
g73
(dp493
sg82
g487
sg75
(lp494
g68
(g89
g70
NtRp495
(dp496
g73
(dp497
g93
g94
ssg82
g491
sg75
(lp498
g305
asbag68
(g89
g70
NtRp499
(dp500
g73
(dp501
g100
g101
ssg82
g491
sg75
(lp502
S':'
asbag68
(g89
g70
NtRp503
(dp504
g73
(dp505
sg82
g491
sg75
(lp506
g68
(g69
g70
NtRp507
(dp508
g73
(dp509
g81
I3
ssg82
g503
sg75
(lp510
S''
asbasbasbag68
(g84
g70
NtRp511
(dp512
g73
(dp513
sg82
g487
sg75
(lp514
g68
(g89
g70
NtRp515
(dp516
g73
(dp517
g93
g94
ssg82
g511
sg75
(lp518
g326
asbag68
(g89
g70
NtRp519
(dp520
g73
(dp521
g100
g101
ssg82
g511
sg75
(lp522
S':'
asbag68
(g89
g70
NtRp523
(dp524
g73
(dp525
sg82
g511
sg75
(lp526
g68
(g69
g70
NtRp527
(dp528
g73
(dp529
g81
I3
ssg82
g523
sg75
(lp530
S''
asbasbasbag68
(g84
g70
NtRp531
(dp532
g73
(dp533
sg82
g487
sg75
(lp534
g68
(g89
g70
NtRp535
(dp536
g73
(dp537
g93
g94
ssg82
g531
sg75
(lp538
g347
asbag68
(g89
g70
NtRp539
(dp540
g73
(dp541
g100
g101
ssg82
g531
sg75
(lp542
S':'
asbag68
(g89
g70
NtRp543
(dp544
g73
(dp545
sg82
g531
sg75
(lp546
g68
(g69
g70
NtRp547
(dp548
g73
(dp549
g81
I3
ssg82
g543
sg75
(lp550
S''
asbasbasbag68
(g84
g70
NtRp551
(dp552
g73
(dp553
sg82
g487
sg75
(lp554
g68
(g89
g70
NtRp555
(dp556
g73
(dp557
g93
g94
ssg82
g551
sg75
(lp558
g368
asbag68
(g89
g70
NtRp559
(dp560
g73
(dp561
g100
g101
ssg82
g551
sg75
(lp562
S':'
asbag68
(g89
g70
NtRp563
(dp564
g73
(dp565
sg82
g551
sg75
(lp566
g68
(g69
g70
NtRp567
(dp568
g73
(dp569
g81
I3
ssg82
g563
sg75
(lp570
S''
asbasbasbag68
(g84
g70
NtRp571
(dp572
g73
(dp573
sg82
g487
sg75
(lp574
g68
(g89
g70
NtRp575
(dp576
g73
(dp577
g93
g94
ssg82
g571
sg75
(lp578
g389
asbag68
(g89
g70
NtRp579
(dp580
g73
(dp581
g100
g101
ssg82
g571
sg75
(lp582
S':'
asbag68
(g89
g70
NtRp583
(dp584
g73
(dp585
sg82
g571
sg75
(lp586
g68
(g69
g70
NtRp587
(dp588
g73
(dp589
g81
I3
ssg82
g583
sg75
(lp590
S''
asbasbasbag68
(g84
g70
NtRp591
(dp592
g73
(dp593
sg82
g487
sg75
(lp594
g68
(g89
g70
NtRp595
(dp596
g73
(dp597
g93
g94
ssg82
g591
sg75
(lp598
g410
asbag68
(g89
g70
NtRp599
(dp600
g73
(dp601
g100
g101
ssg82
g591
sg75
(lp602
S':'
asbag68
(g89
g70
NtRp603
(dp604
g73
(dp605
sg82
g591
sg75
(lp606
g68
(g69
g70
NtRp607
(dp608
g73
(dp609
g81
I3
ssg82
g603
sg75
(lp610
S''
asbasbasbag68
(g84
g70
NtRp611
(dp612
g73
(dp613
sg82
g487
sg75
(lp614
g68
(g89
g70
NtRp615
(dp616
g73
(dp617
g93
g94
ssg82
g611
sg75
(lp618
g431
asbag68
(g89
g70
NtRp619
(dp620
g73
(dp621
g100
g101
ssg82
g611
sg75
(lp622
S':'
asbag68
(g89
g70
NtRp623
(dp624
g73
(dp625
sg82
g611
sg75
(lp626
g68
(g69
g70
NtRp627
(dp628
g73
(dp629
g81
I3
ssg82
g623
sg75
(lp630
S''
asbasbasbag68
(g84
g70
NtRp631
(dp632
g73
(dp633
sg82
g487
sg75
(lp634
g68
(g89
g70
NtRp635
(dp636
g73
(dp637
g93
g94
ssg82
g631
sg75
(lp638
g452
asbag68
(g89
g70
NtRp639
(dp640
g73
(dp641
g100
g101
ssg82
g631
sg75
(lp642
S':'
asbag68
(g89
g70
NtRp643
(dp644
g73
(dp645
sg82
g631
sg75
(lp646
g68
(g69
g70
NtRp647
(dp648
g73
(dp649
g81
I3
ssg82
g643
sg75
(lp650
S''
asbasbasbasbasbasbasbag68
(g84
g70
NtRp651
(dp652
g73
(dp653
sg82
g267
sg75
(lp654
g68
(g89
g70
NtRp655
(dp656
g73
(dp657
g93
g94
ssg82
g651
sg75
(lp658
S'session_id_news'
p659
asbag68
(g89
g70
NtRp660
(dp661
g73
(dp662
g100
g101
ssg82
g651
sg75
(lp663
S':'
asbag68
(g89
g70
NtRp664
(dp665
g73
(dp666
sg82
g651
sg75
(lp667
g68
(g69
g70
NtRp668
(dp669
g73
(dp670
g81
I4
ssg82
g664
sg75
(lp671
S'127.0.0.1-4eea093e-3431-4797-bd7a-1e49bcb534a8'
p672
ag68
(g77
g70
NtRp673
(dp674
g73
(dp675
g81
I3
ssg82
Nsg75
(lp676
g68
(g84
g70
NtRp677
(dp678
g73
(dp679
sg82
g673
sg75
(lp680
g68
(g89
g70
NtRp681
(dp682
g73
(dp683
g93
g94
ssg82
g677
sg75
(lp684
g305
asbag68
(g89
g70
NtRp685
(dp686
g73
(dp687
g100
g101
ssg82
g677
sg75
(lp688
S':'
asbag68
(g89
g70
NtRp689
(dp690
g73
(dp691
sg82
g677
sg75
(lp692
g68
(g69
g70
NtRp693
(dp694
g73
(dp695
g81
I3
ssg82
g689
sg75
(lp696
S''
asbasbasbag68
(g84
g70
NtRp697
(dp698
g73
(dp699
sg82
g673
sg75
(lp700
g68
(g89
g70
NtRp701
(dp702
g73
(dp703
g93
g94
ssg82
g697
sg75
(lp704
g326
asbag68
(g89
g70
NtRp705
(dp706
g73
(dp707
g100
g101
ssg82
g697
sg75
(lp708
S':'
asbag68
(g89
g70
NtRp709
(dp710
g73
(dp711
sg82
g697
sg75
(lp712
g68
(g69
g70
NtRp713
(dp714
g73
(dp715
g81
I3
ssg82
g709
sg75
(lp716
S''
asbasbasbag68
(g84
g70
NtRp717
(dp718
g73
(dp719
sg82
g673
sg75
(lp720
g68
(g89
g70
NtRp721
(dp722
g73
(dp723
g93
g94
ssg82
g717
sg75
(lp724
g347
asbag68
(g89
g70
NtRp725
(dp726
g73
(dp727
g100
g101
ssg82
g717
sg75
(lp728
S':'
asbag68
(g89
g70
NtRp729
(dp730
g73
(dp731
sg82
g717
sg75
(lp732
g68
(g69
g70
NtRp733
(dp734
g73
(dp735
g81
I3
ssg82
g729
sg75
(lp736
S''
asbasbasbag68
(g84
g70
NtRp737
(dp738
g73
(dp739
sg82
g673
sg75
(lp740
g68
(g89
g70
NtRp741
(dp742
g73
(dp743
g93
g94
ssg82
g737
sg75
(lp744
g368
asbag68
(g89
g70
NtRp745
(dp746
g73
(dp747
g100
g101
ssg82
g737
sg75
(lp748
S':'
asbag68
(g89
g70
NtRp749
(dp750
g73
(dp751
sg82
g737
sg75
(lp752
g68
(g69
g70
NtRp753
(dp754
g73
(dp755
g81
I3
ssg82
g749
sg75
(lp756
S''
asbasbasbag68
(g84
g70
NtRp757
(dp758
g73
(dp759
sg82
g673
sg75
(lp760
g68
(g89
g70
NtRp761
(dp762
g73
(dp763
g93
g94
ssg82
g757
sg75
(lp764
g389
asbag68
(g89
g70
NtRp765
(dp766
g73
(dp767
g100
g101
ssg82
g757
sg75
(lp768
S':'
asbag68
(g89
g70
NtRp769
(dp770
g73
(dp771
sg82
g757
sg75
(lp772
g68
(g69
g70
NtRp773
(dp774
g73
(dp775
g81
I3
ssg82
g769
sg75
(lp776
S''
asbasbasbag68
(g84
g70
NtRp777
(dp778
g73
(dp779
sg82
g673
sg75
(lp780
g68
(g89
g70
NtRp781
(dp782
g73
(dp783
g93
g94
ssg82
g777
sg75
(lp784
g410
asbag68
(g89
g70
NtRp785
(dp786
g73
(dp787
g100
g101
ssg82
g777
sg75
(lp788
S':'
asbag68
(g89
g70
NtRp789
(dp790
g73
(dp791
sg82
g777
sg75
(lp792
g68
(g69
g70
NtRp793
(dp794
g73
(dp795
g81
I3
ssg82
g789
sg75
(lp796
S''
asbasbasbag68
(g84
g70
NtRp797
(dp798
g73
(dp799
sg82
g673
sg75
(lp800
g68
(g89
g70
NtRp801
(dp802
g73
(dp803
g93
g94
ssg82
g797
sg75
(lp804
g431
asbag68
(g89
g70
NtRp805
(dp806
g73
(dp807
g100
g101
ssg82
g797
sg75
(lp808
S':'
asbag68
(g89
g70
NtRp809
(dp810
g73
(dp811
sg82
g797
sg75
(lp812
g68
(g69
g70
NtRp813
(dp814
g73
(dp815
g81
I3
ssg82
g809
sg75
(lp816
S''
asbasbasbag68
(g84
g70
NtRp817
(dp818
g73
(dp819
sg82
g673
sg75
(lp820
g68
(g89
g70
NtRp821
(dp822
g73
(dp823
g93
g94
ssg82
g817
sg75
(lp824
g452
asbag68
(g89
g70
NtRp825
(dp826
g73
(dp827
g100
g101
ssg82
g817
sg75
(lp828
S':'
asbag68
(g89
g70
NtRp829
(dp830
g73
(dp831
sg82
g817
sg75
(lp832
g68
(g69
g70
NtRp833
(dp834
g73
(dp835
g81
I3
ssg82
g829
sg75
(lp836
S''
asbasbasbasbasbasbasbag68
(g84
g70
NtRp837
(dp838
g73
(dp839
sg82
g267
sg75
(lp840
g68
(g89
g70
NtRp841
(dp842
g73
(dp843
g93
g94
ssg82
g837
sg75
(lp844
S'session_id_welcome'
p845
asbag68
(g89
g70
NtRp846
(dp847
g73
(dp848
g100
g101
ssg82
g837
sg75
(lp849
S':'
asbag68
(g89
g70
NtRp850
(dp851
g73
(dp852
sg82
g837
sg75
(lp853
g68
(g69
g70
NtRp854
(dp855
g73
(dp856
g81
I4
ssg82
g850
sg75
(lp857
S'127.0.0.1-4ab9dacb-7270-459d-aef4-f28bb3d059e1'
p858
ag68
(g77
g70
NtRp859
(dp860
g73
(dp861
g81
I3
ssg82
Nsg75
(lp862
g68
(g84
g70
NtRp863
(dp864
g73
(dp865
sg82
g859
sg75
(lp866
g68
(g89
g70
NtRp867
(dp868
g73
(dp869
g93
g94
ssg82
g863
sg75
(lp870
g305
asbag68
(g89
g70
NtRp871
(dp872
g73
(dp873
g100
g101
ssg82
g863
sg75
(lp874
S':'
asbag68
(g89
g70
NtRp875
(dp876
g73
(dp877
sg82
g863
sg75
(lp878
g68
(g69
g70
NtRp879
(dp880
g73
(dp881
g81
I3
ssg82
g875
sg75
(lp882
S''
asbasbasbag68
(g84
g70
NtRp883
(dp884
g73
(dp885
sg82
g859
sg75
(lp886
g68
(g89
g70
NtRp887
(dp888
g73
(dp889
g93
g94
ssg82
g883
sg75
(lp890
g326
asbag68
(g89
g70
NtRp891
(dp892
g73
(dp893
g100
g101
ssg82
g883
sg75
(lp894
S':'
asbag68
(g89
g70
NtRp895
(dp896
g73
(dp897
sg82
g883
sg75
(lp898
g68
(g69
g70
NtRp899
(dp900
g73
(dp901
g81
I3
ssg82
g895
sg75
(lp902
S''
asbasbasbag68
(g84
g70
NtRp903
(dp904
g73
(dp905
sg82
g859
sg75
(lp906
g68
(g89
g70
NtRp907
(dp908
g73
(dp909
g93
g94
ssg82
g903
sg75
(lp910
g347
asbag68
(g89
g70
NtRp911
(dp912
g73
(dp913
g100
g101
ssg82
g903
sg75
(lp914
S':'
asbag68
(g89
g70
NtRp915
(dp916
g73
(dp917
sg82
g903
sg75
(lp918
g68
(g69
g70
NtRp919
(dp920
g73
(dp921
g81
I3
ssg82
g915
sg75
(lp922
S''
asbasbasbag68
(g84
g70
NtRp923
(dp924
g73
(dp925
sg82
g859
sg75
(lp926
g68
(g89
g70
NtRp927
(dp928
g73
(dp929
g93
g94
ssg82
g923
sg75
(lp930
g368
asbag68
(g89
g70
NtRp931
(dp932
g73
(dp933
g100
g101
ssg82
g923
sg75
(lp934
S':'
asbag68
(g89
g70
NtRp935
(dp936
g73
(dp937
sg82
g923
sg75
(lp938
g68
(g69
g70
NtRp939
(dp940
g73
(dp941
g81
I3
ssg82
g935
sg75
(lp942
S''
asbasbasbag68
(g84
g70
NtRp943
(dp944
g73
(dp945
sg82
g859
sg75
(lp946
g68
(g89
g70
NtRp947
(dp948
g73
(dp949
g93
g94
ssg82
g943
sg75
(lp950
g389
asbag68
(g89
g70
NtRp951
(dp952
g73
(dp953
g100
g101
ssg82
g943
sg75
(lp954
S':'
asbag68
(g89
g70
NtRp955
(dp956
g73
(dp957
sg82
g943
sg75
(lp958
g68
(g69
g70
NtRp959
(dp960
g73
(dp961
g81
I3
ssg82
g955
sg75
(lp962
S''
asbasbasbag68
(g84
g70
NtRp963
(dp964
g73
(dp965
sg82
g859
sg75
(lp966
g68
(g89
g70
NtRp967
(dp968
g73
(dp969
g93
g94
ssg82
g963
sg75
(lp970
g410
asbag68
(g89
g70
NtRp971
(dp972
g73
(dp973
g100
g101
ssg82
g963
sg75
(lp974
S':'
asbag68
(g89
g70
NtRp975
(dp976
g73
(dp977
sg82
g963
sg75
(lp978
g68
(g69
g70
NtRp979
(dp980
g73
(dp981
g81
I3
ssg82
g975
sg75
(lp982
S''
asbasbasbag68
(g84
g70
NtRp983
(dp984
g73
(dp985
sg82
g859
sg75
(lp986
g68
(g89
g70
NtRp987
(dp988
g73
(dp989
g93
g94
ssg82
g983
sg75
(lp990
g431
asbag68
(g89
g70
NtRp991
(dp992
g73
(dp993
g100
g101
ssg82
g983
sg75
(lp994
S':'
asbag68
(g89
g70
NtRp995
(dp996
g73
(dp997
sg82
g983
sg75
(lp998
g68
(g69
g70
NtRp999
(dp1000
g73
(dp1001
g81
I3
ssg82
g995
sg75
(lp1002
S''
asbasbasbag68
(g84
g70
NtRp1003
(dp1004
g73
(dp1005
sg82
g859
sg75
(lp1006
g68
(g89
g70
NtRp1007
(dp1008
g73
(dp1009
g93
g94
ssg82
g1003
sg75
(lp1010
g452
asbag68
(g89
g70
NtRp1011
(dp1012
g73
(dp1013
g100
g101
ssg82
g1003
sg75
(lp1014
S':'
asbag68
(g89
g70
NtRp1015
(dp1016
g73
(dp1017
sg82
g1003
sg75
(lp1018
g68
(g69
g70
NtRp1019
(dp1020
g73
(dp1021
g81
I3
ssg82
g1015
sg75
(lp1022
S''
asbasbasbasbasbasbasbag68
(g84
g70
NtRp1023
(dp1024
g73
(dp1025
sg82
g267
sg75
(lp1026
g68
(g89
g70
NtRp1027
(dp1028
g73
(dp1029
g93
g94
ssg82
g1023
sg75
(lp1030
S'session_id_wsd'
p1031
asbag68
(g89
g70
NtRp1032
(dp1033
g73
(dp1034
g100
g101
ssg82
g1023
sg75
(lp1035
S':'
asbag68
(g89
g70
NtRp1036
(dp1037
g73
(dp1038
sg82
g1023
sg75
(lp1039
g68
(g69
g70
NtRp1040
(dp1041
g73
(dp1042
g81
I4
ssg82
g1036
sg75
(lp1043
S'127.0.0.1-d76d2f66-a702-4d08-8b16-65a16f46815e'
p1044
ag68
(g77
g70
NtRp1045
(dp1046
g73
(dp1047
g81
I3
ssg82
Nsg75
(lp1048
g68
(g84
g70
NtRp1049
(dp1050
g73
(dp1051
sg82
g1045
sg75
(lp1052
g68
(g89
g70
NtRp1053
(dp1054
g73
(dp1055
g93
g94
ssg82
g1049
sg75
(lp1056
g305
asbag68
(g89
g70
NtRp1057
(dp1058
g73
(dp1059
g100
g101
ssg82
g1049
sg75
(lp1060
S':'
asbag68
(g89
g70
NtRp1061
(dp1062
g73
(dp1063
sg82
g1049
sg75
(lp1064
g68
(g69
g70
NtRp1065
(dp1066
g73
(dp1067
g81
I3
ssg82
g1061
sg75
(lp1068
S''
asbasbasbag68
(g84
g70
NtRp1069
(dp1070
g73
(dp1071
sg82
g1045
sg75
(lp1072
g68
(g89
g70
NtRp1073
(dp1074
g73
(dp1075
g93
g94
ssg82
g1069
sg75
(lp1076
g326
asbag68
(g89
g70
NtRp1077
(dp1078
g73
(dp1079
g100
g101
ssg82
g1069
sg75
(lp1080
S':'
asbag68
(g89
g70
NtRp1081
(dp1082
g73
(dp1083
sg82
g1069
sg75
(lp1084
g68
(g69
g70
NtRp1085
(dp1086
g73
(dp1087
g81
I3
ssg82
g1081
sg75
(lp1088
S''
asbasbasbag68
(g84
g70
NtRp1089
(dp1090
g73
(dp1091
sg82
g1045
sg75
(lp1092
g68
(g89
g70
NtRp1093
(dp1094
g73
(dp1095
g93
g94
ssg82
g1089
sg75
(lp1096
g347
asbag68
(g89
g70
NtRp1097
(dp1098
g73
(dp1099
g100
g101
ssg82
g1089
sg75
(lp1100
S':'
asbag68
(g89
g70
NtRp1101
(dp1102
g73
(dp1103
sg82
g1089
sg75
(lp1104
g68
(g69
g70
NtRp1105
(dp1106
g73
(dp1107
g81
I3
ssg82
g1101
sg75
(lp1108
S''
asbasbasbag68
(g84
g70
NtRp1109
(dp1110
g73
(dp1111
sg82
g1045
sg75
(lp1112
g68
(g89
g70
NtRp1113
(dp1114
g73
(dp1115
g93
g94
ssg82
g1109
sg75
(lp1116
g368
asbag68
(g89
g70
NtRp1117
(dp1118
g73
(dp1119
g100
g101
ssg82
g1109
sg75
(lp1120
S':'
asbag68
(g89
g70
NtRp1121
(dp1122
g73
(dp1123
sg82
g1109
sg75
(lp1124
g68
(g69
g70
NtRp1125
(dp1126
g73
(dp1127
g81
I3
ssg82
g1121
sg75
(lp1128
S''
asbasbasbag68
(g84
g70
NtRp1129
(dp1130
g73
(dp1131
sg82
g1045
sg75
(lp1132
g68
(g89
g70
NtRp1133
(dp1134
g73
(dp1135
g93
g94
ssg82
g1129
sg75
(lp1136
g389
asbag68
(g89
g70
NtRp1137
(dp1138
g73
(dp1139
g100
g101
ssg82
g1129
sg75
(lp1140
S':'
asbag68
(g89
g70
NtRp1141
(dp1142
g73
(dp1143
sg82
g1129
sg75
(lp1144
g68
(g69
g70
NtRp1145
(dp1146
g73
(dp1147
g81
I3
ssg82
g1141
sg75
(lp1148
S''
asbasbasbag68
(g84
g70
NtRp1149
(dp1150
g73
(dp1151
sg82
g1045
sg75
(lp1152
g68
(g89
g70
NtRp1153
(dp1154
g73
(dp1155
g93
g94
ssg82
g1149
sg75
(lp1156
g410
asbag68
(g89
g70
NtRp1157
(dp1158
g73
(dp1159
g100
g101
ssg82
g1149
sg75
(lp1160
S':'
asbag68
(g89
g70
NtRp1161
(dp1162
g73
(dp1163
sg82
g1149
sg75
(lp1164
g68
(g69
g70
NtRp1165
(dp1166
g73
(dp1167
g81
I3
ssg82
g1161
sg75
(lp1168
S''
asbasbasbag68
(g84
g70
NtRp1169
(dp1170
g73
(dp1171
sg82
g1045
sg75
(lp1172
g68
(g89
g70
NtRp1173
(dp1174
g73
(dp1175
g93
g94
ssg82
g1169
sg75
(lp1176
g431
asbag68
(g89
g70
NtRp1177
(dp1178
g73
(dp1179
g100
g101
ssg82
g1169
sg75
(lp1180
S':'
asbag68
(g89
g70
NtRp1181
(dp1182
g73
(dp1183
sg82
g1169
sg75
(lp1184
g68
(g69
g70
NtRp1185
(dp1186
g73
(dp1187
g81
I3
ssg82
g1181
sg75
(lp1188
S''
asbasbasbag68
(g84
g70
NtRp1189
(dp1190
g73
(dp1191
sg82
g1045
sg75
(lp1192
g68
(g89
g70
NtRp1193
(dp1194
g73
(dp1195
g93
g94
ssg82
g1189
sg75
(lp1196
g452
asbag68
(g89
g70
NtRp1197
(dp1198
g73
(dp1199
g100
g101
ssg82
g1189
sg75
(lp1200
S':'
asbag68
(g89
g70
NtRp1201
(dp1202
g73
(dp1203
sg82
g1189
sg75
(lp1204
g68
(g69
g70
NtRp1205
(dp1206
g73
(dp1207
g81
I3
ssg82
g1201
sg75
(lp1208
S''
asbasbasbasbasbasbasbasbasbasbasbag68
(g84
g70
NtRp1209
(dp1210
g73
(dp1211
sg82
g78
sg75
(lp1212
g68
(g89
g70
NtRp1213
(dp1214
g73
(dp1215
g93
g94
ssg82
g1209
sg75
(lp1216
S'env'
p1217
asbag68
(g89
g70
NtRp1218
(dp1219
g73
(dp1220
g100
g101
ssg82
g1209
sg75
(lp1221
S':'
asbag68
(g89
g70
NtRp1222
(dp1223
g73
(dp1224
sg82
g1209
sg75
(lp1225
g68
(g69
g70
NtRp1226
(dp1227
g73
(dp1228
g81
I5
ssg82
g1222
sg75
(lp1229
g68
(g77
g70
NtRp1230
(dp1231
g73
(dp1232
g81
I4
ssg82
Nsg75
(lp1233
g68
(g84
g70
NtRp1234
(dp1235
g73
(dp1236
sg82
g1230
sg75
(lp1237
g68
(g89
g70
NtRp1238
(dp1239
g73
(dp1240
g93
g94
ssg82
g1234
sg75
(lp1241
S'app_folders'
p1242
asbag68
(g89
g70
NtRp1243
(dp1244
g73
(dp1245
g100
g101
ssg82
g1234
sg75
(lp1246
S':'
asbag68
(g89
g70
NtRp1247
(dp1248
g73
(dp1249
sg82
g1234
sg75
(lp1250
g68
(g69
g70
NtRp1251
(dp1252
g73
(dp1253
g81
I4
ssg82
g1247
sg75
(lp1254
S"set(['/home/nazrul/web2py/applications/WSD/', '/home/nazrul/web2py/applications/welcome/', '/home/nazrul/web2py/applications/news/', '/home/nazrul/web2py/applications/admin/'])"
p1255
asbasbasbag68
(g84
g70
NtRp1256
(dp1257
g73
(dp1258
sg82
g1230
sg75
(lp1259
g68
(g89
g70
NtRp1260
(dp1261
g73
(dp1262
g93
g94
ssg82
g1256
sg75
(lp1263
S'applications_parent'
p1264
asbag68
(g89
g70
NtRp1265
(dp1266
g73
(dp1267
g100
g101
ssg82
g1256
sg75
(lp1268
S':'
asbag68
(g89
g70
NtRp1269
(dp1270
g73
(dp1271
sg82
g1256
sg75
(lp1272
g68
(g69
g70
NtRp1273
(dp1274
g73
(dp1275
g81
I4
ssg82
g1269
sg75
(lp1276
S'/home/nazrul/web2py'
p1277
asbasbasbag68
(g84
g70
NtRp1278
(dp1279
g73
(dp1280
sg82
g1230
sg75
(lp1281
g68
(g89
g70
NtRp1282
(dp1283
g73
(dp1284
g93
g94
ssg82
g1278
sg75
(lp1285
S'cmd_args'
p1286
asbag68
(g89
g70
NtRp1287
(dp1288
g73
(dp1289
g100
g101
ssg82
g1278
sg75
(lp1290
S':'
asbag68
(g89
g70
NtRp1291
(dp1292
g73
(dp1293
sg82
g1278
sg75
(lp1294
g68
(g69
g70
NtRp1295
(dp1296
g73
(dp1297
g81
I4
ssg82
g1291
sg75
(lp1298
g68
(g77
g70
NtRp1299
(dp1300
g73
(dp1301
g81
I3
ssg82
Nsg75
(lp1302
sbasbasbasbag68
(g84
g70
NtRp1303
(dp1304
g73
(dp1305
sg82
g1230
sg75
(lp1306
g68
(g89
g70
NtRp1307
(dp1308
g73
(dp1309
g93
g94
ssg82
g1303
sg75
(lp1310
S'cmd_options'
p1311
asbag68
(g89
g70
NtRp1312
(dp1313
g73
(dp1314
g100
g101
ssg82
g1303
sg75
(lp1315
S':'
asbag68
(g89
g70
NtRp1316
(dp1317
g73
(dp1318
sg82
g1303
sg75
(lp1319
g68
(g69
g70
NtRp1320
(dp1321
g73
(dp1322
g81
I4
ssg82
g1316
sg75
(lp1323
S"<Values at 0x8e4a9cc: {'verbose': False, 'ip': '127.0.0.1', 'with_scheduler': False, 'ips': [], 'shutdown_timeout': 5, 'taskbar': False, 'port': 8000, 'maxthreads': None, 'softcron': False, 'server_name': 'nazrul-Compaq-Presario-CQ40-Notebook-PC', 'bpython': False, 'nogui': False, 'pid_filename': 'httpserver.pid', 'extcron': False, 'runcron': False, 'run_system_tests': False, 'test': None, 'folder': '/home/nazrul/web2py', 'config': '', 'import_models': False, 'winservice': '', 'shell': None, 'run': '', 'log_filename': 'httpserver.log', 'debuglevel': 30, 'args': [''], 'socket_timeout': 5, 'ssl_ca_certificate': None, 'scheduler': None, 'profiler_filename': None, 'ssl_private_key': '', 'scheduler_groups': None, 'password': '<ask>', 'request_queue_size': 5, 'ssl_certificate': '', 'cronjob': False, 'numthreads': None, 'quiet': False, 'interfaces': None, 'minthreads': None, 'timeout': 10, 'plain': False, 'nobanner': False}>"
p1324
asbasbasbag68
(g84
g70
NtRp1325
(dp1326
g73
(dp1327
sg82
g1230
sg75
(lp1328
g68
(g89
g70
NtRp1329
(dp1330
g73
(dp1331
g93
g94
ssg82
g1325
sg75
(lp1332
S'db_sessions'
p1333
asbag68
(g89
g70
NtRp1334
(dp1335
g73
(dp1336
g100
g101
ssg82
g1325
sg75
(lp1337
S':'
asbag68
(g89
g70
NtRp1338
(dp1339
g73
(dp1340
sg82
g1325
sg75
(lp1341
g68
(g69
g70
NtRp1342
(dp1343
g73
(dp1344
g81
I4
ssg82
g1338
sg75
(lp1345
S'set([])'
p1346
asbasbasbag68
(g84
g70
NtRp1347
(dp1348
g73
(dp1349
sg82
g1230
sg75
(lp1350
g68
(g89
g70
NtRp1351
(dp1352
g73
(dp1353
g93
g94
ssg82
g1347
sg75
(lp1354
S'debugging'
p1355
asbag68
(g89
g70
NtRp1356
(dp1357
g73
(dp1358
g100
g101
ssg82
g1347
sg75
(lp1359
S':'
asbag68
(g89
g70
NtRp1360
(dp1361
g73
(dp1362
sg82
g1347
sg75
(lp1363
g68
(g69
g70
NtRp1364
(dp1365
g73
(dp1366
g81
I4
ssg82
g1360
sg75
(lp1367
g111
asbasbasbag68
(g84
g70
NtRp1368
(dp1369
g73
(dp1370
sg82
g1230
sg75
(lp1371
g68
(g89
g70
NtRp1372
(dp1373
g73
(dp1374
g93
g94
ssg82
g1368
sg75
(lp1375
S'gluon_parent'
p1376
asbag68
(g89
g70
NtRp1377
(dp1378
g73
(dp1379
g100
g101
ssg82
g1368
sg75
(lp1380
S':'
asbag68
(g89
g70
NtRp1381
(dp1382
g73
(dp1383
sg82
g1368
sg75
(lp1384
g68
(g69
g70
NtRp1385
(dp1386
g73
(dp1387
g81
I4
ssg82
g1381
sg75
(lp1388
S'/home/nazrul/web2py'
p1389
asbasbasbag68
(g84
g70
NtRp1390
(dp1391
g73
(dp1392
sg82
g1230
sg75
(lp1393
g68
(g89
g70
NtRp1394
(dp1395
g73
(dp1396
g93
g94
ssg82
g1390
sg75
(lp1397
S'http_accept'
p1398
asbag68
(g89
g70
NtRp1399
(dp1400
g73
(dp1401
g100
g101
ssg82
g1390
sg75
(lp1402
S':'
asbag68
(g89
g70
NtRp1403
(dp1404
g73
(dp1405
sg82
g1390
sg75
(lp1406
g68
(g69
g70
NtRp1407
(dp1408
g73
(dp1409
g81
I4
ssg82
g1403
sg75
(lp1410
S'text/html,application/xhtml+xml,application/xml;q=0.9,*/*;q=0.8'
p1411
asbasbasbag68
(g84
g70
NtRp1412
(dp1413
g73
(dp1414
sg82
g1230
sg75
(lp1415
g68
(g89
g70
NtRp1416
(dp1417
g73
(dp1418
g93
g94
ssg82
g1412
sg75
(lp1419
S'http_accept_encoding'
p1420
asbag68
(g89
g70
NtRp1421
(dp1422
g73
(dp1423
g100
g101
ssg82
g1412
sg75
(lp1424
S':'
asbag68
(g89
g70
NtRp1425
(dp1426
g73
(dp1427
sg82
g1412
sg75
(lp1428
g68
(g69
g70
NtRp1429
(dp1430
g73
(dp1431
g81
I4
ssg82
g1425
sg75
(lp1432
S'gzip, deflate'
p1433
asbasbasbag68
(g84
g70
NtRp1434
(dp1435
g73
(dp1436
sg82
g1230
sg75
(lp1437
g68
(g89
g70
NtRp1438
(dp1439
g73
(dp1440
g93
g94
ssg82
g1434
sg75
(lp1441
S'http_accept_language'
p1442
asbag68
(g89
g70
NtRp1443
(dp1444
g73
(dp1445
g100
g101
ssg82
g1434
sg75
(lp1446
S':'
asbag68
(g89
g70
NtRp1447
(dp1448
g73
(dp1449
sg82
g1434
sg75
(lp1450
g68
(g69
g70
NtRp1451
(dp1452
g73
(dp1453
g81
I4
ssg82
g1447
sg75
(lp1454
S'en-US,en;q=0.5'
p1455
asbasbasbag68
(g84
g70
NtRp1456
(dp1457
g73
(dp1458
sg82
g1230
sg75
(lp1459
g68
(g89
g70
NtRp1460
(dp1461
g73
(dp1462
g93
g94
ssg82
g1456
sg75
(lp1463
S'http_connection'
p1464
asbag68
(g89
g70
NtRp1465
(dp1466
g73
(dp1467
g100
g101
ssg82
g1456
sg75
(lp1468
S':'
asbag68
(g89
g70
NtRp1469
(dp1470
g73
(dp1471
sg82
g1456
sg75
(lp1472
g68
(g69
g70
NtRp1473
(dp1474
g73
(dp1475
g81
I4
ssg82
g1469
sg75
(lp1476
S'keep-alive'
p1477
asbasbasbag68
(g84
g70
NtRp1478
(dp1479
g73
(dp1480
sg82
g1230
sg75
(lp1481
g68
(g89
g70
NtRp1482
(dp1483
g73
(dp1484
g93
g94
ssg82
g1478
sg75
(lp1485
S'http_cookie'
p1486
asbag68
(g89
g70
NtRp1487
(dp1488
g73
(dp1489
g100
g101
ssg82
g1478
sg75
(lp1490
S':'
asbag68
(g89
g70
NtRp1491
(dp1492
g73
(dp1493
sg82
g1478
sg75
(lp1494
g68
(g69
g70
NtRp1495
(dp1496
g73
(dp1497
g81
I4
ssg82
g1491
sg75
(lp1498
S'KBD=0hi-0; session_id_welcome=127.0.0.1-4ab9dacb-7270-459d-aef4-f28bb3d059e1; session_id_admin=127.0.0.1-76a862a2-9a71-40a1-95b6-27d29da4fe5d; session_id_wsd=127.0.0.1-d76d2f66-a702-4d08-8b16-65a16f46815e; session_id_news=127.0.0.1-4eea093e-3431-4797-bd7a-1e49bcb534a8'
p1499
asbasbasbag68
(g84
g70
NtRp1500
(dp1501
g73
(dp1502
sg82
g1230
sg75
(lp1503
g68
(g89
g70
NtRp1504
(dp1505
g73
(dp1506
g93
g94
ssg82
g1500
sg75
(lp1507
S'http_host'
p1508
asbag68
(g89
g70
NtRp1509
(dp1510
g73
(dp1511
g100
g101
ssg82
g1500
sg75
(lp1512
S':'
asbag68
(g89
g70
NtRp1513
(dp1514
g73
(dp1515
sg82
g1500
sg75
(lp1516
g68
(g69
g70
NtRp1517
(dp1518
g73
(dp1519
g81
I4
ssg82
g1513
sg75
(lp1520
S'127.0.0.1:8000'
p1521
asbasbasbag68
(g84
g70
NtRp1522
(dp1523
g73
(dp1524
sg82
g1230
sg75
(lp1525
g68
(g89
g70
NtRp1526
(dp1527
g73
(dp1528
g93
g94
ssg82
g1522
sg75
(lp1529
S'http_user_agent'
p1530
asbag68
(g89
g70
NtRp1531
(dp1532
g73
(dp1533
g100
g101
ssg82
g1522
sg75
(lp1534
S':'
asbag68
(g89
g70
NtRp1535
(dp1536
g73
(dp1537
sg82
g1522
sg75
(lp1538
g68
(g69
g70
NtRp1539
(dp1540
g73
(dp1541
g81
I4
ssg82
g1535
sg75
(lp1542
S'Mozilla/5.0 (X11; Ubuntu; Linux i686; rv:18.0) Gecko/20100101 Firefox/18.0'
p1543
asbasbasbag68
(g84
g70
NtRp1544
(dp1545
g73
(dp1546
sg82
g1230
sg75
(lp1547
g68
(g89
g70
NtRp1548
(dp1549
g73
(dp1550
g93
g94
ssg82
g1544
sg75
(lp1551
S'is_jython'
p1552
asbag68
(g89
g70
NtRp1553
(dp1554
g73
(dp1555
g100
g101
ssg82
g1544
sg75
(lp1556
S':'
asbag68
(g89
g70
NtRp1557
(dp1558
g73
(dp1559
sg82
g1544
sg75
(lp1560
g68
(g69
g70
NtRp1561
(dp1562
g73
(dp1563
g81
I4
ssg82
g1557
sg75
(lp1564
g111
asbasbasbag68
(g84
g70
NtRp1565
(dp1566
g73
(dp1567
sg82
g1230
sg75
(lp1568
g68
(g89
g70
NtRp1569
(dp1570
g73
(dp1571
g93
g94
ssg82
g1565
sg75
(lp1572
S'is_pypy'
p1573
asbag68
(g89
g70
NtRp1574
(dp1575
g73
(dp1576
g100
g101
ssg82
g1565
sg75
(lp1577
S':'
asbag68
(g89
g70
NtRp1578
(dp1579
g73
(dp1580
sg82
g1565
sg75
(lp1581
g68
(g69
g70
NtRp1582
(dp1583
g73
(dp1584
g81
I4
ssg82
g1578
sg75
(lp1585
g111
asbasbasbag68
(g84
g70
NtRp1586
(dp1587
g73
(dp1588
sg82
g1230
sg75
(lp1589
g68
(g89
g70
NtRp1590
(dp1591
g73
(dp1592
g93
g94
ssg82
g1586
sg75
(lp1593
S'local_hosts'
p1594
asbag68
(g89
g70
NtRp1595
(dp1596
g73
(dp1597
g100
g101
ssg82
g1586
sg75
(lp1598
S':'
asbag68
(g89
g70
NtRp1599
(dp1600
g73
(dp1601
sg82
g1586
sg75
(lp1602
g68
(g69
g70
NtRp1603
(dp1604
g73
(dp1605
g81
I4
ssg82
g1599
sg75
(lp1606
g68
(g77
g70
NtRp1607
(dp1608
g73
(dp1609
g81
I3
ssg82
Nsg75
(lp1610
g68
(g84
g70
NtRp1611
(dp1612
g73
(dp1613
sg82
g1607
sg75
(lp1614
g68
(g89
g70
NtRp1615
(dp1616
g73
(dp1617
sg82
g1611
sg75
(lp1618
g68
(g69
g70
NtRp1619
(dp1620
g73
(dp1621
g81
I3
ssg82
g1615
sg75
(lp1622
S'::1'
p1623
asbasbasbag68
(g84
g70
NtRp1624
(dp1625
g73
(dp1626
sg82
g1607
sg75
(lp1627
g68
(g89
g70
NtRp1628
(dp1629
g73
(dp1630
sg82
g1624
sg75
(lp1631
g68
(g69
g70
NtRp1632
(dp1633
g73
(dp1634
g81
I3
ssg82
g1628
sg75
(lp1635
S'127.0.1.1'
p1636
asbasbasbag68
(g84
g70
NtRp1637
(dp1638
g73
(dp1639
sg82
g1607
sg75
(lp1640
g68
(g89
g70
NtRp1641
(dp1642
g73
(dp1643
sg82
g1637
sg75
(lp1644
g68
(g69
g70
NtRp1645
(dp1646
g73
(dp1647
g81
I3
ssg82
g1641
sg75
(lp1648
S'::ffff:127.0.0.1'
p1649
asbasbasbag68
(g84
g70
NtRp1650
(dp1651
g73
(dp1652
sg82
g1607
sg75
(lp1653
g68
(g89
g70
NtRp1654
(dp1655
g73
(dp1656
sg82
g1650
sg75
(lp1657
g68
(g69
g70
NtRp1658
(dp1659
g73
(dp1660
g81
I3
ssg82
g1654
sg75
(lp1661
S'127.0.0.1'
p1662
asbasbasbag68
(g84
g70
NtRp1663
(dp1664
g73
(dp1665
sg82
g1607
sg75
(lp1666
g68
(g89
g70
NtRp1667
(dp1668
g73
(dp1669
sg82
g1663
sg75
(lp1670
g68
(g69
g70
NtRp1671
(dp1672
g73
(dp1673
g81
I3
ssg82
g1667
sg75
(lp1674
S'nazrul-Compaq-Presario-CQ40-Notebook-PC'
p1675
asbasbasbasbasbasbasbag68
(g84
g70
NtRp1676
(dp1677
g73
(dp1678
sg82
g1230
sg75
(lp1679
g68
(g89
g70
NtRp1680
(dp1681
g73
(dp1682
g93
g94
ssg82
g1676
sg75
(lp1683
S'path_info'
p1684
asbag68
(g89
g70
NtRp1685
(dp1686
g73
(dp1687
g100
g101
ssg82
g1676
sg75
(lp1688
S':'
asbag68
(g89
g70
NtRp1689
(dp1690
g73
(dp1691
sg82
g1676
sg75
(lp1692
g68
(g69
g70
NtRp1693
(dp1694
g73
(dp1695
g81
I4
ssg82
g1689
sg75
(lp1696
S'/WSD/default/disp_adv'
p1697
asbasbasbag68
(g84
g70
NtRp1698
(dp1699
g73
(dp1700
sg82
g1230
sg75
(lp1701
g68
(g89
g70
NtRp1702
(dp1703
g73
(dp1704
g93
g94
ssg82
g1698
sg75
(lp1705
S'query_string'
p1706
asbag68
(g89
g70
NtRp1707
(dp1708
g73
(dp1709
g100
g101
ssg82
g1698
sg75
(lp1710
S':'
asbag68
(g89
g70
NtRp1711
(dp1712
g73
(dp1713
sg82
g1698
sg75
(lp1714
g68
(g69
g70
NtRp1715
(dp1716
g73
(dp1717
g81
I4
ssg82
g1711
sg75
(lp1718
S'uid=7'
p1719
asbasbasbag68
(g84
g70
NtRp1720
(dp1721
g73
(dp1722
sg82
g1230
sg75
(lp1723
g68
(g89
g70
NtRp1724
(dp1725
g73
(dp1726
g93
g94
ssg82
g1720
sg75
(lp1727
S'remote_addr'
p1728
asbag68
(g89
g70
NtRp1729
(dp1730
g73
(dp1731
g100
g101
ssg82
g1720
sg75
(lp1732
S':'
asbag68
(g89
g70
NtRp1733
(dp1734
g73
(dp1735
sg82
g1720
sg75
(lp1736
g68
(g69
g70
NtRp1737
(dp1738
g73
(dp1739
g81
I4
ssg82
g1733
sg75
(lp1740
g223
asbasbasbag68
(g84
g70
NtRp1741
(dp1742
g73
(dp1743
sg82
g1230
sg75
(lp1744
g68
(g89
g70
NtRp1745
(dp1746
g73
(dp1747
g93
g94
ssg82
g1741
sg75
(lp1748
S'remote_port'
p1749
asbag68
(g89
g70
NtRp1750
(dp1751
g73
(dp1752
g100
g101
ssg82
g1741
sg75
(lp1753
S':'
asbag68
(g89
g70
NtRp1754
(dp1755
g73
(dp1756
sg82
g1741
sg75
(lp1757
g68
(g69
g70
NtRp1758
(dp1759
g73
(dp1760
g81
I4
ssg82
g1754
sg75
(lp1761
S'46764'
p1762
asbasbasbag68
(g84
g70
NtRp1763
(dp1764
g73
(dp1765
sg82
g1230
sg75
(lp1766
g68
(g89
g70
NtRp1767
(dp1768
g73
(dp1769
g93
g94
ssg82
g1763
sg75
(lp1770
S'request_method'
p1771
asbag68
(g89
g70
NtRp1772
(dp1773
g73
(dp1774
g100
g101
ssg82
g1763
sg75
(lp1775
S':'
asbag68
(g89
g70
NtRp1776
(dp1777
g73
(dp1778
sg82
g1763
sg75
(lp1779
g68
(g69
g70
NtRp1780
(dp1781
g73
(dp1782
g81
I4
ssg82
g1776
sg75
(lp1783
S'GET'
p1784
asbasbasbag68
(g84
g70
NtRp1785
(dp1786
g73
(dp1787
sg82
g1230
sg75
(lp1788
g68
(g89
g70
NtRp1789
(dp1790
g73
(dp1791
g93
g94
ssg82
g1785
sg75
(lp1792
S'request_uri'
p1793
asbag68
(g89
g70
NtRp1794
(dp1795
g73
(dp1796
g100
g101
ssg82
g1785
sg75
(lp1797
S':'
asbag68
(g89
g70
NtRp1798
(dp1799
g73
(dp1800
sg82
g1785
sg75
(lp1801
g68
(g69
g70
NtRp1802
(dp1803
g73
(dp1804
g81
I4
ssg82
g1798
sg75
(lp1805
S'/WSD/default/disp_adv?uid=7'
p1806
asbasbasbag68
(g84
g70
NtRp1807
(dp1808
g73
(dp1809
sg82
g1230
sg75
(lp1810
g68
(g89
g70
NtRp1811
(dp1812
g73
(dp1813
g93
g94
ssg82
g1807
sg75
(lp1814
S'script_name'
p1815
asbag68
(g89
g70
NtRp1816
(dp1817
g73
(dp1818
g100
g101
ssg82
g1807
sg75
(lp1819
S':'
asbag68
(g89
g70
NtRp1820
(dp1821
g73
(dp1822
sg82
g1807
sg75
(lp1823
g68
(g69
g70
NtRp1824
(dp1825
g73
(dp1826
g81
I4
ssg82
g1820
sg75
(lp1827
S''
asbasbasbag68
(g84
g70
NtRp1828
(dp1829
g73
(dp1830
sg82
g1230
sg75
(lp1831
g68
(g89
g70
NtRp1832
(dp1833
g73
(dp1834
g93
g94
ssg82
g1828
sg75
(lp1835
S'server_name'
p1836
asbag68
(g89
g70
NtRp1837
(dp1838
g73
(dp1839
g100
g101
ssg82
g1828
sg75
(lp1840
S':'
asbag68
(g89
g70
NtRp1841
(dp1842
g73
(dp1843
sg82
g1828
sg75
(lp1844
g68
(g69
g70
NtRp1845
(dp1846
g73
(dp1847
g81
I4
ssg82
g1841
sg75
(lp1848
S'nazrul-Compaq-Presario-CQ40-Notebook-PC'
p1849
asbasbasbag68
(g84
g70
NtRp1850
(dp1851
g73
(dp1852
sg82
g1230
sg75
(lp1853
g68
(g89
g70
NtRp1854
(dp1855
g73
(dp1856
g93
g94
ssg82
g1850
sg75
(lp1857
S'server_port'
p1858
asbag68
(g89
g70
NtRp1859
(dp1860
g73
(dp1861
g100
g101
ssg82
g1850
sg75
(lp1862
S':'
asbag68
(g89
g70
NtRp1863
(dp1864
g73
(dp1865
sg82
g1850
sg75
(lp1866
g68
(g69
g70
NtRp1867
(dp1868
g73
(dp1869
g81
I4
ssg82
g1863
sg75
(lp1870
S'8000'
p1871
asbasbasbag68
(g84
g70
NtRp1872
(dp1873
g73
(dp1874
sg82
g1230
sg75
(lp1875
g68
(g89
g70
NtRp1876
(dp1877
g73
(dp1878
g93
g94
ssg82
g1872
sg75
(lp1879
S'server_protocol'
p1880
asbag68
(g89
g70
NtRp1881
(dp1882
g73
(dp1883
g100
g101
ssg82
g1872
sg75
(lp1884
S':'
asbag68
(g89
g70
NtRp1885
(dp1886
g73
(dp1887
sg82
g1872
sg75
(lp1888
g68
(g69
g70
NtRp1889
(dp1890
g73
(dp1891
g81
I4
ssg82
g1885
sg75
(lp1892
S'HTTP/1.1'
p1893
asbasbasbag68
(g84
g70
NtRp1894
(dp1895
g73
(dp1896
sg82
g1230
sg75
(lp1897
g68
(g89
g70
NtRp1898
(dp1899
g73
(dp1900
g93
g94
ssg82
g1894
sg75
(lp1901
S'server_software'
p1902
asbag68
(g89
g70
NtRp1903
(dp1904
g73
(dp1905
g100
g101
ssg82
g1894
sg75
(lp1906
S':'
asbag68
(g89
g70
NtRp1907
(dp1908
g73
(dp1909
sg82
g1894
sg75
(lp1910
g68
(g69
g70
NtRp1911
(dp1912
g73
(dp1913
g81
I4
ssg82
g1907
sg75
(lp1914
S'Rocket 1.2.6'
p1915
asbasbasbag68
(g84
g70
NtRp1916
(dp1917
g73
(dp1918
sg82
g1230
sg75
(lp1919
g68
(g89
g70
NtRp1920
(dp1921
g73
(dp1922
g93
g94
ssg82
g1916
sg75
(lp1923
S'web2py_path'
p1924
asbag68
(g89
g70
NtRp1925
(dp1926
g73
(dp1927
g100
g101
ssg82
g1916
sg75
(lp1928
S':'
asbag68
(g89
g70
NtRp1929
(dp1930
g73
(dp1931
sg82
g1916
sg75
(lp1932
g68
(g69
g70
NtRp1933
(dp1934
g73
(dp1935
g81
I4
ssg82
g1929
sg75
(lp1936
g1277
asbasbasbag68
(g84
g70
NtRp1937
(dp1938
g73
(dp1939
sg82
g1230
sg75
(lp1940
g68
(g89
g70
NtRp1941
(dp1942
g73
(dp1943
g93
g94
ssg82
g1937
sg75
(lp1944
S'web2py_version'
p1945
asbag68
(g89
g70
NtRp1946
(dp1947
g73
(dp1948
g100
g101
ssg82
g1937
sg75
(lp1949
S':'
asbag68
(g89
g70
NtRp1950
(dp1951
g73
(dp1952
sg82
g1937
sg75
(lp1953
g68
(g69
g70
NtRp1954
(dp1955
g73
(dp1956
g81
I4
ssg82
g1950
sg75
(lp1957
g68
(g77
g70
NtRp1958
(dp1959
g73
(dp1960
g81
I3
ssg82
Nsg75
(lp1961
g68
(g84
g70
NtRp1962
(dp1963
g73
(dp1964
sg82
g1958
sg75
(lp1965
g68
(g89
g70
NtRp1966
(dp1967
g73
(dp1968
sg82
g1962
sg75
(lp1969
g68
(g69
g70
NtRp1970
(dp1971
g73
(dp1972
g81
I3
ssg82
g1966
sg75
(lp1973
S'2'
asbasbasbag68
(g84
g70
NtRp1974
(dp1975
g73
(dp1976
sg82
g1958
sg75
(lp1977
g68
(g89
g70
NtRp1978
(dp1979
g73
(dp1980
sg82
g1974
sg75
(lp1981
g68
(g69
g70
NtRp1982
(dp1983
g73
(dp1984
g81
I3
ssg82
g1978
sg75
(lp1985
S'3'
asbasbasbag68
(g84
g70
NtRp1986
(dp1987
g73
(dp1988
sg82
g1958
sg75
(lp1989
g68
(g89
g70
NtRp1990
(dp1991
g73
(dp1992
sg82
g1986
sg75
(lp1993
g68
(g69
g70
NtRp1994
(dp1995
g73
(dp1996
g81
I3
ssg82
g1990
sg75
(lp1997
S'2'
asbasbasbag68
(g84
g70
NtRp1998
(dp1999
g73
(dp2000
sg82
g1958
sg75
(lp2001
g68
(g89
g70
NtRp2002
(dp2003
g73
(dp2004
sg82
g1998
sg75
(lp2005
g68
(g69
g70
NtRp2006
(dp2007
g73
(dp2008
g81
I3
ssg82
g2002
sg75
(lp2009
S'datetime.datetime(2012, 12, 17, 15, 3, 30)'
p2010
asbasbasbag68
(g84
g70
NtRp2011
(dp2012
g73
(dp2013
sg82
g1958
sg75
(lp2014
g68
(g89
g70
NtRp2015
(dp2016
g73
(dp2017
sg82
g2011
sg75
(lp2018
g68
(g69
g70
NtRp2019
(dp2020
g73
(dp2021
g81
I3
ssg82
g2015
sg75
(lp2022
S'stable'
p2023
asbasbasbasbasbasbasbag68
(g84
g70
NtRp2024
(dp2025
g73
(dp2026
sg82
g1230
sg75
(lp2027
g68
(g89
g70
NtRp2028
(dp2029
g73
(dp2030
g93
g94
ssg82
g2024
sg75
(lp2031
S'wsgi_errors'
p2032
asbag68
(g89
g70
NtRp2033
(dp2034
g73
(dp2035
g100
g101
ssg82
g2024
sg75
(lp2036
S':'
asbag68
(g89
g70
NtRp2037
(dp2038
g73
(dp2039
sg82
g2024
sg75
(lp2040
g68
(g69
g70
NtRp2041
(dp2042
g73
(dp2043
g81
I4
ssg82
g2037
sg75
(lp2044
S"<open file '<stderr>', mode 'w' at 0xb72d20d0>"
p2045
asbasbasbag68
(g84
g70
NtRp2046
(dp2047
g73
(dp2048
sg82
g1230
sg75
(lp2049
g68
(g89
g70
NtRp2050
(dp2051
g73
(dp2052
g93
g94
ssg82
g2046
sg75
(lp2053
S'wsgi_file_wrapper'
p2054
asbag68
(g89
g70
NtRp2055
(dp2056
g73
(dp2057
g100
g101
ssg82
g2046
sg75
(lp2058
S':'
asbag68
(g89
g70
NtRp2059
(dp2060
g73
(dp2061
sg82
g2046
sg75
(lp2062
g68
(g69
g70
NtRp2063
(dp2064
g73
(dp2065
g81
I4
ssg82
g2059
sg75
(lp2066
S'<class wsgiref.util.FileWrapper at 0x8e0a47c>'
p2067
asbasbasbag68
(g84
g70
NtRp2068
(dp2069
g73
(dp2070
sg82
g1230
sg75
(lp2071
g68
(g89
g70
NtRp2072
(dp2073
g73
(dp2074
g93
g94
ssg82
g2068
sg75
(lp2075
S'wsgi_input'
p2076
asbag68
(g89
g70
NtRp2077
(dp2078
g73
(dp2079
g100
g101
ssg82
g2068
sg75
(lp2080
S':'
asbag68
(g89
g70
NtRp2081
(dp2082
g73
(dp2083
sg82
g2068
sg75
(lp2084
g68
(g69
g70
NtRp2085
(dp2086
g73
(dp2087
g81
I4
ssg82
g2081
sg75
(lp2088
S'<socket._fileobject object at 0xadf5f8ec>'
p2089
asbasbasbag68
(g84
g70
NtRp2090
(dp2091
g73
(dp2092
sg82
g1230
sg75
(lp2093
g68
(g89
g70
NtRp2094
(dp2095
g73
(dp2096
g93
g94
ssg82
g2090
sg75
(lp2097
S'wsgi_multiprocess'
p2098
asbag68
(g89
g70
NtRp2099
(dp2100
g73
(dp2101
g100
g101
ssg82
g2090
sg75
(lp2102
S':'
asbag68
(g89
g70
NtRp2103
(dp2104
g73
(dp2105
sg82
g2090
sg75
(lp2106
g68
(g69
g70
NtRp2107
(dp2108
g73
(dp2109
g81
I4
ssg82
g2103
sg75
(lp2110
g111
asbasbasbag68
(g84
g70
NtRp2111
(dp2112
g73
(dp2113
sg82
g1230
sg75
(lp2114
g68
(g89
g70
NtRp2115
(dp2116
g73
(dp2117
g93
g94
ssg82
g2111
sg75
(lp2118
S'wsgi_multithread'
p2119
asbag68
(g89
g70
NtRp2120
(dp2121
g73
(dp2122
g100
g101
ssg82
g2111
sg75
(lp2123
S':'
asbag68
(g89
g70
NtRp2124
(dp2125
g73
(dp2126
sg82
g2111
sg75
(lp2127
g68
(g69
g70
NtRp2128
(dp2129
g73
(dp2130
g81
I4
ssg82
g2124
sg75
(lp2131
S'True'
p2132
asbasbasbag68
(g84
g70
NtRp2133
(dp2134
g73
(dp2135
sg82
g1230
sg75
(lp2136
g68
(g89
g70
NtRp2137
(dp2138
g73
(dp2139
g93
g94
ssg82
g2133
sg75
(lp2140
S'wsgi_run_once'
p2141
asbag68
(g89
g70
NtRp2142
(dp2143
g73
(dp2144
g100
g101
ssg82
g2133
sg75
(lp2145
S':'
asbag68
(g89
g70
NtRp2146
(dp2147
g73
(dp2148
sg82
g2133
sg75
(lp2149
g68
(g69
g70
NtRp2150
(dp2151
g73
(dp2152
g81
I4
ssg82
g2146
sg75
(lp2153
g111
asbasbasbag68
(g84
g70
NtRp2154
(dp2155
g73
(dp2156
sg82
g1230
sg75
(lp2157
g68
(g89
g70
NtRp2158
(dp2159
g73
(dp2160
g93
g94
ssg82
g2154
sg75
(lp2161
S'wsgi_url_scheme'
p2162
asbag68
(g89
g70
NtRp2163
(dp2164
g73
(dp2165
g100
g101
ssg82
g2154
sg75
(lp2166
S':'
asbag68
(g89
g70
NtRp2167
(dp2168
g73
(dp2169
sg82
g2154
sg75
(lp2170
g68
(g69
g70
NtRp2171
(dp2172
g73
(dp2173
g81
I4
ssg82
g2167
sg75
(lp2174
S'http'
p2175
asbasbasbag68
(g84
g70
NtRp2176
(dp2177
g73
(dp2178
sg82
g1230
sg75
(lp2179
g68
(g89
g70
NtRp2180
(dp2181
g73
(dp2182
g93
g94
ssg82
g2176
sg75
(lp2183
S'wsgi_version'
p2184
asbag68
(g89
g70
NtRp2185
(dp2186
g73
(dp2187
g100
g101
ssg82
g2176
sg75
(lp2188
S':'
asbag68
(g89
g70
NtRp2189
(dp2190
g73
(dp2191
sg82
g2176
sg75
(lp2192
g68
(g69
g70
NtRp2193
(dp2194
g73
(dp2195
g81
I4
ssg82
g2189
sg75
(lp2196
g68
(g77
g70
NtRp2197
(dp2198
g73
(dp2199
g81
I3
ssg82
Nsg75
(lp2200
g68
(g84
g70
NtRp2201
(dp2202
g73
(dp2203
sg82
g2197
sg75
(lp2204
g68
(g89
g70
NtRp2205
(dp2206
g73
(dp2207
sg82
g2201
sg75
(lp2208
g68
(g69
g70
NtRp2209
(dp2210
g73
(dp2211
g81
I3
ssg82
g2205
sg75
(lp2212
S'1'
asbasbasbag68
(g84
g70
NtRp2213
(dp2214
g73
(dp2215
sg82
g2197
sg75
(lp2216
g68
(g89
g70
NtRp2217
(dp2218
g73
(dp2219
sg82
g2213
sg75
(lp2220
g68
(g69
g70
NtRp2221
(dp2222
g73
(dp2223
g81
I3
ssg82
g2217
sg75
(lp2224
S'0'
asbasbasbasbasbasbasbasbasbasbasbag68
(g84
g70
NtRp2225
(dp2226
g73
(dp2227
sg82
g78
sg75
(lp2228
g68
(g89
g70
NtRp2229
(dp2230
g73
(dp2231
g93
g94
ssg82
g2225
sg75
(lp2232
S'extension'
p2233
asbag68
(g89
g70
NtRp2234
(dp2235
g73
(dp2236
g100
g101
ssg82
g2225
sg75
(lp2237
S':'
asbag68
(g89
g70
NtRp2238
(dp2239
g73
(dp2240
sg82
g2225
sg75
(lp2241
g68
(g69
g70
NtRp2242
(dp2243
g73
(dp2244
g81
I5
ssg82
g2238
sg75
(lp2245
S'html'
p2246
asbasbasbag68
(g84
g70
NtRp2247
(dp2248
g73
(dp2249
sg82
g78
sg75
(lp2250
g68
(g89
g70
NtRp2251
(dp2252
g73
(dp2253
g93
g94
ssg82
g2247
sg75
(lp2254
S'folder'
p2255
asbag68
(g89
g70
NtRp2256
(dp2257
g73
(dp2258
g100
g101
ssg82
g2247
sg75
(lp2259
S':'
asbag68
(g89
g70
NtRp2260
(dp2261
g73
(dp2262
sg82
g2247
sg75
(lp2263
g68
(g69
g70
NtRp2264
(dp2265
g73
(dp2266
g81
I5
ssg82
g2260
sg75
(lp2267
S'/home/nazrul/web2py/applications/WSD/'
p2268
asbasbasbag68
(g84
g70
NtRp2269
(dp2270
g73
(dp2271
sg82
g78
sg75
(lp2272
g68
(g89
g70
NtRp2273
(dp2274
g73
(dp2275
g93
g94
ssg82
g2269
sg75
(lp2276
S'function'
p2277
asbag68
(g89
g70
NtRp2278
(dp2279
g73
(dp2280
g100
g101
ssg82
g2269
sg75
(lp2281
S':'
asbag68
(g89
g70
NtRp2282
(dp2283
g73
(dp2284
sg82
g2269
sg75
(lp2285
g68
(g69
g70
NtRp2286
(dp2287
g73
(dp2288
g81
I5
ssg82
g2282
sg75
(lp2289
S'disp_adv'
p2290
asbasbasbag68
(g84
g70
NtRp2291
(dp2292
g73
(dp2293
sg82
g78
sg75
(lp2294
g68
(g89
g70
NtRp2295
(dp2296
g73
(dp2297
g93
g94
ssg82
g2291
sg75
(lp2298
S'get_vars'
p2299
asbag68
(g89
g70
NtRp2300
(dp2301
g73
(dp2302
g100
g101
ssg82
g2291
sg75
(lp2303
S':'
asbag68
(g89
g70
NtRp2304
(dp2305
g73
(dp2306
sg82
g2291
sg75
(lp2307
g68
(g69
g70
NtRp2308
(dp2309
g73
(dp2310
g81
I5
ssg82
g2304
sg75
(lp2311
g68
(g77
g70
NtRp2312
(dp2313
g73
(dp2314
g81
I4
ssg82
Nsg75
(lp2315
g68
(g84
g70
NtRp2316
(dp2317
g73
(dp2318
sg82
g2312
sg75
(lp2319
g68
(g89
g70
NtRp2320
(dp2321
g73
(dp2322
g93
g94
ssg82
g2316
sg75
(lp2323
S'uid'
p2324
asbag68
(g89
g70
NtRp2325
(dp2326
g73
(dp2327
g100
g101
ssg82
g2316
sg75
(lp2328
S':'
asbag68
(g89
g70
NtRp2329
(dp2330
g73
(dp2331
sg82
g2316
sg75
(lp2332
g68
(g69
g70
NtRp2333
(dp2334
g73
(dp2335
g81
I4
ssg82
g2329
sg75
(lp2336
S'7'
asbasbasbasbasbasbasbag68
(g84
g70
NtRp2337
(dp2338
g73
(dp2339
sg82
g78
sg75
(lp2340
g68
(g89
g70
NtRp2341
(dp2342
g73
(dp2343
g93
g94
ssg82
g2337
sg75
(lp2344
S'global_settings'
p2345
asbag68
(g89
g70
NtRp2346
(dp2347
g73
(dp2348
g100
g101
ssg82
g2337
sg75
(lp2349
S':'
asbag68
(g89
g70
NtRp2350
(dp2351
g73
(dp2352
sg82
g2337
sg75
(lp2353
g68
(g69
g70
NtRp2354
(dp2355
g73
(dp2356
g81
I5
ssg82
g2350
sg75
(lp2357
g68
(g77
g70
NtRp2358
(dp2359
g73
(dp2360
g81
I4
ssg82
Nsg75
(lp2361
g68
(g84
g70
NtRp2362
(dp2363
g73
(dp2364
sg82
g2358
sg75
(lp2365
g68
(g89
g70
NtRp2366
(dp2367
g73
(dp2368
g93
g94
ssg82
g2362
sg75
(lp2369
g1242
asbag68
(g89
g70
NtRp2370
(dp2371
g73
(dp2372
g100
g101
ssg82
g2362
sg75
(lp2373
S':'
asbag68
(g89
g70
NtRp2374
(dp2375
g73
(dp2376
sg82
g2362
sg75
(lp2377
g68
(g69
g70
NtRp2378
(dp2379
g73
(dp2380
g81
I4
ssg82
g2374
sg75
(lp2381
S"set(['/home/nazrul/web2py/applications/WSD/', '/home/nazrul/web2py/applications/welcome/', '/home/nazrul/web2py/applications/news/', '/home/nazrul/web2py/applications/admin/'])"
p2382
asbasbasbag68
(g84
g70
NtRp2383
(dp2384
g73
(dp2385
sg82
g2358
sg75
(lp2386
g68
(g89
g70
NtRp2387
(dp2388
g73
(dp2389
g93
g94
ssg82
g2383
sg75
(lp2390
g1264
asbag68
(g89
g70
NtRp2391
(dp2392
g73
(dp2393
g100
g101
ssg82
g2383
sg75
(lp2394
S':'
asbag68
(g89
g70
NtRp2395
(dp2396
g73
(dp2397
sg82
g2383
sg75
(lp2398
g68
(g69
g70
NtRp2399
(dp2400
g73
(dp2401
g81
I4
ssg82
g2395
sg75
(lp2402
g1277
asbasbasbag68
(g84
g70
NtRp2403
(dp2404
g73
(dp2405
sg82
g2358
sg75
(lp2406
g68
(g89
g70
NtRp2407
(dp2408
g73
(dp2409
g93
g94
ssg82
g2403
sg75
(lp2410
g1286
asbag68
(g89
g70
NtRp2411
(dp2412
g73
(dp2413
g100
g101
ssg82
g2403
sg75
(lp2414
S':'
asbag68
(g89
g70
NtRp2415
(dp2416
g73
(dp2417
sg82
g2403
sg75
(lp2418
g68
(g69
g70
NtRp2419
(dp2420
g73
(dp2421
g81
I4
ssg82
g2415
sg75
(lp2422
g68
(g77
g70
NtRp2423
(dp2424
g73
(dp2425
g81
I3
ssg82
Nsg75
(lp2426
sbasbasbasbag68
(g84
g70
NtRp2427
(dp2428
g73
(dp2429
sg82
g2358
sg75
(lp2430
g68
(g89
g70
NtRp2431
(dp2432
g73
(dp2433
g93
g94
ssg82
g2427
sg75
(lp2434
g1311
asbag68
(g89
g70
NtRp2435
(dp2436
g73
(dp2437
g100
g101
ssg82
g2427
sg75
(lp2438
S':'
asbag68
(g89
g70
NtRp2439
(dp2440
g73
(dp2441
sg82
g2427
sg75
(lp2442
g68
(g69
g70
NtRp2443
(dp2444
g73
(dp2445
g81
I4
ssg82
g2439
sg75
(lp2446
S"<Values at 0x8e4a9cc: {'verbose': False, 'ip': '127.0.0.1', 'with_scheduler': False, 'ips': [], 'shutdown_timeout': 5, 'taskbar': False, 'port': 8000, 'maxthreads': None, 'softcron': False, 'server_name': 'nazrul-Compaq-Presario-CQ40-Notebook-PC', 'bpython': False, 'nogui': False, 'pid_filename': 'httpserver.pid', 'extcron': False, 'runcron': False, 'run_system_tests': False, 'test': None, 'folder': '/home/nazrul/web2py', 'config': '', 'import_models': False, 'winservice': '', 'shell': None, 'run': '', 'log_filename': 'httpserver.log', 'debuglevel': 30, 'args': [''], 'socket_timeout': 5, 'ssl_ca_certificate': None, 'scheduler': None, 'profiler_filename': None, 'ssl_private_key': '', 'scheduler_groups': None, 'password': '<ask>', 'request_queue_size': 5, 'ssl_certificate': '', 'cronjob': False, 'numthreads': None, 'quiet': False, 'interfaces': None, 'minthreads': None, 'timeout': 10, 'plain': False, 'nobanner': False}>"
p2447
asbasbasbag68
(g84
g70
NtRp2448
(dp2449
g73
(dp2450
sg82
g2358
sg75
(lp2451
g68
(g89
g70
NtRp2452
(dp2453
g73
(dp2454
g93
g94
ssg82
g2448
sg75
(lp2455
g1333
asbag68
(g89
g70
NtRp2456
(dp2457
g73
(dp2458
g100
g101
ssg82
g2448
sg75
(lp2459
S':'
asbag68
(g89
g70
NtRp2460
(dp2461
g73
(dp2462
sg82
g2448
sg75
(lp2463
g68
(g69
g70
NtRp2464
(dp2465
g73
(dp2466
g81
I4
ssg82
g2460
sg75
(lp2467
S'set([])'
p2468
asbasbasbag68
(g84
g70
NtRp2469
(dp2470
g73
(dp2471
sg82
g2358
sg75
(lp2472
g68
(g89
g70
NtRp2473
(dp2474
g73
(dp2475
g93
g94
ssg82
g2469
sg75
(lp2476
g1355
asbag68
(g89
g70
NtRp2477
(dp2478
g73
(dp2479
g100
g101
ssg82
g2469
sg75
(lp2480
S':'
asbag68
(g89
g70
NtRp2481
(dp2482
g73
(dp2483
sg82
g2469
sg75
(lp2484
g68
(g69
g70
NtRp2485
(dp2486
g73
(dp2487
g81
I4
ssg82
g2481
sg75
(lp2488
g111
asbasbasbag68
(g84
g70
NtRp2489
(dp2490
g73
(dp2491
sg82
g2358
sg75
(lp2492
g68
(g89
g70
NtRp2493
(dp2494
g73
(dp2495
g93
g94
ssg82
g2489
sg75
(lp2496
g1376
asbag68
(g89
g70
NtRp2497
(dp2498
g73
(dp2499
g100
g101
ssg82
g2489
sg75
(lp2500
S':'
asbag68
(g89
g70
NtRp2501
(dp2502
g73
(dp2503
sg82
g2489
sg75
(lp2504
g68
(g69
g70
NtRp2505
(dp2506
g73
(dp2507
g81
I4
ssg82
g2501
sg75
(lp2508
g1389
asbasbasbag68
(g84
g70
NtRp2509
(dp2510
g73
(dp2511
sg82
g2358
sg75
(lp2512
g68
(g89
g70
NtRp2513
(dp2514
g73
(dp2515
g93
g94
ssg82
g2509
sg75
(lp2516
g1552
asbag68
(g89
g70
NtRp2517
(dp2518
g73
(dp2519
g100
g101
ssg82
g2509
sg75
(lp2520
S':'
asbag68
(g89
g70
NtRp2521
(dp2522
g73
(dp2523
sg82
g2509
sg75
(lp2524
g68
(g69
g70
NtRp2525
(dp2526
g73
(dp2527
g81
I4
ssg82
g2521
sg75
(lp2528
g111
asbasbasbag68
(g84
g70
NtRp2529
(dp2530
g73
(dp2531
sg82
g2358
sg75
(lp2532
g68
(g89
g70
NtRp2533
(dp2534
g73
(dp2535
g93
g94
ssg82
g2529
sg75
(lp2536
g1573
asbag68
(g89
g70
NtRp2537
(dp2538
g73
(dp2539
g100
g101
ssg82
g2529
sg75
(lp2540
S':'
asbag68
(g89
g70
NtRp2541
(dp2542
g73
(dp2543
sg82
g2529
sg75
(lp2544
g68
(g69
g70
NtRp2545
(dp2546
g73
(dp2547
g81
I4
ssg82
g2541
sg75
(lp2548
g111
asbasbasbag68
(g84
g70
NtRp2549
(dp2550
g73
(dp2551
sg82
g2358
sg75
(lp2552
g68
(g89
g70
NtRp2553
(dp2554
g73
(dp2555
g93
g94
ssg82
g2549
sg75
(lp2556
g1594
asbag68
(g89
g70
NtRp2557
(dp2558
g73
(dp2559
g100
g101
ssg82
g2549
sg75
(lp2560
S':'
asbag68
(g89
g70
NtRp2561
(dp2562
g73
(dp2563
sg82
g2549
sg75
(lp2564
g68
(g69
g70
NtRp2565
(dp2566
g73
(dp2567
g81
I4
ssg82
g2561
sg75
(lp2568
g68
(g77
g70
NtRp2569
(dp2570
g73
(dp2571
g81
I3
ssg82
Nsg75
(lp2572
g68
(g84
g70
NtRp2573
(dp2574
g73
(dp2575
sg82
g2569
sg75
(lp2576
g68
(g89
g70
NtRp2577
(dp2578
g73
(dp2579
sg82
g2573
sg75
(lp2580
g68
(g69
g70
NtRp2581
(dp2582
g73
(dp2583
g81
I3
ssg82
g2577
sg75
(lp2584
g1623
asbasbasbag68
(g84
g70
NtRp2585
(dp2586
g73
(dp2587
sg82
g2569
sg75
(lp2588
g68
(g89
g70
NtRp2589
(dp2590
g73
(dp2591
sg82
g2585
sg75
(lp2592
g68
(g69
g70
NtRp2593
(dp2594
g73
(dp2595
g81
I3
ssg82
g2589
sg75
(lp2596
g1636
asbasbasbag68
(g84
g70
NtRp2597
(dp2598
g73
(dp2599
sg82
g2569
sg75
(lp2600
g68
(g89
g70
NtRp2601
(dp2602
g73
(dp2603
sg82
g2597
sg75
(lp2604
g68
(g69
g70
NtRp2605
(dp2606
g73
(dp2607
g81
I3
ssg82
g2601
sg75
(lp2608
g1649
asbasbasbag68
(g84
g70
NtRp2609
(dp2610
g73
(dp2611
sg82
g2569
sg75
(lp2612
g68
(g89
g70
NtRp2613
(dp2614
g73
(dp2615
sg82
g2609
sg75
(lp2616
g68
(g69
g70
NtRp2617
(dp2618
g73
(dp2619
g81
I3
ssg82
g2613
sg75
(lp2620
g1662
asbasbasbag68
(g84
g70
NtRp2621
(dp2622
g73
(dp2623
sg82
g2569
sg75
(lp2624
g68
(g89
g70
NtRp2625
(dp2626
g73
(dp2627
sg82
g2621
sg75
(lp2628
g68
(g69
g70
NtRp2629
(dp2630
g73
(dp2631
g81
I3
ssg82
g2625
sg75
(lp2632
g1675
asbasbasbasbasbasbasbag68
(g84
g70
NtRp2633
(dp2634
g73
(dp2635
sg82
g2358
sg75
(lp2636
g68
(g89
g70
NtRp2637
(dp2638
g73
(dp2639
g93
g94
ssg82
g2633
sg75
(lp2640
g1945
asbag68
(g89
g70
NtRp2641
(dp2642
g73
(dp2643
g100
g101
ssg82
g2633
sg75
(lp2644
S':'
asbag68
(g89
g70
NtRp2645
(dp2646
g73
(dp2647
sg82
g2633
sg75
(lp2648
g68
(g69
g70
NtRp2649
(dp2650
g73
(dp2651
g81
I4
ssg82
g2645
sg75
(lp2652
g68
(g77
g70
NtRp2653
(dp2654
g73
(dp2655
g81
I3
ssg82
Nsg75
(lp2656
g68
(g84
g70
NtRp2657
(dp2658
g73
(dp2659
sg82
g2653
sg75
(lp2660
g68
(g89
g70
NtRp2661
(dp2662
g73
(dp2663
sg82
g2657
sg75
(lp2664
g68
(g69
g70
NtRp2665
(dp2666
g73
(dp2667
g81
I3
ssg82
g2661
sg75
(lp2668
S'2'
asbasbasbag68
(g84
g70
NtRp2669
(dp2670
g73
(dp2671
sg82
g2653
sg75
(lp2672
g68
(g89
g70
NtRp2673
(dp2674
g73
(dp2675
sg82
g2669
sg75
(lp2676
g68
(g69
g70
NtRp2677
(dp2678
g73
(dp2679
g81
I3
ssg82
g2673
sg75
(lp2680
S'3'
asbasbasbag68
(g84
g70
NtRp2681
(dp2682
g73
(dp2683
sg82
g2653
sg75
(lp2684
g68
(g89
g70
NtRp2685
(dp2686
g73
(dp2687
sg82
g2681
sg75
(lp2688
g68
(g69
g70
NtRp2689
(dp2690
g73
(dp2691
g81
I3
ssg82
g2685
sg75
(lp2692
S'2'
asbasbasbag68
(g84
g70
NtRp2693
(dp2694
g73
(dp2695
sg82
g2653
sg75
(lp2696
g68
(g89
g70
NtRp2697
(dp2698
g73
(dp2699
sg82
g2693
sg75
(lp2700
g68
(g69
g70
NtRp2701
(dp2702
g73
(dp2703
g81
I3
ssg82
g2697
sg75
(lp2704
S'datetime.datetime(2012, 12, 17, 15, 3, 30)'
p2705
asbasbasbag68
(g84
g70
NtRp2706
(dp2707
g73
(dp2708
sg82
g2653
sg75
(lp2709
g68
(g89
g70
NtRp2710
(dp2711
g73
(dp2712
sg82
g2706
sg75
(lp2713
g68
(g69
g70
NtRp2714
(dp2715
g73
(dp2716
g81
I3
ssg82
g2710
sg75
(lp2717
g2023
asbasbasbasbasbasbasbasbasbasbasbag68
(g84
g70
NtRp2718
(dp2719
g73
(dp2720
sg82
g78
sg75
(lp2721
g68
(g89
g70
NtRp2722
(dp2723
g73
(dp2724
g93
g94
ssg82
g2718
sg75
(lp2725
S'is_https'
p2726
asbag68
(g89
g70
NtRp2727
(dp2728
g73
(dp2729
g100
g101
ssg82
g2718
sg75
(lp2730
S':'
asbag68
(g89
g70
NtRp2731
(dp2732
g73
(dp2733
sg82
g2718
sg75
(lp2734
g68
(g69
g70
NtRp2735
(dp2736
g73
(dp2737
g81
I5
ssg82
g2731
sg75
(lp2738
g111
asbasbasbag68
(g84
g70
NtRp2739
(dp2740
g73
(dp2741
sg82
g78
sg75
(lp2742
g68
(g89
g70
NtRp2743
(dp2744
g73
(dp2745
g93
g94
ssg82
g2739
sg75
(lp2746
S'is_local'
p2747
asbag68
(g89
g70
NtRp2748
(dp2749
g73
(dp2750
g100
g101
ssg82
g2739
sg75
(lp2751
S':'
asbag68
(g89
g70
NtRp2752
(dp2753
g73
(dp2754
sg82
g2739
sg75
(lp2755
g68
(g69
g70
NtRp2756
(dp2757
g73
(dp2758
g81
I5
ssg82
g2752
sg75
(lp2759
g2132
asbasbasbag68
(g84
g70
NtRp2760
(dp2761
g73
(dp2762
sg82
g78
sg75
(lp2763
g68
(g89
g70
NtRp2764
(dp2765
g73
(dp2766
g93
g94
ssg82
g2760
sg75
(lp2767
S'is_restful'
p2768
asbag68
(g89
g70
NtRp2769
(dp2770
g73
(dp2771
g100
g101
ssg82
g2760
sg75
(lp2772
S':'
asbag68
(g89
g70
NtRp2773
(dp2774
g73
(dp2775
sg82
g2760
sg75
(lp2776
g68
(g69
g70
NtRp2777
(dp2778
g73
(dp2779
g81
I5
ssg82
g2773
sg75
(lp2780
g111
asbasbasbag68
(g84
g70
NtRp2781
(dp2782
g73
(dp2783
sg82
g78
sg75
(lp2784
g68
(g89
g70
NtRp2785
(dp2786
g73
(dp2787
g93
g94
ssg82
g2781
sg75
(lp2788
S'now'
p2789
asbag68
(g89
g70
NtRp2790
(dp2791
g73
(dp2792
g100
g101
ssg82
g2781
sg75
(lp2793
S':'
asbag68
(g89
g70
NtRp2794
(dp2795
g73
(dp2796
sg82
g2781
sg75
(lp2797
g68
(g69
g70
NtRp2798
(dp2799
g73
(dp2800
g81
I5
ssg82
g2794
sg75
(lp2801
S'datetime.datetime(2013, 11, 19, 12, 13, 57, 292791)'
p2802
asbasbasbag68
(g84
g70
NtRp2803
(dp2804
g73
(dp2805
sg82
g78
sg75
(lp2806
g68
(g89
g70
NtRp2807
(dp2808
g73
(dp2809
g93
g94
ssg82
g2803
sg75
(lp2810
S'post_vars'
p2811
asbag68
(g89
g70
NtRp2812
(dp2813
g73
(dp2814
g100
g101
ssg82
g2803
sg75
(lp2815
S':'
asbag68
(g89
g70
NtRp2816
(dp2817
g73
(dp2818
sg82
g2803
sg75
(lp2819
g68
(g69
g70
NtRp2820
(dp2821
g73
(dp2822
g81
I5
ssg82
g2816
sg75
(lp2823
g68
(g77
g70
NtRp2824
(dp2825
g73
(dp2826
g81
I4
ssg82
Nsg75
(lp2827
sbasbasbasbag68
(g84
g70
NtRp2828
(dp2829
g73
(dp2830
sg82
g78
sg75
(lp2831
g68
(g89
g70
NtRp2832
(dp2833
g73
(dp2834
g93
g94
ssg82
g2828
sg75
(lp2835
S'raw_args'
p2836
asbag68
(g89
g70
NtRp2837
(dp2838
g73
(dp2839
g100
g101
ssg82
g2828
sg75
(lp2840
S':'
asbag68
(g89
g70
NtRp2841
(dp2842
g73
(dp2843
sg82
g2828
sg75
(lp2844
g68
(g69
g70
NtRp2845
(dp2846
g73
(dp2847
g81
I5
ssg82
g2841
sg75
(lp2848
S''
asbasbasbag68
(g84
g70
NtRp2849
(dp2850
g73
(dp2851
sg82
g78
sg75
(lp2852
g68
(g89
g70
NtRp2853
(dp2854
g73
(dp2855
g93
g94
ssg82
g2849
sg75
(lp2856
S'raw_extension'
p2857
asbag68
(g89
g70
NtRp2858
(dp2859
g73
(dp2860
g100
g101
ssg82
g2849
sg75
(lp2861
S':'
asbag68
(g89
g70
NtRp2862
(dp2863
g73
(dp2864
sg82
g2849
sg75
(lp2865
g68
(g69
g70
NtRp2866
(dp2867
g73
(dp2868
g81
I5
ssg82
g2862
sg75
(lp2869
S'None'
p2870
asbasbasbag68
(g84
g70
NtRp2871
(dp2872
g73
(dp2873
sg82
g78
sg75
(lp2874
g68
(g89
g70
NtRp2875
(dp2876
g73
(dp2877
g93
g94
ssg82
g2871
sg75
(lp2878
S'url'
p2879
asbag68
(g89
g70
NtRp2880
(dp2881
g73
(dp2882
g100
g101
ssg82
g2871
sg75
(lp2883
S':'
asbag68
(g89
g70
NtRp2884
(dp2885
g73
(dp2886
sg82
g2871
sg75
(lp2887
g68
(g69
g70
NtRp2888
(dp2889
g73
(dp2890
g81
I5
ssg82
g2884
sg75
(lp2891
g1697
asbasbasbag68
(g84
g70
NtRp2892
(dp2893
g73
(dp2894
sg82
g78
sg75
(lp2895
g68
(g89
g70
NtRp2896
(dp2897
g73
(dp2898
g93
g94
ssg82
g2892
sg75
(lp2899
S'utcnow'
p2900
asbag68
(g89
g70
NtRp2901
(dp2902
g73
(dp2903
g100
g101
ssg82
g2892
sg75
(lp2904
S':'
asbag68
(g89
g70
NtRp2905
(dp2906
g73
(dp2907
sg82
g2892
sg75
(lp2908
g68
(g69
g70
NtRp2909
(dp2910
g73
(dp2911
g81
I5
ssg82
g2905
sg75
(lp2912
S'datetime.datetime(2013, 11, 19, 6, 43, 57, 292824)'
p2913
asbasbasbag68
(g84
g70
NtRp2914
(dp2915
g73
(dp2916
sg82
g78
sg75
(lp2917
g68
(g89
g70
NtRp2918
(dp2919
g73
(dp2920
g93
g94
ssg82
g2914
sg75
(lp2921
S'uuid'
p2922
asbag68
(g89
g70
NtRp2923
(dp2924
g73
(dp2925
g100
g101
ssg82
g2914
sg75
(lp2926
S':'
asbag68
(g89
g70
NtRp2927
(dp2928
g73
(dp2929
sg82
g2914
sg75
(lp2930
g68
(g69
g70
NtRp2931
(dp2932
g73
(dp2933
g81
I5
ssg82
g2927
sg75
(lp2934
S'WSD/127.0.0.1.2013-11-19.12-13-57.865a120b-fdb6-45a3-aba2-a99c014cb68a'
p2935
asbasbasbag68
(g84
g70
NtRp2936
(dp2937
g73
(dp2938
sg82
g78
sg75
(lp2939
g68
(g89
g70
NtRp2940
(dp2941
g73
(dp2942
g93
g94
ssg82
g2936
sg75
(lp2943
S'vars'
p2944
asbag68
(g89
g70
NtRp2945
(dp2946
g73
(dp2947
g100
g101
ssg82
g2936
sg75
(lp2948
S':'
asbag68
(g89
g70
NtRp2949
(dp2950
g73
(dp2951
sg82
g2936
sg75
(lp2952
g68
(g69
g70
NtRp2953
(dp2954
g73
(dp2955
g81
I5
ssg82
g2949
sg75
(lp2956
g68
(g77
g70
NtRp2957
(dp2958
g73
(dp2959
g81
I4
ssg82
Nsg75
(lp2960
g68
(g84
g70
NtRp2961
(dp2962
g73
(dp2963
sg82
g2957
sg75
(lp2964
g68
(g89
g70
NtRp2965
(dp2966
g73
(dp2967
g93
g94
ssg82
g2961
sg75
(lp2968
g2324
asbag68
(g89
g70
NtRp2969
(dp2970
g73
(dp2971
g100
g101
ssg82
g2961
sg75
(lp2972
S':'
asbag68
(g89
g70
NtRp2973
(dp2974
g73
(dp2975
sg82
g2961
sg75
(lp2976
g68
(g69
g70
NtRp2977
(dp2978
g73
(dp2979
g81
I4
ssg82
g2973
sg75
(lp2980
S'7'
asbasbasbasbasbasbasbag68
(g84
g70
NtRp2981
(dp2982
g73
(dp2983
sg82
g78
sg75
(lp2984
g68
(g89
g70
NtRp2985
(dp2986
g73
(dp2987
g93
g94
ssg82
g2981
sg75
(lp2988
S'wsgi'
p2989
asbag68
(g89
g70
NtRp2990
(dp2991
g73
(dp2992
g100
g101
ssg82
g2981
sg75
(lp2993
S':'
asbag68
(g89
g70
NtRp2994
(dp2995
g73
(dp2996
sg82
g2981
sg75
(lp2997
g68
(g69
g70
NtRp2998
(dp2999
g73
(dp3000
g81
I5
ssg82
g2994
sg75
(lp3001
g68
(g77
g70
NtRp3002
(dp3003
g73
(dp3004
g81
I4
ssg82
Nsg75
(lp3005
g68
(g84
g70
NtRp3006
(dp3007
g73
(dp3008
sg82
g3002
sg75
(lp3009
g68
(g89
g70
NtRp3010
(dp3011
g73
(dp3012
g93
g94
ssg82
g3006
sg75
(lp3013
S'environ'
p3014
asbag68
(g89
g70
NtRp3015
(dp3016
g73
(dp3017
g100
g101
ssg82
g3006
sg75
(lp3018
S':'
asbag68
(g89
g70
NtRp3019
(dp3020
g73
(dp3021
sg82
g3006
sg75
(lp3022
g68
(g69
g70
NtRp3023
(dp3024
g73
(dp3025
g81
I4
ssg82
g3019
sg75
(lp3026
g68
(g77
g70
NtRp3027
(dp3028
g73
(dp3029
g81
I3
ssg82
Nsg75
(lp3030
g68
(g84
g70
NtRp3031
(dp3032
g73
(dp3033
sg82
g3027
sg75
(lp3034
g68
(g89
g70
NtRp3035
(dp3036
g73
(dp3037
g93
g94
ssg82
g3031
sg75
(lp3038
S'HTTP_ACCEPT'
p3039
asbag68
(g89
g70
NtRp3040
(dp3041
g73
(dp3042
g100
g101
ssg82
g3031
sg75
(lp3043
S':'
asbag68
(g89
g70
NtRp3044
(dp3045
g73
(dp3046
sg82
g3031
sg75
(lp3047
g68
(g69
g70
NtRp3048
(dp3049
g73
(dp3050
g81
I3
ssg82
g3044
sg75
(lp3051
g1411
asbasbasbag68
(g84
g70
NtRp3052
(dp3053
g73
(dp3054
sg82
g3027
sg75
(lp3055
g68
(g89
g70
NtRp3056
(dp3057
g73
(dp3058
g93
g94
ssg82
g3052
sg75
(lp3059
S'HTTP_ACCEPT_ENCODING'
p3060
asbag68
(g89
g70
NtRp3061
(dp3062
g73
(dp3063
g100
g101
ssg82
g3052
sg75
(lp3064
S':'
asbag68
(g89
g70
NtRp3065
(dp3066
g73
(dp3067
sg82
g3052
sg75
(lp3068
g68
(g69
g70
NtRp3069
(dp3070
g73
(dp3071
g81
I3
ssg82
g3065
sg75
(lp3072
g1433
asbasbasbag68
(g84
g70
NtRp3073
(dp3074
g73
(dp3075
sg82
g3027
sg75
(lp3076
g68
(g89
g70
NtRp3077
(dp3078
g73
(dp3079
g93
g94
ssg82
g3073
sg75
(lp3080
S'HTTP_ACCEPT_LANGUAGE'
p3081
asbag68
(g89
g70
NtRp3082
(dp3083
g73
(dp3084
g100
g101
ssg82
g3073
sg75
(lp3085
S':'
asbag68
(g89
g70
NtRp3086
(dp3087
g73
(dp3088
sg82
g3073
sg75
(lp3089
g68
(g69
g70
NtRp3090
(dp3091
g73
(dp3092
g81
I3
ssg82
g3086
sg75
(lp3093
g1455
asbasbasbag68
(g84
g70
NtRp3094
(dp3095
g73
(dp3096
sg82
g3027
sg75
(lp3097
g68
(g89
g70
NtRp3098
(dp3099
g73
(dp3100
g93
g94
ssg82
g3094
sg75
(lp3101
S'HTTP_CONNECTION'
p3102
asbag68
(g89
g70
NtRp3103
(dp3104
g73
(dp3105
g100
g101
ssg82
g3094
sg75
(lp3106
S':'
asbag68
(g89
g70
NtRp3107
(dp3108
g73
(dp3109
sg82
g3094
sg75
(lp3110
g68
(g69
g70
NtRp3111
(dp3112
g73
(dp3113
g81
I3
ssg82
g3107
sg75
(lp3114
g1477
asbasbasbag68
(g84
g70
NtRp3115
(dp3116
g73
(dp3117
sg82
g3027
sg75
(lp3118
g68
(g89
g70
NtRp3119
(dp3120
g73
(dp3121
g93
g94
ssg82
g3115
sg75
(lp3122
S'HTTP_COOKIE'
p3123
asbag68
(g89
g70
NtRp3124
(dp3125
g73
(dp3126
g100
g101
ssg82
g3115
sg75
(lp3127
S':'
asbag68
(g89
g70
NtRp3128
(dp3129
g73
(dp3130
sg82
g3115
sg75
(lp3131
g68
(g69
g70
NtRp3132
(dp3133
g73
(dp3134
g81
I3
ssg82
g3128
sg75
(lp3135
g1499
asbasbasbag68
(g84
g70
NtRp3136
(dp3137
g73
(dp3138
sg82
g3027
sg75
(lp3139
g68
(g89
g70
NtRp3140
(dp3141
g73
(dp3142
g93
g94
ssg82
g3136
sg75
(lp3143
S'HTTP_HOST'
p3144
asbag68
(g89
g70
NtRp3145
(dp3146
g73
(dp3147
g100
g101
ssg82
g3136
sg75
(lp3148
S':'
asbag68
(g89
g70
NtRp3149
(dp3150
g73
(dp3151
sg82
g3136
sg75
(lp3152
g68
(g69
g70
NtRp3153
(dp3154
g73
(dp3155
g81
I3
ssg82
g3149
sg75
(lp3156
g1521
asbasbasbag68
(g84
g70
NtRp3157
(dp3158
g73
(dp3159
sg82
g3027
sg75
(lp3160
g68
(g89
g70
NtRp3161
(dp3162
g73
(dp3163
g93
g94
ssg82
g3157
sg75
(lp3164
S'HTTP_USER_AGENT'
p3165
asbag68
(g89
g70
NtRp3166
(dp3167
g73
(dp3168
g100
g101
ssg82
g3157
sg75
(lp3169
S':'
asbag68
(g89
g70
NtRp3170
(dp3171
g73
(dp3172
sg82
g3157
sg75
(lp3173
g68
(g69
g70
NtRp3174
(dp3175
g73
(dp3176
g81
I3
ssg82
g3170
sg75
(lp3177
g1543
asbasbasbag68
(g84
g70
NtRp3178
(dp3179
g73
(dp3180
sg82
g3027
sg75
(lp3181
g68
(g89
g70
NtRp3182
(dp3183
g73
(dp3184
g93
g94
ssg82
g3178
sg75
(lp3185
S'PATH_INFO'
p3186
asbag68
(g89
g70
NtRp3187
(dp3188
g73
(dp3189
g100
g101
ssg82
g3178
sg75
(lp3190
S':'
asbag68
(g89
g70
NtRp3191
(dp3192
g73
(dp3193
sg82
g3178
sg75
(lp3194
g68
(g69
g70
NtRp3195
(dp3196
g73
(dp3197
g81
I3
ssg82
g3191
sg75
(lp3198
g1697
asbasbasbag68
(g84
g70
NtRp3199
(dp3200
g73
(dp3201
sg82
g3027
sg75
(lp3202
g68
(g89
g70
NtRp3203
(dp3204
g73
(dp3205
g93
g94
ssg82
g3199
sg75
(lp3206
S'QUERY_STRING'
p3207
asbag68
(g89
g70
NtRp3208
(dp3209
g73
(dp3210
g100
g101
ssg82
g3199
sg75
(lp3211
S':'
asbag68
(g89
g70
NtRp3212
(dp3213
g73
(dp3214
sg82
g3199
sg75
(lp3215
g68
(g69
g70
NtRp3216
(dp3217
g73
(dp3218
g81
I3
ssg82
g3212
sg75
(lp3219
g1719
asbasbasbag68
(g84
g70
NtRp3220
(dp3221
g73
(dp3222
sg82
g3027
sg75
(lp3223
g68
(g89
g70
NtRp3224
(dp3225
g73
(dp3226
g93
g94
ssg82
g3220
sg75
(lp3227
S'REMOTE_ADDR'
p3228
asbag68
(g89
g70
NtRp3229
(dp3230
g73
(dp3231
g100
g101
ssg82
g3220
sg75
(lp3232
S':'
asbag68
(g89
g70
NtRp3233
(dp3234
g73
(dp3235
sg82
g3220
sg75
(lp3236
g68
(g69
g70
NtRp3237
(dp3238
g73
(dp3239
g81
I3
ssg82
g3233
sg75
(lp3240
g223
asbasbasbag68
(g84
g70
NtRp3241
(dp3242
g73
(dp3243
sg82
g3027
sg75
(lp3244
g68
(g89
g70
NtRp3245
(dp3246
g73
(dp3247
g93
g94
ssg82
g3241
sg75
(lp3248
S'REMOTE_PORT'
p3249
asbag68
(g89
g70
NtRp3250
(dp3251
g73
(dp3252
g100
g101
ssg82
g3241
sg75
(lp3253
S':'
asbag68
(g89
g70
NtRp3254
(dp3255
g73
(dp3256
sg82
g3241
sg75
(lp3257
g68
(g69
g70
NtRp3258
(dp3259
g73
(dp3260
g81
I3
ssg82
g3254
sg75
(lp3261
g1762
asbasbasbag68
(g84
g70
NtRp3262
(dp3263
g73
(dp3264
sg82
g3027
sg75
(lp3265
g68
(g89
g70
NtRp3266
(dp3267
g73
(dp3268
g93
g94
ssg82
g3262
sg75
(lp3269
S'REQUEST_METHOD'
p3270
asbag68
(g89
g70
NtRp3271
(dp3272
g73
(dp3273
g100
g101
ssg82
g3262
sg75
(lp3274
S':'
asbag68
(g89
g70
NtRp3275
(dp3276
g73
(dp3277
sg82
g3262
sg75
(lp3278
g68
(g69
g70
NtRp3279
(dp3280
g73
(dp3281
g81
I3
ssg82
g3275
sg75
(lp3282
g1784
asbasbasbag68
(g84
g70
NtRp3283
(dp3284
g73
(dp3285
sg82
g3027
sg75
(lp3286
g68
(g89
g70
NtRp3287
(dp3288
g73
(dp3289
g93
g94
ssg82
g3283
sg75
(lp3290
S'REQUEST_URI'
p3291
asbag68
(g89
g70
NtRp3292
(dp3293
g73
(dp3294
g100
g101
ssg82
g3283
sg75
(lp3295
S':'
asbag68
(g89
g70
NtRp3296
(dp3297
g73
(dp3298
sg82
g3283
sg75
(lp3299
g68
(g69
g70
NtRp3300
(dp3301
g73
(dp3302
g81
I3
ssg82
g3296
sg75
(lp3303
g1806
asbasbasbag68
(g84
g70
NtRp3304
(dp3305
g73
(dp3306
sg82
g3027
sg75
(lp3307
g68
(g89
g70
NtRp3308
(dp3309
g73
(dp3310
g93
g94
ssg82
g3304
sg75
(lp3311
S'SCRIPT_NAME'
p3312
asbag68
(g89
g70
NtRp3313
(dp3314
g73
(dp3315
g100
g101
ssg82
g3304
sg75
(lp3316
S':'
asbag68
(g89
g70
NtRp3317
(dp3318
g73
(dp3319
sg82
g3304
sg75
(lp3320
g68
(g69
g70
NtRp3321
(dp3322
g73
(dp3323
g81
I3
ssg82
g3317
sg75
(lp3324
S''
asbasbasbag68
(g84
g70
NtRp3325
(dp3326
g73
(dp3327
sg82
g3027
sg75
(lp3328
g68
(g89
g70
NtRp3329
(dp3330
g73
(dp3331
g93
g94
ssg82
g3325
sg75
(lp3332
S'SERVER_NAME'
p3333
asbag68
(g89
g70
NtRp3334
(dp3335
g73
(dp3336
g100
g101
ssg82
g3325
sg75
(lp3337
S':'
asbag68
(g89
g70
NtRp3338
(dp3339
g73
(dp3340
sg82
g3325
sg75
(lp3341
g68
(g69
g70
NtRp3342
(dp3343
g73
(dp3344
g81
I3
ssg82
g3338
sg75
(lp3345
g1849
asbasbasbag68
(g84
g70
NtRp3346
(dp3347
g73
(dp3348
sg82
g3027
sg75
(lp3349
g68
(g89
g70
NtRp3350
(dp3351
g73
(dp3352
g93
g94
ssg82
g3346
sg75
(lp3353
S'SERVER_PORT'
p3354
asbag68
(g89
g70
NtRp3355
(dp3356
g73
(dp3357
g100
g101
ssg82
g3346
sg75
(lp3358
S':'
asbag68
(g89
g70
NtRp3359
(dp3360
g73
(dp3361
sg82
g3346
sg75
(lp3362
g68
(g69
g70
NtRp3363
(dp3364
g73
(dp3365
g81
I3
ssg82
g3359
sg75
(lp3366
g1871
asbasbasbag68
(g84
g70
NtRp3367
(dp3368
g73
(dp3369
sg82
g3027
sg75
(lp3370
g68
(g89
g70
NtRp3371
(dp3372
g73
(dp3373
g93
g94
ssg82
g3367
sg75
(lp3374
S'SERVER_PROTOCOL'
p3375
asbag68
(g89
g70
NtRp3376
(dp3377
g73
(dp3378
g100
g101
ssg82
g3367
sg75
(lp3379
S':'
asbag68
(g89
g70
NtRp3380
(dp3381
g73
(dp3382
sg82
g3367
sg75
(lp3383
g68
(g69
g70
NtRp3384
(dp3385
g73
(dp3386
g81
I3
ssg82
g3380
sg75
(lp3387
g1893
asbasbasbag68
(g84
g70
NtRp3388
(dp3389
g73
(dp3390
sg82
g3027
sg75
(lp3391
g68
(g89
g70
NtRp3392
(dp3393
g73
(dp3394
g93
g94
ssg82
g3388
sg75
(lp3395
S'SERVER_SOFTWARE'
p3396
asbag68
(g89
g70
NtRp3397
(dp3398
g73
(dp3399
g100
g101
ssg82
g3388
sg75
(lp3400
S':'
asbag68
(g89
g70
NtRp3401
(dp3402
g73
(dp3403
sg82
g3388
sg75
(lp3404
g68
(g69
g70
NtRp3405
(dp3406
g73
(dp3407
g81
I3
ssg82
g3401
sg75
(lp3408
g1915
asbasbasbag68
(g84
g70
NtRp3409
(dp3410
g73
(dp3411
sg82
g3027
sg75
(lp3412
g68
(g89
g70
NtRp3413
(dp3414
g73
(dp3415
g93
g94
ssg82
g3409
sg75
(lp3416
S'wsgi.errors'
p3417
asbag68
(g89
g70
NtRp3418
(dp3419
g73
(dp3420
g100
g101
ssg82
g3409
sg75
(lp3421
S':'
asbag68
(g89
g70
NtRp3422
(dp3423
g73
(dp3424
sg82
g3409
sg75
(lp3425
g68
(g69
g70
NtRp3426
(dp3427
g73
(dp3428
g81
I3
ssg82
g3422
sg75
(lp3429
S"<open file '<stderr>', mode 'w' at 0xb72d20d0>"
p3430
asbasbasbag68
(g84
g70
NtRp3431
(dp3432
g73
(dp3433
sg82
g3027
sg75
(lp3434
g68
(g89
g70
NtRp3435
(dp3436
g73
(dp3437
g93
g94
ssg82
g3431
sg75
(lp3438
S'wsgi.file_wrapper'
p3439
asbag68
(g89
g70
NtRp3440
(dp3441
g73
(dp3442
g100
g101
ssg82
g3431
sg75
(lp3443
S':'
asbag68
(g89
g70
NtRp3444
(dp3445
g73
(dp3446
sg82
g3431
sg75
(lp3447
g68
(g69
g70
NtRp3448
(dp3449
g73
(dp3450
g81
I3
ssg82
g3444
sg75
(lp3451
S'<class wsgiref.util.FileWrapper at 0x8e0a47c>'
p3452
asbasbasbag68
(g84
g70
NtRp3453
(dp3454
g73
(dp3455
sg82
g3027
sg75
(lp3456
g68
(g89
g70
NtRp3457
(dp3458
g73
(dp3459
g93
g94
ssg82
g3453
sg75
(lp3460
S'wsgi.input'
p3461
asbag68
(g89
g70
NtRp3462
(dp3463
g73
(dp3464
g100
g101
ssg82
g3453
sg75
(lp3465
S':'
asbag68
(g89
g70
NtRp3466
(dp3467
g73
(dp3468
sg82
g3453
sg75
(lp3469
g68
(g69
g70
NtRp3470
(dp3471
g73
(dp3472
g81
I3
ssg82
g3466
sg75
(lp3473
S'<cStringIO.StringO object at 0xadd27e80>'
p3474
asbasbasbag68
(g84
g70
NtRp3475
(dp3476
g73
(dp3477
sg82
g3027
sg75
(lp3478
g68
(g89
g70
NtRp3479
(dp3480
g73
(dp3481
g93
g94
ssg82
g3475
sg75
(lp3482
S'wsgi.multiprocess'
p3483
asbag68
(g89
g70
NtRp3484
(dp3485
g73
(dp3486
g100
g101
ssg82
g3475
sg75
(lp3487
S':'
asbag68
(g89
g70
NtRp3488
(dp3489
g73
(dp3490
sg82
g3475
sg75
(lp3491
g68
(g69
g70
NtRp3492
(dp3493
g73
(dp3494
g81
I3
ssg82
g3488
sg75
(lp3495
g111
asbasbasbag68
(g84
g70
NtRp3496
(dp3497
g73
(dp3498
sg82
g3027
sg75
(lp3499
g68
(g89
g70
NtRp3500
(dp3501
g73
(dp3502
g93
g94
ssg82
g3496
sg75
(lp3503
S'wsgi.multithread'
p3504
asbag68
(g89
g70
NtRp3505
(dp3506
g73
(dp3507
g100
g101
ssg82
g3496
sg75
(lp3508
S':'
asbag68
(g89
g70
NtRp3509
(dp3510
g73
(dp3511
sg82
g3496
sg75
(lp3512
g68
(g69
g70
NtRp3513
(dp3514
g73
(dp3515
g81
I3
ssg82
g3509
sg75
(lp3516
g2132
asbasbasbag68
(g84
g70
NtRp3517
(dp3518
g73
(dp3519
sg82
g3027
sg75
(lp3520
g68
(g89
g70
NtRp3521
(dp3522
g73
(dp3523
g93
g94
ssg82
g3517
sg75
(lp3524
S'wsgi.run_once'
p3525
asbag68
(g89
g70
NtRp3526
(dp3527
g73
(dp3528
g100
g101
ssg82
g3517
sg75
(lp3529
S':'
asbag68
(g89
g70
NtRp3530
(dp3531
g73
(dp3532
sg82
g3517
sg75
(lp3533
g68
(g69
g70
NtRp3534
(dp3535
g73
(dp3536
g81
I3
ssg82
g3530
sg75
(lp3537
g111
asbasbasbag68
(g84
g70
NtRp3538
(dp3539
g73
(dp3540
sg82
g3027
sg75
(lp3541
g68
(g89
g70
NtRp3542
(dp3543
g73
(dp3544
g93
g94
ssg82
g3538
sg75
(lp3545
S'wsgi.url_scheme'
p3546
asbag68
(g89
g70
NtRp3547
(dp3548
g73
(dp3549
g100
g101
ssg82
g3538
sg75
(lp3550
S':'
asbag68
(g89
g70
NtRp3551
(dp3552
g73
(dp3553
sg82
g3538
sg75
(lp3554
g68
(g69
g70
NtRp3555
(dp3556
g73
(dp3557
g81
I3
ssg82
g3551
sg75
(lp3558
g2175
asbasbasbag68
(g84
g70
NtRp3559
(dp3560
g73
(dp3561
sg82
g3027
sg75
(lp3562
g68
(g89
g70
NtRp3563
(dp3564
g73
(dp3565
g93
g94
ssg82
g3559
sg75
(lp3566
S'wsgi.version'
p3567
asbag68
(g89
g70
NtRp3568
(dp3569
g73
(dp3570
g100
g101
ssg82
g3559
sg75
(lp3571
S':'
asbag68
(g89
g70
NtRp3572
(dp3573
g73
(dp3574
sg82
g3559
sg75
(lp3575
g68
(g69
g70
NtRp3576
(dp3577
g73
(dp3578
g81
I3
ssg82
g3572
sg75
(lp3579
S'1'
asbasbasbasbasbasbasbasbasbasbasbasbasbsS'frames'
p3580
(lp3581
(dp3582
S'file'
p3583
S'/home/nazrul/web2py/gluon/restricted.py'
p3584
sS'dump'
p3585
(dp3586
S'code'
p3587
S'\'response.write(\\\'<!DOCTYPE html PUBLIC "-//W3C//D...d footer -->\\\\n </body>\\\\n</html>\\\\n\\\', escape=False)\''
p3588
sS'layer'
p3589
S"'/home/nazrul/web2py/applications/WSD/views/default/disp_adv.html'"
p3590
sS'global compile2'
p3591
S'<function compile2>'
p3592
sS'ccode'
p3593
S'undefined'
p3594
ssS'lnum'
p3595
I211
sS'lines'
p3596
(dp3597
I206
S"    environment['__name__'] = '__restricted__'"
p3598
sI207
S'    try:'
p3599
sI208
S'        if isinstance(code, types.CodeType):'
p3600
sI209
S'            ccode = code'
p3601
sI210
S'        else:'
p3602
sI211
S'            ccode = compile2(code, layer)'
p3603
sI212
S'        exec ccode in environment'
p3604
sI213
S'    except HTTP:'
p3605
sI214
S'        raise'
p3606
sI215
S'    except RestrictedError:'
p3607
ssS'call'
p3608
S'(code=\'response.write(\\\'<!DOCTYPE html PUBLIC "-//W3C//D...d footer -->\\\\n </body>\\\\n</html>\\\\n\\\', escape=False)\', environment={\'A\': <class \'gluon.html.A\'>, \'Auth\': <class \'gluon.tools.Auth\'>, \'B\': <class \'gluon.html.B\'>, \'BEAUTIFY\': <class \'gluon.html.BEAUTIFY\'>, \'BODY\': <class \'gluon.html.BODY\'>, \'BR\': <class \'gluon.html.BR\'>, \'BUTTON\': <class \'gluon.html.BUTTON\'>, \'CAT\': <class \'gluon.html.CAT\'>, \'CENTER\': <class \'gluon.html.CENTER\'>, \'CLEANUP\': <class \'gluon.validators.CLEANUP\'>, ...}, layer=\'/home/nazrul/web2py/applications/WSD/views/default/disp_adv.html\')'
p3609
sS'func'
p3610
S'restricted'
p3611
sa(dp3612
g3583
S'/home/nazrul/web2py/gluon/restricted.py'
p3613
sg3585
(dp3614
S'builtincompile'
p3615
S'<built-in function compile>'
p3616
sS'code'
p3617
S'\'response.write(\\\'<!DOCTYPE html PUBLIC "-//W3C//D...d footer -->\\\\n </body>\\\\n</html>\\\\n\\\', escape=False)\''
p3618
sS'code.rstrip'
p3619
S'<built-in method rstrip of str object>'
p3620
sS').replace'
p3621
g3594
sS'layer'
p3622
S"'/home/nazrul/web2py/applications/WSD/views/default/disp_adv.html'"
p3623
ssg3595
I194
sg3596
(dp3624
I192
S"    The +'\\n' is necessary else compile fails when code ends in a comment."
p3625
sI193
S'    """'
p3626
sI194
S"    return compile(code.rstrip().replace('\\r\\n', '\\n') + '\\n', layer, 'exec')"
p3627
sI195
S''
sI196
S''
sI197
S"def restricted(code, environment=None, layer='Unknown'):"
p3628
sI198
S'    """'
p3629
sI189
S''
sI190
S'def compile2(code, layer):'
p3630
sI191
S'    """'
p3631
ssg3608
S'(code=\'response.write(\\\'<!DOCTYPE html PUBLIC "-//W3C//D...d footer -->\\\\n </body>\\\\n</html>\\\\n\\\', escape=False)\', layer=\'/home/nazrul/web2py/applications/WSD/views/default/disp_adv.html\')'
p3632
sg3610
S'compile2'
p3633
sasS'pyver'
p3634
S'Python 2.7.3: /usr/bin/python'
p3635
sS'session'
p3636
g68
(g69
g70
NtRp3637
(dp3638
g73
(dp3639
sg75
(lp3640
g68
(g77
g70
NtRp3641
(dp3642
g73
(dp3643
g81
I5
ssg82
Nsg75
(lp3644
g68
(g84
g70
NtRp3645
(dp3646
g73
(dp3647
sg82
g3641
sg75
(lp3648
g68
(g89
g70
NtRp3649
(dp3650
g73
(dp3651
g93
g94
ssg82
g3645
sg75
(lp3652
S'auth'
p3653
asbag68
(g89
g70
NtRp3654
(dp3655
g73
(dp3656
g100
g101
ssg82
g3645
sg75
(lp3657
S':'
asbag68
(g89
g70
NtRp3658
(dp3659
g73
(dp3660
sg82
g3645
sg75
(lp3661
g68
(g69
g70
NtRp3662
(dp3663
g73
(dp3664
g81
I5
ssg82
g3658
sg75
(lp3665
g68
(g77
g70
NtRp3666
(dp3667
g73
(dp3668
g81
I4
ssg82
Nsg75
(lp3669
g68
(g84
g70
NtRp3670
(dp3671
g73
(dp3672
sg82
g3666
sg75
(lp3673
g68
(g89
g70
NtRp3674
(dp3675
g73
(dp3676
g93
g94
ssg82
g3670
sg75
(lp3677
S'expiration'
p3678
asbag68
(g89
g70
NtRp3679
(dp3680
g73
(dp3681
g100
g101
ssg82
g3670
sg75
(lp3682
S':'
asbag68
(g89
g70
NtRp3683
(dp3684
g73
(dp3685
sg82
g3670
sg75
(lp3686
g68
(g69
g70
NtRp3687
(dp3688
g73
(dp3689
g81
I4
ssg82
g3683
sg75
(lp3690
S'3600'
p3691
asbasbasbag68
(g84
g70
NtRp3692
(dp3693
g73
(dp3694
sg82
g3666
sg75
(lp3695
g68
(g89
g70
NtRp3696
(dp3697
g73
(dp3698
g93
g94
ssg82
g3692
sg75
(lp3699
S'hmac_key'
p3700
asbag68
(g89
g70
NtRp3701
(dp3702
g73
(dp3703
g100
g101
ssg82
g3692
sg75
(lp3704
S':'
asbag68
(g89
g70
NtRp3705
(dp3706
g73
(dp3707
sg82
g3692
sg75
(lp3708
g68
(g69
g70
NtRp3709
(dp3710
g73
(dp3711
g81
I4
ssg82
g3705
sg75
(lp3712
S'7e1bed5e-ccae-4ff0-98dc-f20f01fa9e09'
p3713
asbasbasbag68
(g84
g70
NtRp3714
(dp3715
g73
(dp3716
sg82
g3666
sg75
(lp3717
g68
(g89
g70
NtRp3718
(dp3719
g73
(dp3720
g93
g94
ssg82
g3714
sg75
(lp3721
S'last_visit'
p3722
asbag68
(g89
g70
NtRp3723
(dp3724
g73
(dp3725
g100
g101
ssg82
g3714
sg75
(lp3726
S':'
asbag68
(g89
g70
NtRp3727
(dp3728
g73
(dp3729
sg82
g3714
sg75
(lp3730
g68
(g69
g70
NtRp3731
(dp3732
g73
(dp3733
g81
I4
ssg82
g3727
sg75
(lp3734
S'datetime.datetime(2013, 11, 19, 12, 13, 33, 287582)'
p3735
asbasbasbag68
(g84
g70
NtRp3736
(dp3737
g73
(dp3738
sg82
g3666
sg75
(lp3739
g68
(g89
g70
NtRp3740
(dp3741
g73
(dp3742
g93
g94
ssg82
g3736
sg75
(lp3743
S'remember'
p3744
asbag68
(g89
g70
NtRp3745
(dp3746
g73
(dp3747
g100
g101
ssg82
g3736
sg75
(lp3748
S':'
asbag68
(g89
g70
NtRp3749
(dp3750
g73
(dp3751
sg82
g3736
sg75
(lp3752
g68
(g69
g70
NtRp3753
(dp3754
g73
(dp3755
g81
I4
ssg82
g3749
sg75
(lp3756
g111
asbasbasbag68
(g84
g70
NtRp3757
(dp3758
g73
(dp3759
sg82
g3666
sg75
(lp3760
g68
(g89
g70
NtRp3761
(dp3762
g73
(dp3763
g93
g94
ssg82
g3757
sg75
(lp3764
S'user'
p3765
asbag68
(g89
g70
NtRp3766
(dp3767
g73
(dp3768
g100
g101
ssg82
g3757
sg75
(lp3769
S':'
asbag68
(g89
g70
NtRp3770
(dp3771
g73
(dp3772
sg82
g3757
sg75
(lp3773
g68
(g69
g70
NtRp3774
(dp3775
g73
(dp3776
g81
I4
ssg82
g3770
sg75
(lp3777
g68
(g77
g70
NtRp3778
(dp3779
g73
(dp3780
g81
I3
ssg82
Nsg75
(lp3781
g68
(g84
g70
NtRp3782
(dp3783
g73
(dp3784
sg82
g3778
sg75
(lp3785
g68
(g89
g70
NtRp3786
(dp3787
g73
(dp3788
g93
g94
ssg82
g3782
sg75
(lp3789
S'email'
p3790
asbag68
(g89
g70
NtRp3791
(dp3792
g73
(dp3793
g100
g101
ssg82
g3782
sg75
(lp3794
S':'
asbag68
(g89
g70
NtRp3795
(dp3796
g73
(dp3797
sg82
g3782
sg75
(lp3798
g68
(g69
g70
NtRp3799
(dp3800
g73
(dp3801
g81
I3
ssg82
g3795
sg75
(lp3802
S'root@sys.com'
p3803
asbasbasbag68
(g84
g70
NtRp3804
(dp3805
g73
(dp3806
sg82
g3778
sg75
(lp3807
g68
(g89
g70
NtRp3808
(dp3809
g73
(dp3810
g93
g94
ssg82
g3804
sg75
(lp3811
S'first_name'
p3812
asbag68
(g89
g70
NtRp3813
(dp3814
g73
(dp3815
g100
g101
ssg82
g3804
sg75
(lp3816
S':'
asbag68
(g89
g70
NtRp3817
(dp3818
g73
(dp3819
sg82
g3804
sg75
(lp3820
g68
(g69
g70
NtRp3821
(dp3822
g73
(dp3823
g81
I3
ssg82
g3817
sg75
(lp3824
S'root'
p3825
asbasbasbag68
(g84
g70
NtRp3826
(dp3827
g73
(dp3828
sg82
g3778
sg75
(lp3829
g68
(g89
g70
NtRp3830
(dp3831
g73
(dp3832
g93
g94
ssg82
g3826
sg75
(lp3833
S'id'
p3834
asbag68
(g89
g70
NtRp3835
(dp3836
g73
(dp3837
g100
g101
ssg82
g3826
sg75
(lp3838
S':'
asbag68
(g89
g70
NtRp3839
(dp3840
g73
(dp3841
sg82
g3826
sg75
(lp3842
g68
(g69
g70
NtRp3843
(dp3844
g73
(dp3845
g81
I3
ssg82
g3839
sg75
(lp3846
S'4'
asbasbasbag68
(g84
g70
NtRp3847
(dp3848
g73
(dp3849
sg82
g3778
sg75
(lp3850
g68
(g89
g70
NtRp3851
(dp3852
g73
(dp3853
g93
g94
ssg82
g3847
sg75
(lp3854
S'last_name'
p3855
asbag68
(g89
g70
NtRp3856
(dp3857
g73
(dp3858
g100
g101
ssg82
g3847
sg75
(lp3859
S':'
asbag68
(g89
g70
NtRp3860
(dp3861
g73
(dp3862
sg82
g3847
sg75
(lp3863
g68
(g69
g70
NtRp3864
(dp3865
g73
(dp3866
g81
I3
ssg82
g3860
sg75
(lp3867
S'root'
p3868
asbasbasbag68
(g84
g70
NtRp3869
(dp3870
g73
(dp3871
sg82
g3778
sg75
(lp3872
g68
(g89
g70
NtRp3873
(dp3874
g73
(dp3875
g93
g94
ssg82
g3869
sg75
(lp3876
S'registration_id'
p3877
asbag68
(g89
g70
NtRp3878
(dp3879
g73
(dp3880
g100
g101
ssg82
g3869
sg75
(lp3881
S':'
asbag68
(g89
g70
NtRp3882
(dp3883
g73
(dp3884
sg82
g3869
sg75
(lp3885
g68
(g69
g70
NtRp3886
(dp3887
g73
(dp3888
g81
I3
ssg82
g3882
sg75
(lp3889
S''
asbasbasbag68
(g84
g70
NtRp3890
(dp3891
g73
(dp3892
sg82
g3778
sg75
(lp3893
g68
(g89
g70
NtRp3894
(dp3895
g73
(dp3896
g93
g94
ssg82
g3890
sg75
(lp3897
S'registration_key'
p3898
asbag68
(g89
g70
NtRp3899
(dp3900
g73
(dp3901
g100
g101
ssg82
g3890
sg75
(lp3902
S':'
asbag68
(g89
g70
NtRp3903
(dp3904
g73
(dp3905
sg82
g3890
sg75
(lp3906
g68
(g69
g70
NtRp3907
(dp3908
g73
(dp3909
g81
I3
ssg82
g3903
sg75
(lp3910
S''
asbasbasbag68
(g84
g70
NtRp3911
(dp3912
g73
(dp3913
sg82
g3778
sg75
(lp3914
g68
(g89
g70
NtRp3915
(dp3916
g73
(dp3917
g93
g94
ssg82
g3911
sg75
(lp3918
S'reset_password_key'
p3919
asbag68
(g89
g70
NtRp3920
(dp3921
g73
(dp3922
g100
g101
ssg82
g3911
sg75
(lp3923
S':'
asbag68
(g89
g70
NtRp3924
(dp3925
g73
(dp3926
sg82
g3911
sg75
(lp3927
g68
(g69
g70
NtRp3928
(dp3929
g73
(dp3930
g81
I3
ssg82
g3924
sg75
(lp3931
S''
asbasbasbasbasbasbasbag68
(g84
g70
NtRp3932
(dp3933
g73
(dp3934
sg82
g3666
sg75
(lp3935
g68
(g89
g70
NtRp3936
(dp3937
g73
(dp3938
g93
g94
ssg82
g3932
sg75
(lp3939
S'user_groups'
p3940
asbag68
(g89
g70
NtRp3941
(dp3942
g73
(dp3943
g100
g101
ssg82
g3932
sg75
(lp3944
S':'
asbag68
(g89
g70
NtRp3945
(dp3946
g73
(dp3947
sg82
g3932
sg75
(lp3948
g68
(g69
g70
NtRp3949
(dp3950
g73
(dp3951
g81
I4
ssg82
g3945
sg75
(lp3952
g68
(g77
g70
NtRp3953
(dp3954
g73
(dp3955
g81
I3
ssg82
Nsg75
(lp3956
sbasbasbasbasbasbasbasbag68
(g84
g70
NtRp3957
(dp3958
g73
(dp3959
sg82
g3641
sg75
(lp3960
g68
(g89
g70
NtRp3961
(dp3962
g73
(dp3963
g93
g94
ssg82
g3957
sg75
(lp3964
S'f'
asbag68
(g89
g70
NtRp3965
(dp3966
g73
(dp3967
g100
g101
ssg82
g3957
sg75
(lp3968
S':'
asbag68
(g89
g70
NtRp3969
(dp3970
g73
(dp3971
sg82
g3957
sg75
(lp3972
g68
(g69
g70
NtRp3973
(dp3974
g73
(dp3975
g81
I5
ssg82
g3969
sg75
(lp3976
S'0'
asbasbasbag68
(g84
g70
NtRp3977
(dp3978
g73
(dp3979
sg82
g3641
sg75
(lp3980
g68
(g89
g70
NtRp3981
(dp3982
g73
(dp3983
g93
g94
ssg82
g3977
sg75
(lp3984
S'flash'
p3985
asbag68
(g89
g70
NtRp3986
(dp3987
g73
(dp3988
g100
g101
ssg82
g3977
sg75
(lp3989
S':'
asbag68
(g89
g70
NtRp3990
(dp3991
g73
(dp3992
sg82
g3977
sg75
(lp3993
g68
(g69
g70
NtRp3994
(dp3995
g73
(dp3996
g81
I5
ssg82
g3990
sg75
(lp3997
S'None'
p3998
asbasbasbag68
(g84
g70
NtRp3999
(dp4000
g73
(dp4001
sg82
g3641
sg75
(lp4002
g68
(g89
g70
NtRp4003
(dp4004
g73
(dp4005
g93
g94
ssg82
g3999
sg75
(lp4006
S'ide'
p4007
asbag68
(g89
g70
NtRp4008
(dp4009
g73
(dp4010
g100
g101
ssg82
g3999
sg75
(lp4011
S':'
asbag68
(g89
g70
NtRp4012
(dp4013
g73
(dp4014
sg82
g3999
sg75
(lp4015
g68
(g69
g70
NtRp4016
(dp4017
g73
(dp4018
g81
I5
ssg82
g4012
sg75
(lp4019
S'9'
asbasbasbag68
(g84
g70
NtRp4020
(dp4021
g73
(dp4022
sg82
g3641
sg75
(lp4023
g68
(g89
g70
NtRp4024
(dp4025
g73
(dp4026
g93
g94
ssg82
g4020
sg75
(lp4027
S'last_orderby'
p4028
asbag68
(g89
g70
NtRp4029
(dp4030
g73
(dp4031
g100
g101
ssg82
g4020
sg75
(lp4032
S':'
asbag68
(g89
g70
NtRp4033
(dp4034
g73
(dp4035
sg82
g4020
sg75
(lp4036
g68
(g69
g70
NtRp4037
(dp4038
g73
(dp4039
g81
I5
ssg82
g4033
sg75
(lp4040
S'None'
p4041
asbasbasbag68
(g84
g70
NtRp4042
(dp4043
g73
(dp4044
sg82
g3641
sg75
(lp4045
g68
(g89
g70
NtRp4046
(dp4047
g73
(dp4048
g93
g94
ssg82
g4042
sg75
(lp4049
S'last_query'
p4050
asbag68
(g89
g70
NtRp4051
(dp4052
g73
(dp4053
g100
g101
ssg82
g4042
sg75
(lp4054
S':'
asbag68
(g89
g70
NtRp4055
(dp4056
g73
(dp4057
sg82
g4042
sg75
(lp4058
g68
(g69
g70
NtRp4059
(dp4060
g73
(dp4061
g81
I5
ssg82
g4055
sg75
(lp4062
S'db.rules.id>0'
p4063
asbasbasbag68
(g84
g70
NtRp4064
(dp4065
g73
(dp4066
sg82
g3641
sg75
(lp4067
g68
(g89
g70
NtRp4068
(dp4069
g73
(dp4070
g93
g94
ssg82
g4064
sg75
(lp4071
S'level'
p4072
asbag68
(g89
g70
NtRp4073
(dp4074
g73
(dp4075
g100
g101
ssg82
g4064
sg75
(lp4076
S':'
asbag68
(g89
g70
NtRp4077
(dp4078
g73
(dp4079
sg82
g4064
sg75
(lp4080
g68
(g69
g70
NtRp4081
(dp4082
g73
(dp4083
g81
I5
ssg82
g4077
sg75
(lp4084
S'1'
asbasbasbag68
(g84
g70
NtRp4085
(dp4086
g73
(dp4087
sg82
g3641
sg75
(lp4088
g68
(g89
g70
NtRp4089
(dp4090
g73
(dp4091
g93
g94
ssg82
g4085
sg75
(lp4092
S'psp'
p4093
asbag68
(g89
g70
NtRp4094
(dp4095
g73
(dp4096
g100
g101
ssg82
g4085
sg75
(lp4097
S':'
asbag68
(g89
g70
NtRp4098
(dp4099
g73
(dp4100
sg82
g4085
sg75
(lp4101
g68
(g69
g70
NtRp4102
(dp4103
g73
(dp4104
g81
I5
ssg82
g4098
sg75
(lp4105
S'None'
p4106
asbasbasbag68
(g84
g70
NtRp4107
(dp4108
g73
(dp4109
sg82
g3641
sg75
(lp4110
g68
(g89
g70
NtRp4111
(dp4112
g73
(dp4113
g93
g94
ssg82
g4107
sg75
(lp4114
S'sid'
p4115
asbag68
(g89
g70
NtRp4116
(dp4117
g73
(dp4118
g100
g101
ssg82
g4107
sg75
(lp4119
S':'
asbag68
(g89
g70
NtRp4120
(dp4121
g73
(dp4122
sg82
g4107
sg75
(lp4123
g68
(g69
g70
NtRp4124
(dp4125
g73
(dp4126
g81
I5
ssg82
g4120
sg75
(lp4127
S'10'
p4128
asbasbasbag68
(g84
g70
NtRp4129
(dp4130
g73
(dp4131
sg82
g3641
sg75
(lp4132
g68
(g89
g70
NtRp4133
(dp4134
g73
(dp4135
g93
g94
ssg82
g4129
sg75
(lp4136
S'word'
p4137
asbag68
(g89
g70
NtRp4138
(dp4139
g73
(dp4140
g100
g101
ssg82
g4129
sg75
(lp4141
S':'
asbag68
(g89
g70
NtRp4142
(dp4143
g73
(dp4144
sg82
g4129
sg75
(lp4145
g68
(g69
g70
NtRp4146
(dp4147
g73
(dp4148
g81
I5
ssg82
g4142
sg75
(lp4149
S'old'
p4150
asbasbasbasbasbsS'etype'
p4151
S"<type 'exceptions.SyntaxError'>"
p4152
sS'date'
p4153
S'Tue Nov 19 12:13:57 2013'
p4154
sS'response'
p4155
g68
(g69
g70
NtRp4156
(dp4157
g73
(dp4158
sg75
(lp4159
g68
(g77
g70
NtRp4160
(dp4161
g73
(dp4162
g81
I5
ssg82
Nsg75
(lp4163
g68
(g84
g70
NtRp4164
(dp4165
g73
(dp4166
sg82
g4160
sg75
(lp4167
g68
(g89
g70
NtRp4168
(dp4169
g73
(dp4170
g93
g94
ssg82
g4164
sg75
(lp4171
g166
asbag68
(g89
g70
NtRp4172
(dp4173
g73
(dp4174
g100
g101
ssg82
g4164
sg75
(lp4175
S':'
asbag68
(g89
g70
NtRp4176
(dp4177
g73
(dp4178
sg82
g4164
sg75
(lp4179
g68
(g69
g70
NtRp4180
(dp4181
g73
(dp4182
g81
I5
ssg82
g4176
sg75
(lp4183
S'<cStringIO.StringO object at 0xad1648c0>'
p4184
asbasbasbag68
(g84
g70
NtRp4185
(dp4186
g73
(dp4187
sg82
g4160
sg75
(lp4188
g68
(g89
g70
NtRp4189
(dp4190
g73
(dp4191
g93
g94
ssg82
g4185
sg75
(lp4192
g254
asbag68
(g89
g70
NtRp4193
(dp4194
g73
(dp4195
g100
g101
ssg82
g4185
sg75
(lp4196
S':'
asbag68
(g89
g70
NtRp4197
(dp4198
g73
(dp4199
sg82
g4185
sg75
(lp4200
g68
(g69
g70
NtRp4201
(dp4202
g73
(dp4203
g81
I5
ssg82
g4197
sg75
(lp4204
g68
(g77
g70
NtRp4205
(dp4206
g73
(dp4207
g81
I4
ssg82
Nsg75
(lp4208
g68
(g84
g70
NtRp4209
(dp4210
g73
(dp4211
sg82
g4205
sg75
(lp4212
g68
(g89
g70
NtRp4213
(dp4214
g73
(dp4215
g93
g94
ssg82
g4209
sg75
(lp4216
S'session_id_wsd'
p4217
asbag68
(g89
g70
NtRp4218
(dp4219
g73
(dp4220
g100
g101
ssg82
g4209
sg75
(lp4221
S':'
asbag68
(g89
g70
NtRp4222
(dp4223
g73
(dp4224
sg82
g4209
sg75
(lp4225
g68
(g69
g70
NtRp4226
(dp4227
g73
(dp4228
g81
I4
ssg82
g4222
sg75
(lp4229
g1044
ag68
(g77
g70
NtRp4230
(dp4231
g73
(dp4232
g81
I3
ssg82
Nsg75
(lp4233
g68
(g84
g70
NtRp4234
(dp4235
g73
(dp4236
sg82
g4230
sg75
(lp4237
g68
(g89
g70
NtRp4238
(dp4239
g73
(dp4240
g93
g94
ssg82
g4234
sg75
(lp4241
g305
asbag68
(g89
g70
NtRp4242
(dp4243
g73
(dp4244
g100
g101
ssg82
g4234
sg75
(lp4245
S':'
asbag68
(g89
g70
NtRp4246
(dp4247
g73
(dp4248
sg82
g4234
sg75
(lp4249
g68
(g69
g70
NtRp4250
(dp4251
g73
(dp4252
g81
I3
ssg82
g4246
sg75
(lp4253
S''
asbasbasbag68
(g84
g70
NtRp4254
(dp4255
g73
(dp4256
sg82
g4230
sg75
(lp4257
g68
(g89
g70
NtRp4258
(dp4259
g73
(dp4260
g93
g94
ssg82
g4254
sg75
(lp4261
g326
asbag68
(g89
g70
NtRp4262
(dp4263
g73
(dp4264
g100
g101
ssg82
g4254
sg75
(lp4265
S':'
asbag68
(g89
g70
NtRp4266
(dp4267
g73
(dp4268
sg82
g4254
sg75
(lp4269
g68
(g69
g70
NtRp4270
(dp4271
g73
(dp4272
g81
I3
ssg82
g4266
sg75
(lp4273
S''
asbasbasbag68
(g84
g70
NtRp4274
(dp4275
g73
(dp4276
sg82
g4230
sg75
(lp4277
g68
(g89
g70
NtRp4278
(dp4279
g73
(dp4280
g93
g94
ssg82
g4274
sg75
(lp4281
g347
asbag68
(g89
g70
NtRp4282
(dp4283
g73
(dp4284
g100
g101
ssg82
g4274
sg75
(lp4285
S':'
asbag68
(g89
g70
NtRp4286
(dp4287
g73
(dp4288
sg82
g4274
sg75
(lp4289
g68
(g69
g70
NtRp4290
(dp4291
g73
(dp4292
g81
I3
ssg82
g4286
sg75
(lp4293
S''
asbasbasbag68
(g84
g70
NtRp4294
(dp4295
g73
(dp4296
sg82
g4230
sg75
(lp4297
g68
(g89
g70
NtRp4298
(dp4299
g73
(dp4300
g93
g94
ssg82
g4294
sg75
(lp4301
g368
asbag68
(g89
g70
NtRp4302
(dp4303
g73
(dp4304
g100
g101
ssg82
g4294
sg75
(lp4305
S':'
asbag68
(g89
g70
NtRp4306
(dp4307
g73
(dp4308
sg82
g4294
sg75
(lp4309
g68
(g69
g70
NtRp4310
(dp4311
g73
(dp4312
g81
I3
ssg82
g4306
sg75
(lp4313
S''
asbasbasbag68
(g84
g70
NtRp4314
(dp4315
g73
(dp4316
sg82
g4230
sg75
(lp4317
g68
(g89
g70
NtRp4318
(dp4319
g73
(dp4320
g93
g94
ssg82
g4314
sg75
(lp4321
g389
asbag68
(g89
g70
NtRp4322
(dp4323
g73
(dp4324
g100
g101
ssg82
g4314
sg75
(lp4325
S':'
asbag68
(g89
g70
NtRp4326
(dp4327
g73
(dp4328
sg82
g4314
sg75
(lp4329
g68
(g69
g70
NtRp4330
(dp4331
g73
(dp4332
g81
I3
ssg82
g4326
sg75
(lp4333
S''
asbasbasbag68
(g84
g70
NtRp4334
(dp4335
g73
(dp4336
sg82
g4230
sg75
(lp4337
g68
(g89
g70
NtRp4338
(dp4339
g73
(dp4340
g93
g94
ssg82
g4334
sg75
(lp4341
g410
asbag68
(g89
g70
NtRp4342
(dp4343
g73
(dp4344
g100
g101
ssg82
g4334
sg75
(lp4345
S':'
asbag68
(g89
g70
NtRp4346
(dp4347
g73
(dp4348
sg82
g4334
sg75
(lp4349
g68
(g69
g70
NtRp4350
(dp4351
g73
(dp4352
g81
I3
ssg82
g4346
sg75
(lp4353
S'/'
asbasbasbag68
(g84
g70
NtRp4354
(dp4355
g73
(dp4356
sg82
g4230
sg75
(lp4357
g68
(g89
g70
NtRp4358
(dp4359
g73
(dp4360
g93
g94
ssg82
g4354
sg75
(lp4361
g431
asbag68
(g89
g70
NtRp4362
(dp4363
g73
(dp4364
g100
g101
ssg82
g4354
sg75
(lp4365
S':'
asbag68
(g89
g70
NtRp4366
(dp4367
g73
(dp4368
sg82
g4354
sg75
(lp4369
g68
(g69
g70
NtRp4370
(dp4371
g73
(dp4372
g81
I3
ssg82
g4366
sg75
(lp4373
S''
asbasbasbag68
(g84
g70
NtRp4374
(dp4375
g73
(dp4376
sg82
g4230
sg75
(lp4377
g68
(g89
g70
NtRp4378
(dp4379
g73
(dp4380
g93
g94
ssg82
g4374
sg75
(lp4381
g452
asbag68
(g89
g70
NtRp4382
(dp4383
g73
(dp4384
g100
g101
ssg82
g4374
sg75
(lp4385
S':'
asbag68
(g89
g70
NtRp4386
(dp4387
g73
(dp4388
sg82
g4374
sg75
(lp4389
g68
(g69
g70
NtRp4390
(dp4391
g73
(dp4392
g81
I3
ssg82
g4386
sg75
(lp4393
S''
asbasbasbasbasbasbasbasbasbasbasbag68
(g84
g70
NtRp4394
(dp4395
g73
(dp4396
sg82
g4160
sg75
(lp4397
g68
(g89
g70
NtRp4398
(dp4399
g73
(dp4400
g93
g94
ssg82
g4394
sg75
(lp4401
S'delimiters'
p4402
asbag68
(g89
g70
NtRp4403
(dp4404
g73
(dp4405
g100
g101
ssg82
g4394
sg75
(lp4406
S':'
asbag68
(g89
g70
NtRp4407
(dp4408
g73
(dp4409
sg82
g4394
sg75
(lp4410
g68
(g69
g70
NtRp4411
(dp4412
g73
(dp4413
g81
I5
ssg82
g4407
sg75
(lp4414
g68
(g77
g70
NtRp4415
(dp4416
g73
(dp4417
g81
I4
ssg82
Nsg75
(lp4418
g68
(g84
g70
NtRp4419
(dp4420
g73
(dp4421
sg82
g4415
sg75
(lp4422
g68
(g89
g70
NtRp4423
(dp4424
g73
(dp4425
sg82
g4419
sg75
(lp4426
g68
(g69
g70
NtRp4427
(dp4428
g73
(dp4429
g81
I4
ssg82
g4423
sg75
(lp4430
S'{{'
p4431
asbasbasbag68
(g84
g70
NtRp4432
(dp4433
g73
(dp4434
sg82
g4415
sg75
(lp4435
g68
(g89
g70
NtRp4436
(dp4437
g73
(dp4438
sg82
g4432
sg75
(lp4439
g68
(g69
g70
NtRp4440
(dp4441
g73
(dp4442
g81
I4
ssg82
g4436
sg75
(lp4443
S'}}'
p4444
asbasbasbasbasbasbasbag68
(g84
g70
NtRp4445
(dp4446
g73
(dp4447
sg82
g4160
sg75
(lp4448
g68
(g89
g70
NtRp4449
(dp4450
g73
(dp4451
g93
g94
ssg82
g4445
sg75
(lp4452
S'files'
p4453
asbag68
(g89
g70
NtRp4454
(dp4455
g73
(dp4456
g100
g101
ssg82
g4445
sg75
(lp4457
S':'
asbag68
(g89
g70
NtRp4458
(dp4459
g73
(dp4460
sg82
g4445
sg75
(lp4461
g68
(g69
g70
NtRp4462
(dp4463
g73
(dp4464
g81
I5
ssg82
g4458
sg75
(lp4465
g68
(g77
g70
NtRp4466
(dp4467
g73
(dp4468
g81
I4
ssg82
Nsg75
(lp4469
sbasbasbasbag68
(g84
g70
NtRp4470
(dp4471
g73
(dp4472
sg82
g4160
sg75
(lp4473
g68
(g89
g70
NtRp4474
(dp4475
g73
(dp4476
g93
g94
ssg82
g4470
sg75
(lp4477
S'flash'
p4478
asbag68
(g89
g70
NtRp4479
(dp4480
g73
(dp4481
g100
g101
ssg82
g4470
sg75
(lp4482
S':'
asbag68
(g89
g70
NtRp4483
(dp4484
g73
(dp4485
sg82
g4470
sg75
(lp4486
g68
(g69
g70
NtRp4487
(dp4488
g73
(dp4489
g81
I5
ssg82
g4483
sg75
(lp4490
S''
asbasbasbag68
(g84
g70
NtRp4491
(dp4492
g73
(dp4493
sg82
g4160
sg75
(lp4494
g68
(g89
g70
NtRp4495
(dp4496
g73
(dp4497
g93
g94
ssg82
g4491
sg75
(lp4498
S'generic_patterns'
p4499
asbag68
(g89
g70
NtRp4500
(dp4501
g73
(dp4502
g100
g101
ssg82
g4491
sg75
(lp4503
S':'
asbag68
(g89
g70
NtRp4504
(dp4505
g73
(dp4506
sg82
g4491
sg75
(lp4507
g68
(g69
g70
NtRp4508
(dp4509
g73
(dp4510
g81
I5
ssg82
g4504
sg75
(lp4511
g68
(g77
g70
NtRp4512
(dp4513
g73
(dp4514
g81
I4
ssg82
Nsg75
(lp4515
g68
(g84
g70
NtRp4516
(dp4517
g73
(dp4518
sg82
g4512
sg75
(lp4519
g68
(g89
g70
NtRp4520
(dp4521
g73
(dp4522
sg82
g4516
sg75
(lp4523
g68
(g69
g70
NtRp4524
(dp4525
g73
(dp4526
g81
I4
ssg82
g4520
sg75
(lp4527
S'*'
asbasbasbasbasbasbasbag68
(g84
g70
NtRp4528
(dp4529
g73
(dp4530
sg82
g4160
sg75
(lp4531
g68
(g89
g70
NtRp4532
(dp4533
g73
(dp4534
g93
g94
ssg82
g4528
sg75
(lp4535
S'google_analytics_id'
p4536
asbag68
(g89
g70
NtRp4537
(dp4538
g73
(dp4539
g100
g101
ssg82
g4528
sg75
(lp4540
S':'
asbag68
(g89
g70
NtRp4541
(dp4542
g73
(dp4543
sg82
g4528
sg75
(lp4544
g68
(g69
g70
NtRp4545
(dp4546
g73
(dp4547
g81
I5
ssg82
g4541
sg75
(lp4548
S'None'
p4549
asbasbasbag68
(g84
g70
NtRp4550
(dp4551
g73
(dp4552
sg82
g4160
sg75
(lp4553
g68
(g89
g70
NtRp4554
(dp4555
g73
(dp4556
g93
g94
ssg82
g4550
sg75
(lp4557
S'headers'
p4558
asbag68
(g89
g70
NtRp4559
(dp4560
g73
(dp4561
g100
g101
ssg82
g4550
sg75
(lp4562
S':'
asbag68
(g89
g70
NtRp4563
(dp4564
g73
(dp4565
sg82
g4550
sg75
(lp4566
g68
(g69
g70
NtRp4567
(dp4568
g73
(dp4569
g81
I5
ssg82
g4563
sg75
(lp4570
g68
(g77
g70
NtRp4571
(dp4572
g73
(dp4573
g81
I4
ssg82
Nsg75
(lp4574
g68
(g84
g70
NtRp4575
(dp4576
g73
(dp4577
sg82
g4571
sg75
(lp4578
g68
(g89
g70
NtRp4579
(dp4580
g73
(dp4581
g93
g94
ssg82
g4575
sg75
(lp4582
S'X-Powered-By'
p4583
asbag68
(g89
g70
NtRp4584
(dp4585
g73
(dp4586
g100
g101
ssg82
g4575
sg75
(lp4587
S':'
asbag68
(g89
g70
NtRp4588
(dp4589
g73
(dp4590
sg82
g4575
sg75
(lp4591
g68
(g69
g70
NtRp4592
(dp4593
g73
(dp4594
g81
I4
ssg82
g4588
sg75
(lp4595
S'web2py'
p4596
asbasbasbasbasbasbasbag68
(g84
g70
NtRp4597
(dp4598
g73
(dp4599
sg82
g4160
sg75
(lp4600
g68
(g89
g70
NtRp4601
(dp4602
g73
(dp4603
g93
g94
ssg82
g4597
sg75
(lp4604
S'menu'
p4605
asbag68
(g89
g70
NtRp4606
(dp4607
g73
(dp4608
g100
g101
ssg82
g4597
sg75
(lp4609
S':'
asbag68
(g89
g70
NtRp4610
(dp4611
g73
(dp4612
sg82
g4597
sg75
(lp4613
g68
(g69
g70
NtRp4614
(dp4615
g73
(dp4616
g81
I5
ssg82
g4610
sg75
(lp4617
g68
(g77
g70
NtRp4618
(dp4619
g73
(dp4620
g81
I4
ssg82
Nsg75
(lp4621
g68
(g84
g70
NtRp4622
(dp4623
g73
(dp4624
sg82
g4618
sg75
(lp4625
g68
(g89
g70
NtRp4626
(dp4627
g73
(dp4628
sg82
g4622
sg75
(lp4629
g68
(g69
g70
NtRp4630
(dp4631
g73
(dp4632
g81
I4
ssg82
g4626
sg75
(lp4633
g68
(g77
g70
NtRp4634
(dp4635
g73
(dp4636
g81
I3
ssg82
Nsg75
(lp4637
g68
(g84
g70
NtRp4638
(dp4639
g73
(dp4640
sg82
g4634
sg75
(lp4641
g68
(g89
g70
NtRp4642
(dp4643
g73
(dp4644
sg82
g4638
sg75
(lp4645
g68
(g69
g70
NtRp4646
(dp4647
g73
(dp4648
g81
I3
ssg82
g4642
sg75
(lp4649
cgluon.languages
lazyT_unpickle
p4650
(S't\x04\x00\x00\x00Home'
tRp4651
asbasbasbag68
(g84
g70
NtRp4652
(dp4653
g73
(dp4654
sg82
g4634
sg75
(lp4655
g68
(g89
g70
NtRp4656
(dp4657
g73
(dp4658
sg82
g4652
sg75
(lp4659
g68
(g69
g70
NtRp4660
(dp4661
g73
(dp4662
g81
I3
ssg82
g4656
sg75
(lp4663
g111
asbasbasbag68
(g84
g70
NtRp4664
(dp4665
g73
(dp4666
sg82
g4634
sg75
(lp4667
g68
(g89
g70
NtRp4668
(dp4669
g73
(dp4670
sg82
g4664
sg75
(lp4671
g68
(g69
g70
NtRp4672
(dp4673
g73
(dp4674
g81
I3
ssg82
g4668
sg75
(lp4675
S'/WSD/default/index'
p4676
asbasbasbag68
(g84
g70
NtRp4677
(dp4678
g73
(dp4679
sg82
g4634
sg75
(lp4680
g68
(g89
g70
NtRp4681
(dp4682
g73
(dp4683
sg82
g4677
sg75
(lp4684
g68
(g69
g70
NtRp4685
(dp4686
g73
(dp4687
g81
I3
ssg82
g4681
sg75
(lp4688
g68
(g77
g70
NtRp4689
(dp4690
g73
(dp4691
g81
I2
ssg82
Nsg75
(lp4692
sbasbasbasbasbasbasbasbag68
(g84
g70
NtRp4693
(dp4694
g73
(dp4695
sg82
g4618
sg75
(lp4696
g68
(g89
g70
NtRp4697
(dp4698
g73
(dp4699
sg82
g4693
sg75
(lp4700
g68
(g69
g70
NtRp4701
(dp4702
g73
(dp4703
g81
I4
ssg82
g4697
sg75
(lp4704
g68
(g77
g70
NtRp4705
(dp4706
g73
(dp4707
g81
I3
ssg82
Nsg75
(lp4708
g68
(g84
g70
NtRp4709
(dp4710
g73
(dp4711
sg82
g4705
sg75
(lp4712
g68
(g89
g70
NtRp4713
(dp4714
g73
(dp4715
sg82
g4709
sg75
(lp4716
g68
(g69
g70
NtRp4717
(dp4718
g73
(dp4719
g81
I3
ssg82
g4713
sg75
(lp4720
g68
(cgluon.html
SPAN
p4721
g70
NtRp4722
(dp4723
g73
(dp4724
g93
S'color:yellow'
p4725
ssg82
Nsg75
(lp4726
g4596
asbasbasbasbag68
(g84
g70
NtRp4727
(dp4728
g73
(dp4729
sg82
g4705
sg75
(lp4730
g68
(g89
g70
NtRp4731
(dp4732
g73
(dp4733
sg82
g4727
sg75
(lp4734
g68
(g69
g70
NtRp4735
(dp4736
g73
(dp4737
g81
I3
ssg82
g4731
sg75
(lp4738
g111
asbasbasbag68
(g84
g70
NtRp4739
(dp4740
g73
(dp4741
sg82
g4705
sg75
(lp4742
g68
(g89
g70
NtRp4743
(dp4744
g73
(dp4745
sg82
g4739
sg75
(lp4746
g68
(g69
g70
NtRp4747
(dp4748
g73
(dp4749
g81
I3
ssg82
g4743
sg75
(lp4750
S'None'
p4751
asbasbasbag68
(g84
g70
NtRp4752
(dp4753
g73
(dp4754
sg82
g4705
sg75
(lp4755
g68
(g89
g70
NtRp4756
(dp4757
g73
(dp4758
sg82
g4752
sg75
(lp4759
g68
(g69
g70
NtRp4760
(dp4761
g73
(dp4762
g81
I3
ssg82
g4756
sg75
(lp4763
g68
(g77
g70
NtRp4764
(dp4765
g73
(dp4766
g81
I2
ssg82
Nsg75
(lp4767
g68
(g84
g70
NtRp4768
(dp4769
g73
(dp4770
sg82
g4764
sg75
(lp4771
g68
(g89
g70
NtRp4772
(dp4773
g73
(dp4774
sg82
g4768
sg75
(lp4775
g68
(g69
g70
NtRp4776
(dp4777
g73
(dp4778
g81
I2
ssg82
g4772
sg75
(lp4779
g68
(g77
g70
NtRp4780
(dp4781
g73
(dp4782
g81
I1
ssg82
Nsg75
(lp4783
g68
(g84
g70
NtRp4784
(dp4785
g73
(dp4786
sg82
g4780
sg75
(lp4787
g68
(g89
g70
NtRp4788
(dp4789
g73
(dp4790
sg82
g4784
sg75
(lp4791
g68
(g69
g70
NtRp4792
(dp4793
g73
(dp4794
g81
I1
ssg82
g4788
sg75
(lp4795
g4650
(S's\x08\x00\x00\x00My Sites'
tRp4796
asbasbasbag68
(g84
g70
NtRp4797
(dp4798
g73
(dp4799
sg82
g4780
sg75
(lp4800
g68
(g89
g70
NtRp4801
(dp4802
g73
(dp4803
sg82
g4797
sg75
(lp4804
g68
(g69
g70
NtRp4805
(dp4806
g73
(dp4807
g81
I1
ssg82
g4801
sg75
(lp4808
I00
asbasbasbag68
(g84
g70
NtRp4809
(dp4810
g73
(dp4811
sg82
g4780
sg75
(lp4812
g68
(g89
g70
NtRp4813
(dp4814
g73
(dp4815
sg82
g4809
sg75
(lp4816
g68
(g69
g70
NtRp4817
(dp4818
g73
(dp4819
g81
I1
ssg82
g4813
sg75
(lp4820
S'/admin/default/site'
p4821
asbasbasbasbasbasbasbag68
(g84
g70
NtRp4822
(dp4823
g73
(dp4824
sg82
g4764
sg75
(lp4825
g68
(g89
g70
NtRp4826
(dp4827
g73
(dp4828
sg82
g4822
sg75
(lp4829
g68
(g69
g70
NtRp4830
(dp4831
g73
(dp4832
g81
I2
ssg82
g4826
sg75
(lp4833
g68
(g77
g70
NtRp4834
(dp4835
g73
(dp4836
g81
I1
ssg82
Nsg75
(lp4837
g68
(g84
g70
NtRp4838
(dp4839
g73
(dp4840
sg82
g4834
sg75
(lp4841
g68
(g89
g70
NtRp4842
(dp4843
g73
(dp4844
sg82
g4838
sg75
(lp4845
g68
(g69
g70
NtRp4846
(dp4847
g73
(dp4848
g81
I1
ssg82
g4842
sg75
(lp4849
g4650
(S's\x08\x00\x00\x00This App'
tRp4850
asbasbasbag68
(g84
g70
NtRp4851
(dp4852
g73
(dp4853
sg82
g4834
sg75
(lp4854
g68
(g89
g70
NtRp4855
(dp4856
g73
(dp4857
sg82
g4851
sg75
(lp4858
g68
(g69
g70
NtRp4859
(dp4860
g73
(dp4861
g81
I1
ssg82
g4855
sg75
(lp4862
I00
asbasbasbag68
(g84
g70
NtRp4863
(dp4864
g73
(dp4865
sg82
g4834
sg75
(lp4866
g68
(g89
g70
NtRp4867
(dp4868
g73
(dp4869
sg82
g4863
sg75
(lp4870
g68
(g69
g70
NtRp4871
(dp4872
g73
(dp4873
g81
I1
ssg82
g4867
sg75
(lp4874
S'/admin/default/design/WSD'
p4875
asbasbasbag68
(g84
g70
NtRp4876
(dp4877
g73
(dp4878
sg82
g4834
sg75
(lp4879
g68
(g89
g70
NtRp4880
(dp4881
g73
(dp4882
sg82
g4876
sg75
(lp4883
g68
(g69
g70
NtRp4884
(dp4885
g73
(dp4886
g81
I1
ssg82
g4880
sg75
(lp4887
(lp4888
(g4650
(S't\n\x00\x00\x00Controller'
tRp4889
I00
S'/admin/default/edit/WSD/controllers/default.py'
tp4890
a(g4650
(S't\x04\x00\x00\x00View'
tRp4891
I00
S'/admin/default/edit/WSD/views/default/disp_adv.html'
tp4892
a(g4650
(S't\x06\x00\x00\x00Layout'
tRp4893
I00
S'/admin/default/edit/WSD/views/layout.html'
tp4894
a(g4650
(S't\n\x00\x00\x00Stylesheet'
tRp4895
I00
S'/admin/default/edit/WSD/static/css/web2py.css'
tp4896
a(g4650
(S's\x08\x00\x00\x00DB Model'
tRp4897
I00
S'/admin/default/edit/WSD/models/db.py'
tp4898
a(g4650
(S's\n\x00\x00\x00Menu Model'
tRp4899
I00
S'/admin/default/edit/WSD/models/menu.py'
tp4900
a(g4650
(S't\x08\x00\x00\x00Database'
tRp4901
I00
S'/WSD/appadmin/index'
tp4902
a(g4650
(S't\x06\x00\x00\x00Errors'
tRp4903
I00
S'/admin/default/errors/WSD'
tp4904
a(g4650
(S't\x05\x00\x00\x00About'
tRp4905
I00
S'/admin/default/about/WSD'
tp4906
aasbasbasbasbasbasbasbag68
(g84
g70
NtRp4907
(dp4908
g73
(dp4909
sg82
g4764
sg75
(lp4910
g68
(g89
g70
NtRp4911
(dp4912
g73
(dp4913
sg82
g4907
sg75
(lp4914
g68
(g69
g70
NtRp4915
(dp4916
g73
(dp4917
g81
I2
ssg82
g4911
sg75
(lp4918
g68
(g77
g70
NtRp4919
(dp4920
g73
(dp4921
g81
I1
ssg82
Nsg75
(lp4922
g68
(g84
g70
NtRp4923
(dp4924
g73
(dp4925
sg82
g4919
sg75
(lp4926
g68
(g89
g70
NtRp4927
(dp4928
g73
(dp4929
sg82
g4923
sg75
(lp4930
g68
(g69
g70
NtRp4931
(dp4932
g73
(dp4933
g81
I1
ssg82
g4927
sg75
(lp4934
S'web2py.com'
p4935
asbasbasbag68
(g84
g70
NtRp4936
(dp4937
g73
(dp4938
sg82
g4919
sg75
(lp4939
g68
(g89
g70
NtRp4940
(dp4941
g73
(dp4942
sg82
g4936
sg75
(lp4943
g68
(g69
g70
NtRp4944
(dp4945
g73
(dp4946
g81
I1
ssg82
g4940
sg75
(lp4947
I00
asbasbasbag68
(g84
g70
NtRp4948
(dp4949
g73
(dp4950
sg82
g4919
sg75
(lp4951
g68
(g89
g70
NtRp4952
(dp4953
g73
(dp4954
sg82
g4948
sg75
(lp4955
g68
(g69
g70
NtRp4956
(dp4957
g73
(dp4958
g81
I1
ssg82
g4952
sg75
(lp4959
S'http://www.web2py.com'
p4960
asbasbasbag68
(g84
g70
NtRp4961
(dp4962
g73
(dp4963
sg82
g4919
sg75
(lp4964
g68
(g89
g70
NtRp4965
(dp4966
g73
(dp4967
sg82
g4961
sg75
(lp4968
g68
(g69
g70
NtRp4969
(dp4970
g73
(dp4971
g81
I1
ssg82
g4965
sg75
(lp4972
(lp4973
(g4650
(S't\x08\x00\x00\x00Download'
tRp4974
I00
S'http://www.web2py.com/examples/default/download'
p4975
tp4976
a(g4650
(S't\x07\x00\x00\x00Support'
tRp4977
I00
S'http://www.web2py.com/examples/default/support'
p4978
tp4979
a(g4650
(S't\x04\x00\x00\x00Demo'
tRp4980
I00
S'http://web2py.com/demo_admin'
p4981
tp4982
a(g4650
(S's\x0e\x00\x00\x00Quick Examples'
tRp4983
I00
S'http://web2py.com/examples/default/examples'
p4984
tp4985
a(g4650
(S't\x03\x00\x00\x00FAQ'
tRp4986
I00
S'http://web2py.com/AlterEgo'
p4987
tp4988
a(g4650
(S't\x06\x00\x00\x00Videos'
tRp4989
I00
S'http://www.web2py.com/examples/default/videos/'
p4990
tp4991
a(g4650
(S's\x11\x00\x00\x00Free Applications'
tRp4992
I00
S'http://web2py.com/appliances'
p4993
tp4994
a(g4650
(S't\x07\x00\x00\x00Plugins'
tRp4995
I00
S'http://web2py.com/plugins'
p4996
tp4997
a(g4650
(S't\x07\x00\x00\x00Layouts'
tRp4998
I00
S'http://web2py.com/layouts'
p4999
tp5000
a(g4650
(S't\x07\x00\x00\x00Recipes'
tRp5001
I00
S'http://web2pyslices.com/'
p5002
tp5003
a(g4650
(S't\x08\x00\x00\x00Semantic'
tRp5004
I00
S'http://web2py.com/semantic'
p5005
tp5006
aasbasbasbasbasbasbasbag68
(g84
g70
NtRp5007
(dp5008
g73
(dp5009
sg82
g4764
sg75
(lp5010
g68
(g89
g70
NtRp5011
(dp5012
g73
(dp5013
sg82
g5007
sg75
(lp5014
g68
(g69
g70
NtRp5015
(dp5016
g73
(dp5017
g81
I2
ssg82
g5011
sg75
(lp5018
g68
(g77
g70
NtRp5019
(dp5020
g73
(dp5021
g81
I1
ssg82
Nsg75
(lp5022
g68
(g84
g70
NtRp5023
(dp5024
g73
(dp5025
sg82
g5019
sg75
(lp5026
g68
(g89
g70
NtRp5027
(dp5028
g73
(dp5029
sg82
g5023
sg75
(lp5030
g68
(g69
g70
NtRp5031
(dp5032
g73
(dp5033
g81
I1
ssg82
g5027
sg75
(lp5034
g4650
(S't\r\x00\x00\x00Documentation'
tRp5035
asbasbasbag68
(g84
g70
NtRp5036
(dp5037
g73
(dp5038
sg82
g5019
sg75
(lp5039
g68
(g89
g70
NtRp5040
(dp5041
g73
(dp5042
sg82
g5036
sg75
(lp5043
g68
(g69
g70
NtRp5044
(dp5045
g73
(dp5046
g81
I1
ssg82
g5040
sg75
(lp5047
I00
asbasbasbag68
(g84
g70
NtRp5048
(dp5049
g73
(dp5050
sg82
g5019
sg75
(lp5051
g68
(g89
g70
NtRp5052
(dp5053
g73
(dp5054
sg82
g5048
sg75
(lp5055
g68
(g69
g70
NtRp5056
(dp5057
g73
(dp5058
g81
I1
ssg82
g5052
sg75
(lp5059
S'http://www.web2py.com/book'
p5060
asbasbasbag68
(g84
g70
NtRp5061
(dp5062
g73
(dp5063
sg82
g5019
sg75
(lp5064
g68
(g89
g70
NtRp5065
(dp5066
g73
(dp5067
sg82
g5061
sg75
(lp5068
g68
(g69
g70
NtRp5069
(dp5070
g73
(dp5071
g81
I1
ssg82
g5065
sg75
(lp5072
(lp5073
(g4650
(S't\x07\x00\x00\x00Preface'
tRp5074
I00
S'http://www.web2py.com/book/default/chapter/00'
p5075
tp5076
a(g4650
(S't\x0c\x00\x00\x00Introduction'
tRp5077
I00
S'http://www.web2py.com/book/default/chapter/01'
p5078
tp5079
a(g4650
(S't\x06\x00\x00\x00Python'
tRp5080
I00
S'http://www.web2py.com/book/default/chapter/02'
p5081
tp5082
a(g4650
(S't\x08\x00\x00\x00Overview'
tRp5083
I00
S'http://www.web2py.com/book/default/chapter/03'
p5084
tp5085
a(g4650
(S's\x08\x00\x00\x00The Core'
tRp5086
I00
S'http://www.web2py.com/book/default/chapter/04'
p5087
tp5088
a(g4650
(S's\t\x00\x00\x00The Views'
tRp5089
I00
S'http://www.web2py.com/book/default/chapter/05'
p5090
tp5091
a(g4650
(S't\x08\x00\x00\x00Database'
tRp5092
I00
S'http://www.web2py.com/book/default/chapter/06'
p5093
tp5094
a(g4650
(S's\x14\x00\x00\x00Forms and Validators'
tRp5095
I00
S'http://www.web2py.com/book/default/chapter/07'
p5096
tp5097
a(g4650
(S's\r\x00\x00\x00Email and SMS'
tRp5098
I00
S'http://www.web2py.com/book/default/chapter/08'
p5099
tp5100
a(g4650
(S's\x0e\x00\x00\x00Access Control'
tRp5101
I00
S'http://www.web2py.com/book/default/chapter/09'
p5102
tp5103
a(g4650
(S't\x08\x00\x00\x00Services'
tRp5104
I00
S'http://www.web2py.com/book/default/chapter/10'
p5105
tp5106
a(g4650
(S's\x0c\x00\x00\x00Ajax Recipes'
tRp5107
I00
S'http://www.web2py.com/book/default/chapter/11'
p5108
tp5109
a(g4650
(S's\x16\x00\x00\x00Components and Plugins'
tRp5110
I00
S'http://www.web2py.com/book/default/chapter/12'
p5111
tp5112
a(g4650
(S's\x12\x00\x00\x00Deployment Recipes'
tRp5113
I00
S'http://www.web2py.com/book/default/chapter/13'
p5114
tp5115
a(g4650
(S's\r\x00\x00\x00Other Recipes'
tRp5116
I00
S'http://www.web2py.com/book/default/chapter/14'
p5117
tp5118
a(g4650
(S's\r\x00\x00\x00Buy this book'
tRp5119
I00
S'http://stores.lulu.com/web2py'
p5120
tp5121
aasbasbasbasbasbasbasbag68
(g84
g70
NtRp5122
(dp5123
g73
(dp5124
sg82
g4764
sg75
(lp5125
g68
(g89
g70
NtRp5126
(dp5127
g73
(dp5128
sg82
g5122
sg75
(lp5129
g68
(g69
g70
NtRp5130
(dp5131
g73
(dp5132
g81
I2
ssg82
g5126
sg75
(lp5133
g68
(g77
g70
NtRp5134
(dp5135
g73
(dp5136
g81
I1
ssg82
Nsg75
(lp5137
g68
(g84
g70
NtRp5138
(dp5139
g73
(dp5140
sg82
g5134
sg75
(lp5141
g68
(g89
g70
NtRp5142
(dp5143
g73
(dp5144
sg82
g5138
sg75
(lp5145
g68
(g69
g70
NtRp5146
(dp5147
g73
(dp5148
g81
I1
ssg82
g5142
sg75
(lp5149
g4650
(S't\t\x00\x00\x00Community'
tRp5150
asbasbasbag68
(g84
g70
NtRp5151
(dp5152
g73
(dp5153
sg82
g5134
sg75
(lp5154
g68
(g89
g70
NtRp5155
(dp5156
g73
(dp5157
sg82
g5151
sg75
(lp5158
g68
(g69
g70
NtRp5159
(dp5160
g73
(dp5161
g81
I1
ssg82
g5155
sg75
(lp5162
I00
asbasbasbag68
(g84
g70
NtRp5163
(dp5164
g73
(dp5165
sg82
g5134
sg75
(lp5166
g68
(g89
g70
NtRp5167
(dp5168
g73
(dp5169
sg82
g5163
sg75
(lp5170
g68
(g69
g70
NtRp5171
(dp5172
g73
(dp5173
g81
I1
ssg82
g5167
sg75
(lp5174
Nasbasbasbag68
(g84
g70
NtRp5175
(dp5176
g73
(dp5177
sg82
g5134
sg75
(lp5178
g68
(g89
g70
NtRp5179
(dp5180
g73
(dp5181
sg82
g5175
sg75
(lp5182
g68
(g69
g70
NtRp5183
(dp5184
g73
(dp5185
g81
I1
ssg82
g5179
sg75
(lp5186
(lp5187
(g4650
(S't\x06\x00\x00\x00Groups'
tRp5188
I00
S'http://www.web2py.com/examples/default/usergroups'
p5189
tp5190
a(g4650
(S't\x07\x00\x00\x00Twitter'
tRp5191
I00
S'http://twitter.com/web2py'
p5192
tp5193
a(g4650
(S's\t\x00\x00\x00Live Chat'
tRp5194
I00
S'http://webchat.freenode.net/?channels=web2py'
p5195
tp5196
aasbasbasbasbasbasbasbag68
(g84
g70
NtRp5197
(dp5198
g73
(dp5199
sg82
g4764
sg75
(lp5200
g68
(g89
g70
NtRp5201
(dp5202
g73
(dp5203
sg82
g5197
sg75
(lp5204
g68
(g69
g70
NtRp5205
(dp5206
g73
(dp5207
g81
I2
ssg82
g5201
sg75
(lp5208
g68
(g77
g70
NtRp5209
(dp5210
g73
(dp5211
g81
I1
ssg82
Nsg75
(lp5212
g68
(g84
g70
NtRp5213
(dp5214
g73
(dp5215
sg82
g5209
sg75
(lp5216
g68
(g89
g70
NtRp5217
(dp5218
g73
(dp5219
sg82
g5213
sg75
(lp5220
g68
(g69
g70
NtRp5221
(dp5222
g73
(dp5223
g81
I1
ssg82
g5217
sg75
(lp5224
g4650
(S't\x07\x00\x00\x00Plugins'
tRp5225
asbasbasbag68
(g84
g70
NtRp5226
(dp5227
g73
(dp5228
sg82
g5209
sg75
(lp5229
g68
(g89
g70
NtRp5230
(dp5231
g73
(dp5232
sg82
g5226
sg75
(lp5233
g68
(g69
g70
NtRp5234
(dp5235
g73
(dp5236
g81
I1
ssg82
g5230
sg75
(lp5237
I00
asbasbasbag68
(g84
g70
NtRp5238
(dp5239
g73
(dp5240
sg82
g5209
sg75
(lp5241
g68
(g89
g70
NtRp5242
(dp5243
g73
(dp5244
sg82
g5238
sg75
(lp5245
g68
(g69
g70
NtRp5246
(dp5247
g73
(dp5248
g81
I1
ssg82
g5242
sg75
(lp5249
Nasbasbasbag68
(g84
g70
NtRp5250
(dp5251
g73
(dp5252
sg82
g5209
sg75
(lp5253
g68
(g89
g70
NtRp5254
(dp5255
g73
(dp5256
sg82
g5250
sg75
(lp5257
g68
(g69
g70
NtRp5258
(dp5259
g73
(dp5260
g81
I1
ssg82
g5254
sg75
(lp5261
(lp5262
(S'plugin_wiki'
p5263
I00
S'http://web2py.com/examples/default/download'
p5264
tp5265
a(g4650
(S's\r\x00\x00\x00Other Plugins'
tRp5266
I00
g4996
tp5267
a(g4650
(S's\x0e\x00\x00\x00Layout Plugins'
tRp5268
I00
g4999
tp5269
aasbasbasbasbasbasbasbasbasbasbasbasbasbasbasbasbasbasbasbag68
(g84
g70
NtRp5270
(dp5271
g73
(dp5272
sg82
g4160
sg75
(lp5273
g68
(g89
g70
NtRp5274
(dp5275
g73
(dp5276
g93
g94
ssg82
g5270
sg75
(lp5277
S'meta'
p5278
asbag68
(g89
g70
NtRp5279
(dp5280
g73
(dp5281
g100
g101
ssg82
g5270
sg75
(lp5282
S':'
asbag68
(g89
g70
NtRp5283
(dp5284
g73
(dp5285
sg82
g5270
sg75
(lp5286
g68
(g69
g70
NtRp5287
(dp5288
g73
(dp5289
g81
I5
ssg82
g5283
sg75
(lp5290
g68
(g77
g70
NtRp5291
(dp5292
g73
(dp5293
g81
I4
ssg82
Nsg75
(lp5294
g68
(g84
g70
NtRp5295
(dp5296
g73
(dp5297
sg82
g5291
sg75
(lp5298
g68
(g89
g70
NtRp5299
(dp5300
g73
(dp5301
g93
g94
ssg82
g5295
sg75
(lp5302
S'author'
p5303
asbag68
(g89
g70
NtRp5304
(dp5305
g73
(dp5306
g100
g101
ssg82
g5295
sg75
(lp5307
S':'
asbag68
(g89
g70
NtRp5308
(dp5309
g73
(dp5310
sg82
g5295
sg75
(lp5311
g68
(g69
g70
NtRp5312
(dp5313
g73
(dp5314
g81
I4
ssg82
g5308
sg75
(lp5315
S'Your Name <you@example.com>'
p5316
asbasbasbag68
(g84
g70
NtRp5317
(dp5318
g73
(dp5319
sg82
g5291
sg75
(lp5320
g68
(g89
g70
NtRp5321
(dp5322
g73
(dp5323
g93
g94
ssg82
g5317
sg75
(lp5324
S'copyright'
p5325
asbag68
(g89
g70
NtRp5326
(dp5327
g73
(dp5328
g100
g101
ssg82
g5317
sg75
(lp5329
S':'
asbag68
(g89
g70
NtRp5330
(dp5331
g73
(dp5332
sg82
g5317
sg75
(lp5333
g68
(g69
g70
NtRp5334
(dp5335
g73
(dp5336
g81
I4
ssg82
g5330
sg75
(lp5337
S'Copyright 2011'
p5338
asbasbasbag68
(g84
g70
NtRp5339
(dp5340
g73
(dp5341
sg82
g5291
sg75
(lp5342
g68
(g89
g70
NtRp5343
(dp5344
g73
(dp5345
g93
g94
ssg82
g5339
sg75
(lp5346
S'description'
p5347
asbag68
(g89
g70
NtRp5348
(dp5349
g73
(dp5350
g100
g101
ssg82
g5339
sg75
(lp5351
S':'
asbag68
(g89
g70
NtRp5352
(dp5353
g73
(dp5354
sg82
g5339
sg75
(lp5355
g68
(g69
g70
NtRp5356
(dp5357
g73
(dp5358
g81
I4
ssg82
g5352
sg75
(lp5359
S'a cool new app'
p5360
asbasbasbag68
(g84
g70
NtRp5361
(dp5362
g73
(dp5363
sg82
g5291
sg75
(lp5364
g68
(g89
g70
NtRp5365
(dp5366
g73
(dp5367
g93
g94
ssg82
g5361
sg75
(lp5368
S'generator'
p5369
asbag68
(g89
g70
NtRp5370
(dp5371
g73
(dp5372
g100
g101
ssg82
g5361
sg75
(lp5373
S':'
asbag68
(g89
g70
NtRp5374
(dp5375
g73
(dp5376
sg82
g5361
sg75
(lp5377
g68
(g69
g70
NtRp5378
(dp5379
g73
(dp5380
g81
I4
ssg82
g5374
sg75
(lp5381
S'Web2py Web Framework'
p5382
asbasbasbag68
(g84
g70
NtRp5383
(dp5384
g73
(dp5385
sg82
g5291
sg75
(lp5386
g68
(g89
g70
NtRp5387
(dp5388
g73
(dp5389
g93
g94
ssg82
g5383
sg75
(lp5390
S'keywords'
p5391
asbag68
(g89
g70
NtRp5392
(dp5393
g73
(dp5394
g100
g101
ssg82
g5383
sg75
(lp5395
S':'
asbag68
(g89
g70
NtRp5396
(dp5397
g73
(dp5398
sg82
g5383
sg75
(lp5399
g68
(g69
g70
NtRp5400
(dp5401
g73
(dp5402
g81
I4
ssg82
g5396
sg75
(lp5403
S'web2py, python, framework'
p5404
asbasbasbasbasbasbasbag68
(g84
g70
NtRp5405
(dp5406
g73
(dp5407
sg82
g4160
sg75
(lp5408
g68
(g89
g70
NtRp5409
(dp5410
g73
(dp5411
g93
g94
ssg82
g5405
sg75
(lp5412
S'models_to_run'
p5413
asbag68
(g89
g70
NtRp5414
(dp5415
g73
(dp5416
g100
g101
ssg82
g5405
sg75
(lp5417
S':'
asbag68
(g89
g70
NtRp5418
(dp5419
g73
(dp5420
sg82
g5405
sg75
(lp5421
g68
(g69
g70
NtRp5422
(dp5423
g73
(dp5424
g81
I5
ssg82
g5418
sg75
(lp5425
g68
(g77
g70
NtRp5426
(dp5427
g73
(dp5428
g81
I4
ssg82
Nsg75
(lp5429
g68
(g84
g70
NtRp5430
(dp5431
g73
(dp5432
sg82
g5426
sg75
(lp5433
g68
(g89
g70
NtRp5434
(dp5435
g73
(dp5436
sg82
g5430
sg75
(lp5437
g68
(g69
g70
NtRp5438
(dp5439
g73
(dp5440
g81
I4
ssg82
g5434
sg75
(lp5441
S'^\\w+\\.py$'
p5442
asbasbasbag68
(g84
g70
NtRp5443
(dp5444
g73
(dp5445
sg82
g5426
sg75
(lp5446
g68
(g89
g70
NtRp5447
(dp5448
g73
(dp5449
sg82
g5443
sg75
(lp5450
g68
(g69
g70
NtRp5451
(dp5452
g73
(dp5453
g81
I4
ssg82
g5447
sg75
(lp5454
S'^default/\\w+\\.py$'
p5455
asbasbasbag68
(g84
g70
NtRp5456
(dp5457
g73
(dp5458
sg82
g5426
sg75
(lp5459
g68
(g89
g70
NtRp5460
(dp5461
g73
(dp5462
sg82
g5456
sg75
(lp5463
g68
(g69
g70
NtRp5464
(dp5465
g73
(dp5466
g81
I4
ssg82
g5460
sg75
(lp5467
S'^default/disp_adv/\\w+\\.py$'
p5468
asbasbasbasbasbasbasbag68
(g84
g70
NtRp5469
(dp5470
g73
(dp5471
sg82
g4160
sg75
(lp5472
g68
(g89
g70
NtRp5473
(dp5474
g73
(dp5475
g93
g94
ssg82
g5469
sg75
(lp5476
S'postprocessing'
p5477
asbag68
(g89
g70
NtRp5478
(dp5479
g73
(dp5480
g100
g101
ssg82
g5469
sg75
(lp5481
S':'
asbag68
(g89
g70
NtRp5482
(dp5483
g73
(dp5484
sg82
g5469
sg75
(lp5485
g68
(g69
g70
NtRp5486
(dp5487
g73
(dp5488
g81
I5
ssg82
g5482
sg75
(lp5489
g68
(g77
g70
NtRp5490
(dp5491
g73
(dp5492
g81
I4
ssg82
Nsg75
(lp5493
sbasbasbasbag68
(g84
g70
NtRp5494
(dp5495
g73
(dp5496
sg82
g4160
sg75
(lp5497
g68
(g89
g70
NtRp5498
(dp5499
g73
(dp5500
g93
g94
ssg82
g5494
sg75
(lp5501
S'session_cookie_expires'
p5502
asbag68
(g89
g70
NtRp5503
(dp5504
g73
(dp5505
g100
g101
ssg82
g5494
sg75
(lp5506
S':'
asbag68
(g89
g70
NtRp5507
(dp5508
g73
(dp5509
sg82
g5494
sg75
(lp5510
g68
(g69
g70
NtRp5511
(dp5512
g73
(dp5513
g81
I5
ssg82
g5507
sg75
(lp5514
S'None'
p5515
asbasbasbag68
(g84
g70
NtRp5516
(dp5517
g73
(dp5518
sg82
g4160
sg75
(lp5519
g68
(g89
g70
NtRp5520
(dp5521
g73
(dp5522
g93
g94
ssg82
g5516
sg75
(lp5523
S'session_data_name'
p5524
asbag68
(g89
g70
NtRp5525
(dp5526
g73
(dp5527
g100
g101
ssg82
g5516
sg75
(lp5528
S':'
asbag68
(g89
g70
NtRp5529
(dp5530
g73
(dp5531
sg82
g5516
sg75
(lp5532
g68
(g69
g70
NtRp5533
(dp5534
g73
(dp5535
g81
I5
ssg82
g5529
sg75
(lp5536
S'session_data_wsd'
p5537
asbasbasbag68
(g84
g70
NtRp5538
(dp5539
g73
(dp5540
sg82
g4160
sg75
(lp5541
g68
(g89
g70
NtRp5542
(dp5543
g73
(dp5544
g93
g94
ssg82
g5538
sg75
(lp5545
S'session_file'
p5546
asbag68
(g89
g70
NtRp5547
(dp5548
g73
(dp5549
g100
g101
ssg82
g5538
sg75
(lp5550
S':'
asbag68
(g89
g70
NtRp5551
(dp5552
g73
(dp5553
sg82
g5538
sg75
(lp5554
g68
(g69
g70
NtRp5555
(dp5556
g73
(dp5557
g81
I5
ssg82
g5551
sg75
(lp5558
S"<open file '/home/nazrul/web2py/applications/WSD/sessions/127.0.0.1-d76d2f66-a702-4d08-8b16-65a16f46815e', mode 'rb+' at 0xacdba808>"
p5559
asbasbasbag68
(g84
g70
NtRp5560
(dp5561
g73
(dp5562
sg82
g4160
sg75
(lp5563
g68
(g89
g70
NtRp5564
(dp5565
g73
(dp5566
g93
g94
ssg82
g5560
sg75
(lp5567
S'session_filename'
p5568
asbag68
(g89
g70
NtRp5569
(dp5570
g73
(dp5571
g100
g101
ssg82
g5560
sg75
(lp5572
S':'
asbag68
(g89
g70
NtRp5573
(dp5574
g73
(dp5575
sg82
g5560
sg75
(lp5576
g68
(g69
g70
NtRp5577
(dp5578
g73
(dp5579
g81
I5
ssg82
g5573
sg75
(lp5580
S'/home/nazrul/web2py/applications/WSD/sessions/127.0.0.1-d76d2f66-a702-4d08-8b16-65a16f46815e'
p5581
asbasbasbag68
(g84
g70
NtRp5582
(dp5583
g73
(dp5584
sg82
g4160
sg75
(lp5585
g68
(g89
g70
NtRp5586
(dp5587
g73
(dp5588
g93
g94
ssg82
g5582
sg75
(lp5589
S'session_id'
p5590
asbag68
(g89
g70
NtRp5591
(dp5592
g73
(dp5593
g100
g101
ssg82
g5582
sg75
(lp5594
S':'
asbag68
(g89
g70
NtRp5595
(dp5596
g73
(dp5597
sg82
g5582
sg75
(lp5598
g68
(g69
g70
NtRp5599
(dp5600
g73
(dp5601
g81
I5
ssg82
g5595
sg75
(lp5602
g1044
asbasbasbag68
(g84
g70
NtRp5603
(dp5604
g73
(dp5605
sg82
g4160
sg75
(lp5606
g68
(g89
g70
NtRp5607
(dp5608
g73
(dp5609
g93
g94
ssg82
g5603
sg75
(lp5610
S'session_id_name'
p5611
asbag68
(g89
g70
NtRp5612
(dp5613
g73
(dp5614
g100
g101
ssg82
g5603
sg75
(lp5615
S':'
asbag68
(g89
g70
NtRp5616
(dp5617
g73
(dp5618
sg82
g5603
sg75
(lp5619
g68
(g69
g70
NtRp5620
(dp5621
g73
(dp5622
g81
I5
ssg82
g5616
sg75
(lp5623
g4217
asbasbasbag68
(g84
g70
NtRp5624
(dp5625
g73
(dp5626
sg82
g4160
sg75
(lp5627
g68
(g89
g70
NtRp5628
(dp5629
g73
(dp5630
g93
g94
ssg82
g5624
sg75
(lp5631
S'session_locked'
p5632
asbag68
(g89
g70
NtRp5633
(dp5634
g73
(dp5635
g100
g101
ssg82
g5624
sg75
(lp5636
S':'
asbag68
(g89
g70
NtRp5637
(dp5638
g73
(dp5639
sg82
g5624
sg75
(lp5640
g68
(g69
g70
NtRp5641
(dp5642
g73
(dp5643
g81
I5
ssg82
g5637
sg75
(lp5644
g2132
asbasbasbag68
(g84
g70
NtRp5645
(dp5646
g73
(dp5647
sg82
g4160
sg75
(lp5648
g68
(g89
g70
NtRp5649
(dp5650
g73
(dp5651
g93
g94
ssg82
g5645
sg75
(lp5652
S'session_new'
p5653
asbag68
(g89
g70
NtRp5654
(dp5655
g73
(dp5656
g100
g101
ssg82
g5645
sg75
(lp5657
S':'
asbag68
(g89
g70
NtRp5658
(dp5659
g73
(dp5660
sg82
g5645
sg75
(lp5661
g68
(g69
g70
NtRp5662
(dp5663
g73
(dp5664
g81
I5
ssg82
g5658
sg75
(lp5665
g111
asbasbasbag68
(g84
g70
NtRp5666
(dp5667
g73
(dp5668
sg82
g4160
sg75
(lp5669
g68
(g89
g70
NtRp5670
(dp5671
g73
(dp5672
g93
g94
ssg82
g5666
sg75
(lp5673
S'session_storage_type'
p5674
asbag68
(g89
g70
NtRp5675
(dp5676
g73
(dp5677
g100
g101
ssg82
g5666
sg75
(lp5678
S':'
asbag68
(g89
g70
NtRp5679
(dp5680
g73
(dp5681
sg82
g5666
sg75
(lp5682
g68
(g69
g70
NtRp5683
(dp5684
g73
(dp5685
g81
I5
ssg82
g5679
sg75
(lp5686
g3583
asbasbasbag68
(g84
g70
NtRp5687
(dp5688
g73
(dp5689
sg82
g4160
sg75
(lp5690
g68
(g89
g70
NtRp5691
(dp5692
g73
(dp5693
g93
g94
ssg82
g5687
sg75
(lp5694
S'status'
p5695
asbag68
(g89
g70
NtRp5696
(dp5697
g73
(dp5698
g100
g101
ssg82
g5687
sg75
(lp5699
S':'
asbag68
(g89
g70
NtRp5700
(dp5701
g73
(dp5702
sg82
g5687
sg75
(lp5703
g68
(g69
g70
NtRp5704
(dp5705
g73
(dp5706
g81
I5
ssg82
g5700
sg75
(lp5707
S'200'
p5708
asbasbasbag68
(g84
g70
NtRp5709
(dp5710
g73
(dp5711
sg82
g4160
sg75
(lp5712
g68
(g89
g70
NtRp5713
(dp5714
g73
(dp5715
g93
g94
ssg82
g5709
sg75
(lp5716
S'subtitle'
p5717
asbag68
(g89
g70
NtRp5718
(dp5719
g73
(dp5720
g100
g101
ssg82
g5709
sg75
(lp5721
S':'
asbag68
(g89
g70
NtRp5722
(dp5723
g73
(dp5724
sg82
g5709
sg75
(lp5725
g68
(g69
g70
NtRp5726
(dp5727
g73
(dp5728
g81
I5
ssg82
g5722
sg75
(lp5729
g4650
(S's\r\x00\x00\x00customize me!'
tRp5730
asbasbasbag68
(g84
g70
NtRp5731
(dp5732
g73
(dp5733
sg82
g4160
sg75
(lp5734
g68
(g89
g70
NtRp5735
(dp5736
g73
(dp5737
g93
g94
ssg82
g5731
sg75
(lp5738
S'title'
p5739
asbag68
(g89
g70
NtRp5740
(dp5741
g73
(dp5742
g100
g101
ssg82
g5731
sg75
(lp5743
S':'
asbag68
(g89
g70
NtRp5744
(dp5745
g73
(dp5746
sg82
g5731
sg75
(lp5747
g68
(g69
g70
NtRp5748
(dp5749
g73
(dp5750
g81
I5
ssg82
g5744
sg75
(lp5751
S'Wsd'
p5752
asbasbasbag68
(g84
g70
NtRp5753
(dp5754
g73
(dp5755
sg82
g4160
sg75
(lp5756
g68
(g89
g70
NtRp5757
(dp5758
g73
(dp5759
g93
g94
ssg82
g5753
sg75
(lp5760
S'view'
p5761
asbag68
(g89
g70
NtRp5762
(dp5763
g73
(dp5764
g100
g101
ssg82
g5753
sg75
(lp5765
S':'
asbag68
(g89
g70
NtRp5766
(dp5767
g73
(dp5768
sg82
g5753
sg75
(lp5769
g68
(g69
g70
NtRp5770
(dp5771
g73
(dp5772
g81
I5
ssg82
g5766
sg75
(lp5773
S'default/disp_adv.html'
p5774
asbasbasbasbasbsS'locals'
p5775
(dp5776
g4
S"'/home/nazrul/web2py/applications/WSD/views/default/disp_adv.html'"
p5777
sg6
S'\'response.write(\\\'<!DOCTYPE html PUBLIC "-//W3C//D...d footer -->\\\\n </body>\\\\n</html>\\\\n\\\', escape=False)\''
p5778
sssS'traceback'
p5779
S'Traceback (most recent call last):\n  File "/home/nazrul/web2py/gluon/restricted.py", line 211, in restricted\n    ccode = compile2(code, layer)\n  File "/home/nazrul/web2py/gluon/restricted.py", line 194, in compile2\n    return compile(code.rstrip().replace(\'\\r\\n\', \'\\n\') + \'\\n\', layer, \'exec\')\n  File "/home/nazrul/web2py/applications/WSD/views/default/disp_adv.html", line 44\n    h3>\n      ^\nSyntaxError: invalid syntax\n'
p5780
s.