(dp1
S'relation'
p2
(dp3
S'length'
p4
I512
sS'unique'
p5
I00
sS'sortable'
p6
I3
sS'sql'
p7
S'CHAR(512)'
p8
sS'notnull'
p9
I00
sS'type'
p10
S'string'
p11
ssS'property'
p12
(dp13
g4
I512
sg5
I00
sg6
I4
sg7
S'CHAR(512)'
p14
sg9
I00
sg10
g11
ssg10
(dp15
g4
I512
sg5
I00
sg6
I2
sg7
S'CHAR(512)'
p16
sg9
I00
sg10
g11
ssS'id'
p17
(dp18
g4
I512
sg5
I00
sg6
I1
sg7
S'INTEGER PRIMARY KEY AUTOINCREMENT'
p19
sg9
I00
sg10
g17
ss.